(dp1
S'output'
p2
S"<class 'sqlalchemy.exc.OperationalError'> (OperationalError) FATAL:  remaining connection slots are reserved for non-replication superuser connections\n None None"
p3
sS'layer'
p4
S'/home/goshawk/web2py/applications/milo/models/db.py'
p5
sS'code'
p6
S"# -*- coding: utf-8 -*-\n\n#########################################################################\n## This scaffolding model makes your app work on Google App Engine too\n## File is released under public domain and you can use without limitations\n#########################################################################\n\n## if SSL/HTTPS is properly configured and you want all HTTP requests to\n## be redirected to HTTPS, uncomment the line below:\n# request.requires_https()\n\nif not request.env.web2py_runtime_gae:\n    ## if NOT running on Google App Engine use SQLite or other DB\n    db = DAL('postgres://milo:milosecret@localhost/milo-reloaded')\nelse:\n    ## connect to Google BigTable (optional 'google:datastore://namespace')\n    db = DAL('google:datastore')\n    ## store sessions and tickets there\n    session.connect(request, response, db = db)\n    ## or store session in Memcache, Redis, etc.\n    ## from gluon.contrib.memdb import MEMDB\n    ## from google.appengine.api.memcache import Client\n    ## session.connect(request, response, db = MEMDB(Client()))\n\n## by default give a view/generic.extension to all actions from localhost\n## none otherwise. a pattern can be 'controller/function.extension'\nresponse.generic_patterns = ['*'] if request.is_local else []\n## (optional) optimize handling of static files\n# response.optimize_css = 'concat,minify,inline'\n# response.optimize_js = 'concat,minify,inline'\n\n#########################################################################\n## Here is sample code if you need for\n## - email capabilities\n## - authentication (registration, login, logout, ... )\n## - authorization (role based authorization)\n## - services (xml, csv, json, xmlrpc, jsonrpc, amf, rss)\n## - old style crud actions\n## (more options discussed in gluon/tools.py)\n#########################################################################\n\nfrom gluon.tools import Auth, Crud, Service, PluginManager, prettydate\nauth = Auth(db, hmac_key=Auth.get_or_create_key())\ncrud, service, plugins = Crud(db), Service(), PluginManager()\n\n## create all tables needed by auth if not custom tables\nauth.define_tables()\n\n## configure email\nmail=auth.settings.mailer\nmail.settings.server = 'logging' or 'smtp.gmail.com:587'\nmail.settings.sender = 'you@gmail.com'\nmail.settings.login = 'username:password'\n\n## configure auth policy\nauth.settings.registration_requires_verification = False\nauth.settings.registration_requires_approval = False\nauth.settings.reset_password_requires_verification = True\n\n## if you need to use OpenID, Facebook, MySpace, Twitter, Linkedin, etc.\n## register with janrain.com, write your domain:api_key in private/janrain.key\nfrom gluon.contrib.login_methods.rpx_account import use_janrain\nuse_janrain(auth,filename='private/janrain.key')\n\n#########################################################################\n## Define your tables below (or better in another model file) for example\n##\n## >>> db.define_table('mytable',Field('myfield','string'))\n##\n## Fields can be 'string','text','password','integer','double','boolean'\n##       'date','time','datetime','blob','upload', 'reference TABLENAME'\n## There is an implicit 'id integer autoincrement' field\n## Consult manual for more options, validators, etc.\n##\n## More API examples for controllers:\n##\n## >>> db.mytable.insert(myfield='value')\n## >>> rows=db(db.mytable.myfield=='value').select(db.mytable.ALL)\n## >>> for row in rows: print row.id, row.myfield\n#########################################################################\n\nimport imdb\n\nimdb_connection_str = 'postgres://imdb:imdbsecret@localhost/imdb'\n\nim = imdb.IMDb('sql', uri=imdb_connection_str)\n\n\ndb.define_table('users',\n        Field('name'),\n        Field('email'),\n        Field('imdb_id', 'integer')\n        )\n\ndb.define_table('movies',\n        Field('imdb_id', 'integer')\n        )\n\ndb.define_table('ratings',\n        Field('iuser', db.users, requires = IS_IN_DB(db,'users.id',db.users._format)),\n        Field('imovie', db.movies, requires = IS_IN_DB(db,'movies.id',db.movies._format)),\n        Field('rating', 'double')\n        )\n\n\n#for x in db(db.ratings).select(db.ratings.ALL):\n#    for y in db(db.ratings.id>x.id).select(db.ratings.ALL):\n#        if y.iuser == x.iuser and y.imovie == x.imovie:\n#            y.delete_record()\n#    db.commit()\n\n#run only once\n#db.executesql('CREATE UNIQUE INDEX iuser_imovie ON ratings (iuser,imovie);')\n\n\ndb.define_table('features',\n        Field('name'),\n        Field('type')\n        )\n\ndb.define_table('movies_features',\n        Field('movie', db.movies, requires = IS_IN_DB(db,'movies.id',db.movies._format)),\n        Field('feature', db.features, requires = IS_IN_DB(db,'features.id',db.features._format)),\n        Field('times', 'integer')\n        )\n"
p7
sS'snapshot'
p8
(dp9
S'exception'
p10
(dp11
S'__module__'
p12
S"'sqlalchemy.exc'"
p13
sS'__getslice__'
p14
S"<method-wrapper '__getslice__' of OperationalError object>"
p15
sS'__str__'
p16
S"<bound method OperationalError.__str__ of Operat...d for non-replication superuser connections\\n',)>"
p17
sS'__reduce__'
p18
S'<built-in method __reduce__ of OperationalError object>'
p19
sS'__dict__'
p20
S"{'connection_invalidated': False, 'orig': OperationalError('FATAL:  remaining connection s...ed for non-replication superuser connections\\n',), 'params': None, 'statement': None}"
p21
sS'__sizeof__'
p22
S'<built-in method __sizeof__ of OperationalError object>'
p23
sS'__weakref__'
p24
S'None'
p25
sS'__init__'
p26
S"<bound method OperationalError.__init__ of Opera...d for non-replication superuser connections\\n',)>"
p27
sS'orig'
p28
S"OperationalError('FATAL:  remaining connection s...ed for non-replication superuser connections\\n',)"
p29
sS'__setattr__'
p30
S"<method-wrapper '__setattr__' of OperationalError object>"
p31
sS'__reduce_ex__'
p32
S'<built-in method __reduce_ex__ of OperationalError object>'
p33
sS'__new__'
p34
S'<built-in method __new__ of type object>'
p35
sS'__format__'
p36
S'<built-in method __format__ of OperationalError object>'
p37
sS'__class__'
p38
S"<class 'sqlalchemy.exc.OperationalError'>"
p39
sS'instance'
p40
S"<bound method type.instance of <class 'sqlalchemy.exc.OperationalError'>>"
p41
sS'params'
p42
S'None'
p43
sS'statement'
p44
S'None'
p45
sS'__doc__'
p46
S"'Wraps a DB-API OperationalError.'"
p47
sS'connection_invalidated'
p48
S'False'
p49
sS'__getitem__'
p50
S"<method-wrapper '__getitem__' of OperationalError object>"
p51
sS'__setstate__'
p52
S'<built-in method __setstate__ of OperationalError object>'
p53
sS'__getattribute__'
p54
S"<method-wrapper '__getattribute__' of OperationalError object>"
p55
sS'args'
p56
S"('(OperationalError) FATAL:  remaining connection ...served for non-replication superuser connections\\n',)"
p57
sS'__subclasshook__'
p58
S'<built-in method __subclasshook__ of type object>'
p59
sS'__unicode__'
p60
S'<built-in method __unicode__ of OperationalError object>'
p61
sS'__delattr__'
p62
S"<method-wrapper '__delattr__' of OperationalError object>"
p63
sS'__repr__'
p64
S"<method-wrapper '__repr__' of OperationalError object>"
p65
sS'__hash__'
p66
S"<method-wrapper '__hash__' of OperationalError object>"
p67
ssS'evalue'
p68
S'(OperationalError) FATAL:  remaining connection slots are reserved for non-replication superuser connections\n None None'
p69
sS'request'
p70
ccopy_reg
_reconstructor
p71
(cgluon.html
BEAUTIFY
p72
c__builtin__
object
p73
NtRp74
(dp75
S'attributes'
p76
(dp77
sS'components'
p78
(lp79
g71
(cgluon.html
TABLE
p80
g73
NtRp81
(dp82
g76
(dp83
S'level'
p84
I5
ssS'parent'
p85
Nsg78
(lp86
g71
(cgluon.html
TR
p87
g73
NtRp88
(dp89
g76
(dp90
sg85
g81
sg78
(lp91
g71
(cgluon.html
TD
p92
g73
NtRp93
(dp94
g76
(dp95
S'_style'
p96
S'font-weight:bold;vertical-align:top'
p97
ssg85
g88
sg78
(lp98
S'ajax'
p99
asbag71
(g92
g73
NtRp100
(dp101
g76
(dp102
S'_valign'
p103
S'top'
p104
ssg85
g88
sg78
(lp105
S':'
asbag71
(g92
g73
NtRp106
(dp107
g76
(dp108
sg85
g88
sg78
(lp109
g71
(g72
g73
NtRp110
(dp111
g76
(dp112
g84
I5
ssg85
g106
sg78
(lp113
S'True'
p114
asbasbasbag71
(g87
g73
NtRp115
(dp116
g76
(dp117
sg85
g81
sg78
(lp118
g71
(g92
g73
NtRp119
(dp120
g76
(dp121
g96
g97
ssg85
g115
sg78
(lp122
S'application'
p123
asbag71
(g92
g73
NtRp124
(dp125
g76
(dp126
g103
g104
ssg85
g115
sg78
(lp127
S':'
asbag71
(g92
g73
NtRp128
(dp129
g76
(dp130
sg85
g115
sg78
(lp131
g71
(g72
g73
NtRp132
(dp133
g76
(dp134
g84
I5
ssg85
g128
sg78
(lp135
S'milo'
p136
asbasbasbag71
(g87
g73
NtRp137
(dp138
g76
(dp139
sg85
g81
sg78
(lp140
g71
(g92
g73
NtRp141
(dp142
g76
(dp143
g96
g97
ssg85
g137
sg78
(lp144
g56
asbag71
(g92
g73
NtRp145
(dp146
g76
(dp147
g103
g104
ssg85
g137
sg78
(lp148
S':'
asbag71
(g92
g73
NtRp149
(dp150
g76
(dp151
sg85
g137
sg78
(lp152
g71
(g72
g73
NtRp153
(dp154
g76
(dp155
g84
I5
ssg85
g149
sg78
(lp156
g71
(g80
g73
NtRp157
(dp158
g76
(dp159
g84
I4
ssg85
Nsg78
(lp160
g71
(g87
g73
NtRp161
(dp162
g76
(dp163
sg85
g157
sg78
(lp164
g71
(g92
g73
NtRp165
(dp166
g76
(dp167
sg85
g161
sg78
(lp168
g71
(g72
g73
NtRp169
(dp170
g76
(dp171
g84
I4
ssg85
g165
sg78
(lp172
S'CosNgbr_II'
p173
asbasbasbasbasbasbasbag71
(g87
g73
NtRp174
(dp175
g76
(dp176
sg85
g81
sg78
(lp177
g71
(g92
g73
NtRp178
(dp179
g76
(dp180
g96
g97
ssg85
g174
sg78
(lp181
S'body'
p182
asbag71
(g92
g73
NtRp183
(dp184
g76
(dp185
g103
g104
ssg85
g174
sg78
(lp186
S':'
asbag71
(g92
g73
NtRp187
(dp188
g76
(dp189
sg85
g174
sg78
(lp190
g71
(g72
g73
NtRp191
(dp192
g76
(dp193
g84
I5
ssg85
g187
sg78
(lp194
S'<cStringIO.StringO object at 0x7f43d87e9490>'
p195
asbasbasbag71
(g87
g73
NtRp196
(dp197
g76
(dp198
sg85
g81
sg78
(lp199
g71
(g92
g73
NtRp200
(dp201
g76
(dp202
g96
g97
ssg85
g196
sg78
(lp203
S'client'
p204
asbag71
(g92
g73
NtRp205
(dp206
g76
(dp207
g103
g104
ssg85
g196
sg78
(lp208
S':'
asbag71
(g92
g73
NtRp209
(dp210
g76
(dp211
sg85
g196
sg78
(lp212
g71
(g72
g73
NtRp213
(dp214
g76
(dp215
g84
I5
ssg85
g209
sg78
(lp216
S'127.0.0.1'
p217
asbasbasbag71
(g87
g73
NtRp218
(dp219
g76
(dp220
sg85
g81
sg78
(lp221
g71
(g92
g73
NtRp222
(dp223
g76
(dp224
g96
g97
ssg85
g218
sg78
(lp225
S'controller'
p226
asbag71
(g92
g73
NtRp227
(dp228
g76
(dp229
g103
g104
ssg85
g218
sg78
(lp230
S':'
asbag71
(g92
g73
NtRp231
(dp232
g76
(dp233
sg85
g218
sg78
(lp234
g71
(g72
g73
NtRp235
(dp236
g76
(dp237
g84
I5
ssg85
g231
sg78
(lp238
S'admin'
p239
asbasbasbag71
(g87
g73
NtRp240
(dp241
g76
(dp242
sg85
g81
sg78
(lp243
g71
(g92
g73
NtRp244
(dp245
g76
(dp246
g96
g97
ssg85
g240
sg78
(lp247
S'cookies'
p248
asbag71
(g92
g73
NtRp249
(dp250
g76
(dp251
g103
g104
ssg85
g240
sg78
(lp252
S':'
asbag71
(g92
g73
NtRp253
(dp254
g76
(dp255
sg85
g240
sg78
(lp256
g71
(g72
g73
NtRp257
(dp258
g76
(dp259
g84
I5
ssg85
g253
sg78
(lp260
g71
(g80
g73
NtRp261
(dp262
g76
(dp263
g84
I4
ssg85
Nsg78
(lp264
g71
(g87
g73
NtRp265
(dp266
g76
(dp267
sg85
g261
sg78
(lp268
g71
(g92
g73
NtRp269
(dp270
g76
(dp271
g96
g97
ssg85
g265
sg78
(lp272
S'session_id_milo'
p273
asbag71
(g92
g73
NtRp274
(dp275
g76
(dp276
g103
g104
ssg85
g265
sg78
(lp277
S':'
asbag71
(g92
g73
NtRp278
(dp279
g76
(dp280
sg85
g265
sg78
(lp281
g71
(g72
g73
NtRp282
(dp283
g76
(dp284
g84
I4
ssg85
g278
sg78
(lp285
g71
(g80
g73
NtRp286
(dp287
g76
(dp288
g84
I3
ssg85
Nsg78
(lp289
g71
(g87
g73
NtRp290
(dp291
g76
(dp292
sg85
g286
sg78
(lp293
g71
(g92
g73
NtRp294
(dp295
g76
(dp296
g96
g97
ssg85
g290
sg78
(lp297
S'comment'
p298
asbag71
(g92
g73
NtRp299
(dp300
g76
(dp301
g103
g104
ssg85
g290
sg78
(lp302
S':'
asbag71
(g92
g73
NtRp303
(dp304
g76
(dp305
sg85
g290
sg78
(lp306
g71
(g72
g73
NtRp307
(dp308
g76
(dp309
g84
I3
ssg85
g303
sg78
(lp310
S''
asbasbasbag71
(g87
g73
NtRp311
(dp312
g76
(dp313
sg85
g286
sg78
(lp314
g71
(g92
g73
NtRp315
(dp316
g76
(dp317
g96
g97
ssg85
g311
sg78
(lp318
S'domain'
p319
asbag71
(g92
g73
NtRp320
(dp321
g76
(dp322
g103
g104
ssg85
g311
sg78
(lp323
S':'
asbag71
(g92
g73
NtRp324
(dp325
g76
(dp326
sg85
g311
sg78
(lp327
g71
(g72
g73
NtRp328
(dp329
g76
(dp330
g84
I3
ssg85
g324
sg78
(lp331
S''
asbasbasbag71
(g87
g73
NtRp332
(dp333
g76
(dp334
sg85
g286
sg78
(lp335
g71
(g92
g73
NtRp336
(dp337
g76
(dp338
g96
g97
ssg85
g332
sg78
(lp339
S'expires'
p340
asbag71
(g92
g73
NtRp341
(dp342
g76
(dp343
g103
g104
ssg85
g332
sg78
(lp344
S':'
asbag71
(g92
g73
NtRp345
(dp346
g76
(dp347
sg85
g332
sg78
(lp348
g71
(g72
g73
NtRp349
(dp350
g76
(dp351
g84
I3
ssg85
g345
sg78
(lp352
S''
asbasbasbag71
(g87
g73
NtRp353
(dp354
g76
(dp355
sg85
g286
sg78
(lp356
g71
(g92
g73
NtRp357
(dp358
g76
(dp359
g96
g97
ssg85
g353
sg78
(lp360
S'httponly'
p361
asbag71
(g92
g73
NtRp362
(dp363
g76
(dp364
g103
g104
ssg85
g353
sg78
(lp365
S':'
asbag71
(g92
g73
NtRp366
(dp367
g76
(dp368
sg85
g353
sg78
(lp369
g71
(g72
g73
NtRp370
(dp371
g76
(dp372
g84
I3
ssg85
g366
sg78
(lp373
S''
asbasbasbag71
(g87
g73
NtRp374
(dp375
g76
(dp376
sg85
g286
sg78
(lp377
g71
(g92
g73
NtRp378
(dp379
g76
(dp380
g96
g97
ssg85
g374
sg78
(lp381
S'max-age'
p382
asbag71
(g92
g73
NtRp383
(dp384
g76
(dp385
g103
g104
ssg85
g374
sg78
(lp386
S':'
asbag71
(g92
g73
NtRp387
(dp388
g76
(dp389
sg85
g374
sg78
(lp390
g71
(g72
g73
NtRp391
(dp392
g76
(dp393
g84
I3
ssg85
g387
sg78
(lp394
S''
asbasbasbag71
(g87
g73
NtRp395
(dp396
g76
(dp397
sg85
g286
sg78
(lp398
g71
(g92
g73
NtRp399
(dp400
g76
(dp401
g96
g97
ssg85
g395
sg78
(lp402
S'path'
p403
asbag71
(g92
g73
NtRp404
(dp405
g76
(dp406
g103
g104
ssg85
g395
sg78
(lp407
S':'
asbag71
(g92
g73
NtRp408
(dp409
g76
(dp410
sg85
g395
sg78
(lp411
g71
(g72
g73
NtRp412
(dp413
g76
(dp414
g84
I3
ssg85
g408
sg78
(lp415
S''
asbasbasbag71
(g87
g73
NtRp416
(dp417
g76
(dp418
sg85
g286
sg78
(lp419
g71
(g92
g73
NtRp420
(dp421
g76
(dp422
g96
g97
ssg85
g416
sg78
(lp423
S'secure'
p424
asbag71
(g92
g73
NtRp425
(dp426
g76
(dp427
g103
g104
ssg85
g416
sg78
(lp428
S':'
asbag71
(g92
g73
NtRp429
(dp430
g76
(dp431
sg85
g416
sg78
(lp432
g71
(g72
g73
NtRp433
(dp434
g76
(dp435
g84
I3
ssg85
g429
sg78
(lp436
S''
asbasbasbag71
(g87
g73
NtRp437
(dp438
g76
(dp439
sg85
g286
sg78
(lp440
g71
(g92
g73
NtRp441
(dp442
g76
(dp443
g96
g97
ssg85
g437
sg78
(lp444
S'version'
p445
asbag71
(g92
g73
NtRp446
(dp447
g76
(dp448
g103
g104
ssg85
g437
sg78
(lp449
S':'
asbag71
(g92
g73
NtRp450
(dp451
g76
(dp452
sg85
g437
sg78
(lp453
g71
(g72
g73
NtRp454
(dp455
g76
(dp456
g84
I3
ssg85
g450
sg78
(lp457
S''
asbasbasbasbasbasbasbasbasbasbasbag71
(g87
g73
NtRp458
(dp459
g76
(dp460
sg85
g81
sg78
(lp461
g71
(g92
g73
NtRp462
(dp463
g76
(dp464
g96
g97
ssg85
g458
sg78
(lp465
S'env'
p466
asbag71
(g92
g73
NtRp467
(dp468
g76
(dp469
g103
g104
ssg85
g458
sg78
(lp470
S':'
asbag71
(g92
g73
NtRp471
(dp472
g76
(dp473
sg85
g458
sg78
(lp474
g71
(g72
g73
NtRp475
(dp476
g76
(dp477
g84
I5
ssg85
g471
sg78
(lp478
g71
(g80
g73
NtRp479
(dp480
g76
(dp481
g84
I4
ssg85
Nsg78
(lp482
g71
(g87
g73
NtRp483
(dp484
g76
(dp485
sg85
g479
sg78
(lp486
g71
(g92
g73
NtRp487
(dp488
g76
(dp489
g96
g97
ssg85
g483
sg78
(lp490
S'app_folders'
p491
asbag71
(g92
g73
NtRp492
(dp493
g76
(dp494
g103
g104
ssg85
g483
sg78
(lp495
S':'
asbag71
(g92
g73
NtRp496
(dp497
g76
(dp498
sg85
g483
sg78
(lp499
g71
(g72
g73
NtRp500
(dp501
g76
(dp502
g84
I4
ssg85
g496
sg78
(lp503
S"set(['/home/goshawk/web2py/applications/milo/', '/home/goshawk/web2py/applications/admin/'])"
p504
asbasbasbag71
(g87
g73
NtRp505
(dp506
g76
(dp507
sg85
g479
sg78
(lp508
g71
(g92
g73
NtRp509
(dp510
g76
(dp511
g96
g97
ssg85
g505
sg78
(lp512
S'applications_parent'
p513
asbag71
(g92
g73
NtRp514
(dp515
g76
(dp516
g103
g104
ssg85
g505
sg78
(lp517
S':'
asbag71
(g92
g73
NtRp518
(dp519
g76
(dp520
sg85
g505
sg78
(lp521
g71
(g72
g73
NtRp522
(dp523
g76
(dp524
g84
I4
ssg85
g518
sg78
(lp525
S'/home/goshawk/web2py'
p526
asbasbasbag71
(g87
g73
NtRp527
(dp528
g76
(dp529
sg85
g479
sg78
(lp530
g71
(g92
g73
NtRp531
(dp532
g76
(dp533
g96
g97
ssg85
g527
sg78
(lp534
S'cmd_args'
p535
asbag71
(g92
g73
NtRp536
(dp537
g76
(dp538
g103
g104
ssg85
g527
sg78
(lp539
S':'
asbag71
(g92
g73
NtRp540
(dp541
g76
(dp542
sg85
g527
sg78
(lp543
g71
(g72
g73
NtRp544
(dp545
g76
(dp546
g84
I4
ssg85
g540
sg78
(lp547
g71
(g80
g73
NtRp548
(dp549
g76
(dp550
g84
I3
ssg85
Nsg78
(lp551
sbasbasbasbag71
(g87
g73
NtRp552
(dp553
g76
(dp554
sg85
g479
sg78
(lp555
g71
(g92
g73
NtRp556
(dp557
g76
(dp558
g96
g97
ssg85
g552
sg78
(lp559
S'cmd_options'
p560
asbag71
(g92
g73
NtRp561
(dp562
g76
(dp563
g103
g104
ssg85
g552
sg78
(lp564
S':'
asbag71
(g92
g73
NtRp565
(dp566
g76
(dp567
sg85
g552
sg78
(lp568
g71
(g72
g73
NtRp569
(dp570
g76
(dp571
g84
I4
ssg85
g565
sg78
(lp572
S"<Values at 0x34150e0: {'verbose': False, 'ip': '127.0.0.1', 'shutdown_timeout': 5, 'taskbar': False, 'nocron': False, 'pid_filename': 'httpserver.pid', 'maxthreads': None, 'softcron': False, 'server_name': 'whisperer', 'bpython': False, 'nogui': False, 'port': 8000, 'extcron': False, 'debuglevel': 30, 'test': None, 'folder': '/home/goshawk/web2py', 'config': '', 'import_models': False, 'winservice': '', 'shell': None, 'run': '', 'log_filename': 'httpserver.log', 'args': [''], 'socket_timeout': 5, 'ssl_ca_certificate': None, 'scheduler': None, 'profiler_filename': None, 'ssl_private_key': '', 'password': 'admin', 'request_queue_size': 5, 'ssl_certificate': '', 'cronjob': False, 'numthreads': None, 'quiet': False, 'interfaces': None, 'minthreads': None, 'timeout': 10, 'plain': False, 'nobanner': False}>"
p573
asbasbasbag71
(g87
g73
NtRp574
(dp575
g76
(dp576
sg85
g479
sg78
(lp577
g71
(g92
g73
NtRp578
(dp579
g76
(dp580
g96
g97
ssg85
g574
sg78
(lp581
S'db_sessions'
p582
asbag71
(g92
g73
NtRp583
(dp584
g76
(dp585
g103
g104
ssg85
g574
sg78
(lp586
S':'
asbag71
(g92
g73
NtRp587
(dp588
g76
(dp589
sg85
g574
sg78
(lp590
g71
(g72
g73
NtRp591
(dp592
g76
(dp593
g84
I4
ssg85
g587
sg78
(lp594
S'set([])'
p595
asbasbasbag71
(g87
g73
NtRp596
(dp597
g76
(dp598
sg85
g479
sg78
(lp599
g71
(g92
g73
NtRp600
(dp601
g76
(dp602
g96
g97
ssg85
g596
sg78
(lp603
S'debugging'
p604
asbag71
(g92
g73
NtRp605
(dp606
g76
(dp607
g103
g104
ssg85
g596
sg78
(lp608
S':'
asbag71
(g92
g73
NtRp609
(dp610
g76
(dp611
sg85
g596
sg78
(lp612
g71
(g72
g73
NtRp613
(dp614
g76
(dp615
g84
I4
ssg85
g609
sg78
(lp616
g49
asbasbasbag71
(g87
g73
NtRp617
(dp618
g76
(dp619
sg85
g479
sg78
(lp620
g71
(g92
g73
NtRp621
(dp622
g76
(dp623
g96
g97
ssg85
g617
sg78
(lp624
S'gluon_parent'
p625
asbag71
(g92
g73
NtRp626
(dp627
g76
(dp628
g103
g104
ssg85
g617
sg78
(lp629
S':'
asbag71
(g92
g73
NtRp630
(dp631
g76
(dp632
sg85
g617
sg78
(lp633
g71
(g72
g73
NtRp634
(dp635
g76
(dp636
g84
I4
ssg85
g630
sg78
(lp637
S'/home/goshawk/web2py'
p638
asbasbasbag71
(g87
g73
NtRp639
(dp640
g76
(dp641
sg85
g479
sg78
(lp642
g71
(g92
g73
NtRp643
(dp644
g76
(dp645
g96
g97
ssg85
g639
sg78
(lp646
S'http_accept'
p647
asbag71
(g92
g73
NtRp648
(dp649
g76
(dp650
g103
g104
ssg85
g639
sg78
(lp651
S':'
asbag71
(g92
g73
NtRp652
(dp653
g76
(dp654
sg85
g639
sg78
(lp655
g71
(g72
g73
NtRp656
(dp657
g76
(dp658
g84
I4
ssg85
g652
sg78
(lp659
S'*/*'
p660
asbasbasbag71
(g87
g73
NtRp661
(dp662
g76
(dp663
sg85
g479
sg78
(lp664
g71
(g92
g73
NtRp665
(dp666
g76
(dp667
g96
g97
ssg85
g661
sg78
(lp668
S'http_accept_charset'
p669
asbag71
(g92
g73
NtRp670
(dp671
g76
(dp672
g103
g104
ssg85
g661
sg78
(lp673
S':'
asbag71
(g92
g73
NtRp674
(dp675
g76
(dp676
sg85
g661
sg78
(lp677
g71
(g72
g73
NtRp678
(dp679
g76
(dp680
g84
I4
ssg85
g674
sg78
(lp681
S'ISO-8859-1,utf-8;q=0.7,*;q=0.3'
p682
asbasbasbag71
(g87
g73
NtRp683
(dp684
g76
(dp685
sg85
g479
sg78
(lp686
g71
(g92
g73
NtRp687
(dp688
g76
(dp689
g96
g97
ssg85
g683
sg78
(lp690
S'http_accept_encoding'
p691
asbag71
(g92
g73
NtRp692
(dp693
g76
(dp694
g103
g104
ssg85
g683
sg78
(lp695
S':'
asbag71
(g92
g73
NtRp696
(dp697
g76
(dp698
sg85
g683
sg78
(lp699
g71
(g72
g73
NtRp700
(dp701
g76
(dp702
g84
I4
ssg85
g696
sg78
(lp703
S'gzip,deflate,sdch'
p704
asbasbasbag71
(g87
g73
NtRp705
(dp706
g76
(dp707
sg85
g479
sg78
(lp708
g71
(g92
g73
NtRp709
(dp710
g76
(dp711
g96
g97
ssg85
g705
sg78
(lp712
S'http_accept_language'
p713
asbag71
(g92
g73
NtRp714
(dp715
g76
(dp716
g103
g104
ssg85
g705
sg78
(lp717
S':'
asbag71
(g92
g73
NtRp718
(dp719
g76
(dp720
sg85
g705
sg78
(lp721
g71
(g72
g73
NtRp722
(dp723
g76
(dp724
g84
I4
ssg85
g718
sg78
(lp725
S'en-US,en;q=0.8'
p726
asbasbasbag71
(g87
g73
NtRp727
(dp728
g76
(dp729
sg85
g479
sg78
(lp730
g71
(g92
g73
NtRp731
(dp732
g76
(dp733
g96
g97
ssg85
g727
sg78
(lp734
S'http_connection'
p735
asbag71
(g92
g73
NtRp736
(dp737
g76
(dp738
g103
g104
ssg85
g727
sg78
(lp739
S':'
asbag71
(g92
g73
NtRp740
(dp741
g76
(dp742
sg85
g727
sg78
(lp743
g71
(g72
g73
NtRp744
(dp745
g76
(dp746
g84
I4
ssg85
g740
sg78
(lp747
S'keep-alive'
p748
asbasbasbag71
(g87
g73
NtRp749
(dp750
g76
(dp751
sg85
g479
sg78
(lp752
g71
(g92
g73
NtRp753
(dp754
g76
(dp755
g96
g97
ssg85
g749
sg78
(lp756
S'http_cookie'
p757
asbag71
(g92
g73
NtRp758
(dp759
g76
(dp760
g103
g104
ssg85
g749
sg78
(lp761
S':'
asbag71
(g92
g73
NtRp762
(dp763
g76
(dp764
sg85
g749
sg78
(lp765
g71
(g72
g73
NtRp766
(dp767
g76
(dp768
g84
I4
ssg85
g762
sg78
(lp769
S'session_id_milo=127.0.0.1-cc5d8104-0ec6-49f6-aba2-454dfcf6c681'
p770
asbasbasbag71
(g87
g73
NtRp771
(dp772
g76
(dp773
sg85
g479
sg78
(lp774
g71
(g92
g73
NtRp775
(dp776
g76
(dp777
g96
g97
ssg85
g771
sg78
(lp778
S'http_host'
p779
asbag71
(g92
g73
NtRp780
(dp781
g76
(dp782
g103
g104
ssg85
g771
sg78
(lp783
S':'
asbag71
(g92
g73
NtRp784
(dp785
g76
(dp786
sg85
g771
sg78
(lp787
g71
(g72
g73
NtRp788
(dp789
g76
(dp790
g84
I4
ssg85
g784
sg78
(lp791
S'localhost:8000'
p792
asbasbasbag71
(g87
g73
NtRp793
(dp794
g76
(dp795
sg85
g479
sg78
(lp796
g71
(g92
g73
NtRp797
(dp798
g76
(dp799
g96
g97
ssg85
g793
sg78
(lp800
S'http_referer'
p801
asbag71
(g92
g73
NtRp802
(dp803
g76
(dp804
g103
g104
ssg85
g793
sg78
(lp805
S':'
asbag71
(g92
g73
NtRp806
(dp807
g76
(dp808
sg85
g793
sg78
(lp809
g71
(g72
g73
NtRp810
(dp811
g76
(dp812
g84
I4
ssg85
g806
sg78
(lp813
S'http://localhost:8000/milo/admin/index'
p814
asbasbasbag71
(g87
g73
NtRp815
(dp816
g76
(dp817
sg85
g479
sg78
(lp818
g71
(g92
g73
NtRp819
(dp820
g76
(dp821
g96
g97
ssg85
g815
sg78
(lp822
S'http_user_agent'
p823
asbag71
(g92
g73
NtRp824
(dp825
g76
(dp826
g103
g104
ssg85
g815
sg78
(lp827
S':'
asbag71
(g92
g73
NtRp828
(dp829
g76
(dp830
sg85
g815
sg78
(lp831
g71
(g72
g73
NtRp832
(dp833
g76
(dp834
g84
I4
ssg85
g828
sg78
(lp835
S'Mozilla/5.0 (X11; Linux x86_64) AppleWebKit/535.19 (KHTML, like Gecko) Ubuntu/12.04 Chromium/18.0.1025.168 Chrome/18.0.1025.168 Safari/535.19'
p836
asbasbasbag71
(g87
g73
NtRp837
(dp838
g76
(dp839
sg85
g479
sg78
(lp840
g71
(g92
g73
NtRp841
(dp842
g76
(dp843
g96
g97
ssg85
g837
sg78
(lp844
S'http_x_requested_with'
p845
asbag71
(g92
g73
NtRp846
(dp847
g76
(dp848
g103
g104
ssg85
g837
sg78
(lp849
S':'
asbag71
(g92
g73
NtRp850
(dp851
g76
(dp852
sg85
g837
sg78
(lp853
g71
(g72
g73
NtRp854
(dp855
g76
(dp856
g84
I4
ssg85
g850
sg78
(lp857
S'XMLHttpRequest'
p858
asbasbasbag71
(g87
g73
NtRp859
(dp860
g76
(dp861
sg85
g479
sg78
(lp862
g71
(g92
g73
NtRp863
(dp864
g76
(dp865
g96
g97
ssg85
g859
sg78
(lp866
S'is_jython'
p867
asbag71
(g92
g73
NtRp868
(dp869
g76
(dp870
g103
g104
ssg85
g859
sg78
(lp871
S':'
asbag71
(g92
g73
NtRp872
(dp873
g76
(dp874
sg85
g859
sg78
(lp875
g71
(g72
g73
NtRp876
(dp877
g76
(dp878
g84
I4
ssg85
g872
sg78
(lp879
g49
asbasbasbag71
(g87
g73
NtRp880
(dp881
g76
(dp882
sg85
g479
sg78
(lp883
g71
(g92
g73
NtRp884
(dp885
g76
(dp886
g96
g97
ssg85
g880
sg78
(lp887
S'is_pypy'
p888
asbag71
(g92
g73
NtRp889
(dp890
g76
(dp891
g103
g104
ssg85
g880
sg78
(lp892
S':'
asbag71
(g92
g73
NtRp893
(dp894
g76
(dp895
sg85
g880
sg78
(lp896
g71
(g72
g73
NtRp897
(dp898
g76
(dp899
g84
I4
ssg85
g893
sg78
(lp900
g49
asbasbasbag71
(g87
g73
NtRp901
(dp902
g76
(dp903
sg85
g479
sg78
(lp904
g71
(g92
g73
NtRp905
(dp906
g76
(dp907
g96
g97
ssg85
g901
sg78
(lp908
S'path_info'
p909
asbag71
(g92
g73
NtRp910
(dp911
g76
(dp912
g103
g104
ssg85
g901
sg78
(lp913
S':'
asbag71
(g92
g73
NtRp914
(dp915
g76
(dp916
sg85
g901
sg78
(lp917
g71
(g72
g73
NtRp918
(dp919
g76
(dp920
g84
I4
ssg85
g914
sg78
(lp921
S'/milo/admin/info_algorithm/CosNgbr_II'
p922
asbasbasbag71
(g87
g73
NtRp923
(dp924
g76
(dp925
sg85
g479
sg78
(lp926
g71
(g92
g73
NtRp927
(dp928
g76
(dp929
g96
g97
ssg85
g923
sg78
(lp930
S'query_string'
p931
asbag71
(g92
g73
NtRp932
(dp933
g76
(dp934
g103
g104
ssg85
g923
sg78
(lp935
S':'
asbag71
(g92
g73
NtRp936
(dp937
g76
(dp938
sg85
g923
sg78
(lp939
g71
(g72
g73
NtRp940
(dp941
g76
(dp942
g84
I4
ssg85
g936
sg78
(lp943
S''
asbasbasbag71
(g87
g73
NtRp944
(dp945
g76
(dp946
sg85
g479
sg78
(lp947
g71
(g92
g73
NtRp948
(dp949
g76
(dp950
g96
g97
ssg85
g944
sg78
(lp951
S'remote_addr'
p952
asbag71
(g92
g73
NtRp953
(dp954
g76
(dp955
g103
g104
ssg85
g944
sg78
(lp956
S':'
asbag71
(g92
g73
NtRp957
(dp958
g76
(dp959
sg85
g944
sg78
(lp960
g71
(g72
g73
NtRp961
(dp962
g76
(dp963
g84
I4
ssg85
g957
sg78
(lp964
g217
asbasbasbag71
(g87
g73
NtRp965
(dp966
g76
(dp967
sg85
g479
sg78
(lp968
g71
(g92
g73
NtRp969
(dp970
g76
(dp971
g96
g97
ssg85
g965
sg78
(lp972
S'remote_port'
p973
asbag71
(g92
g73
NtRp974
(dp975
g76
(dp976
g103
g104
ssg85
g965
sg78
(lp977
S':'
asbag71
(g92
g73
NtRp978
(dp979
g76
(dp980
sg85
g965
sg78
(lp981
g71
(g72
g73
NtRp982
(dp983
g76
(dp984
g84
I4
ssg85
g978
sg78
(lp985
S'36781'
p986
asbasbasbag71
(g87
g73
NtRp987
(dp988
g76
(dp989
sg85
g479
sg78
(lp990
g71
(g92
g73
NtRp991
(dp992
g76
(dp993
g96
g97
ssg85
g987
sg78
(lp994
S'request_method'
p995
asbag71
(g92
g73
NtRp996
(dp997
g76
(dp998
g103
g104
ssg85
g987
sg78
(lp999
S':'
asbag71
(g92
g73
NtRp1000
(dp1001
g76
(dp1002
sg85
g987
sg78
(lp1003
g71
(g72
g73
NtRp1004
(dp1005
g76
(dp1006
g84
I4
ssg85
g1000
sg78
(lp1007
S'GET'
p1008
asbasbasbag71
(g87
g73
NtRp1009
(dp1010
g76
(dp1011
sg85
g479
sg78
(lp1012
g71
(g92
g73
NtRp1013
(dp1014
g76
(dp1015
g96
g97
ssg85
g1009
sg78
(lp1016
S'request_uri'
p1017
asbag71
(g92
g73
NtRp1018
(dp1019
g76
(dp1020
g103
g104
ssg85
g1009
sg78
(lp1021
S':'
asbag71
(g92
g73
NtRp1022
(dp1023
g76
(dp1024
sg85
g1009
sg78
(lp1025
g71
(g72
g73
NtRp1026
(dp1027
g76
(dp1028
g84
I4
ssg85
g1022
sg78
(lp1029
g922
asbasbasbag71
(g87
g73
NtRp1030
(dp1031
g76
(dp1032
sg85
g479
sg78
(lp1033
g71
(g92
g73
NtRp1034
(dp1035
g76
(dp1036
g96
g97
ssg85
g1030
sg78
(lp1037
S'script_name'
p1038
asbag71
(g92
g73
NtRp1039
(dp1040
g76
(dp1041
g103
g104
ssg85
g1030
sg78
(lp1042
S':'
asbag71
(g92
g73
NtRp1043
(dp1044
g76
(dp1045
sg85
g1030
sg78
(lp1046
g71
(g72
g73
NtRp1047
(dp1048
g76
(dp1049
g84
I4
ssg85
g1043
sg78
(lp1050
S''
asbasbasbag71
(g87
g73
NtRp1051
(dp1052
g76
(dp1053
sg85
g479
sg78
(lp1054
g71
(g92
g73
NtRp1055
(dp1056
g76
(dp1057
g96
g97
ssg85
g1051
sg78
(lp1058
S'server_name'
p1059
asbag71
(g92
g73
NtRp1060
(dp1061
g76
(dp1062
g103
g104
ssg85
g1051
sg78
(lp1063
S':'
asbag71
(g92
g73
NtRp1064
(dp1065
g76
(dp1066
sg85
g1051
sg78
(lp1067
g71
(g72
g73
NtRp1068
(dp1069
g76
(dp1070
g84
I4
ssg85
g1064
sg78
(lp1071
S'whisperer'
p1072
asbasbasbag71
(g87
g73
NtRp1073
(dp1074
g76
(dp1075
sg85
g479
sg78
(lp1076
g71
(g92
g73
NtRp1077
(dp1078
g76
(dp1079
g96
g97
ssg85
g1073
sg78
(lp1080
S'server_port'
p1081
asbag71
(g92
g73
NtRp1082
(dp1083
g76
(dp1084
g103
g104
ssg85
g1073
sg78
(lp1085
S':'
asbag71
(g92
g73
NtRp1086
(dp1087
g76
(dp1088
sg85
g1073
sg78
(lp1089
g71
(g72
g73
NtRp1090
(dp1091
g76
(dp1092
g84
I4
ssg85
g1086
sg78
(lp1093
S'8000'
p1094
asbasbasbag71
(g87
g73
NtRp1095
(dp1096
g76
(dp1097
sg85
g479
sg78
(lp1098
g71
(g92
g73
NtRp1099
(dp1100
g76
(dp1101
g96
g97
ssg85
g1095
sg78
(lp1102
S'server_protocol'
p1103
asbag71
(g92
g73
NtRp1104
(dp1105
g76
(dp1106
g103
g104
ssg85
g1095
sg78
(lp1107
S':'
asbag71
(g92
g73
NtRp1108
(dp1109
g76
(dp1110
sg85
g1095
sg78
(lp1111
g71
(g72
g73
NtRp1112
(dp1113
g76
(dp1114
g84
I4
ssg85
g1108
sg78
(lp1115
S'HTTP/1.1'
p1116
asbasbasbag71
(g87
g73
NtRp1117
(dp1118
g76
(dp1119
sg85
g479
sg78
(lp1120
g71
(g92
g73
NtRp1121
(dp1122
g76
(dp1123
g96
g97
ssg85
g1117
sg78
(lp1124
S'server_software'
p1125
asbag71
(g92
g73
NtRp1126
(dp1127
g76
(dp1128
g103
g104
ssg85
g1117
sg78
(lp1129
S':'
asbag71
(g92
g73
NtRp1130
(dp1131
g76
(dp1132
sg85
g1117
sg78
(lp1133
g71
(g72
g73
NtRp1134
(dp1135
g76
(dp1136
g84
I4
ssg85
g1130
sg78
(lp1137
S'Rocket 1.2.4'
p1138
asbasbasbag71
(g87
g73
NtRp1139
(dp1140
g76
(dp1141
sg85
g479
sg78
(lp1142
g71
(g92
g73
NtRp1143
(dp1144
g76
(dp1145
g96
g97
ssg85
g1139
sg78
(lp1146
S'web2py_crontype'
p1147
asbag71
(g92
g73
NtRp1148
(dp1149
g76
(dp1150
g103
g104
ssg85
g1139
sg78
(lp1151
S':'
asbag71
(g92
g73
NtRp1152
(dp1153
g76
(dp1154
sg85
g1139
sg78
(lp1155
g71
(g72
g73
NtRp1156
(dp1157
g76
(dp1158
g84
I4
ssg85
g1152
sg78
(lp1159
S'hard'
p1160
asbasbasbag71
(g87
g73
NtRp1161
(dp1162
g76
(dp1163
sg85
g479
sg78
(lp1164
g71
(g92
g73
NtRp1165
(dp1166
g76
(dp1167
g96
g97
ssg85
g1161
sg78
(lp1168
S'web2py_original_uri'
p1169
asbag71
(g92
g73
NtRp1170
(dp1171
g76
(dp1172
g103
g104
ssg85
g1161
sg78
(lp1173
S':'
asbag71
(g92
g73
NtRp1174
(dp1175
g76
(dp1176
sg85
g1161
sg78
(lp1177
g71
(g72
g73
NtRp1178
(dp1179
g76
(dp1180
g84
I4
ssg85
g1174
sg78
(lp1181
g922
asbasbasbag71
(g87
g73
NtRp1182
(dp1183
g76
(dp1184
sg85
g479
sg78
(lp1185
g71
(g92
g73
NtRp1186
(dp1187
g76
(dp1188
g96
g97
ssg85
g1182
sg78
(lp1189
S'web2py_path'
p1190
asbag71
(g92
g73
NtRp1191
(dp1192
g76
(dp1193
g103
g104
ssg85
g1182
sg78
(lp1194
S':'
asbag71
(g92
g73
NtRp1195
(dp1196
g76
(dp1197
sg85
g1182
sg78
(lp1198
g71
(g72
g73
NtRp1199
(dp1200
g76
(dp1201
g84
I4
ssg85
g1195
sg78
(lp1202
g526
asbasbasbag71
(g87
g73
NtRp1203
(dp1204
g76
(dp1205
sg85
g479
sg78
(lp1206
g71
(g92
g73
NtRp1207
(dp1208
g76
(dp1209
g96
g97
ssg85
g1203
sg78
(lp1210
S'web2py_version'
p1211
asbag71
(g92
g73
NtRp1212
(dp1213
g76
(dp1214
g103
g104
ssg85
g1203
sg78
(lp1215
S':'
asbag71
(g92
g73
NtRp1216
(dp1217
g76
(dp1218
sg85
g1203
sg78
(lp1219
g71
(g72
g73
NtRp1220
(dp1221
g76
(dp1222
g84
I4
ssg85
g1216
sg78
(lp1223
g71
(g80
g73
NtRp1224
(dp1225
g76
(dp1226
g84
I3
ssg85
Nsg78
(lp1227
g71
(g87
g73
NtRp1228
(dp1229
g76
(dp1230
sg85
g1224
sg78
(lp1231
g71
(g92
g73
NtRp1232
(dp1233
g76
(dp1234
sg85
g1228
sg78
(lp1235
g71
(g72
g73
NtRp1236
(dp1237
g76
(dp1238
g84
I3
ssg85
g1232
sg78
(lp1239
S'1'
asbasbasbag71
(g87
g73
NtRp1240
(dp1241
g76
(dp1242
sg85
g1224
sg78
(lp1243
g71
(g92
g73
NtRp1244
(dp1245
g76
(dp1246
sg85
g1240
sg78
(lp1247
g71
(g72
g73
NtRp1248
(dp1249
g76
(dp1250
g84
I3
ssg85
g1244
sg78
(lp1251
S'99'
p1252
asbasbasbag71
(g87
g73
NtRp1253
(dp1254
g76
(dp1255
sg85
g1224
sg78
(lp1256
g71
(g92
g73
NtRp1257
(dp1258
g76
(dp1259
sg85
g1253
sg78
(lp1260
g71
(g72
g73
NtRp1261
(dp1262
g76
(dp1263
g84
I3
ssg85
g1257
sg78
(lp1264
S'7'
asbasbasbag71
(g87
g73
NtRp1265
(dp1266
g76
(dp1267
sg85
g1224
sg78
(lp1268
g71
(g92
g73
NtRp1269
(dp1270
g76
(dp1271
sg85
g1265
sg78
(lp1272
g71
(g72
g73
NtRp1273
(dp1274
g76
(dp1275
g84
I3
ssg85
g1269
sg78
(lp1276
S'datetime.datetime(2012, 3, 4, 22, 12, 8)'
p1277
asbasbasbag71
(g87
g73
NtRp1278
(dp1279
g76
(dp1280
sg85
g1224
sg78
(lp1281
g71
(g92
g73
NtRp1282
(dp1283
g76
(dp1284
sg85
g1278
sg78
(lp1285
g71
(g72
g73
NtRp1286
(dp1287
g76
(dp1288
g84
I3
ssg85
g1282
sg78
(lp1289
S'stable'
p1290
asbasbasbasbasbasbasbag71
(g87
g73
NtRp1291
(dp1292
g76
(dp1293
sg85
g479
sg78
(lp1294
g71
(g92
g73
NtRp1295
(dp1296
g76
(dp1297
g96
g97
ssg85
g1291
sg78
(lp1298
S'wsgi_errors'
p1299
asbag71
(g92
g73
NtRp1300
(dp1301
g76
(dp1302
g103
g104
ssg85
g1291
sg78
(lp1303
S':'
asbag71
(g92
g73
NtRp1304
(dp1305
g76
(dp1306
sg85
g1291
sg78
(lp1307
g71
(g72
g73
NtRp1308
(dp1309
g76
(dp1310
g84
I4
ssg85
g1304
sg78
(lp1311
S"<open file '<stderr>', mode 'w' at 0x7f43fec2c270>"
p1312
asbasbasbag71
(g87
g73
NtRp1313
(dp1314
g76
(dp1315
sg85
g479
sg78
(lp1316
g71
(g92
g73
NtRp1317
(dp1318
g76
(dp1319
g96
g97
ssg85
g1313
sg78
(lp1320
S'wsgi_file_wrapper'
p1321
asbag71
(g92
g73
NtRp1322
(dp1323
g76
(dp1324
g103
g104
ssg85
g1313
sg78
(lp1325
S':'
asbag71
(g92
g73
NtRp1326
(dp1327
g76
(dp1328
sg85
g1313
sg78
(lp1329
g71
(g72
g73
NtRp1330
(dp1331
g76
(dp1332
g84
I4
ssg85
g1326
sg78
(lp1333
S'<class wsgiref.util.FileWrapper at 0x3341f58>'
p1334
asbasbasbag71
(g87
g73
NtRp1335
(dp1336
g76
(dp1337
sg85
g479
sg78
(lp1338
g71
(g92
g73
NtRp1339
(dp1340
g76
(dp1341
g96
g97
ssg85
g1335
sg78
(lp1342
S'wsgi_input'
p1343
asbag71
(g92
g73
NtRp1344
(dp1345
g76
(dp1346
g103
g104
ssg85
g1335
sg78
(lp1347
S':'
asbag71
(g92
g73
NtRp1348
(dp1349
g76
(dp1350
sg85
g1335
sg78
(lp1351
g71
(g72
g73
NtRp1352
(dp1353
g76
(dp1354
g84
I4
ssg85
g1348
sg78
(lp1355
S'<socket._fileobject object at 0x7f43d4d97150>'
p1356
asbasbasbag71
(g87
g73
NtRp1357
(dp1358
g76
(dp1359
sg85
g479
sg78
(lp1360
g71
(g92
g73
NtRp1361
(dp1362
g76
(dp1363
g96
g97
ssg85
g1357
sg78
(lp1364
S'wsgi_multiprocess'
p1365
asbag71
(g92
g73
NtRp1366
(dp1367
g76
(dp1368
g103
g104
ssg85
g1357
sg78
(lp1369
S':'
asbag71
(g92
g73
NtRp1370
(dp1371
g76
(dp1372
sg85
g1357
sg78
(lp1373
g71
(g72
g73
NtRp1374
(dp1375
g76
(dp1376
g84
I4
ssg85
g1370
sg78
(lp1377
g49
asbasbasbag71
(g87
g73
NtRp1378
(dp1379
g76
(dp1380
sg85
g479
sg78
(lp1381
g71
(g92
g73
NtRp1382
(dp1383
g76
(dp1384
g96
g97
ssg85
g1378
sg78
(lp1385
S'wsgi_multithread'
p1386
asbag71
(g92
g73
NtRp1387
(dp1388
g76
(dp1389
g103
g104
ssg85
g1378
sg78
(lp1390
S':'
asbag71
(g92
g73
NtRp1391
(dp1392
g76
(dp1393
sg85
g1378
sg78
(lp1394
g71
(g72
g73
NtRp1395
(dp1396
g76
(dp1397
g84
I4
ssg85
g1391
sg78
(lp1398
g114
asbasbasbag71
(g87
g73
NtRp1399
(dp1400
g76
(dp1401
sg85
g479
sg78
(lp1402
g71
(g92
g73
NtRp1403
(dp1404
g76
(dp1405
g96
g97
ssg85
g1399
sg78
(lp1406
S'wsgi_run_once'
p1407
asbag71
(g92
g73
NtRp1408
(dp1409
g76
(dp1410
g103
g104
ssg85
g1399
sg78
(lp1411
S':'
asbag71
(g92
g73
NtRp1412
(dp1413
g76
(dp1414
sg85
g1399
sg78
(lp1415
g71
(g72
g73
NtRp1416
(dp1417
g76
(dp1418
g84
I4
ssg85
g1412
sg78
(lp1419
g49
asbasbasbag71
(g87
g73
NtRp1420
(dp1421
g76
(dp1422
sg85
g479
sg78
(lp1423
g71
(g92
g73
NtRp1424
(dp1425
g76
(dp1426
g96
g97
ssg85
g1420
sg78
(lp1427
S'wsgi_url_scheme'
p1428
asbag71
(g92
g73
NtRp1429
(dp1430
g76
(dp1431
g103
g104
ssg85
g1420
sg78
(lp1432
S':'
asbag71
(g92
g73
NtRp1433
(dp1434
g76
(dp1435
sg85
g1420
sg78
(lp1436
g71
(g72
g73
NtRp1437
(dp1438
g76
(dp1439
g84
I4
ssg85
g1433
sg78
(lp1440
S'http'
p1441
asbasbasbag71
(g87
g73
NtRp1442
(dp1443
g76
(dp1444
sg85
g479
sg78
(lp1445
g71
(g92
g73
NtRp1446
(dp1447
g76
(dp1448
g96
g97
ssg85
g1442
sg78
(lp1449
S'wsgi_version'
p1450
asbag71
(g92
g73
NtRp1451
(dp1452
g76
(dp1453
g103
g104
ssg85
g1442
sg78
(lp1454
S':'
asbag71
(g92
g73
NtRp1455
(dp1456
g76
(dp1457
sg85
g1442
sg78
(lp1458
g71
(g72
g73
NtRp1459
(dp1460
g76
(dp1461
g84
I4
ssg85
g1455
sg78
(lp1462
g71
(g80
g73
NtRp1463
(dp1464
g76
(dp1465
g84
I3
ssg85
Nsg78
(lp1466
g71
(g87
g73
NtRp1467
(dp1468
g76
(dp1469
sg85
g1463
sg78
(lp1470
g71
(g92
g73
NtRp1471
(dp1472
g76
(dp1473
sg85
g1467
sg78
(lp1474
g71
(g72
g73
NtRp1475
(dp1476
g76
(dp1477
g84
I3
ssg85
g1471
sg78
(lp1478
S'1'
asbasbasbag71
(g87
g73
NtRp1479
(dp1480
g76
(dp1481
sg85
g1463
sg78
(lp1482
g71
(g92
g73
NtRp1483
(dp1484
g76
(dp1485
sg85
g1479
sg78
(lp1486
g71
(g72
g73
NtRp1487
(dp1488
g76
(dp1489
g84
I3
ssg85
g1483
sg78
(lp1490
S'0'
asbasbasbasbasbasbasbasbasbasbasbag71
(g87
g73
NtRp1491
(dp1492
g76
(dp1493
sg85
g81
sg78
(lp1494
g71
(g92
g73
NtRp1495
(dp1496
g76
(dp1497
g96
g97
ssg85
g1491
sg78
(lp1498
S'extension'
p1499
asbag71
(g92
g73
NtRp1500
(dp1501
g76
(dp1502
g103
g104
ssg85
g1491
sg78
(lp1503
S':'
asbag71
(g92
g73
NtRp1504
(dp1505
g76
(dp1506
sg85
g1491
sg78
(lp1507
g71
(g72
g73
NtRp1508
(dp1509
g76
(dp1510
g84
I5
ssg85
g1504
sg78
(lp1511
S'html'
p1512
asbasbasbag71
(g87
g73
NtRp1513
(dp1514
g76
(dp1515
sg85
g81
sg78
(lp1516
g71
(g92
g73
NtRp1517
(dp1518
g76
(dp1519
g96
g97
ssg85
g1513
sg78
(lp1520
S'folder'
p1521
asbag71
(g92
g73
NtRp1522
(dp1523
g76
(dp1524
g103
g104
ssg85
g1513
sg78
(lp1525
S':'
asbag71
(g92
g73
NtRp1526
(dp1527
g76
(dp1528
sg85
g1513
sg78
(lp1529
g71
(g72
g73
NtRp1530
(dp1531
g76
(dp1532
g84
I5
ssg85
g1526
sg78
(lp1533
S'/home/goshawk/web2py/applications/milo/'
p1534
asbasbasbag71
(g87
g73
NtRp1535
(dp1536
g76
(dp1537
sg85
g81
sg78
(lp1538
g71
(g92
g73
NtRp1539
(dp1540
g76
(dp1541
g96
g97
ssg85
g1535
sg78
(lp1542
S'function'
p1543
asbag71
(g92
g73
NtRp1544
(dp1545
g76
(dp1546
g103
g104
ssg85
g1535
sg78
(lp1547
S':'
asbag71
(g92
g73
NtRp1548
(dp1549
g76
(dp1550
sg85
g1535
sg78
(lp1551
g71
(g72
g73
NtRp1552
(dp1553
g76
(dp1554
g84
I5
ssg85
g1548
sg78
(lp1555
S'info_algorithm'
p1556
asbasbasbag71
(g87
g73
NtRp1557
(dp1558
g76
(dp1559
sg85
g81
sg78
(lp1560
g71
(g92
g73
NtRp1561
(dp1562
g76
(dp1563
g96
g97
ssg85
g1557
sg78
(lp1564
S'get_vars'
p1565
asbag71
(g92
g73
NtRp1566
(dp1567
g76
(dp1568
g103
g104
ssg85
g1557
sg78
(lp1569
S':'
asbag71
(g92
g73
NtRp1570
(dp1571
g76
(dp1572
sg85
g1557
sg78
(lp1573
g71
(g72
g73
NtRp1574
(dp1575
g76
(dp1576
g84
I5
ssg85
g1570
sg78
(lp1577
g71
(g80
g73
NtRp1578
(dp1579
g76
(dp1580
g84
I4
ssg85
Nsg78
(lp1581
sbasbasbasbag71
(g87
g73
NtRp1582
(dp1583
g76
(dp1584
sg85
g81
sg78
(lp1585
g71
(g92
g73
NtRp1586
(dp1587
g76
(dp1588
g96
g97
ssg85
g1582
sg78
(lp1589
S'global_settings'
p1590
asbag71
(g92
g73
NtRp1591
(dp1592
g76
(dp1593
g103
g104
ssg85
g1582
sg78
(lp1594
S':'
asbag71
(g92
g73
NtRp1595
(dp1596
g76
(dp1597
sg85
g1582
sg78
(lp1598
g71
(g72
g73
NtRp1599
(dp1600
g76
(dp1601
g84
I5
ssg85
g1595
sg78
(lp1602
g71
(g80
g73
NtRp1603
(dp1604
g76
(dp1605
g84
I4
ssg85
Nsg78
(lp1606
g71
(g87
g73
NtRp1607
(dp1608
g76
(dp1609
sg85
g1603
sg78
(lp1610
g71
(g92
g73
NtRp1611
(dp1612
g76
(dp1613
g96
g97
ssg85
g1607
sg78
(lp1614
g491
asbag71
(g92
g73
NtRp1615
(dp1616
g76
(dp1617
g103
g104
ssg85
g1607
sg78
(lp1618
S':'
asbag71
(g92
g73
NtRp1619
(dp1620
g76
(dp1621
sg85
g1607
sg78
(lp1622
g71
(g72
g73
NtRp1623
(dp1624
g76
(dp1625
g84
I4
ssg85
g1619
sg78
(lp1626
S"set(['/home/goshawk/web2py/applications/milo/', '/home/goshawk/web2py/applications/admin/'])"
p1627
asbasbasbag71
(g87
g73
NtRp1628
(dp1629
g76
(dp1630
sg85
g1603
sg78
(lp1631
g71
(g92
g73
NtRp1632
(dp1633
g76
(dp1634
g96
g97
ssg85
g1628
sg78
(lp1635
g513
asbag71
(g92
g73
NtRp1636
(dp1637
g76
(dp1638
g103
g104
ssg85
g1628
sg78
(lp1639
S':'
asbag71
(g92
g73
NtRp1640
(dp1641
g76
(dp1642
sg85
g1628
sg78
(lp1643
g71
(g72
g73
NtRp1644
(dp1645
g76
(dp1646
g84
I4
ssg85
g1640
sg78
(lp1647
g526
asbasbasbag71
(g87
g73
NtRp1648
(dp1649
g76
(dp1650
sg85
g1603
sg78
(lp1651
g71
(g92
g73
NtRp1652
(dp1653
g76
(dp1654
g96
g97
ssg85
g1648
sg78
(lp1655
g535
asbag71
(g92
g73
NtRp1656
(dp1657
g76
(dp1658
g103
g104
ssg85
g1648
sg78
(lp1659
S':'
asbag71
(g92
g73
NtRp1660
(dp1661
g76
(dp1662
sg85
g1648
sg78
(lp1663
g71
(g72
g73
NtRp1664
(dp1665
g76
(dp1666
g84
I4
ssg85
g1660
sg78
(lp1667
g71
(g80
g73
NtRp1668
(dp1669
g76
(dp1670
g84
I3
ssg85
Nsg78
(lp1671
sbasbasbasbag71
(g87
g73
NtRp1672
(dp1673
g76
(dp1674
sg85
g1603
sg78
(lp1675
g71
(g92
g73
NtRp1676
(dp1677
g76
(dp1678
g96
g97
ssg85
g1672
sg78
(lp1679
g560
asbag71
(g92
g73
NtRp1680
(dp1681
g76
(dp1682
g103
g104
ssg85
g1672
sg78
(lp1683
S':'
asbag71
(g92
g73
NtRp1684
(dp1685
g76
(dp1686
sg85
g1672
sg78
(lp1687
g71
(g72
g73
NtRp1688
(dp1689
g76
(dp1690
g84
I4
ssg85
g1684
sg78
(lp1691
S"<Values at 0x34150e0: {'verbose': False, 'ip': '127.0.0.1', 'shutdown_timeout': 5, 'taskbar': False, 'nocron': False, 'pid_filename': 'httpserver.pid', 'maxthreads': None, 'softcron': False, 'server_name': 'whisperer', 'bpython': False, 'nogui': False, 'port': 8000, 'extcron': False, 'debuglevel': 30, 'test': None, 'folder': '/home/goshawk/web2py', 'config': '', 'import_models': False, 'winservice': '', 'shell': None, 'run': '', 'log_filename': 'httpserver.log', 'args': [''], 'socket_timeout': 5, 'ssl_ca_certificate': None, 'scheduler': None, 'profiler_filename': None, 'ssl_private_key': '', 'password': 'admin', 'request_queue_size': 5, 'ssl_certificate': '', 'cronjob': False, 'numthreads': None, 'quiet': False, 'interfaces': None, 'minthreads': None, 'timeout': 10, 'plain': False, 'nobanner': False}>"
p1692
asbasbasbag71
(g87
g73
NtRp1693
(dp1694
g76
(dp1695
sg85
g1603
sg78
(lp1696
g71
(g92
g73
NtRp1697
(dp1698
g76
(dp1699
g96
g97
ssg85
g1693
sg78
(lp1700
g582
asbag71
(g92
g73
NtRp1701
(dp1702
g76
(dp1703
g103
g104
ssg85
g1693
sg78
(lp1704
S':'
asbag71
(g92
g73
NtRp1705
(dp1706
g76
(dp1707
sg85
g1693
sg78
(lp1708
g71
(g72
g73
NtRp1709
(dp1710
g76
(dp1711
g84
I4
ssg85
g1705
sg78
(lp1712
S'set([])'
p1713
asbasbasbag71
(g87
g73
NtRp1714
(dp1715
g76
(dp1716
sg85
g1603
sg78
(lp1717
g71
(g92
g73
NtRp1718
(dp1719
g76
(dp1720
g96
g97
ssg85
g1714
sg78
(lp1721
g604
asbag71
(g92
g73
NtRp1722
(dp1723
g76
(dp1724
g103
g104
ssg85
g1714
sg78
(lp1725
S':'
asbag71
(g92
g73
NtRp1726
(dp1727
g76
(dp1728
sg85
g1714
sg78
(lp1729
g71
(g72
g73
NtRp1730
(dp1731
g76
(dp1732
g84
I4
ssg85
g1726
sg78
(lp1733
g49
asbasbasbag71
(g87
g73
NtRp1734
(dp1735
g76
(dp1736
sg85
g1603
sg78
(lp1737
g71
(g92
g73
NtRp1738
(dp1739
g76
(dp1740
g96
g97
ssg85
g1734
sg78
(lp1741
g625
asbag71
(g92
g73
NtRp1742
(dp1743
g76
(dp1744
g103
g104
ssg85
g1734
sg78
(lp1745
S':'
asbag71
(g92
g73
NtRp1746
(dp1747
g76
(dp1748
sg85
g1734
sg78
(lp1749
g71
(g72
g73
NtRp1750
(dp1751
g76
(dp1752
g84
I4
ssg85
g1746
sg78
(lp1753
g638
asbasbasbag71
(g87
g73
NtRp1754
(dp1755
g76
(dp1756
sg85
g1603
sg78
(lp1757
g71
(g92
g73
NtRp1758
(dp1759
g76
(dp1760
g96
g97
ssg85
g1754
sg78
(lp1761
g867
asbag71
(g92
g73
NtRp1762
(dp1763
g76
(dp1764
g103
g104
ssg85
g1754
sg78
(lp1765
S':'
asbag71
(g92
g73
NtRp1766
(dp1767
g76
(dp1768
sg85
g1754
sg78
(lp1769
g71
(g72
g73
NtRp1770
(dp1771
g76
(dp1772
g84
I4
ssg85
g1766
sg78
(lp1773
g49
asbasbasbag71
(g87
g73
NtRp1774
(dp1775
g76
(dp1776
sg85
g1603
sg78
(lp1777
g71
(g92
g73
NtRp1778
(dp1779
g76
(dp1780
g96
g97
ssg85
g1774
sg78
(lp1781
g888
asbag71
(g92
g73
NtRp1782
(dp1783
g76
(dp1784
g103
g104
ssg85
g1774
sg78
(lp1785
S':'
asbag71
(g92
g73
NtRp1786
(dp1787
g76
(dp1788
sg85
g1774
sg78
(lp1789
g71
(g72
g73
NtRp1790
(dp1791
g76
(dp1792
g84
I4
ssg85
g1786
sg78
(lp1793
g49
asbasbasbag71
(g87
g73
NtRp1794
(dp1795
g76
(dp1796
sg85
g1603
sg78
(lp1797
g71
(g92
g73
NtRp1798
(dp1799
g76
(dp1800
g96
g97
ssg85
g1794
sg78
(lp1801
g1147
asbag71
(g92
g73
NtRp1802
(dp1803
g76
(dp1804
g103
g104
ssg85
g1794
sg78
(lp1805
S':'
asbag71
(g92
g73
NtRp1806
(dp1807
g76
(dp1808
sg85
g1794
sg78
(lp1809
g71
(g72
g73
NtRp1810
(dp1811
g76
(dp1812
g84
I4
ssg85
g1806
sg78
(lp1813
g1160
asbasbasbag71
(g87
g73
NtRp1814
(dp1815
g76
(dp1816
sg85
g1603
sg78
(lp1817
g71
(g92
g73
NtRp1818
(dp1819
g76
(dp1820
g96
g97
ssg85
g1814
sg78
(lp1821
g1211
asbag71
(g92
g73
NtRp1822
(dp1823
g76
(dp1824
g103
g104
ssg85
g1814
sg78
(lp1825
S':'
asbag71
(g92
g73
NtRp1826
(dp1827
g76
(dp1828
sg85
g1814
sg78
(lp1829
g71
(g72
g73
NtRp1830
(dp1831
g76
(dp1832
g84
I4
ssg85
g1826
sg78
(lp1833
g71
(g80
g73
NtRp1834
(dp1835
g76
(dp1836
g84
I3
ssg85
Nsg78
(lp1837
g71
(g87
g73
NtRp1838
(dp1839
g76
(dp1840
sg85
g1834
sg78
(lp1841
g71
(g92
g73
NtRp1842
(dp1843
g76
(dp1844
sg85
g1838
sg78
(lp1845
g71
(g72
g73
NtRp1846
(dp1847
g76
(dp1848
g84
I3
ssg85
g1842
sg78
(lp1849
S'1'
asbasbasbag71
(g87
g73
NtRp1850
(dp1851
g76
(dp1852
sg85
g1834
sg78
(lp1853
g71
(g92
g73
NtRp1854
(dp1855
g76
(dp1856
sg85
g1850
sg78
(lp1857
g71
(g72
g73
NtRp1858
(dp1859
g76
(dp1860
g84
I3
ssg85
g1854
sg78
(lp1861
S'99'
p1862
asbasbasbag71
(g87
g73
NtRp1863
(dp1864
g76
(dp1865
sg85
g1834
sg78
(lp1866
g71
(g92
g73
NtRp1867
(dp1868
g76
(dp1869
sg85
g1863
sg78
(lp1870
g71
(g72
g73
NtRp1871
(dp1872
g76
(dp1873
g84
I3
ssg85
g1867
sg78
(lp1874
S'7'
asbasbasbag71
(g87
g73
NtRp1875
(dp1876
g76
(dp1877
sg85
g1834
sg78
(lp1878
g71
(g92
g73
NtRp1879
(dp1880
g76
(dp1881
sg85
g1875
sg78
(lp1882
g71
(g72
g73
NtRp1883
(dp1884
g76
(dp1885
g84
I3
ssg85
g1879
sg78
(lp1886
S'datetime.datetime(2012, 3, 4, 22, 12, 8)'
p1887
asbasbasbag71
(g87
g73
NtRp1888
(dp1889
g76
(dp1890
sg85
g1834
sg78
(lp1891
g71
(g92
g73
NtRp1892
(dp1893
g76
(dp1894
sg85
g1888
sg78
(lp1895
g71
(g72
g73
NtRp1896
(dp1897
g76
(dp1898
g84
I3
ssg85
g1892
sg78
(lp1899
g1290
asbasbasbasbasbasbasbasbasbasbasbag71
(g87
g73
NtRp1900
(dp1901
g76
(dp1902
sg85
g81
sg78
(lp1903
g71
(g92
g73
NtRp1904
(dp1905
g76
(dp1906
g96
g97
ssg85
g1900
sg78
(lp1907
S'is_https'
p1908
asbag71
(g92
g73
NtRp1909
(dp1910
g76
(dp1911
g103
g104
ssg85
g1900
sg78
(lp1912
S':'
asbag71
(g92
g73
NtRp1913
(dp1914
g76
(dp1915
sg85
g1900
sg78
(lp1916
g71
(g72
g73
NtRp1917
(dp1918
g76
(dp1919
g84
I5
ssg85
g1913
sg78
(lp1920
g49
asbasbasbag71
(g87
g73
NtRp1921
(dp1922
g76
(dp1923
sg85
g81
sg78
(lp1924
g71
(g92
g73
NtRp1925
(dp1926
g76
(dp1927
g96
g97
ssg85
g1921
sg78
(lp1928
S'is_local'
p1929
asbag71
(g92
g73
NtRp1930
(dp1931
g76
(dp1932
g103
g104
ssg85
g1921
sg78
(lp1933
S':'
asbag71
(g92
g73
NtRp1934
(dp1935
g76
(dp1936
sg85
g1921
sg78
(lp1937
g71
(g72
g73
NtRp1938
(dp1939
g76
(dp1940
g84
I5
ssg85
g1934
sg78
(lp1941
g114
asbasbasbag71
(g87
g73
NtRp1942
(dp1943
g76
(dp1944
sg85
g81
sg78
(lp1945
g71
(g92
g73
NtRp1946
(dp1947
g76
(dp1948
g96
g97
ssg85
g1942
sg78
(lp1949
S'is_restful'
p1950
asbag71
(g92
g73
NtRp1951
(dp1952
g76
(dp1953
g103
g104
ssg85
g1942
sg78
(lp1954
S':'
asbag71
(g92
g73
NtRp1955
(dp1956
g76
(dp1957
sg85
g1942
sg78
(lp1958
g71
(g72
g73
NtRp1959
(dp1960
g76
(dp1961
g84
I5
ssg85
g1955
sg78
(lp1962
g49
asbasbasbag71
(g87
g73
NtRp1963
(dp1964
g76
(dp1965
sg85
g81
sg78
(lp1966
g71
(g92
g73
NtRp1967
(dp1968
g76
(dp1969
g96
g97
ssg85
g1963
sg78
(lp1970
S'now'
p1971
asbag71
(g92
g73
NtRp1972
(dp1973
g76
(dp1974
g103
g104
ssg85
g1963
sg78
(lp1975
S':'
asbag71
(g92
g73
NtRp1976
(dp1977
g76
(dp1978
sg85
g1963
sg78
(lp1979
g71
(g72
g73
NtRp1980
(dp1981
g76
(dp1982
g84
I5
ssg85
g1976
sg78
(lp1983
S'datetime.datetime(2012, 7, 15, 2, 0, 0, 237651)'
p1984
asbasbasbag71
(g87
g73
NtRp1985
(dp1986
g76
(dp1987
sg85
g81
sg78
(lp1988
g71
(g92
g73
NtRp1989
(dp1990
g76
(dp1991
g96
g97
ssg85
g1985
sg78
(lp1992
S'post_vars'
p1993
asbag71
(g92
g73
NtRp1994
(dp1995
g76
(dp1996
g103
g104
ssg85
g1985
sg78
(lp1997
S':'
asbag71
(g92
g73
NtRp1998
(dp1999
g76
(dp2000
sg85
g1985
sg78
(lp2001
g71
(g72
g73
NtRp2002
(dp2003
g76
(dp2004
g84
I5
ssg85
g1998
sg78
(lp2005
g71
(g80
g73
NtRp2006
(dp2007
g76
(dp2008
g84
I4
ssg85
Nsg78
(lp2009
sbasbasbasbag71
(g87
g73
NtRp2010
(dp2011
g76
(dp2012
sg85
g81
sg78
(lp2013
g71
(g92
g73
NtRp2014
(dp2015
g76
(dp2016
g96
g97
ssg85
g2010
sg78
(lp2017
S'raw_args'
p2018
asbag71
(g92
g73
NtRp2019
(dp2020
g76
(dp2021
g103
g104
ssg85
g2010
sg78
(lp2022
S':'
asbag71
(g92
g73
NtRp2023
(dp2024
g76
(dp2025
sg85
g2010
sg78
(lp2026
g71
(g72
g73
NtRp2027
(dp2028
g76
(dp2029
g84
I5
ssg85
g2023
sg78
(lp2030
g173
asbasbasbag71
(g87
g73
NtRp2031
(dp2032
g76
(dp2033
sg85
g81
sg78
(lp2034
g71
(g92
g73
NtRp2035
(dp2036
g76
(dp2037
g96
g97
ssg85
g2031
sg78
(lp2038
S'url'
p2039
asbag71
(g92
g73
NtRp2040
(dp2041
g76
(dp2042
g103
g104
ssg85
g2031
sg78
(lp2043
S':'
asbag71
(g92
g73
NtRp2044
(dp2045
g76
(dp2046
sg85
g2031
sg78
(lp2047
g71
(g72
g73
NtRp2048
(dp2049
g76
(dp2050
g84
I5
ssg85
g2044
sg78
(lp2051
S'/milo/admin/info_algorithm/CosNgbr_II'
p2052
asbasbasbag71
(g87
g73
NtRp2053
(dp2054
g76
(dp2055
sg85
g81
sg78
(lp2056
g71
(g92
g73
NtRp2057
(dp2058
g76
(dp2059
g96
g97
ssg85
g2053
sg78
(lp2060
S'utcnow'
p2061
asbag71
(g92
g73
NtRp2062
(dp2063
g76
(dp2064
g103
g104
ssg85
g2053
sg78
(lp2065
S':'
asbag71
(g92
g73
NtRp2066
(dp2067
g76
(dp2068
sg85
g2053
sg78
(lp2069
g71
(g72
g73
NtRp2070
(dp2071
g76
(dp2072
g84
I5
ssg85
g2066
sg78
(lp2073
S'datetime.datetime(2012, 7, 15, 0, 0, 0, 237671)'
p2074
asbasbasbag71
(g87
g73
NtRp2075
(dp2076
g76
(dp2077
sg85
g81
sg78
(lp2078
g71
(g92
g73
NtRp2079
(dp2080
g76
(dp2081
g96
g97
ssg85
g2075
sg78
(lp2082
S'uuid'
p2083
asbag71
(g92
g73
NtRp2084
(dp2085
g76
(dp2086
g103
g104
ssg85
g2075
sg78
(lp2087
S':'
asbag71
(g92
g73
NtRp2088
(dp2089
g76
(dp2090
sg85
g2075
sg78
(lp2091
g71
(g72
g73
NtRp2092
(dp2093
g76
(dp2094
g84
I5
ssg85
g2088
sg78
(lp2095
S'milo/127.0.0.1.2012-07-15.02-00-00.02db5a20-2906-457d-a214-29e2d1b9a8a0'
p2096
asbasbasbag71
(g87
g73
NtRp2097
(dp2098
g76
(dp2099
sg85
g81
sg78
(lp2100
g71
(g92
g73
NtRp2101
(dp2102
g76
(dp2103
g96
g97
ssg85
g2097
sg78
(lp2104
S'vars'
p2105
asbag71
(g92
g73
NtRp2106
(dp2107
g76
(dp2108
g103
g104
ssg85
g2097
sg78
(lp2109
S':'
asbag71
(g92
g73
NtRp2110
(dp2111
g76
(dp2112
sg85
g2097
sg78
(lp2113
g71
(g72
g73
NtRp2114
(dp2115
g76
(dp2116
g84
I5
ssg85
g2110
sg78
(lp2117
g71
(g80
g73
NtRp2118
(dp2119
g76
(dp2120
g84
I4
ssg85
Nsg78
(lp2121
sbasbasbasbag71
(g87
g73
NtRp2122
(dp2123
g76
(dp2124
sg85
g81
sg78
(lp2125
g71
(g92
g73
NtRp2126
(dp2127
g76
(dp2128
g96
g97
ssg85
g2122
sg78
(lp2129
S'wsgi'
p2130
asbag71
(g92
g73
NtRp2131
(dp2132
g76
(dp2133
g103
g104
ssg85
g2122
sg78
(lp2134
S':'
asbag71
(g92
g73
NtRp2135
(dp2136
g76
(dp2137
sg85
g2122
sg78
(lp2138
g71
(g72
g73
NtRp2139
(dp2140
g76
(dp2141
g84
I5
ssg85
g2135
sg78
(lp2142
g71
(g80
g73
NtRp2143
(dp2144
g76
(dp2145
g84
I4
ssg85
Nsg78
(lp2146
g71
(g87
g73
NtRp2147
(dp2148
g76
(dp2149
sg85
g2143
sg78
(lp2150
g71
(g92
g73
NtRp2151
(dp2152
g76
(dp2153
g96
g97
ssg85
g2147
sg78
(lp2154
S'environ'
p2155
asbag71
(g92
g73
NtRp2156
(dp2157
g76
(dp2158
g103
g104
ssg85
g2147
sg78
(lp2159
S':'
asbag71
(g92
g73
NtRp2160
(dp2161
g76
(dp2162
sg85
g2147
sg78
(lp2163
g71
(g72
g73
NtRp2164
(dp2165
g76
(dp2166
g84
I4
ssg85
g2160
sg78
(lp2167
g71
(g80
g73
NtRp2168
(dp2169
g76
(dp2170
g84
I3
ssg85
Nsg78
(lp2171
g71
(g87
g73
NtRp2172
(dp2173
g76
(dp2174
sg85
g2168
sg78
(lp2175
g71
(g92
g73
NtRp2176
(dp2177
g76
(dp2178
g96
g97
ssg85
g2172
sg78
(lp2179
S'HTTP_ACCEPT'
p2180
asbag71
(g92
g73
NtRp2181
(dp2182
g76
(dp2183
g103
g104
ssg85
g2172
sg78
(lp2184
S':'
asbag71
(g92
g73
NtRp2185
(dp2186
g76
(dp2187
sg85
g2172
sg78
(lp2188
g71
(g72
g73
NtRp2189
(dp2190
g76
(dp2191
g84
I3
ssg85
g2185
sg78
(lp2192
g660
asbasbasbag71
(g87
g73
NtRp2193
(dp2194
g76
(dp2195
sg85
g2168
sg78
(lp2196
g71
(g92
g73
NtRp2197
(dp2198
g76
(dp2199
g96
g97
ssg85
g2193
sg78
(lp2200
S'HTTP_ACCEPT_CHARSET'
p2201
asbag71
(g92
g73
NtRp2202
(dp2203
g76
(dp2204
g103
g104
ssg85
g2193
sg78
(lp2205
S':'
asbag71
(g92
g73
NtRp2206
(dp2207
g76
(dp2208
sg85
g2193
sg78
(lp2209
g71
(g72
g73
NtRp2210
(dp2211
g76
(dp2212
g84
I3
ssg85
g2206
sg78
(lp2213
g682
asbasbasbag71
(g87
g73
NtRp2214
(dp2215
g76
(dp2216
sg85
g2168
sg78
(lp2217
g71
(g92
g73
NtRp2218
(dp2219
g76
(dp2220
g96
g97
ssg85
g2214
sg78
(lp2221
S'HTTP_ACCEPT_ENCODING'
p2222
asbag71
(g92
g73
NtRp2223
(dp2224
g76
(dp2225
g103
g104
ssg85
g2214
sg78
(lp2226
S':'
asbag71
(g92
g73
NtRp2227
(dp2228
g76
(dp2229
sg85
g2214
sg78
(lp2230
g71
(g72
g73
NtRp2231
(dp2232
g76
(dp2233
g84
I3
ssg85
g2227
sg78
(lp2234
g704
asbasbasbag71
(g87
g73
NtRp2235
(dp2236
g76
(dp2237
sg85
g2168
sg78
(lp2238
g71
(g92
g73
NtRp2239
(dp2240
g76
(dp2241
g96
g97
ssg85
g2235
sg78
(lp2242
S'HTTP_ACCEPT_LANGUAGE'
p2243
asbag71
(g92
g73
NtRp2244
(dp2245
g76
(dp2246
g103
g104
ssg85
g2235
sg78
(lp2247
S':'
asbag71
(g92
g73
NtRp2248
(dp2249
g76
(dp2250
sg85
g2235
sg78
(lp2251
g71
(g72
g73
NtRp2252
(dp2253
g76
(dp2254
g84
I3
ssg85
g2248
sg78
(lp2255
g726
asbasbasbag71
(g87
g73
NtRp2256
(dp2257
g76
(dp2258
sg85
g2168
sg78
(lp2259
g71
(g92
g73
NtRp2260
(dp2261
g76
(dp2262
g96
g97
ssg85
g2256
sg78
(lp2263
S'HTTP_CONNECTION'
p2264
asbag71
(g92
g73
NtRp2265
(dp2266
g76
(dp2267
g103
g104
ssg85
g2256
sg78
(lp2268
S':'
asbag71
(g92
g73
NtRp2269
(dp2270
g76
(dp2271
sg85
g2256
sg78
(lp2272
g71
(g72
g73
NtRp2273
(dp2274
g76
(dp2275
g84
I3
ssg85
g2269
sg78
(lp2276
g748
asbasbasbag71
(g87
g73
NtRp2277
(dp2278
g76
(dp2279
sg85
g2168
sg78
(lp2280
g71
(g92
g73
NtRp2281
(dp2282
g76
(dp2283
g96
g97
ssg85
g2277
sg78
(lp2284
S'HTTP_COOKIE'
p2285
asbag71
(g92
g73
NtRp2286
(dp2287
g76
(dp2288
g103
g104
ssg85
g2277
sg78
(lp2289
S':'
asbag71
(g92
g73
NtRp2290
(dp2291
g76
(dp2292
sg85
g2277
sg78
(lp2293
g71
(g72
g73
NtRp2294
(dp2295
g76
(dp2296
g84
I3
ssg85
g2290
sg78
(lp2297
g770
asbasbasbag71
(g87
g73
NtRp2298
(dp2299
g76
(dp2300
sg85
g2168
sg78
(lp2301
g71
(g92
g73
NtRp2302
(dp2303
g76
(dp2304
g96
g97
ssg85
g2298
sg78
(lp2305
S'HTTP_HOST'
p2306
asbag71
(g92
g73
NtRp2307
(dp2308
g76
(dp2309
g103
g104
ssg85
g2298
sg78
(lp2310
S':'
asbag71
(g92
g73
NtRp2311
(dp2312
g76
(dp2313
sg85
g2298
sg78
(lp2314
g71
(g72
g73
NtRp2315
(dp2316
g76
(dp2317
g84
I3
ssg85
g2311
sg78
(lp2318
g792
asbasbasbag71
(g87
g73
NtRp2319
(dp2320
g76
(dp2321
sg85
g2168
sg78
(lp2322
g71
(g92
g73
NtRp2323
(dp2324
g76
(dp2325
g96
g97
ssg85
g2319
sg78
(lp2326
S'HTTP_REFERER'
p2327
asbag71
(g92
g73
NtRp2328
(dp2329
g76
(dp2330
g103
g104
ssg85
g2319
sg78
(lp2331
S':'
asbag71
(g92
g73
NtRp2332
(dp2333
g76
(dp2334
sg85
g2319
sg78
(lp2335
g71
(g72
g73
NtRp2336
(dp2337
g76
(dp2338
g84
I3
ssg85
g2332
sg78
(lp2339
g814
asbasbasbag71
(g87
g73
NtRp2340
(dp2341
g76
(dp2342
sg85
g2168
sg78
(lp2343
g71
(g92
g73
NtRp2344
(dp2345
g76
(dp2346
g96
g97
ssg85
g2340
sg78
(lp2347
S'HTTP_USER_AGENT'
p2348
asbag71
(g92
g73
NtRp2349
(dp2350
g76
(dp2351
g103
g104
ssg85
g2340
sg78
(lp2352
S':'
asbag71
(g92
g73
NtRp2353
(dp2354
g76
(dp2355
sg85
g2340
sg78
(lp2356
g71
(g72
g73
NtRp2357
(dp2358
g76
(dp2359
g84
I3
ssg85
g2353
sg78
(lp2360
g836
asbasbasbag71
(g87
g73
NtRp2361
(dp2362
g76
(dp2363
sg85
g2168
sg78
(lp2364
g71
(g92
g73
NtRp2365
(dp2366
g76
(dp2367
g96
g97
ssg85
g2361
sg78
(lp2368
S'HTTP_X_REQUESTED_WITH'
p2369
asbag71
(g92
g73
NtRp2370
(dp2371
g76
(dp2372
g103
g104
ssg85
g2361
sg78
(lp2373
S':'
asbag71
(g92
g73
NtRp2374
(dp2375
g76
(dp2376
sg85
g2361
sg78
(lp2377
g71
(g72
g73
NtRp2378
(dp2379
g76
(dp2380
g84
I3
ssg85
g2374
sg78
(lp2381
g858
asbasbasbag71
(g87
g73
NtRp2382
(dp2383
g76
(dp2384
sg85
g2168
sg78
(lp2385
g71
(g92
g73
NtRp2386
(dp2387
g76
(dp2388
g96
g97
ssg85
g2382
sg78
(lp2389
S'PATH_INFO'
p2390
asbag71
(g92
g73
NtRp2391
(dp2392
g76
(dp2393
g103
g104
ssg85
g2382
sg78
(lp2394
S':'
asbag71
(g92
g73
NtRp2395
(dp2396
g76
(dp2397
sg85
g2382
sg78
(lp2398
g71
(g72
g73
NtRp2399
(dp2400
g76
(dp2401
g84
I3
ssg85
g2395
sg78
(lp2402
g922
asbasbasbag71
(g87
g73
NtRp2403
(dp2404
g76
(dp2405
sg85
g2168
sg78
(lp2406
g71
(g92
g73
NtRp2407
(dp2408
g76
(dp2409
g96
g97
ssg85
g2403
sg78
(lp2410
S'QUERY_STRING'
p2411
asbag71
(g92
g73
NtRp2412
(dp2413
g76
(dp2414
g103
g104
ssg85
g2403
sg78
(lp2415
S':'
asbag71
(g92
g73
NtRp2416
(dp2417
g76
(dp2418
sg85
g2403
sg78
(lp2419
g71
(g72
g73
NtRp2420
(dp2421
g76
(dp2422
g84
I3
ssg85
g2416
sg78
(lp2423
S''
asbasbasbag71
(g87
g73
NtRp2424
(dp2425
g76
(dp2426
sg85
g2168
sg78
(lp2427
g71
(g92
g73
NtRp2428
(dp2429
g76
(dp2430
g96
g97
ssg85
g2424
sg78
(lp2431
S'REMOTE_ADDR'
p2432
asbag71
(g92
g73
NtRp2433
(dp2434
g76
(dp2435
g103
g104
ssg85
g2424
sg78
(lp2436
S':'
asbag71
(g92
g73
NtRp2437
(dp2438
g76
(dp2439
sg85
g2424
sg78
(lp2440
g71
(g72
g73
NtRp2441
(dp2442
g76
(dp2443
g84
I3
ssg85
g2437
sg78
(lp2444
g217
asbasbasbag71
(g87
g73
NtRp2445
(dp2446
g76
(dp2447
sg85
g2168
sg78
(lp2448
g71
(g92
g73
NtRp2449
(dp2450
g76
(dp2451
g96
g97
ssg85
g2445
sg78
(lp2452
S'REMOTE_PORT'
p2453
asbag71
(g92
g73
NtRp2454
(dp2455
g76
(dp2456
g103
g104
ssg85
g2445
sg78
(lp2457
S':'
asbag71
(g92
g73
NtRp2458
(dp2459
g76
(dp2460
sg85
g2445
sg78
(lp2461
g71
(g72
g73
NtRp2462
(dp2463
g76
(dp2464
g84
I3
ssg85
g2458
sg78
(lp2465
g986
asbasbasbag71
(g87
g73
NtRp2466
(dp2467
g76
(dp2468
sg85
g2168
sg78
(lp2469
g71
(g92
g73
NtRp2470
(dp2471
g76
(dp2472
g96
g97
ssg85
g2466
sg78
(lp2473
S'REQUEST_METHOD'
p2474
asbag71
(g92
g73
NtRp2475
(dp2476
g76
(dp2477
g103
g104
ssg85
g2466
sg78
(lp2478
S':'
asbag71
(g92
g73
NtRp2479
(dp2480
g76
(dp2481
sg85
g2466
sg78
(lp2482
g71
(g72
g73
NtRp2483
(dp2484
g76
(dp2485
g84
I3
ssg85
g2479
sg78
(lp2486
g1008
asbasbasbag71
(g87
g73
NtRp2487
(dp2488
g76
(dp2489
sg85
g2168
sg78
(lp2490
g71
(g92
g73
NtRp2491
(dp2492
g76
(dp2493
g96
g97
ssg85
g2487
sg78
(lp2494
S'REQUEST_URI'
p2495
asbag71
(g92
g73
NtRp2496
(dp2497
g76
(dp2498
g103
g104
ssg85
g2487
sg78
(lp2499
S':'
asbag71
(g92
g73
NtRp2500
(dp2501
g76
(dp2502
sg85
g2487
sg78
(lp2503
g71
(g72
g73
NtRp2504
(dp2505
g76
(dp2506
g84
I3
ssg85
g2500
sg78
(lp2507
g922
asbasbasbag71
(g87
g73
NtRp2508
(dp2509
g76
(dp2510
sg85
g2168
sg78
(lp2511
g71
(g92
g73
NtRp2512
(dp2513
g76
(dp2514
g96
g97
ssg85
g2508
sg78
(lp2515
S'SCRIPT_NAME'
p2516
asbag71
(g92
g73
NtRp2517
(dp2518
g76
(dp2519
g103
g104
ssg85
g2508
sg78
(lp2520
S':'
asbag71
(g92
g73
NtRp2521
(dp2522
g76
(dp2523
sg85
g2508
sg78
(lp2524
g71
(g72
g73
NtRp2525
(dp2526
g76
(dp2527
g84
I3
ssg85
g2521
sg78
(lp2528
S''
asbasbasbag71
(g87
g73
NtRp2529
(dp2530
g76
(dp2531
sg85
g2168
sg78
(lp2532
g71
(g92
g73
NtRp2533
(dp2534
g76
(dp2535
g96
g97
ssg85
g2529
sg78
(lp2536
S'SERVER_NAME'
p2537
asbag71
(g92
g73
NtRp2538
(dp2539
g76
(dp2540
g103
g104
ssg85
g2529
sg78
(lp2541
S':'
asbag71
(g92
g73
NtRp2542
(dp2543
g76
(dp2544
sg85
g2529
sg78
(lp2545
g71
(g72
g73
NtRp2546
(dp2547
g76
(dp2548
g84
I3
ssg85
g2542
sg78
(lp2549
g1072
asbasbasbag71
(g87
g73
NtRp2550
(dp2551
g76
(dp2552
sg85
g2168
sg78
(lp2553
g71
(g92
g73
NtRp2554
(dp2555
g76
(dp2556
g96
g97
ssg85
g2550
sg78
(lp2557
S'SERVER_PORT'
p2558
asbag71
(g92
g73
NtRp2559
(dp2560
g76
(dp2561
g103
g104
ssg85
g2550
sg78
(lp2562
S':'
asbag71
(g92
g73
NtRp2563
(dp2564
g76
(dp2565
sg85
g2550
sg78
(lp2566
g71
(g72
g73
NtRp2567
(dp2568
g76
(dp2569
g84
I3
ssg85
g2563
sg78
(lp2570
g1094
asbasbasbag71
(g87
g73
NtRp2571
(dp2572
g76
(dp2573
sg85
g2168
sg78
(lp2574
g71
(g92
g73
NtRp2575
(dp2576
g76
(dp2577
g96
g97
ssg85
g2571
sg78
(lp2578
S'SERVER_PROTOCOL'
p2579
asbag71
(g92
g73
NtRp2580
(dp2581
g76
(dp2582
g103
g104
ssg85
g2571
sg78
(lp2583
S':'
asbag71
(g92
g73
NtRp2584
(dp2585
g76
(dp2586
sg85
g2571
sg78
(lp2587
g71
(g72
g73
NtRp2588
(dp2589
g76
(dp2590
g84
I3
ssg85
g2584
sg78
(lp2591
g1116
asbasbasbag71
(g87
g73
NtRp2592
(dp2593
g76
(dp2594
sg85
g2168
sg78
(lp2595
g71
(g92
g73
NtRp2596
(dp2597
g76
(dp2598
g96
g97
ssg85
g2592
sg78
(lp2599
S'SERVER_SOFTWARE'
p2600
asbag71
(g92
g73
NtRp2601
(dp2602
g76
(dp2603
g103
g104
ssg85
g2592
sg78
(lp2604
S':'
asbag71
(g92
g73
NtRp2605
(dp2606
g76
(dp2607
sg85
g2592
sg78
(lp2608
g71
(g72
g73
NtRp2609
(dp2610
g76
(dp2611
g84
I3
ssg85
g2605
sg78
(lp2612
g1138
asbasbasbag71
(g87
g73
NtRp2613
(dp2614
g76
(dp2615
sg85
g2168
sg78
(lp2616
g71
(g92
g73
NtRp2617
(dp2618
g76
(dp2619
g96
g97
ssg85
g2613
sg78
(lp2620
S'WEB2PY_ORIGINAL_URI'
p2621
asbag71
(g92
g73
NtRp2622
(dp2623
g76
(dp2624
g103
g104
ssg85
g2613
sg78
(lp2625
S':'
asbag71
(g92
g73
NtRp2626
(dp2627
g76
(dp2628
sg85
g2613
sg78
(lp2629
g71
(g72
g73
NtRp2630
(dp2631
g76
(dp2632
g84
I3
ssg85
g2626
sg78
(lp2633
g922
asbasbasbag71
(g87
g73
NtRp2634
(dp2635
g76
(dp2636
sg85
g2168
sg78
(lp2637
g71
(g92
g73
NtRp2638
(dp2639
g76
(dp2640
g96
g97
ssg85
g2634
sg78
(lp2641
S'wsgi.errors'
p2642
asbag71
(g92
g73
NtRp2643
(dp2644
g76
(dp2645
g103
g104
ssg85
g2634
sg78
(lp2646
S':'
asbag71
(g92
g73
NtRp2647
(dp2648
g76
(dp2649
sg85
g2634
sg78
(lp2650
g71
(g72
g73
NtRp2651
(dp2652
g76
(dp2653
g84
I3
ssg85
g2647
sg78
(lp2654
S"<open file '<stderr>', mode 'w' at 0x7f43fec2c270>"
p2655
asbasbasbag71
(g87
g73
NtRp2656
(dp2657
g76
(dp2658
sg85
g2168
sg78
(lp2659
g71
(g92
g73
NtRp2660
(dp2661
g76
(dp2662
g96
g97
ssg85
g2656
sg78
(lp2663
S'wsgi.file_wrapper'
p2664
asbag71
(g92
g73
NtRp2665
(dp2666
g76
(dp2667
g103
g104
ssg85
g2656
sg78
(lp2668
S':'
asbag71
(g92
g73
NtRp2669
(dp2670
g76
(dp2671
sg85
g2656
sg78
(lp2672
g71
(g72
g73
NtRp2673
(dp2674
g76
(dp2675
g84
I3
ssg85
g2669
sg78
(lp2676
S'<class wsgiref.util.FileWrapper at 0x3341f58>'
p2677
asbasbasbag71
(g87
g73
NtRp2678
(dp2679
g76
(dp2680
sg85
g2168
sg78
(lp2681
g71
(g92
g73
NtRp2682
(dp2683
g76
(dp2684
g96
g97
ssg85
g2678
sg78
(lp2685
S'wsgi.input'
p2686
asbag71
(g92
g73
NtRp2687
(dp2688
g76
(dp2689
g103
g104
ssg85
g2678
sg78
(lp2690
S':'
asbag71
(g92
g73
NtRp2691
(dp2692
g76
(dp2693
sg85
g2678
sg78
(lp2694
g71
(g72
g73
NtRp2695
(dp2696
g76
(dp2697
g84
I3
ssg85
g2691
sg78
(lp2698
S'<cStringIO.StringO object at 0x7f43d87e9490>'
p2699
asbasbasbag71
(g87
g73
NtRp2700
(dp2701
g76
(dp2702
sg85
g2168
sg78
(lp2703
g71
(g92
g73
NtRp2704
(dp2705
g76
(dp2706
g96
g97
ssg85
g2700
sg78
(lp2707
S'wsgi.multiprocess'
p2708
asbag71
(g92
g73
NtRp2709
(dp2710
g76
(dp2711
g103
g104
ssg85
g2700
sg78
(lp2712
S':'
asbag71
(g92
g73
NtRp2713
(dp2714
g76
(dp2715
sg85
g2700
sg78
(lp2716
g71
(g72
g73
NtRp2717
(dp2718
g76
(dp2719
g84
I3
ssg85
g2713
sg78
(lp2720
g49
asbasbasbag71
(g87
g73
NtRp2721
(dp2722
g76
(dp2723
sg85
g2168
sg78
(lp2724
g71
(g92
g73
NtRp2725
(dp2726
g76
(dp2727
g96
g97
ssg85
g2721
sg78
(lp2728
S'wsgi.multithread'
p2729
asbag71
(g92
g73
NtRp2730
(dp2731
g76
(dp2732
g103
g104
ssg85
g2721
sg78
(lp2733
S':'
asbag71
(g92
g73
NtRp2734
(dp2735
g76
(dp2736
sg85
g2721
sg78
(lp2737
g71
(g72
g73
NtRp2738
(dp2739
g76
(dp2740
g84
I3
ssg85
g2734
sg78
(lp2741
g114
asbasbasbag71
(g87
g73
NtRp2742
(dp2743
g76
(dp2744
sg85
g2168
sg78
(lp2745
g71
(g92
g73
NtRp2746
(dp2747
g76
(dp2748
g96
g97
ssg85
g2742
sg78
(lp2749
S'wsgi.run_once'
p2750
asbag71
(g92
g73
NtRp2751
(dp2752
g76
(dp2753
g103
g104
ssg85
g2742
sg78
(lp2754
S':'
asbag71
(g92
g73
NtRp2755
(dp2756
g76
(dp2757
sg85
g2742
sg78
(lp2758
g71
(g72
g73
NtRp2759
(dp2760
g76
(dp2761
g84
I3
ssg85
g2755
sg78
(lp2762
g49
asbasbasbag71
(g87
g73
NtRp2763
(dp2764
g76
(dp2765
sg85
g2168
sg78
(lp2766
g71
(g92
g73
NtRp2767
(dp2768
g76
(dp2769
g96
g97
ssg85
g2763
sg78
(lp2770
S'wsgi.url_scheme'
p2771
asbag71
(g92
g73
NtRp2772
(dp2773
g76
(dp2774
g103
g104
ssg85
g2763
sg78
(lp2775
S':'
asbag71
(g92
g73
NtRp2776
(dp2777
g76
(dp2778
sg85
g2763
sg78
(lp2779
g71
(g72
g73
NtRp2780
(dp2781
g76
(dp2782
g84
I3
ssg85
g2776
sg78
(lp2783
g1441
asbasbasbag71
(g87
g73
NtRp2784
(dp2785
g76
(dp2786
sg85
g2168
sg78
(lp2787
g71
(g92
g73
NtRp2788
(dp2789
g76
(dp2790
g96
g97
ssg85
g2784
sg78
(lp2791
S'wsgi.version'
p2792
asbag71
(g92
g73
NtRp2793
(dp2794
g76
(dp2795
g103
g104
ssg85
g2784
sg78
(lp2796
S':'
asbag71
(g92
g73
NtRp2797
(dp2798
g76
(dp2799
sg85
g2784
sg78
(lp2800
g71
(g72
g73
NtRp2801
(dp2802
g76
(dp2803
g84
I3
ssg85
g2797
sg78
(lp2804
S'1'
asbasbasbasbasbasbasbasbasbasbasbasbasbsS'frames'
p2805
(lp2806
(dp2807
S'file'
p2808
S'/home/goshawk/web2py/gluon/restricted.py'
p2809
sS'dump'
p2810
(dp2811
S'environment'
p2812
S"{'A': <class 'gluon.html.A'>, 'Auth': <class 'gluon.tools.Auth'>, 'B': <class 'gluon.html.B'>, 'BEAUTIFY': <class 'gluon.html.BEAUTIFY'>, 'BODY': <class 'gluon.html.BODY'>, 'BR': <class 'gluon.html.BR'>, 'BUTTON': <class 'gluon.html.BUTTON'>, 'CAT': <class 'gluon.html.CAT'>, 'CENTER': <class 'gluon.html.CENTER'>, 'CLEANUP': <class 'gluon.validators.CLEANUP'>, ...}"
p2813
sS'ccode'
p2814
S'<code object <module> at 0x7f43c42678b0, file "/.../web2py/applications/milo/models/db.py", line 12>'
p2815
ssS'lnum'
p2816
I205
sS'lines'
p2817
(dp2818
I200
S'    try:'
p2819
sI201
S'        if type(code) == types.CodeType:'
p2820
sI202
S'            ccode = code'
p2821
sI203
S'        else:'
p2822
sI204
S'            ccode = compile2(code,layer)'
p2823
sI205
S'        exec ccode in environment'
p2824
sI206
S'    except HTTP:'
p2825
sI207
S'        raise'
p2826
sI208
S'    except RestrictedError:'
p2827
sI209
S'        # do not encapsulate (obfuscate) the original RestrictedError'
p2828
ssS'call'
p2829
S'(code="# -*- coding: utf-8 -*-\\n\\n#######################...t)),\\n        Field(\'times\', \'integer\')\\n        )\\n", environment={\'A\': <class \'gluon.html.A\'>, \'Auth\': <class \'gluon.tools.Auth\'>, \'B\': <class \'gluon.html.B\'>, \'BEAUTIFY\': <class \'gluon.html.BEAUTIFY\'>, \'BODY\': <class \'gluon.html.BODY\'>, \'BR\': <class \'gluon.html.BR\'>, \'BUTTON\': <class \'gluon.html.BUTTON\'>, \'CAT\': <class \'gluon.html.CAT\'>, \'CENTER\': <class \'gluon.html.CENTER\'>, \'CLEANUP\': <class \'gluon.validators.CLEANUP\'>, ...}, layer=\'/home/goshawk/web2py/applications/milo/models/db.py\')'
p2830
sS'func'
p2831
S'restricted'
p2832
sa(dp2833
g2808
S'/home/goshawk/web2py/applications/milo/models/db.py'
p2834
sg2810
(dp2835
S'imdb'
p2836
S"<module 'imdb' from '/usr/local/lib/python2.7/dist-packages/imdb/__init__.pyc'>"
p2837
sS'imdb_connection_str'
p2838
S"'postgres://imdb:imdbsecret@localhost/imdb'"
p2839
sS'imdb.IMDb'
p2840
S'<function IMDb>'
p2841
sS'im'
p2842
S'undefined'
p2843
sS'uri'
p2844
g2843
ssg2816
I86
sg2817
(dp2845
I81
S''
sI82
S'import imdb'
p2846
sI83
S''
sI84
S"imdb_connection_str = 'postgres://imdb:imdbsecret@localhost/imdb'"
p2847
sI85
S''
sI86
S"im = imdb.IMDb('sql', uri=imdb_connection_str)"
p2848
sI87
S''
sI88
S''
sI89
S"db.define_table('users',"
p2849
sI90
S"        Field('name'),"
p2850
ssg2829
S'()'
p2851
sg2831
S'<module>'
p2852
sa(dp2853
g2808
S'/usr/local/lib/python2.7/dist-packages/imdb/__init__.py'
p2854
sg2810
(dp2855
S'keywords'
p2856
S"{'uri': 'postgres://imdb:imdbsecret@localhost/imdb'}"
p2857
sS'arguments'
p2858
S'()'
p2859
sS'IMDbSqlAccessSystem'
p2860
S'<class imdb.parser.sql.IMDbSqlAccessSystem>'
p2861
ssg2816
I199
sg2817
(dp2862
I194
S"    elif accessSystem in ('sql', 'db', 'database'):"
p2863
sI195
S'        try:'
p2864
sI196
S'            from parser.sql import IMDbSqlAccessSystem'
p2865
sI197
S'        except ImportError:'
p2866
sI198
S"            raise IMDbError('the sql access system is not installed')"
p2867
sI199
S'        return IMDbSqlAccessSystem(*arguments, **keywords)'
p2868
sI200
S'    else:'
p2869
sI201
S'        raise IMDbError(\'unknown kind of data access system: "%s"\' \\'
p2870
sI202
S'                            % accessSystem)'
p2871
sI203
S''
ssg2829
S"(accessSystem='sql', *arguments=(), **keywords={'uri': 'postgres://imdb:imdbsecret@localhost/imdb'})"
p2872
sg2831
S'IMDb'
p2873
sa(dp2874
g2808
S'/usr/local/lib/python2.7/dist-packages/imdb/parser/sql/__init__.py'
p2875
sg2810
(dp2876
S'self'
p2877
S'<imdb.parser.sql.IMDbSqlAccessSystem instance>'
p2878
sS'uri'
p2879
S"'postgres://imdb:imdbsecret@localhost/imdb'"
p2880
sS'setConnection'
p2881
S'<function setConnection>'
p2882
sS'DB_TABLES'
p2883
S"[<TableAdapter(table=Table('name', MetaData(Engin...able=<name>), schema=None)) [id=139929641462224]>, <TableAdapter(table=Table('char_name', MetaData(...<char_name>), schema=None)) [id=139929641478032]>, <TableAdapter(table=Table('company_name', MetaDa...mpany_name>), schema=None)) [id=139929641493520]>, <TableAdapter(table=Table('kind_type', MetaData(...<kind_type>), schema=None)) [id=139929641513104]>, <TableAdapter(table=Table('title', MetaData(Engi...ble=<title>), schema=None)) [id=139929641514640]>, <TableAdapter(table=Table('company_type', MetaDa...mpany_type>), schema=None)) [id=139929641531728]>, <TableAdapter(table=Table('aka_name', MetaData(E...=<aka_name>), schema=None)) [id=139929641533264]>, <TableAdapter(table=Table('aka_title', MetaData(...<aka_title>), schema=None)) [id=139929641553168]>, <TableAdapter(table=Table('role_type', MetaData(...lable=False), schema=None)) [id=139929641570256]>, <TableAdapter(table=Table('cast_info', MetaData(...lable=False), schema=None)) [id=139929642096144]>, <TableAdapter(table=Table('comp_cast_type', Meta...lable=False), schema=None)) [id=139929642111632]>, <TableAdapter(table=Table('complete_cast', MetaD...lable=False), schema=None)) [id=139929642113168]>, <TableAdapter(table=Table('info_type', MetaData(...lable=False), schema=None)) [id=139929642131792]>, <TableAdapter(table=Table('link_type', MetaData(...lable=False), schema=None)) [id=139929642133328]>, <TableAdapter(table=Table('keyword', MetaData(En...e=<keyword>), schema=None)) [id=139929642134864]>, <TableAdapter(table=Table('movie_keyword', MetaD...lable=False), schema=None)) [id=139929642149072]>, <TableAdapter(table=Table('movie_link', MetaData...lable=False), schema=None)) [id=139929642150928]>, <TableAdapter(table=Table('movie_info', MetaData...movie_info>), schema=None)) [id=139929642173648]>, <TableAdapter(table=Table('movie_info_idx', Meta...e_info_idx>), schema=None)) [id=139929642176144]>, <TableAdapter(table=Table('movie_companies', Met..._companies>), schema=None)) [id=139929642190992]>, ...]"
p2884
sS'self._connection'
p2885
g2843
ssg2816
I595
sg2817
(dp2886
I590
S'        else:'
p2887
sI591
S"            raise IMDbError('unable to use any ORM in %s' % str(useORM))"
p2888
sI592
S'        # Set the connection to the database.'
p2889
sI593
S"        self._sql_logger.debug('connecting to %s', uri)"
p2890
sI594
S'        try:'
p2891
sI595
S'            self._connection = setConnection(uri, DB_TABLES)'
p2892
sI596
S'        except AssertionError, e:'
p2893
sI597
S'            raise IMDbDataAccessError( \\'
p2894
sI598
S"                    'unable to connect to the database server; ' + \\"
p2895
sI599
S'                    \'complete message: "%s"\' % str(e))'
p2896
ssg2829
S"(self=<imdb.parser.sql.IMDbSqlAccessSystem instance>, uri='postgres://imdb:imdbsecret@localhost/imdb', adultSearch=1, useORM=('sqlobject', 'sqlalchemy'), *arguments=(), **keywords={})"
p2897
sg2831
g26
sa(dp2898
g2808
S'/usr/local/lib/python2.7/dist-packages/imdb/parser/sql/alchemyadapter.py'
p2899
sg2810
(dp2900
S'engine'
p2901
S'Engine(postgres://imdb:imdbsecret@localhost/imdb)'
p2902
sS'eng_conn'
p2903
g2843
sS'engine.connect'
p2904
S'<bound method Engine.connect of Engine(postgres://imdb:imdbsecret@localhost/imdb)>'
p2905
ssg2816
I486
sg2817
(dp2906
I481
S'        # Try to work-around a possible bug of the ibm_db DB2 driver.'
p2907
sI482
S"        params['convert_unicode'] = True"
p2908
sI483
S'    # XXX: is this the best way to connect?'
p2909
sI484
S'    engine = create_engine(uri, **params)'
p2910
sI485
S'    metadata.bind = engine'
p2911
sI486
S'    eng_conn = engine.connect()'
p2912
sI487
S"    if uri.startswith('sqlite'):"
p2913
sI488
S'        major = sys.version_info[0]'
p2914
sI489
S'        minor = sys.version_info[1]'
p2915
sI490
S'        if major > 2 or (major == 2 and minor > 5):'
p2916
ssg2829
S"(uri='postgres://imdb:imdbsecret@localhost/imdb', tables=[<TableAdapter(table=Table('name', MetaData(Engin...able=<name>), schema=None)) [id=139929641462224]>, <TableAdapter(table=Table('char_name', MetaData(...<char_name>), schema=None)) [id=139929641478032]>, <TableAdapter(table=Table('company_name', MetaDa...mpany_name>), schema=None)) [id=139929641493520]>, <TableAdapter(table=Table('kind_type', MetaData(...<kind_type>), schema=None)) [id=139929641513104]>, <TableAdapter(table=Table('title', MetaData(Engi...ble=<title>), schema=None)) [id=139929641514640]>, <TableAdapter(table=Table('company_type', MetaDa...mpany_type>), schema=None)) [id=139929641531728]>, <TableAdapter(table=Table('aka_name', MetaData(E...=<aka_name>), schema=None)) [id=139929641533264]>, <TableAdapter(table=Table('aka_title', MetaData(...<aka_title>), schema=None)) [id=139929641553168]>, <TableAdapter(table=Table('role_type', MetaData(...lable=False), schema=None)) [id=139929641570256]>, <TableAdapter(table=Table('cast_info', MetaData(...lable=False), schema=None)) [id=139929642096144]>, <TableAdapter(table=Table('comp_cast_type', Meta...lable=False), schema=None)) [id=139929642111632]>, <TableAdapter(table=Table('complete_cast', MetaD...lable=False), schema=None)) [id=139929642113168]>, <TableAdapter(table=Table('info_type', MetaData(...lable=False), schema=None)) [id=139929642131792]>, <TableAdapter(table=Table('link_type', MetaData(...lable=False), schema=None)) [id=139929642133328]>, <TableAdapter(table=Table('keyword', MetaData(En...e=<keyword>), schema=None)) [id=139929642134864]>, <TableAdapter(table=Table('movie_keyword', MetaD...lable=False), schema=None)) [id=139929642149072]>, <TableAdapter(table=Table('movie_link', MetaData...lable=False), schema=None)) [id=139929642150928]>, <TableAdapter(table=Table('movie_info', MetaData...movie_info>), schema=None)) [id=139929642173648]>, <TableAdapter(table=Table('movie_info_idx', Meta...e_info_idx>), schema=None)) [id=139929642176144]>, <TableAdapter(table=Table('movie_companies', Met..._companies>), schema=None)) [id=139929642190992]>, ...], encoding='utf8', debug=False)"
p2917
sg2831
S'setConnection'
p2918
sa(dp2919
g2808
S'/usr/local/lib/python2.7/dist-packages/SQLAlchemy-0.7.0-py2.7-linux-x86_64.egg/sqlalchemy/engine/base.py'
p2920
sg2810
(dp2921
S'self'
p2922
S'Engine(postgres://imdb:imdbsecret@localhost/imdb)'
p2923
sS'self._connection_cls'
p2924
S"<class 'sqlalchemy.engine.base.Connection'>"
p2925
sS'kwargs'
p2926
S'{}'
p2927
ssg2816
I2080
sg2817
(dp2928
I2080
S'        return self._connection_cls(self, **kwargs)'
p2929
sI2081
S''
sI2082
S'    def contextual_connect(self, close_with_result=False, **kwargs):'
p2930
sI2083
S'        """Return a :class:`.Connection` object which may be part of some ongoing context.'
p2931
sI2084
S''
sI2075
S'        returning it back to the :class:`.Pool` after the :meth:`.Connection.close`'
p2932
sI2076
S'        method is called.'
p2933
sI2077
S''
sI2078
S'        """'
p2934
sI2079
S''
ssg2829
S'(self=Engine(postgres://imdb:imdbsecret@localhost/imdb), **kwargs={})'
p2935
sg2831
S'connect'
p2936
sa(dp2937
g2808
S'/usr/local/lib/python2.7/dist-packages/SQLAlchemy-0.7.0-py2.7-linux-x86_64.egg/sqlalchemy/engine/base.py'
p2938
sg2810
(dp2939
S'engine'
p2940
S'Engine(postgres://imdb:imdbsecret@localhost/imdb)'
p2941
sS'engine.raw_connection'
p2942
S'<bound method Engine.raw_connection of Engine(postgres://imdb:imdbsecret@localhost/imdb)>'
p2943
sS'self'
p2944
S'<sqlalchemy.engine.base.Connection object>'
p2945
sS'self.__connection'
p2946
g2843
sS'connection'
p2947
S'None'
p2948
ssg2816
I844
sg2817
(dp2949
I839
S'        :meth:`.Engine.contextual_connect` methods.'
p2950
sI840
S''
sI841
S'        """'
p2951
sI842
S'        self.engine = engine'
p2952
sI843
S'        self.dialect = engine.dialect'
p2953
sI844
S'        self.__connection = connection or engine.raw_connection()'
p2954
sI845
S'        self.__transaction = None'
p2955
sI846
S'        self.should_close_with_result = close_with_result'
p2956
sI847
S'        self.__savepoint_seq = 0'
p2957
sI848
S'        self.__branch = _branch'
p2958
ssg2829
S'(self=<sqlalchemy.engine.base.Connection object>, engine=Engine(postgres://imdb:imdbsecret@localhost/imdb), connection=None, close_with_result=False, _branch=False, _execution_options=None)'
p2959
sg2831
g26
sa(dp2960
g2808
S'/usr/local/lib/python2.7/dist-packages/SQLAlchemy-0.7.0-py2.7-linux-x86_64.egg/sqlalchemy/engine/base.py'
p2961
sg2810
(dp2962
S'self'
p2963
S'Engine(postgres://imdb:imdbsecret@localhost/imdb)'
p2964
sS'self.pool.unique_connection'
p2965
S'<bound method QueuePool.unique_connection of <sqlalchemy.pool.QueuePool object>>'
p2966
sS'self.pool'
p2967
S'<sqlalchemy.pool.QueuePool object>'
p2968
ssg2816
I2143
sg2817
(dp2969
I2144
S''
sI2145
S''
sI2146
S'# This reconstructor is necessary so that pickles with the C extension or'
p2970
sI2147
S'# without use the same Binary format.'
p2971
sI2138
S'        return self.run_callable(self.dialect.has_table, table_name, schema)'
p2972
sI2139
S''
sI2140
S'    def raw_connection(self):'
p2973
sI2141
S'        """Return a DB-API connection."""'
p2974
sI2142
S''
sI2143
S'        return self.pool.unique_connection()'
p2975
ssg2829
S'(self=Engine(postgres://imdb:imdbsecret@localhost/imdb))'
p2976
sg2831
S'raw_connection'
p2977
sa(dp2978
g2808
S'/usr/local/lib/python2.7/dist-packages/SQLAlchemy-0.7.0-py2.7-linux-x86_64.egg/sqlalchemy/pool.py'
p2979
sg2810
(dp2980
S'self'
p2981
S'<sqlalchemy.pool.QueuePool object>'
p2982
sS').checkout'
p2983
g2843
sS'global _ConnectionFairy'
p2984
S"<class 'sqlalchemy.pool._ConnectionFairy'>"
p2985
ssg2816
I169
sg2817
(dp2986
I164
S'        This method is different from :meth:`.Pool.connect` only if the'
p2987
sI165
S'        ``use_threadlocal`` flag has been set to ``True``.'
p2988
sI166
S''
sI167
S'        """'
p2989
sI168
S''
sI169
S'        return _ConnectionFairy(self).checkout()'
p2990
sI170
S''
sI171
S'    def _create_connection(self):'
p2991
sI172
S'        """Called by subclasses to create a new ConnectionRecord."""'
p2992
sI173
S''
ssg2829
S'(self=<sqlalchemy.pool.QueuePool object>)'
p2993
sg2831
S'unique_connection'
p2994
sa(dp2995
g2808
S'/usr/local/lib/python2.7/dist-packages/SQLAlchemy-0.7.0-py2.7-linux-x86_64.egg/sqlalchemy/pool.py'
p2996
sg2810
(dp2997
S'rec'
p2998
g2843
sS'self'
p2999
S'<sqlalchemy.pool._ConnectionFairy object>'
p3000
sS'pool'
p3001
S'<sqlalchemy.pool.QueuePool object>'
p3002
sS'self._connection_record'
p3003
S'None'
p3004
sS'pool._do_get'
p3005
S'<bound method QueuePool._do_get of <sqlalchemy.pool.QueuePool object>>'
p3006
ssg2816
I370
sg2817
(dp3007
I365
S'    def __init__(self, pool):'
p3008
sI366
S'        self._pool = pool'
p3009
sI367
S'        self.__counter = 0'
p3010
sI368
S'        self._echo = _echo = pool._should_log_debug()'
p3011
sI369
S'        try:'
p3012
sI370
S'            rec = self._connection_record = pool._do_get()'
p3013
sI371
S'            conn = self.connection = self._connection_record.get_connection()'
p3014
sI372
S'            rec.fairy = weakref.ref('
p3015
sI373
S'                            self,'
p3016
sI374
S'                            lambda ref:_finalize_fairy(conn, rec, pool, ref, _echo)'
p3017
ssg2829
S'(self=<sqlalchemy.pool._ConnectionFairy object>, pool=<sqlalchemy.pool.QueuePool object>)'
p3018
sg2831
g26
sa(dp3019
g2808
S'/usr/local/lib/python2.7/dist-packages/SQLAlchemy-0.7.0-py2.7-linux-x86_64.egg/sqlalchemy/pool.py'
p3020
sg2810
(dp3021
S'self'
p3022
S'<sqlalchemy.pool.QueuePool object>'
p3023
sS'self._create_connection'
p3024
S'<bound method QueuePool._create_connection of <sqlalchemy.pool.QueuePool object>>'
p3025
sS'con'
p3026
g2843
ssg2816
I696
sg2817
(dp3027
I691
S'                if self._overflow_lock is not None:'
p3028
sI692
S'                    self._overflow_lock.release()'
p3029
sI693
S'                return self._do_get()'
p3030
sI694
S''
sI695
S'            try:'
p3031
sI696
S'                con = self._create_connection()'
p3032
sI697
S'                self._overflow += 1'
p3033
sI698
S'            finally:'
p3034
sI699
S'                if self._overflow_lock is not None:'
p3035
sI700
S'                    self._overflow_lock.release()'
p3036
ssg2829
S'(self=<sqlalchemy.pool.QueuePool object>)'
p3037
sg2831
S'_do_get'
p3038
sa(dp3039
g2808
S'/usr/local/lib/python2.7/dist-packages/SQLAlchemy-0.7.0-py2.7-linux-x86_64.egg/sqlalchemy/pool.py'
p3040
sg2810
(dp3041
S'self'
p3042
S'<sqlalchemy.pool.QueuePool object>'
p3043
sS'global _ConnectionRecord'
p3044
S"<class 'sqlalchemy.pool._ConnectionRecord'>"
p3045
ssg2816
I174
sg2817
(dp3046
I169
S'        return _ConnectionFairy(self).checkout()'
p3047
sI170
S''
sI171
S'    def _create_connection(self):'
p3048
sI172
S'        """Called by subclasses to create a new ConnectionRecord."""'
p3049
sI173
S''
sI174
S'        return _ConnectionRecord(self)'
p3050
sI175
S''
sI176
S'    def recreate(self):'
p3051
sI177
S'        """Return a new :class:`.Pool`, of the same class as this one'
p3052
sI178
S'        and configured with identical creation arguments.'
p3053
ssg2829
S'(self=<sqlalchemy.pool.QueuePool object>)'
p3054
sg2831
S'_create_connection'
p3055
sa(dp3056
g2808
S'/usr/local/lib/python2.7/dist-packages/SQLAlchemy-0.7.0-py2.7-linux-x86_64.egg/sqlalchemy/pool.py'
p3057
sg2810
(dp3058
S'self'
p3059
S'<sqlalchemy.pool._ConnectionRecord object>'
p3060
sS'self.connection'
p3061
g2843
sS'self.__connect'
p3062
g2843
ssg2816
I255
sg2817
(dp3063
I256
S'        self.info = {}'
p3064
sI257
S''
sI258
S'        pool.dispatch.first_connect.exec_once(self.connection, self)'
p3065
sI259
S'        pool.dispatch.connect(self.connection, self)'
p3066
sI250
S'class _ConnectionRecord(object):'
p3067
sI251
S'    finalize_callback = None'
p3068
sI252
S''
sI253
S'    def __init__(self, pool):'
p3069
sI254
S'        self.__pool = pool'
p3070
sI255
S'        self.connection = self.__connect()'
p3071
ssg2829
S'(self=<sqlalchemy.pool._ConnectionRecord object>, pool=<sqlalchemy.pool.QueuePool object>)'
p3072
sg2831
g26
sa(dp3073
g2808
S'/usr/local/lib/python2.7/dist-packages/SQLAlchemy-0.7.0-py2.7-linux-x86_64.egg/sqlalchemy/pool.py'
p3074
sg2810
(dp3075
S'connection'
p3076
g2843
sS'self.__pool'
p3077
g2843
sS'self'
p3078
S'<sqlalchemy.pool._ConnectionRecord object>'
p3079
ssg2816
I315
sg2817
(dp3080
I310
S'                        self.connection, e)'
p3081
sI311
S''
sI312
S'    def __connect(self):'
p3082
sI313
S'        try:'
p3083
sI314
S'            self.starttime = time.time()'
p3084
sI315
S'            connection = self.__pool._creator()'
p3085
sI316
S'            self.__pool.logger.debug("Created new connection %r", connection)'
p3086
sI317
S'            return connection'
p3087
sI318
S'        except Exception, e:'
p3088
sI319
S'            self.__pool.logger.debug("Error on connect(): %s", e)'
p3089
ssg2829
S'(self=<sqlalchemy.pool._ConnectionRecord object>)'
p3090
sg2831
S'__connect'
p3091
sa(dp3092
g2808
S'/usr/local/lib/python2.7/dist-packages/SQLAlchemy-0.7.0-py2.7-linux-x86_64.egg/sqlalchemy/engine/strategies.py'
p3093
sg2810
(dp3094
S'dialect'
p3095
S'<sqlalchemy.dialects.postgresql.psycopg2.PGDialect_psycopg2 object>'
p3096
sS'cparams'
p3097
S"{'database': 'imdb', 'host': 'localhost', 'password': 'imdbsecret', 'user': 'imdb'}"
p3098
sS'cargs'
p3099
S'[]'
p3100
sS'dialect.connect'
p3101
S'<bound method PGDialect_psycopg2.connect of <sql...s.postgresql.psycopg2.PGDialect_psycopg2 object>>'
p3102
ssg2816
I80
sg2817
(dp3103
I75
S'        # look for existing pool or create'
p3104
sI76
S"        pool = kwargs.pop('pool', None)"
p3105
sI77
S'        if pool is None:'
p3106
sI78
S'            def connect():'
p3107
sI79
S'                try:'
p3108
sI80
S'                    return dialect.connect(*cargs, **cparams)'
p3109
sI81
S'                except Exception, e:'
p3110
sI82
S'                    # Py3K'
p3111
sI83
S'                    #raise exc.DBAPIError.instance(None, None,'
p3112
sI84
S'                    #                   e, dialect.dbapi.Error) from e'
p3113
ssg2829
S'()'
p3114
sg2831
g2936
sa(dp3115
g2808
S'/usr/local/lib/python2.7/dist-packages/SQLAlchemy-0.7.0-py2.7-linux-x86_64.egg/sqlalchemy/engine/default.py'
p3116
sg2810
(dp3117
S'self.dbapi.connect'
p3118
S'<function connect>'
p3119
sS'self'
p3120
S'<sqlalchemy.dialects.postgresql.psycopg2.PGDialect_psycopg2 object>'
p3121
sS'cparams'
p3122
S"{'database': 'imdb', 'host': 'localhost', 'password': 'imdbsecret', 'user': 'imdb'}"
p3123
sS'self.dbapi'
p3124
S"<module 'psycopg2' from '/usr/lib/python2.7/dist-packages/psycopg2/__init__.pyc'>"
p3125
sS'cargs'
p3126
S'()'
p3127
ssg2816
I275
sg2817
(dp3128
I270
S'                "Identifier \'%s\' exceeds maximum length of %d characters" %'
p3129
sI271
S'                (ident, self.max_identifier_length)'
p3130
sI272
S'            )'
p3131
sI273
S''
sI274
S'    def connect(self, *cargs, **cparams):'
p3132
sI275
S'        return self.dbapi.connect(*cargs, **cparams)'
p3133
sI276
S''
sI277
S'    def create_connect_args(self, url):'
p3134
sI278
S'        opts = url.translate_connect_args()'
p3135
sI279
S'        opts.update(url.query)'
p3136
ssg2829
S"(self=<sqlalchemy.dialects.postgresql.psycopg2.PGDialect_psycopg2 object>, *cargs=(), **cparams={'database': 'imdb', 'host': 'localhost', 'password': 'imdbsecret', 'user': 'imdb'})"
p3137
sg2831
g2936
sa(dp3138
g2808
S'/usr/lib/python2.7/dist-packages/psycopg2/__init__.py'
p3139
sg2810
(dp3140
S'async'
p3141
g49
sS'connection_factory'
p3142
S'None'
p3143
ssg2816
I179
sg2817
(dp3144
I174
S''
sI175
S'        if not dsn:'
p3145
sI176
S"            raise InterfaceError('missing dsn and no parameters')"
p3146
sI177
S''
sI178
S'    return _connect(dsn,'
p3147
sI179
S'        connection_factory=connection_factory, async=async)'
p3148
sI180
S''
sI181
S''
sI182
S"__all__ = filter(lambda k: not k.startswith('_'), locals().keys())"
p3149
sI183
S''
ssg2829
S"(dsn='dbname=imdb user=imdb password=imdbsecret host=localhost', database='imdb', user='imdb', password='imdbsecret', host='localhost', port=None, connection_factory=None, async=False, **kwargs={})"
p3150
sg2831
g2936
sasS'pyver'
p3151
S'Python 2.7.3: /usr/bin/python'
p3152
sS'session'
p3153
g71
(g72
g73
NtRp3154
(dp3155
g76
(dp3156
sg78
(lp3157
g71
(g80
g73
NtRp3158
(dp3159
g76
(dp3160
g84
I5
ssg85
Nsg78
(lp3161
sbasbsS'etype'
p3162
S"<class 'sqlalchemy.exc.OperationalError'>"
p3163
sS'date'
p3164
S'Sun Jul 15 02:00:00 2012'
p3165
sS'response'
p3166
g71
(g72
g73
NtRp3167
(dp3168
g76
(dp3169
sg78
(lp3170
g71
(g80
g73
NtRp3171
(dp3172
g76
(dp3173
g84
I5
ssg85
Nsg78
(lp3174
g71
(g87
g73
NtRp3175
(dp3176
g76
(dp3177
sg85
g3171
sg78
(lp3178
g71
(g92
g73
NtRp3179
(dp3180
g76
(dp3181
g96
g97
ssg85
g3175
sg78
(lp3182
g182
asbag71
(g92
g73
NtRp3183
(dp3184
g76
(dp3185
g103
g104
ssg85
g3175
sg78
(lp3186
S':'
asbag71
(g92
g73
NtRp3187
(dp3188
g76
(dp3189
sg85
g3175
sg78
(lp3190
g71
(g72
g73
NtRp3191
(dp3192
g76
(dp3193
g84
I5
ssg85
g3187
sg78
(lp3194
S'<cStringIO.StringO object at 0x7f43d87e9570>'
p3195
asbasbasbag71
(g87
g73
NtRp3196
(dp3197
g76
(dp3198
sg85
g3171
sg78
(lp3199
g71
(g92
g73
NtRp3200
(dp3201
g76
(dp3202
g96
g97
ssg85
g3196
sg78
(lp3203
g248
asbag71
(g92
g73
NtRp3204
(dp3205
g76
(dp3206
g103
g104
ssg85
g3196
sg78
(lp3207
S':'
asbag71
(g92
g73
NtRp3208
(dp3209
g76
(dp3210
sg85
g3196
sg78
(lp3211
g71
(g72
g73
NtRp3212
(dp3213
g76
(dp3214
g84
I5
ssg85
g3208
sg78
(lp3215
g71
(g80
g73
NtRp3216
(dp3217
g76
(dp3218
g84
I4
ssg85
Nsg78
(lp3219
g71
(g87
g73
NtRp3220
(dp3221
g76
(dp3222
sg85
g3216
sg78
(lp3223
g71
(g92
g73
NtRp3224
(dp3225
g76
(dp3226
g96
g97
ssg85
g3220
sg78
(lp3227
S'session_id_milo'
p3228
asbag71
(g92
g73
NtRp3229
(dp3230
g76
(dp3231
g103
g104
ssg85
g3220
sg78
(lp3232
S':'
asbag71
(g92
g73
NtRp3233
(dp3234
g76
(dp3235
sg85
g3220
sg78
(lp3236
g71
(g72
g73
NtRp3237
(dp3238
g76
(dp3239
g84
I4
ssg85
g3233
sg78
(lp3240
g71
(g80
g73
NtRp3241
(dp3242
g76
(dp3243
g84
I3
ssg85
Nsg78
(lp3244
g71
(g87
g73
NtRp3245
(dp3246
g76
(dp3247
sg85
g3241
sg78
(lp3248
g71
(g92
g73
NtRp3249
(dp3250
g76
(dp3251
g96
g97
ssg85
g3245
sg78
(lp3252
g298
asbag71
(g92
g73
NtRp3253
(dp3254
g76
(dp3255
g103
g104
ssg85
g3245
sg78
(lp3256
S':'
asbag71
(g92
g73
NtRp3257
(dp3258
g76
(dp3259
sg85
g3245
sg78
(lp3260
g71
(g72
g73
NtRp3261
(dp3262
g76
(dp3263
g84
I3
ssg85
g3257
sg78
(lp3264
S''
asbasbasbag71
(g87
g73
NtRp3265
(dp3266
g76
(dp3267
sg85
g3241
sg78
(lp3268
g71
(g92
g73
NtRp3269
(dp3270
g76
(dp3271
g96
g97
ssg85
g3265
sg78
(lp3272
g319
asbag71
(g92
g73
NtRp3273
(dp3274
g76
(dp3275
g103
g104
ssg85
g3265
sg78
(lp3276
S':'
asbag71
(g92
g73
NtRp3277
(dp3278
g76
(dp3279
sg85
g3265
sg78
(lp3280
g71
(g72
g73
NtRp3281
(dp3282
g76
(dp3283
g84
I3
ssg85
g3277
sg78
(lp3284
S''
asbasbasbag71
(g87
g73
NtRp3285
(dp3286
g76
(dp3287
sg85
g3241
sg78
(lp3288
g71
(g92
g73
NtRp3289
(dp3290
g76
(dp3291
g96
g97
ssg85
g3285
sg78
(lp3292
g340
asbag71
(g92
g73
NtRp3293
(dp3294
g76
(dp3295
g103
g104
ssg85
g3285
sg78
(lp3296
S':'
asbag71
(g92
g73
NtRp3297
(dp3298
g76
(dp3299
sg85
g3285
sg78
(lp3300
g71
(g72
g73
NtRp3301
(dp3302
g76
(dp3303
g84
I3
ssg85
g3297
sg78
(lp3304
S''
asbasbasbag71
(g87
g73
NtRp3305
(dp3306
g76
(dp3307
sg85
g3241
sg78
(lp3308
g71
(g92
g73
NtRp3309
(dp3310
g76
(dp3311
g96
g97
ssg85
g3305
sg78
(lp3312
g361
asbag71
(g92
g73
NtRp3313
(dp3314
g76
(dp3315
g103
g104
ssg85
g3305
sg78
(lp3316
S':'
asbag71
(g92
g73
NtRp3317
(dp3318
g76
(dp3319
sg85
g3305
sg78
(lp3320
g71
(g72
g73
NtRp3321
(dp3322
g76
(dp3323
g84
I3
ssg85
g3317
sg78
(lp3324
S''
asbasbasbag71
(g87
g73
NtRp3325
(dp3326
g76
(dp3327
sg85
g3241
sg78
(lp3328
g71
(g92
g73
NtRp3329
(dp3330
g76
(dp3331
g96
g97
ssg85
g3325
sg78
(lp3332
g382
asbag71
(g92
g73
NtRp3333
(dp3334
g76
(dp3335
g103
g104
ssg85
g3325
sg78
(lp3336
S':'
asbag71
(g92
g73
NtRp3337
(dp3338
g76
(dp3339
sg85
g3325
sg78
(lp3340
g71
(g72
g73
NtRp3341
(dp3342
g76
(dp3343
g84
I3
ssg85
g3337
sg78
(lp3344
S''
asbasbasbag71
(g87
g73
NtRp3345
(dp3346
g76
(dp3347
sg85
g3241
sg78
(lp3348
g71
(g92
g73
NtRp3349
(dp3350
g76
(dp3351
g96
g97
ssg85
g3345
sg78
(lp3352
g403
asbag71
(g92
g73
NtRp3353
(dp3354
g76
(dp3355
g103
g104
ssg85
g3345
sg78
(lp3356
S':'
asbag71
(g92
g73
NtRp3357
(dp3358
g76
(dp3359
sg85
g3345
sg78
(lp3360
g71
(g72
g73
NtRp3361
(dp3362
g76
(dp3363
g84
I3
ssg85
g3357
sg78
(lp3364
S'/'
asbasbasbag71
(g87
g73
NtRp3365
(dp3366
g76
(dp3367
sg85
g3241
sg78
(lp3368
g71
(g92
g73
NtRp3369
(dp3370
g76
(dp3371
g96
g97
ssg85
g3365
sg78
(lp3372
g424
asbag71
(g92
g73
NtRp3373
(dp3374
g76
(dp3375
g103
g104
ssg85
g3365
sg78
(lp3376
S':'
asbag71
(g92
g73
NtRp3377
(dp3378
g76
(dp3379
sg85
g3365
sg78
(lp3380
g71
(g72
g73
NtRp3381
(dp3382
g76
(dp3383
g84
I3
ssg85
g3377
sg78
(lp3384
S''
asbasbasbag71
(g87
g73
NtRp3385
(dp3386
g76
(dp3387
sg85
g3241
sg78
(lp3388
g71
(g92
g73
NtRp3389
(dp3390
g76
(dp3391
g96
g97
ssg85
g3385
sg78
(lp3392
g445
asbag71
(g92
g73
NtRp3393
(dp3394
g76
(dp3395
g103
g104
ssg85
g3385
sg78
(lp3396
S':'
asbag71
(g92
g73
NtRp3397
(dp3398
g76
(dp3399
sg85
g3385
sg78
(lp3400
g71
(g72
g73
NtRp3401
(dp3402
g76
(dp3403
g84
I3
ssg85
g3397
sg78
(lp3404
S''
asbasbasbasbasbasbasbasbasbasbasbag71
(g87
g73
NtRp3405
(dp3406
g76
(dp3407
sg85
g3171
sg78
(lp3408
g71
(g92
g73
NtRp3409
(dp3410
g76
(dp3411
g96
g97
ssg85
g3405
sg78
(lp3412
S'delimiters'
p3413
asbag71
(g92
g73
NtRp3414
(dp3415
g76
(dp3416
g103
g104
ssg85
g3405
sg78
(lp3417
S':'
asbag71
(g92
g73
NtRp3418
(dp3419
g76
(dp3420
sg85
g3405
sg78
(lp3421
g71
(g72
g73
NtRp3422
(dp3423
g76
(dp3424
g84
I5
ssg85
g3418
sg78
(lp3425
g71
(g80
g73
NtRp3426
(dp3427
g76
(dp3428
g84
I4
ssg85
Nsg78
(lp3429
g71
(g87
g73
NtRp3430
(dp3431
g76
(dp3432
sg85
g3426
sg78
(lp3433
g71
(g92
g73
NtRp3434
(dp3435
g76
(dp3436
sg85
g3430
sg78
(lp3437
g71
(g72
g73
NtRp3438
(dp3439
g76
(dp3440
g84
I4
ssg85
g3434
sg78
(lp3441
S'{{'
p3442
asbasbasbag71
(g87
g73
NtRp3443
(dp3444
g76
(dp3445
sg85
g3426
sg78
(lp3446
g71
(g92
g73
NtRp3447
(dp3448
g76
(dp3449
sg85
g3443
sg78
(lp3450
g71
(g72
g73
NtRp3451
(dp3452
g76
(dp3453
g84
I4
ssg85
g3447
sg78
(lp3454
S'}}'
p3455
asbasbasbasbasbasbasbag71
(g87
g73
NtRp3456
(dp3457
g76
(dp3458
sg85
g3171
sg78
(lp3459
g71
(g92
g73
NtRp3460
(dp3461
g76
(dp3462
g96
g97
ssg85
g3456
sg78
(lp3463
S'files'
p3464
asbag71
(g92
g73
NtRp3465
(dp3466
g76
(dp3467
g103
g104
ssg85
g3456
sg78
(lp3468
S':'
asbag71
(g92
g73
NtRp3469
(dp3470
g76
(dp3471
sg85
g3456
sg78
(lp3472
g71
(g72
g73
NtRp3473
(dp3474
g76
(dp3475
g84
I5
ssg85
g3469
sg78
(lp3476
g71
(g80
g73
NtRp3477
(dp3478
g76
(dp3479
g84
I4
ssg85
Nsg78
(lp3480
sbasbasbasbag71
(g87
g73
NtRp3481
(dp3482
g76
(dp3483
sg85
g3171
sg78
(lp3484
g71
(g92
g73
NtRp3485
(dp3486
g76
(dp3487
g96
g97
ssg85
g3481
sg78
(lp3488
S'flash'
p3489
asbag71
(g92
g73
NtRp3490
(dp3491
g76
(dp3492
g103
g104
ssg85
g3481
sg78
(lp3493
S':'
asbag71
(g92
g73
NtRp3494
(dp3495
g76
(dp3496
sg85
g3481
sg78
(lp3497
g71
(g72
g73
NtRp3498
(dp3499
g76
(dp3500
g84
I5
ssg85
g3494
sg78
(lp3501
S''
asbasbasbag71
(g87
g73
NtRp3502
(dp3503
g76
(dp3504
sg85
g3171
sg78
(lp3505
g71
(g92
g73
NtRp3506
(dp3507
g76
(dp3508
g96
g97
ssg85
g3502
sg78
(lp3509
S'generic_patterns'
p3510
asbag71
(g92
g73
NtRp3511
(dp3512
g76
(dp3513
g103
g104
ssg85
g3502
sg78
(lp3514
S':'
asbag71
(g92
g73
NtRp3515
(dp3516
g76
(dp3517
sg85
g3502
sg78
(lp3518
g71
(g72
g73
NtRp3519
(dp3520
g76
(dp3521
g84
I5
ssg85
g3515
sg78
(lp3522
g71
(g80
g73
NtRp3523
(dp3524
g76
(dp3525
g84
I4
ssg85
Nsg78
(lp3526
g71
(g87
g73
NtRp3527
(dp3528
g76
(dp3529
sg85
g3523
sg78
(lp3530
g71
(g92
g73
NtRp3531
(dp3532
g76
(dp3533
sg85
g3527
sg78
(lp3534
g71
(g72
g73
NtRp3535
(dp3536
g76
(dp3537
g84
I4
ssg85
g3531
sg78
(lp3538
S'*'
asbasbasbasbasbasbasbag71
(g87
g73
NtRp3539
(dp3540
g76
(dp3541
sg85
g3171
sg78
(lp3542
g71
(g92
g73
NtRp3543
(dp3544
g76
(dp3545
g96
g97
ssg85
g3539
sg78
(lp3546
S'headers'
p3547
asbag71
(g92
g73
NtRp3548
(dp3549
g76
(dp3550
g103
g104
ssg85
g3539
sg78
(lp3551
S':'
asbag71
(g92
g73
NtRp3552
(dp3553
g76
(dp3554
sg85
g3539
sg78
(lp3555
g71
(g72
g73
NtRp3556
(dp3557
g76
(dp3558
g84
I5
ssg85
g3552
sg78
(lp3559
g71
(g80
g73
NtRp3560
(dp3561
g76
(dp3562
g84
I4
ssg85
Nsg78
(lp3563
g71
(g87
g73
NtRp3564
(dp3565
g76
(dp3566
sg85
g3560
sg78
(lp3567
g71
(g92
g73
NtRp3568
(dp3569
g76
(dp3570
g96
g97
ssg85
g3564
sg78
(lp3571
S'Cache-Control'
p3572
asbag71
(g92
g73
NtRp3573
(dp3574
g76
(dp3575
g103
g104
ssg85
g3564
sg78
(lp3576
S':'
asbag71
(g92
g73
NtRp3577
(dp3578
g76
(dp3579
sg85
g3564
sg78
(lp3580
g71
(g72
g73
NtRp3581
(dp3582
g76
(dp3583
g84
I4
ssg85
g3577
sg78
(lp3584
S'no-store, no-cache, must-revalidate, post-check=0, pre-check=0'
p3585
asbasbasbag71
(g87
g73
NtRp3586
(dp3587
g76
(dp3588
sg85
g3560
sg78
(lp3589
g71
(g92
g73
NtRp3590
(dp3591
g76
(dp3592
g96
g97
ssg85
g3586
sg78
(lp3593
S'Content-Type'
p3594
asbag71
(g92
g73
NtRp3595
(dp3596
g76
(dp3597
g103
g104
ssg85
g3586
sg78
(lp3598
S':'
asbag71
(g92
g73
NtRp3599
(dp3600
g76
(dp3601
sg85
g3586
sg78
(lp3602
g71
(g72
g73
NtRp3603
(dp3604
g76
(dp3605
g84
I4
ssg85
g3599
sg78
(lp3606
S'text/html; charset=utf-8'
p3607
asbasbasbag71
(g87
g73
NtRp3608
(dp3609
g76
(dp3610
sg85
g3560
sg78
(lp3611
g71
(g92
g73
NtRp3612
(dp3613
g76
(dp3614
g96
g97
ssg85
g3608
sg78
(lp3615
S'Expires'
p3616
asbag71
(g92
g73
NtRp3617
(dp3618
g76
(dp3619
g103
g104
ssg85
g3608
sg78
(lp3620
S':'
asbag71
(g92
g73
NtRp3621
(dp3622
g76
(dp3623
sg85
g3608
sg78
(lp3624
g71
(g72
g73
NtRp3625
(dp3626
g76
(dp3627
g84
I4
ssg85
g3621
sg78
(lp3628
S'Sun, 15 Jul 2012 00:00:00 GMT'
p3629
asbasbasbag71
(g87
g73
NtRp3630
(dp3631
g76
(dp3632
sg85
g3560
sg78
(lp3633
g71
(g92
g73
NtRp3634
(dp3635
g76
(dp3636
g96
g97
ssg85
g3630
sg78
(lp3637
S'Pragma'
p3638
asbag71
(g92
g73
NtRp3639
(dp3640
g76
(dp3641
g103
g104
ssg85
g3630
sg78
(lp3642
S':'
asbag71
(g92
g73
NtRp3643
(dp3644
g76
(dp3645
sg85
g3630
sg78
(lp3646
g71
(g72
g73
NtRp3647
(dp3648
g76
(dp3649
g84
I4
ssg85
g3643
sg78
(lp3650
S'no-cache'
p3651
asbasbasbag71
(g87
g73
NtRp3652
(dp3653
g76
(dp3654
sg85
g3560
sg78
(lp3655
g71
(g92
g73
NtRp3656
(dp3657
g76
(dp3658
g96
g97
ssg85
g3652
sg78
(lp3659
S'X-Powered-By'
p3660
asbag71
(g92
g73
NtRp3661
(dp3662
g76
(dp3663
g103
g104
ssg85
g3652
sg78
(lp3664
S':'
asbag71
(g92
g73
NtRp3665
(dp3666
g76
(dp3667
sg85
g3652
sg78
(lp3668
g71
(g72
g73
NtRp3669
(dp3670
g76
(dp3671
g84
I4
ssg85
g3665
sg78
(lp3672
S'web2py'
p3673
asbasbasbasbasbasbasbag71
(g87
g73
NtRp3674
(dp3675
g76
(dp3676
sg85
g3171
sg78
(lp3677
g71
(g92
g73
NtRp3678
(dp3679
g76
(dp3680
g96
g97
ssg85
g3674
sg78
(lp3681
S'menu'
p3682
asbag71
(g92
g73
NtRp3683
(dp3684
g76
(dp3685
g103
g104
ssg85
g3674
sg78
(lp3686
S':'
asbag71
(g92
g73
NtRp3687
(dp3688
g76
(dp3689
sg85
g3674
sg78
(lp3690
g71
(g72
g73
NtRp3691
(dp3692
g76
(dp3693
g84
I5
ssg85
g3687
sg78
(lp3694
g71
(g80
g73
NtRp3695
(dp3696
g76
(dp3697
g84
I4
ssg85
Nsg78
(lp3698
sbasbasbasbag71
(g87
g73
NtRp3699
(dp3700
g76
(dp3701
sg85
g3171
sg78
(lp3702
g71
(g92
g73
NtRp3703
(dp3704
g76
(dp3705
g96
g97
ssg85
g3699
sg78
(lp3706
S'meta'
p3707
asbag71
(g92
g73
NtRp3708
(dp3709
g76
(dp3710
g103
g104
ssg85
g3699
sg78
(lp3711
S':'
asbag71
(g92
g73
NtRp3712
(dp3713
g76
(dp3714
sg85
g3699
sg78
(lp3715
g71
(g72
g73
NtRp3716
(dp3717
g76
(dp3718
g84
I5
ssg85
g3712
sg78
(lp3719
g71
(g80
g73
NtRp3720
(dp3721
g76
(dp3722
g84
I4
ssg85
Nsg78
(lp3723
sbasbasbasbag71
(g87
g73
NtRp3724
(dp3725
g76
(dp3726
sg85
g3171
sg78
(lp3727
g71
(g92
g73
NtRp3728
(dp3729
g76
(dp3730
g96
g97
ssg85
g3724
sg78
(lp3731
S'postprocessing'
p3732
asbag71
(g92
g73
NtRp3733
(dp3734
g76
(dp3735
g103
g104
ssg85
g3724
sg78
(lp3736
S':'
asbag71
(g92
g73
NtRp3737
(dp3738
g76
(dp3739
sg85
g3724
sg78
(lp3740
g71
(g72
g73
NtRp3741
(dp3742
g76
(dp3743
g84
I5
ssg85
g3737
sg78
(lp3744
g71
(g80
g73
NtRp3745
(dp3746
g76
(dp3747
g84
I4
ssg85
Nsg78
(lp3748
sbasbasbasbag71
(g87
g73
NtRp3749
(dp3750
g76
(dp3751
sg85
g3171
sg78
(lp3752
g71
(g92
g73
NtRp3753
(dp3754
g76
(dp3755
g96
g97
ssg85
g3749
sg78
(lp3756
S'session_filename'
p3757
asbag71
(g92
g73
NtRp3758
(dp3759
g76
(dp3760
g103
g104
ssg85
g3749
sg78
(lp3761
S':'
asbag71
(g92
g73
NtRp3762
(dp3763
g76
(dp3764
sg85
g3749
sg78
(lp3765
g71
(g72
g73
NtRp3766
(dp3767
g76
(dp3768
g84
I5
ssg85
g3762
sg78
(lp3769
S'/home/goshawk/web2py/applications/milo/sessions/127.0.0.1-aa116bbc-8326-49e9-ad7a-e9e65eb63d31'
p3770
asbasbasbag71
(g87
g73
NtRp3771
(dp3772
g76
(dp3773
sg85
g3171
sg78
(lp3774
g71
(g92
g73
NtRp3775
(dp3776
g76
(dp3777
g96
g97
ssg85
g3771
sg78
(lp3778
S'session_id'
p3779
asbag71
(g92
g73
NtRp3780
(dp3781
g76
(dp3782
g103
g104
ssg85
g3771
sg78
(lp3783
S':'
asbag71
(g92
g73
NtRp3784
(dp3785
g76
(dp3786
sg85
g3771
sg78
(lp3787
g71
(g72
g73
NtRp3788
(dp3789
g76
(dp3790
g84
I5
ssg85
g3784
sg78
(lp3791
S'127.0.0.1-aa116bbc-8326-49e9-ad7a-e9e65eb63d31'
p3792
asbasbasbag71
(g87
g73
NtRp3793
(dp3794
g76
(dp3795
sg85
g3171
sg78
(lp3796
g71
(g92
g73
NtRp3797
(dp3798
g76
(dp3799
g96
g97
ssg85
g3793
sg78
(lp3800
S'session_id_name'
p3801
asbag71
(g92
g73
NtRp3802
(dp3803
g76
(dp3804
g103
g104
ssg85
g3793
sg78
(lp3805
S':'
asbag71
(g92
g73
NtRp3806
(dp3807
g76
(dp3808
sg85
g3793
sg78
(lp3809
g71
(g72
g73
NtRp3810
(dp3811
g76
(dp3812
g84
I5
ssg85
g3806
sg78
(lp3813
g3228
asbasbasbag71
(g87
g73
NtRp3814
(dp3815
g76
(dp3816
sg85
g3171
sg78
(lp3817
g71
(g92
g73
NtRp3818
(dp3819
g76
(dp3820
g96
g97
ssg85
g3814
sg78
(lp3821
S'session_new'
p3822
asbag71
(g92
g73
NtRp3823
(dp3824
g76
(dp3825
g103
g104
ssg85
g3814
sg78
(lp3826
S':'
asbag71
(g92
g73
NtRp3827
(dp3828
g76
(dp3829
sg85
g3814
sg78
(lp3830
g71
(g72
g73
NtRp3831
(dp3832
g76
(dp3833
g84
I5
ssg85
g3827
sg78
(lp3834
g114
asbasbasbag71
(g87
g73
NtRp3835
(dp3836
g76
(dp3837
sg85
g3171
sg78
(lp3838
g71
(g92
g73
NtRp3839
(dp3840
g76
(dp3841
g96
g97
ssg85
g3835
sg78
(lp3842
S'status'
p3843
asbag71
(g92
g73
NtRp3844
(dp3845
g76
(dp3846
g103
g104
ssg85
g3835
sg78
(lp3847
S':'
asbag71
(g92
g73
NtRp3848
(dp3849
g76
(dp3850
sg85
g3835
sg78
(lp3851
g71
(g72
g73
NtRp3852
(dp3853
g76
(dp3854
g84
I5
ssg85
g3848
sg78
(lp3855
S'200'
p3856
asbasbasbag71
(g87
g73
NtRp3857
(dp3858
g76
(dp3859
sg85
g3171
sg78
(lp3860
g71
(g92
g73
NtRp3861
(dp3862
g76
(dp3863
g96
g97
ssg85
g3857
sg78
(lp3864
g2083
asbag71
(g92
g73
NtRp3865
(dp3866
g76
(dp3867
g103
g104
ssg85
g3857
sg78
(lp3868
S':'
asbag71
(g92
g73
NtRp3869
(dp3870
g76
(dp3871
sg85
g3857
sg78
(lp3872
g71
(g72
g73
NtRp3873
(dp3874
g76
(dp3875
g84
I5
ssg85
g3869
sg78
(lp3876
g2096
asbasbasbag71
(g87
g73
NtRp3877
(dp3878
g76
(dp3879
sg85
g3171
sg78
(lp3880
g71
(g92
g73
NtRp3881
(dp3882
g76
(dp3883
g96
g97
ssg85
g3877
sg78
(lp3884
S'view'
p3885
asbag71
(g92
g73
NtRp3886
(dp3887
g76
(dp3888
g103
g104
ssg85
g3877
sg78
(lp3889
S':'
asbag71
(g92
g73
NtRp3890
(dp3891
g76
(dp3892
sg85
g3877
sg78
(lp3893
g71
(g72
g73
NtRp3894
(dp3895
g76
(dp3896
g84
I5
ssg85
g3890
sg78
(lp3897
S'admin/info_algorithm.html'
p3898
asbasbasbasbasbsS'locals'
p3899
(dp3900
S'database'
p3901
S"'imdb'"
p3902
sS'items'
p3903
S"[('dbname', 'imdb'), ('user', 'imdb'), ('password', 'imdbsecret'), ('host', 'localhost')]"
p3904
sS'k'
S"'host'"
p3905
sS'kwargs'
p3906
g2927
sS'connection_factory'
p3907
S'None'
p3908
sS'dsn'
p3909
S"'dbname=imdb user=imdb password=imdbsecret host=localhost'"
p3910
sS'host'
p3911
S"'localhost'"
p3912
sS'user'
p3913
S"'imdb'"
p3914
sS'v'
S"'localhost'"
p3915
sS'async'
p3916
g49
sS'password'
p3917
S"'imdbsecret'"
p3918
sS'port'
p3919
S'None'
p3920
sssS'traceback'
p3921
S'Traceback (most recent call last):\n  File "/home/goshawk/web2py/gluon/restricted.py", line 205, in restricted\n    exec ccode in environment\n  File "/home/goshawk/web2py/applications/milo/models/db.py", line 86, in <module>\n    im = imdb.IMDb(\'sql\', uri=imdb_connection_str)\n  File "/usr/local/lib/python2.7/dist-packages/imdb/__init__.py", line 199, in IMDb\n    return IMDbSqlAccessSystem(*arguments, **keywords)\n  File "/usr/local/lib/python2.7/dist-packages/imdb/parser/sql/__init__.py", line 595, in __init__\n    self._connection = setConnection(uri, DB_TABLES)\n  File "/usr/local/lib/python2.7/dist-packages/imdb/parser/sql/alchemyadapter.py", line 486, in setConnection\n    eng_conn = engine.connect()\n  File "/usr/local/lib/python2.7/dist-packages/SQLAlchemy-0.7.0-py2.7-linux-x86_64.egg/sqlalchemy/engine/base.py", line 2080, in connect\n    return self._connection_cls(self, **kwargs)\n  File "/usr/local/lib/python2.7/dist-packages/SQLAlchemy-0.7.0-py2.7-linux-x86_64.egg/sqlalchemy/engine/base.py", line 844, in __init__\n    self.__connection = connection or engine.raw_connection()\n  File "/usr/local/lib/python2.7/dist-packages/SQLAlchemy-0.7.0-py2.7-linux-x86_64.egg/sqlalchemy/engine/base.py", line 2143, in raw_connection\n    return self.pool.unique_connection()\n  File "/usr/local/lib/python2.7/dist-packages/SQLAlchemy-0.7.0-py2.7-linux-x86_64.egg/sqlalchemy/pool.py", line 169, in unique_connection\n    return _ConnectionFairy(self).checkout()\n  File "/usr/local/lib/python2.7/dist-packages/SQLAlchemy-0.7.0-py2.7-linux-x86_64.egg/sqlalchemy/pool.py", line 370, in __init__\n    rec = self._connection_record = pool._do_get()\n  File "/usr/local/lib/python2.7/dist-packages/SQLAlchemy-0.7.0-py2.7-linux-x86_64.egg/sqlalchemy/pool.py", line 696, in _do_get\n    con = self._create_connection()\n  File "/usr/local/lib/python2.7/dist-packages/SQLAlchemy-0.7.0-py2.7-linux-x86_64.egg/sqlalchemy/pool.py", line 174, in _create_connection\n    return _ConnectionRecord(self)\n  File "/usr/local/lib/python2.7/dist-packages/SQLAlchemy-0.7.0-py2.7-linux-x86_64.egg/sqlalchemy/pool.py", line 255, in __init__\n    self.connection = self.__connect()\n  File "/usr/local/lib/python2.7/dist-packages/SQLAlchemy-0.7.0-py2.7-linux-x86_64.egg/sqlalchemy/pool.py", line 315, in __connect\n    connection = self.__pool._creator()\n  File "/usr/local/lib/python2.7/dist-packages/SQLAlchemy-0.7.0-py2.7-linux-x86_64.egg/sqlalchemy/engine/strategies.py", line 80, in connect\n    return dialect.connect(*cargs, **cparams)\n  File "/usr/local/lib/python2.7/dist-packages/SQLAlchemy-0.7.0-py2.7-linux-x86_64.egg/sqlalchemy/engine/default.py", line 275, in connect\n    return self.dbapi.connect(*cargs, **cparams)\n  File "/usr/lib/python2.7/dist-packages/psycopg2/__init__.py", line 179, in connect\n    connection_factory=connection_factory, async=async)\nOperationalError: (OperationalError) FATAL:  remaining connection slots are reserved for non-replication superuser connections\n None None\n'
p3922
s.