(dp1
S'output'
p2
S"<type 'exceptions.SyntaxError'> not enough information to build the url"
p3
sS'layer'
p4
S'/home/goshawk/web2py/applications/milo/views/default/index.html'
p5
sS'code'
p6
S'left_sidebar_enabled,right_sidebar_enabled=False,True\nresponse.write(\'\\n\', escape=False)\nresponse.write(\'<!DOCTYPE html>\\n<!-- paulirish.com/2008/conditional-stylesheets-vs-css-hacks-answer-neither/ -->\\n<!--[if lt IE 7]><html class="ie ie6 ie-lte9 ie-lte8 ie-lte7 no-js" lang="\', escape=False)\nresponse.write(T.accepted_language or \'en\')\nresponse.write(\'"> <![endif]-->\\n<!--[if IE 7]><html class="ie ie7 ie-lte9 ie-lte8 ie-lte7 no-js" lang="\', escape=False)\nresponse.write(T.accepted_language or \'en\')\nresponse.write(\'"> <![endif]-->\\n<!--[if IE 8]><html class="ie ie8 ie-lte9 ie-lte8 no-js" lang="\', escape=False)\nresponse.write(T.accepted_language or \'en\')\nresponse.write(\'"> <![endif]-->\\n<!--[if IE 9]><html class="ie9 ie-lte9 no-js" lang="\', escape=False)\nresponse.write(T.accepted_language or \'en\')\nresponse.write(\'"> <![endif]-->\\n<!--[if (gt IE 9)|!(IE)]><!--> <html class="no-js" lang="\', escape=False)\nresponse.write(T.accepted_language or \'en\')\nresponse.write(\'"> <!--<![endif]-->\\n<head>\\n  <meta charset="utf-8" />\\n  <!-- www.phpied.com/conditional-comments-block-downloads/ -->\\n  <!-- Always force latest IE rendering engine\\n\\t   (even in intranet) & Chrome Frame\\n\\t   Remove this if you use the .htaccess -->\\n  <!--[if IE]>\\n    <meta http-equiv="X-UA-Compatible" content="IE=edge\', escape=False)\nresponse.write(not request.is_local and \',chrome=1\' or \'\')\nresponse.write(\'">\\n  <![endif]-->\\n  \\n  <title>\', escape=False)\nresponse.write(response.title or request.application)\nresponse.write(\'</title>\\n  \\n  <!-- http://dev.w3.org/html5/markup/meta.name.html -->\\n  <meta name="application-name" content="\', escape=False)\nresponse.write(request.application)\nresponse.write(\'" />\\n  \\n  <!-- Speaking of Google, don\\\'t forget to set your site up:\\n\\t   http://google.com/webmasters -->\\n  <meta name="google-site-verification" content="" />\\n\\n  <!--  Mobile Viewport Fix\\n\\t  j.mp/mobileviewport & davidbcalhoun.com/2010/viewport-metatag\\n\\t  device-width: Occupy full width of the screen in its current orientation\\n\\t  initial-scale = 1.0 retains dimensions instead of zooming out if page height > device height\\n\\t  user-scalable = yes allows the user to zoom in -->\\n  <meta name="viewport" content="width=device-width, initial-scale=1.0, user-scalable=yes">\\n  \\n  <!-- Place favicon.ico and apple-touch-icon.png in the root of your domain and delete these references -->\\n  <link rel="shortcut icon" href="\', escape=False)\nresponse.write(URL(\'static\',\'favicon.ico\'))\nresponse.write(\'" type="image/x-icon">\\n  <link rel="apple-touch-icon" href="\', escape=False)\nresponse.write(URL(\'static\',\'favicon.png\'))\nresponse.write(\'">\\n\\n  <!-- All JavaScript at the bottom, except for Modernizr which enables \\n\\t   HTML5 elements & feature detects -->\\n  <script src="\', escape=False)\nresponse.write(URL(\'static\',\'js/modernizr.custom.js\'))\nresponse.write(\'"></script>\\n\\n  <!-- include stylesheets -->\\n  \', escape=False)\nresponse.files.append(URL(\'static\',\'css/skeleton.css\'))\nresponse.files.append(URL(\'static\',\'css/web2py.css\'))\nresponse.files.append(URL(\'static\', \'css/style.css\'))\nresponse.files.append(URL(\'static\', \'css/style.css3.css\'))\nresponse.files.append(URL(\'static\', \'css/smoothness/jquery-ui.css\'))\nif response.menu:\n    response.files.append(URL(\'static\',\'css/superfish.css\'))\n    response.files.append(URL(\'static\',\'js/superfish.js\'))\n    pass\nresponse.write(\'\\n\\n  \', escape=False)\nresponse.write(\'<script type="text/javascript"><!--\\n    // These variables are used by the web2py_ajax_init function in web2py_ajax.js (which is loaded below).\\n    var w2p_ajax_confirm_message = "\', escape=False)\nresponse.write(T(\'Are you sure you want to delete this object?\'))\nresponse.write(\'";\\n    var w2p_ajax_date_format = "\', escape=False)\nresponse.write(T(\'%Y-%m-%d\'))\nresponse.write(\'";\\n    var w2p_ajax_datetime_format = "\', escape=False)\nresponse.write(T(\'%Y-%m-%d %H:%M:%S\'))\nresponse.write(\'";\\n    //--></script>\\n\', escape=False)\nresponse.files.insert(0,URL(\'static\',\'js/jquery.js\'))\nresponse.files.insert(1,URL(\'static\',\'css/calendar.css\'))\nresponse.files.insert(2,URL(\'static\',\'js/calendar.js\'))\nresponse.files.insert(3,URL(\'static\',\'js/web2py.js\'))\nresponse.include_meta()\nresponse.include_files()\nresponse.write(\'\\n\', escape=False)\nresponse.write(\'\\n\\n  \', escape=False)\nif response.menu:\n    response.write(\'\\n  <script type="text/javascript">\\n    jQuery(function(){ jQuery(\\\'ul.sf-menu\\\').supersubs({minWidth:12,maxWidth:30,extraWidth:3}).superfish(); });\\n  </script>\\n  \', escape=False)\n    pass\nresponse.write(\'\\n\\n  \', escape=False)\n# using sidebars need to know what sidebar you want to use\nleft_sidebar_enabled = globals().get(\'left_sidebar_enabled\',False)\nright_sidebar_enabled = globals().get(\'right_sidebar_enabled\',False)\nmiddle_columns = {0:\'sixteen\',1:\'twelve\',2:\'eight\'}[\n(left_sidebar_enabled and 1 or 0)+(right_sidebar_enabled and 1 or 0)]\nresponse.write(\'\\n\\n  <!-- uncomment here to load jquery-ui\\n  <link rel="stylesheet" href="http://ajax.googleapis.com/ajax/libs/jqueryui/1.8.16/themes/base/jquery-ui.css" type="text/css" media="all" />\\n  <script src="http://ajax.googleapis.com/ajax/libs/jqueryui/1.8.16/jquery-ui.min.js" type="text/javascript"></script>\\n  uncomment to load jquery-ui //-->\\n  \\n<!--   Added by old milo -->\\n\\n<!-- custom theme styles -->\\n \\n  \\n<!--   <link rel=\\\'stylesheet\\\' id=\\\'fancybox-css\\\' href="${request.static_url(\\\'milo_app:static/js/fancybox/style.css_ver=3.1\\\')}" type=\\n  \\\'text/css\\\' media=\\\'all\\\' />\\n\\n  <script type=\\\'text/javascript\\\' src="${request.static_url(\\\'milo_app:static/js/jquery.js\\\')}">\\n  </script>\\n  <script type=\\\'text/javascript\\\' src="${request.static_url(\\\'milo_app:static/js/jqueryui.js\\\')}">\\n  </script>\\n  <script type=\\\'text/javascript\\\' src="${request.static_url(\\\'milo_app:static/js/ui.js\\\')}">\\n  </script>\\n  <script type=\\\'text/javascript\\\' src="${request.static_url(\\\'milo_app:static/js/l10n.js\\\')}">\\n  </script>\\n  <script type=\\\'text/javascript\\\' src="${request.static_url(\\\'milo_app:static/js/jquery.superfish.js\\\')}">\\n  </script>\\n  <script type=\\\'text/javascript\\\' src="${request.static_url(\\\'milo_app:static/js/jquery.easing.js\\\')}">\\n  </script>\\n  <script type=\\\'text/javascript\\\' src="${request.static_url(\\\'milo_app:static/js/jquery.coda.js\\\')}">\\n  </script>\\n  <script type=\\\'text/javascript\\\' src="${request.static_url(\\\'milo_app:static/js/jquery.float.js\\\')}">\\n  </script>\\n  <script type=\\\'text/javascript\\\' src="${request.static_url(\\\'milo_app:static/js/jquery.equal.js\\\')}">\\n  </script>\\n  <script type=\\\'text/javascript\\\' src="${request.static_url(\\\'milo_app:static/js/fancybox/jquery.fancybox.js\\\')}">\\n  </script>\\n  <script type=\\\'text/javascript\\\' src="${request.static_url(\\\'milo_app:static/js/jquery.validate.js\\\')}">\\n  </script>\\n  <script tal:condition="new_rec" type=\\\'text/javascript\\\' src="${request.static_url(\\\'milo_app:static/js/undo.js\\\')}">\\n  </script>\\t\\n  <script src="http://connect.facebook.net/en_US/all.js#appId=113902308692268&amp;xfbml=1">\\n  </script>\\n  <script type=\\\'text/javascript\\\' src="${request.static_url(\\\'milo_app:static/js/rating.js\\\')}">\\n  </script>\\n  <metal:add_js metal:define-slot="add_js"></metal:add_js>\\t -->\\n  \\n  <script type="text/javascript">\\n\\t\\t\\t //<![CDATA[\\n          function doClear(theText) {\\n                if (theText.value == theText.defaultValue) {\\n                        theText.value = ""\\n                }\\n          }\\n          //]]>\\n  </script>\\n</head>\\n<body>\\n  <div class="wrapper"><!-- for sticky footer -->\\n  \\n    <div class="topbar">\\n      <div class="container">    \\n        <div class="sixteen columns">\\n          <div id="navbar">\', escape=False)\nresponse.write(\'auth\' in globals() and auth.navbar(separators=(\' \',\' | \',\'\')))\nresponse.write(\'</div>\\n          \', escape=False)\nis_mobile=request.user_agent().is_mobile\nresponse.write(\'\\n\\t  \', escape=False)\nif response.menu:\n    response.write(\'\\n          <div id="menu">\\n             \', escape=False)\n    response.write(MENU(response.menu, _class=\'mobile-menu\' if is_mobile else \'sf-menu\',mobile=is_mobile))\n    response.write(\'\\n          </div>\\n          \', escape=False)\n    pass\nresponse.write(\'\\n        </div>\\n      </div>\\n    </div><!-- topbar -->\\n    \\n    <div class="flash">\', escape=False)\nresponse.write(response.flash or \'\')\nresponse.write(\'</div>\\n    \\n    <div class="header">\\n      <div class="container">         \\n        <div class="sixteen columns">\\n          <img src="\', escape=False)\nresponse.write(URL(\'static\',\'images/logo.png\'))\nresponse.write(\'"/>\\n          <h5>\', escape=False)\nresponse.write(response.subtitle or \'\')\nresponse.write(\'</h5>\\n          <div id="search">\\n            <form method="POST" autocomplete="off" id="search-form" action="${request.resource_url(request.root,\\\'Popular\\\')}" name="search-form">\\n              <input type="text" name="search_query" id="s" value="Find movies by query" onfocus=\\n              "doClear(this)" /> \\n              <input type="submit" id="search-submit" value="" />\\n            </form>\\n          </div><!-- search -->\\n        </div>\\n        <div class="sixteen columns">\\n          <div class="statusbar clearfix">\\n            \', escape=False)\nresponse.write(\'\\n            <div class="breadcrumbs">\', escape=False)\nresponse.write(request.function.replace(\'_\', \' \').title())\nresponse.write(\'</div>\\n            \', escape=False)\nresponse.write(\'\\n            <!-- AddToAny BEGIN -->\\n            <div style="float:right; padding-top: .25em;" class="a2a_kit a2a_default_style">\\n            <a class="a2a_dd" href="http://www.addtoany.com/share_save">Share</a></div>\\n            <script type="text/javascript" src="http://static.addtoany.com/menu/page.js"></script>\\n            <!-- AddToAny END -->\\n          </div>\\n        </div>\\n      </div>\\n    </div>\\n\\n    <div class="main">\\n      <div class="container">                 \\n        \', escape=False)\nif left_sidebar_enabled:\n    response.write(\'\\n        <div class="four columns left-sidebar">\\n          \', escape=False)\n    response.write(\'\\n          <h3>Left Sidebar</h3>\\n          <p></p>\\n          \', escape=False)\n    response.write(\'\\n        </div>\\n        \', escape=False)\n    pass\nresponse.write(\'\\n        \\n        <div class="\', escape=False)\nresponse.write(middle_columns)\nresponse.write(\' columns center">\\n          \', escape=False)\nresponse.write(\'\\n          \', escape=False)\nresponse.write(\'\\n<div id="content-inside">\\n      <div id="coda-nav">\\n            <div class="coda-slider" id="slider">\\n              <div class="panel">\\n                <div class="slider-post">\\n\\t\\t\\t\\t <a tal:attributes="href request.resource_url(request.root, \\\'Movie\\\',\\\'details\\\', movie.title)">\\n                  <img src="response.files.append(URL(\\\'static\\\',\\\'js/superfish.js\\\'))movie_data/\\\'+movie.image)"/>\\n                  class="slider-image" alt="${movie.title}" title="${movie.title}" />\\n                  </a>\\n                  <div class="slider-movie-description">\\n\\t\\t\\t\\t\\t<h2 tal:condition="logged"><a tal:attributes="href request.resource_url(request.root, \\\'Recommended\\\')" >Recommended for you!</a></h2>\\n                    <h2 tal:condition="not logged"><a tal:attributes="href request.resource_url(request.root, \\\'Popular\\\')" >Top ${repeat.movie.number} Movie</a></h2>\\n                    <h3><a tal:attributes="href request.resource_url(request.root, \\\'Movie\\\',\\\'details\\\', movie.title)" >${movie.title}</a></h3>\\n                    <p tal:condition="movie.description">${movie.description[:120]+\\\'...\\\'}</p>\\n                    <a class="continue" tal:attributes="href request.resource_url(request.root, \\\'Movie\\\',\\\'details\\\', movie.title)" title="More"></a>\\n                    \\n\\t\\t\\t\\t\\t<tal:logged condition="logged">\\n\\t\\t\\t\\t\\t<div class="recommend-thumbs-slider">\\n\\t\\t\\t\\t\\t\\t<a href="javascript:panel_down(\\\'${request.resource_url(request.root, query=dict(rec=\\\'new\\\'))}\\\',\\\'A new recommendation is available. Do you want to load it?\\\');" title="Like this movie">Like <img width="20" height="20" src="${request.static_url(\\\'milo_app:static/images/icons/fatcow/32x32/thumb_up.png\\\')}"></a>\\n\\t\\t\\t\\t\\t\\t<a href="javascript:panel_down(\\\'${request.resource_url(request.root, query=dict(rec=\\\'new\\\'))}\\\',\\\'A new recommendation is available. Do you want to load it?\\\');" title="Dislike this movie">Dislike <img width="20" height="20" src="${request.static_url(\\\'milo_app:static/images/icons/fatcow/32x32/thumb_down.png\\\')}"></a>\\n\\t\\t\\t\\t\\t</div><!--Recommended-thumbs-slider-->\\n\\t\\t\\t\\t\\t</tal:logged>\\t\\n                    \\n                    <div class="slider-movie-details">\\n\\t\\t\\t\\t\\t<ul> \\n\\t\\t\\t\\t\\t\\t<!--<li class="date-slider">Release date: ${movie.date.strftime(\\\'%Y\\\')}</li>-->\\n\\t\\t\\t\\t\\t\\t<li class="info-slider"><img src="${request.static_url(\\\'milo_app:static/images/icons/play.png\\\')}"/>Views: <span>2.000</span> </li>\\n\\t\\t\\t\\t\\t\\t<li class="info-slider"><img src="${request.static_url(\\\'milo_app:static/images/icons/heart.png\\\')}"/><span>70%</span> of raters liked</li>\\n\\t\\t\\t\\t\\t\\t<li class="genre-slider">Genre: <tal:genres repeat="g movie.genre"><b>${g}&nbsp;</tal:genres></li>\\n\\t\\t\\t\\t\\t\\t\\n\\t\\t\\t\\t\\t</ul>\\n\\t\\t\\t\\t\\t</div><!-- slider-movie-details-->\\n                  </div><!-- slider-movie-description-->\\n\\n                </div><!-- slider-post -->\\n              </div><!-- panel -->\\n              \\n    \\t\\t</div><!-- coda-slider -->\\n   \\t</div><!-- coda-nav -->\\n\\n\\t<div id="slider-foot">\\n    </div><!-- slider-foot-->\\n\\t\\n\\t\\t<div id="post-container">\\n         <div id="posts">\\n\\t\\t\\t\\t\\n\\t\\t\\t\\t<h2 title="Orientation">\\n\\t\\t\\t\\t<div id="filter">\\n\\t\\t\\t\\t\\tBrowsing ${category} by\\n\\t\\t\\t\\t\\t<select value="${movies.get(\\\'title\\\')}">\\n\\t\\t\\t\\t\\t  <option value="Last updates">\\n\\t\\t\\t\\t\\t\\tLast updates\\n\\t\\t\\t\\t\\t  </option>\\n\\t\\t\\t\\t\\t  <option value="Popularity">\\n\\t\\t\\t\\t\\t\\tPopularity\\n\\t\\t\\t\\t\\t  </option>\\n\\t\\t\\t\\t\\t</select>\\t\\t\\n\\t\\t\\t\\t</div><!-- filter -->\\n\\t\\t\\t\\t</h2>\\n\\t\\t\\t\', escape=False)\nfor movie in list_movies:\n    response.write(\'\\n            <div class="gallery-item \', escape=False)\n    if not list_movies.index(movie) % 3:\n        response.write(\'clearboth\', escape=False)\n        pass\n    response.write(\'">\\n            \\t<div class="post-thumbnail">\\n            \\t<a class="thumbnail-frame" title="See the trailer and details">\\n            \\t<img width="180" height="260" src="\', escape=False)\n    response.write(URL(\'static\', movie.get(\'poster\')))\n    response.write(\'" class="recommended-post-thumbnail"/>\\t\\t\\t\\t\\n\\t\\t\\t\\t</a>            \\n            \\t</div><!--post-thumbnail-->\\n\\n              \\t<h2><a href="http://www.imdb.com/title/tt\', escape=False)\n    response.write(movie.get(\'imdb_id\'))\n    response.write(\'/" title="Go to this movie page">\', escape=False)\n    response.write(movie.get(\'title\'))\n    response.write(\'</a><span title="Release Date">(${movie.date.strftime(\\\'%Y\\\')})</span></h2>\\n\\n              \\t<ul class="post-meta">\\n<!--               \\t <li class="date">Release date: ${movie.date.strftime(\\\'%Y\\\')}</li>\\n-->\\n\\t\\t\\t\\t\\t<tal:logged condition="logged">\\n\\t\\t\\t\\t\\t<li class="info info-logged">\\n\\t\\t\\t\\t\\t\\t<span>Rated it: </span>\\n\\t\\t\\t\\t\\t\\t<a href="javascript:panel_down(&quot;${request.resource_url(request.root, query=dict(rec=\\\'new\\\'))}&quot;,&quot;A new recommendation is available. Do you want to load it?&quot;);" title="Like this movie"><img width="18" height="18" src="${request.static_url(\\\'milo_app:static/images/icons/fatcow/32x32/thumb_up.png\\\')}"></a>\\n\\t\\t\\t\\t\\t\\t<a href="javascript:panel_down(&quot;${request.resource_url(request.root, query=dict(rec=\\\'new\\\'))}&quot;,&quot;A new recommendation is available. Do you want to load it?&quot;);" title="Dislike this movie"><img width="18" height="18" src="${request.static_url(\\\'milo_app:static/images/icons/fatcow/32x32/thumb_down.png\\\')}"></a>\\n\\t\\t\\t\\t\\t</li>\\n\\t\\t\\t\\t\\t</tal:logged>\\n\\t\\t\\t\\t\\t<li class="info"><img src="${request.static_url(\\\'milo_app:static/images/icons/play.png\\\')}"/>Views: <span>2.000</span> </li>\\n\\t\\t\\t\\t\\t<li class="info"><img src="${request.static_url(\\\'milo_app:static/images/icons/heart.png\\\')}"/><span>70%</span> of raters liked</li>\\n\\t\\t\\t\\t\\t<li class="genre">Genre: <tal:genres repeat="g movie.genre"><b>${g}&nbsp;</tal:genres></li>\\n\\n                \\t<li class="comments"><a href="#comments" title="View comments about this movie">${len(movie.comments)} Comments</a></li>\\n              </ul>\\n            </div>\\n            <!-- movie-item , first_page=\\\'false\\\')-->\\n\\t\\t\\t\', escape=False)\n    pass\nresponse.write(\'\\t\\t\\t\\n\\t\\t\\t<!--Next/Previous buttons-->\\n\\t\\t\\t<metal:prev_next metal:define-slot="prev_next">\\n\\t\\t\\t<div id="posts-footer">\\n\\t\\t\\t\\t\', escape=False)\nif page*items_per_page < max_items:\n    response.write(\'\\n\\t\\t\\t\\t<a id="next-bottom-button" href="\', escape=False)\n    response.write(URL(args=[page+1]))\n    response.write(\'">Next<img src="\', escape=False)\n    response.write(URL(\'static\',\'images/icons/fatcow/32x32/resultset_next.png\'))\n    response.write(\'"></img></a>\\n\\t\\t\\t\\t\', escape=False)\n    pass\nresponse.write(\'\\n\\t\\t\\t\\t\', escape=False)\nif page != 0:\n    response.write(\'\\n\\t\\t\\t\\t<a id="previous-bottom-button" href="\', escape=False)\n    response.write(URL(args=[page-1]))\n    response.write(\'"><img src="\', escape=False)\n    response.write(URL(\'static\',\'images/icons/fatcow/32x32/resultset_previous.png\'))\n    response.write(\'"></img>Previous</a>\\n\\t\\t\\t\\t\', escape=False)\n    pass\nresponse.write(\'\\n\\t\\t\\t</div><!-- posts-footer-->\\t\\t\\t\\n\\t\\t\\t</metal:prev_next>\\n          </div><!-- posts -->\\n\\t\\t\\t\\t\\n\\t\\t\\t<div id="sidebar">\\n\\t\\t\\t\\t<h2 id="sidebar-title">${right_movies.get(\\\'title\\\')}</h2>\\n           <div id="top-movies-sidebar" class="widget">\\n\\n              <div class="sidebar-item" tal:repeat="movie right_movies.get(\\\'movies\\\')">\\n                <div class="post-thumbnail-side"><a class="thumbnail-frame-side" tal:attributes="href request.resource_url(request.root, \\\'Movie\\\',\\\'details\\\', movie.title)"\\n                title="Movie-Title#6"><!-- nothing to see here --></a>\\n                <img width="80" height="80" tal:attributes="src request.static_url(\\\'milo_app:static/movie_data/\\\'+movie.poster)" alt="Can" title="can" />\\n                </div>\\n\\n                <div class="sidebar-item-content">\\n                  <h3><a tal:attributes="href request.resource_url(request.root, \\\'Movie\\\',\\\'details\\\', movie.title)" rel="bookmark" title="Movie-Title#6">${movie.title}</a></h3>\\n\\n                  <p tal:condition="movie.description">${movie.description[0:80]+\\\'...\\\'}</p>\\n                </div>\\n              </div>\\n            </div><!-- top-movies-sidebar -->  \\n\\t\\t\\t\\t\\t\\n            <div id="sidebar-profile" class="widget">\\n              <h2></h2>\\n                <p><a href="" target="_blank" title=""></a></p>\\n            </div><!-- sidebar-profile -->\\n          \\n         </div><!-- sidebar -->\\n        </div><!-- post-container -->\\n      </div><!-- content-inside -->\\n\\n\', escape=False)\nresponse.write(BEAUTIFY(response._vars))\nresponse.write(\'\\n\\n\', escape=False)\nresponse.write(\'\\n\\n\', escape=False)\nresponse.write(\'\\n          \', escape=False)\nresponse.write(\'\\n        </div>\\n        \\n        \', escape=False)\nif right_sidebar_enabled:\n    response.write(\'\\n        <div class="four columns">\\n          \', escape=False)\n    response.write(\'\\n\\n\', escape=False)\n    response.write(\'\\n        </div>    \\n        \', escape=False)\n    pass\nresponse.write(\'\\n        \\n      </div><!-- container -->\\n    </div><!-- main -->\\n    \\n    <div class="push"></div>\\n  </div><!-- wrapper -->\\n\\n  <div class="footer">\\n    <div class="container">    \\n      <div class="sixteen columns">\\n        \', escape=False)\nresponse.write(\' <!-- this is default footer -->\\n        <div class="footer-content clearfix">\\n          <div style="float: right;">\\n            <a href="http://www.web2py.com/">\\n            <img style="padding-bottom: 0;" src="\', escape=False)\nresponse.write(URL(\'static\',\'images/poweredby.png\'))\nresponse.write(\'"/>\\n            </a>\\n          </div>\\n        </div>\\n        \', escape=False)\nresponse.write(\'\\t\\n      </div>\\n    </div><!-- container -->\\n  </div><!-- footer -->\\n  \\n  <!--[if lt IE 7 ]>\\n\\t<script src="\', escape=False)\nresponse.write(URL(\'static\',\'js/dd_belatedpng.js\'))\nresponse.write(\'"></script>\\n\\t<script> DD_belatedPNG.fix(\\\'img, .png_bg\\\'); //fix any <img> or .png_bg background-images </script>\\n\\t<![endif]-->\\n  \', escape=False)\nif response.google_analytics_id:\n    response.write(\'<script type="text/javascript"> var _gaq = _gaq || []; _gaq.push([\\\'_setAccount\\\', \\\'\', escape=False)\n    response.write(response.google_analytics_id)\n    response.write("\']); _gaq.push([\'_trackPageview\']); (function() { var ga = document.createElement(\'script\'); ga.type = \'text/javascript\'; ga.async = true; ga.src = (\'https:\' == document.location.protocol ? \'https://ssl\' : \'http://www\') + \'.google-analytics.com/ga.js\'; var s = document.getElementsByTagName(\'script\')[0]; s.parentNode.insertBefore(ga, s); })(); </script> ", escape=False)\n    pass\nresponse.write(\'\\n</body>\\n</html>\\n\', escape=False)'
p7
sS'snapshot'
p8
(dp9
S'exception'
p10
(dp11
S'__getslice__'
p12
S"<method-wrapper '__getslice__' of exceptions.SyntaxError object>"
p13
sS'text'
p14
S'None'
p15
sS'__str__'
p16
S"<method-wrapper '__str__' of exceptions.SyntaxError object>"
p17
sS'__reduce__'
p18
S'<built-in method __reduce__ of exceptions.SyntaxError object>'
p19
sS'__dict__'
p20
S'{}'
p21
sS'__sizeof__'
p22
S'<built-in method __sizeof__ of exceptions.SyntaxError object>'
p23
sS'__init__'
p24
S"<method-wrapper '__init__' of exceptions.SyntaxError object>"
p25
sS'__setattr__'
p26
S"<method-wrapper '__setattr__' of exceptions.SyntaxError object>"
p27
sS'__reduce_ex__'
p28
S'<built-in method __reduce_ex__ of exceptions.SyntaxError object>'
p29
sS'__new__'
p30
S'<built-in method __new__ of type object>'
p31
sS'__format__'
p32
S'<built-in method __format__ of exceptions.SyntaxError object>'
p33
sS'__class__'
p34
S"<type 'exceptions.SyntaxError'>"
p35
sS'filename'
p36
S'None'
p37
sS'lineno'
p38
S'None'
p39
sS'msg'
p40
S"'not enough information to build the url'"
p41
sS'__doc__'
p42
S"'Invalid syntax.'"
p43
sS'__getitem__'
p44
S"<method-wrapper '__getitem__' of exceptions.SyntaxError object>"
p45
sS'__setstate__'
p46
S'<built-in method __setstate__ of exceptions.SyntaxError object>'
p47
sS'__getattribute__'
p48
S"<method-wrapper '__getattribute__' of exceptions.SyntaxError object>"
p49
sS'print_file_and_line'
p50
S'None'
p51
sS'args'
p52
S"('not enough information to build the url',)"
p53
sS'__subclasshook__'
p54
S'<built-in method __subclasshook__ of type object>'
p55
sS'offset'
p56
S'None'
p57
sS'__unicode__'
p58
S'<built-in method __unicode__ of exceptions.SyntaxError object>'
p59
sS'__delattr__'
p60
S"<method-wrapper '__delattr__' of exceptions.SyntaxError object>"
p61
sS'__repr__'
p62
S"<method-wrapper '__repr__' of exceptions.SyntaxError object>"
p63
sS'__hash__'
p64
S"<method-wrapper '__hash__' of exceptions.SyntaxError object>"
p65
ssS'evalue'
p66
S'not enough information to build the url'
p67
sS'request'
p68
ccopy_reg
_reconstructor
p69
(cgluon.html
BEAUTIFY
p70
c__builtin__
object
p71
NtRp72
(dp73
S'attributes'
p74
(dp75
sS'components'
p76
(lp77
g69
(cgluon.html
TABLE
p78
g71
NtRp79
(dp80
g74
(dp81
S'level'
p82
I5
ssS'parent'
p83
Nsg76
(lp84
g69
(cgluon.html
TR
p85
g71
NtRp86
(dp87
g74
(dp88
sg83
g79
sg76
(lp89
g69
(cgluon.html
TD
p90
g71
NtRp91
(dp92
g74
(dp93
S'_style'
p94
S'font-weight:bold;vertical-align:top'
p95
ssg83
g86
sg76
(lp96
S'ajax'
p97
asbag69
(g90
g71
NtRp98
(dp99
g74
(dp100
S'_valign'
p101
S'top'
p102
ssg83
g86
sg76
(lp103
S':'
asbag69
(g90
g71
NtRp104
(dp105
g74
(dp106
sg83
g86
sg76
(lp107
g69
(g70
g71
NtRp108
(dp109
g74
(dp110
g82
I5
ssg83
g104
sg76
(lp111
S'False'
p112
asbasbasbag69
(g85
g71
NtRp113
(dp114
g74
(dp115
sg83
g79
sg76
(lp116
g69
(g90
g71
NtRp117
(dp118
g74
(dp119
g94
g95
ssg83
g113
sg76
(lp120
S'application'
p121
asbag69
(g90
g71
NtRp122
(dp123
g74
(dp124
g101
g102
ssg83
g113
sg76
(lp125
S':'
asbag69
(g90
g71
NtRp126
(dp127
g74
(dp128
sg83
g113
sg76
(lp129
g69
(g70
g71
NtRp130
(dp131
g74
(dp132
g82
I5
ssg83
g126
sg76
(lp133
S'milo'
p134
asbasbasbag69
(g85
g71
NtRp135
(dp136
g74
(dp137
sg83
g79
sg76
(lp138
g69
(g90
g71
NtRp139
(dp140
g74
(dp141
g94
g95
ssg83
g135
sg76
(lp142
g52
asbag69
(g90
g71
NtRp143
(dp144
g74
(dp145
g101
g102
ssg83
g135
sg76
(lp146
S':'
asbag69
(g90
g71
NtRp147
(dp148
g74
(dp149
sg83
g135
sg76
(lp150
g69
(g70
g71
NtRp151
(dp152
g74
(dp153
g82
I5
ssg83
g147
sg76
(lp154
g69
(g78
g71
NtRp155
(dp156
g74
(dp157
g82
I4
ssg83
Nsg76
(lp158
g69
(g85
g71
NtRp159
(dp160
g74
(dp161
sg83
g155
sg76
(lp162
g69
(g90
g71
NtRp163
(dp164
g74
(dp165
sg83
g159
sg76
(lp166
g69
(g70
g71
NtRp167
(dp168
g74
(dp169
g82
I4
ssg83
g163
sg76
(lp170
S'1'
asbasbasbasbasbasbasbag69
(g85
g71
NtRp171
(dp172
g74
(dp173
sg83
g79
sg76
(lp174
g69
(g90
g71
NtRp175
(dp176
g74
(dp177
g94
g95
ssg83
g171
sg76
(lp178
S'body'
p179
asbag69
(g90
g71
NtRp180
(dp181
g74
(dp182
g101
g102
ssg83
g171
sg76
(lp183
S':'
asbag69
(g90
g71
NtRp184
(dp185
g74
(dp186
sg83
g171
sg76
(lp187
g69
(g70
g71
NtRp188
(dp189
g74
(dp190
g82
I5
ssg83
g184
sg76
(lp191
S'<cStringIO.StringO object at 0x7fb4803a2ae8>'
p192
asbasbasbag69
(g85
g71
NtRp193
(dp194
g74
(dp195
sg83
g79
sg76
(lp196
g69
(g90
g71
NtRp197
(dp198
g74
(dp199
g94
g95
ssg83
g193
sg76
(lp200
S'client'
p201
asbag69
(g90
g71
NtRp202
(dp203
g74
(dp204
g101
g102
ssg83
g193
sg76
(lp205
S':'
asbag69
(g90
g71
NtRp206
(dp207
g74
(dp208
sg83
g193
sg76
(lp209
g69
(g70
g71
NtRp210
(dp211
g74
(dp212
g82
I5
ssg83
g206
sg76
(lp213
S'127.0.0.1'
p214
asbasbasbag69
(g85
g71
NtRp215
(dp216
g74
(dp217
sg83
g79
sg76
(lp218
g69
(g90
g71
NtRp219
(dp220
g74
(dp221
g94
g95
ssg83
g215
sg76
(lp222
S'controller'
p223
asbag69
(g90
g71
NtRp224
(dp225
g74
(dp226
g101
g102
ssg83
g215
sg76
(lp227
S':'
asbag69
(g90
g71
NtRp228
(dp229
g74
(dp230
sg83
g215
sg76
(lp231
g69
(g70
g71
NtRp232
(dp233
g74
(dp234
g82
I5
ssg83
g228
sg76
(lp235
S'default'
p236
asbasbasbag69
(g85
g71
NtRp237
(dp238
g74
(dp239
sg83
g79
sg76
(lp240
g69
(g90
g71
NtRp241
(dp242
g74
(dp243
g94
g95
ssg83
g237
sg76
(lp244
S'cookies'
p245
asbag69
(g90
g71
NtRp246
(dp247
g74
(dp248
g101
g102
ssg83
g237
sg76
(lp249
S':'
asbag69
(g90
g71
NtRp250
(dp251
g74
(dp252
sg83
g237
sg76
(lp253
g69
(g70
g71
NtRp254
(dp255
g74
(dp256
g82
I5
ssg83
g250
sg76
(lp257
g69
(g78
g71
NtRp258
(dp259
g74
(dp260
g82
I4
ssg83
Nsg76
(lp261
g69
(g85
g71
NtRp262
(dp263
g74
(dp264
sg83
g258
sg76
(lp265
g69
(g90
g71
NtRp266
(dp267
g74
(dp268
g94
g95
ssg83
g262
sg76
(lp269
S'session_id_admin'
p270
asbag69
(g90
g71
NtRp271
(dp272
g74
(dp273
g101
g102
ssg83
g262
sg76
(lp274
S':'
asbag69
(g90
g71
NtRp275
(dp276
g74
(dp277
sg83
g262
sg76
(lp278
g69
(g70
g71
NtRp279
(dp280
g74
(dp281
g82
I4
ssg83
g275
sg76
(lp282
g69
(g78
g71
NtRp283
(dp284
g74
(dp285
g82
I3
ssg83
Nsg76
(lp286
g69
(g85
g71
NtRp287
(dp288
g74
(dp289
sg83
g283
sg76
(lp290
g69
(g90
g71
NtRp291
(dp292
g74
(dp293
g94
g95
ssg83
g287
sg76
(lp294
S'comment'
p295
asbag69
(g90
g71
NtRp296
(dp297
g74
(dp298
g101
g102
ssg83
g287
sg76
(lp299
S':'
asbag69
(g90
g71
NtRp300
(dp301
g74
(dp302
sg83
g287
sg76
(lp303
g69
(g70
g71
NtRp304
(dp305
g74
(dp306
g82
I3
ssg83
g300
sg76
(lp307
S''
asbasbasbag69
(g85
g71
NtRp308
(dp309
g74
(dp310
sg83
g283
sg76
(lp311
g69
(g90
g71
NtRp312
(dp313
g74
(dp314
g94
g95
ssg83
g308
sg76
(lp315
S'domain'
p316
asbag69
(g90
g71
NtRp317
(dp318
g74
(dp319
g101
g102
ssg83
g308
sg76
(lp320
S':'
asbag69
(g90
g71
NtRp321
(dp322
g74
(dp323
sg83
g308
sg76
(lp324
g69
(g70
g71
NtRp325
(dp326
g74
(dp327
g82
I3
ssg83
g321
sg76
(lp328
S''
asbasbasbag69
(g85
g71
NtRp329
(dp330
g74
(dp331
sg83
g283
sg76
(lp332
g69
(g90
g71
NtRp333
(dp334
g74
(dp335
g94
g95
ssg83
g329
sg76
(lp336
S'expires'
p337
asbag69
(g90
g71
NtRp338
(dp339
g74
(dp340
g101
g102
ssg83
g329
sg76
(lp341
S':'
asbag69
(g90
g71
NtRp342
(dp343
g74
(dp344
sg83
g329
sg76
(lp345
g69
(g70
g71
NtRp346
(dp347
g74
(dp348
g82
I3
ssg83
g342
sg76
(lp349
S''
asbasbasbag69
(g85
g71
NtRp350
(dp351
g74
(dp352
sg83
g283
sg76
(lp353
g69
(g90
g71
NtRp354
(dp355
g74
(dp356
g94
g95
ssg83
g350
sg76
(lp357
S'httponly'
p358
asbag69
(g90
g71
NtRp359
(dp360
g74
(dp361
g101
g102
ssg83
g350
sg76
(lp362
S':'
asbag69
(g90
g71
NtRp363
(dp364
g74
(dp365
sg83
g350
sg76
(lp366
g69
(g70
g71
NtRp367
(dp368
g74
(dp369
g82
I3
ssg83
g363
sg76
(lp370
S''
asbasbasbag69
(g85
g71
NtRp371
(dp372
g74
(dp373
sg83
g283
sg76
(lp374
g69
(g90
g71
NtRp375
(dp376
g74
(dp377
g94
g95
ssg83
g371
sg76
(lp378
S'max-age'
p379
asbag69
(g90
g71
NtRp380
(dp381
g74
(dp382
g101
g102
ssg83
g371
sg76
(lp383
S':'
asbag69
(g90
g71
NtRp384
(dp385
g74
(dp386
sg83
g371
sg76
(lp387
g69
(g70
g71
NtRp388
(dp389
g74
(dp390
g82
I3
ssg83
g384
sg76
(lp391
S''
asbasbasbag69
(g85
g71
NtRp392
(dp393
g74
(dp394
sg83
g283
sg76
(lp395
g69
(g90
g71
NtRp396
(dp397
g74
(dp398
g94
g95
ssg83
g392
sg76
(lp399
S'path'
p400
asbag69
(g90
g71
NtRp401
(dp402
g74
(dp403
g101
g102
ssg83
g392
sg76
(lp404
S':'
asbag69
(g90
g71
NtRp405
(dp406
g74
(dp407
sg83
g392
sg76
(lp408
g69
(g70
g71
NtRp409
(dp410
g74
(dp411
g82
I3
ssg83
g405
sg76
(lp412
S''
asbasbasbag69
(g85
g71
NtRp413
(dp414
g74
(dp415
sg83
g283
sg76
(lp416
g69
(g90
g71
NtRp417
(dp418
g74
(dp419
g94
g95
ssg83
g413
sg76
(lp420
S'secure'
p421
asbag69
(g90
g71
NtRp422
(dp423
g74
(dp424
g101
g102
ssg83
g413
sg76
(lp425
S':'
asbag69
(g90
g71
NtRp426
(dp427
g74
(dp428
sg83
g413
sg76
(lp429
g69
(g70
g71
NtRp430
(dp431
g74
(dp432
g82
I3
ssg83
g426
sg76
(lp433
S''
asbasbasbag69
(g85
g71
NtRp434
(dp435
g74
(dp436
sg83
g283
sg76
(lp437
g69
(g90
g71
NtRp438
(dp439
g74
(dp440
g94
g95
ssg83
g434
sg76
(lp441
S'version'
p442
asbag69
(g90
g71
NtRp443
(dp444
g74
(dp445
g101
g102
ssg83
g434
sg76
(lp446
S':'
asbag69
(g90
g71
NtRp447
(dp448
g74
(dp449
sg83
g434
sg76
(lp450
g69
(g70
g71
NtRp451
(dp452
g74
(dp453
g82
I3
ssg83
g447
sg76
(lp454
S''
asbasbasbasbasbasbasbag69
(g85
g71
NtRp455
(dp456
g74
(dp457
sg83
g258
sg76
(lp458
g69
(g90
g71
NtRp459
(dp460
g74
(dp461
g94
g95
ssg83
g455
sg76
(lp462
S'session_id_milo'
p463
asbag69
(g90
g71
NtRp464
(dp465
g74
(dp466
g101
g102
ssg83
g455
sg76
(lp467
S':'
asbag69
(g90
g71
NtRp468
(dp469
g74
(dp470
sg83
g455
sg76
(lp471
g69
(g70
g71
NtRp472
(dp473
g74
(dp474
g82
I4
ssg83
g468
sg76
(lp475
g69
(g78
g71
NtRp476
(dp477
g74
(dp478
g82
I3
ssg83
Nsg76
(lp479
g69
(g85
g71
NtRp480
(dp481
g74
(dp482
sg83
g476
sg76
(lp483
g69
(g90
g71
NtRp484
(dp485
g74
(dp486
g94
g95
ssg83
g480
sg76
(lp487
g295
asbag69
(g90
g71
NtRp488
(dp489
g74
(dp490
g101
g102
ssg83
g480
sg76
(lp491
S':'
asbag69
(g90
g71
NtRp492
(dp493
g74
(dp494
sg83
g480
sg76
(lp495
g69
(g70
g71
NtRp496
(dp497
g74
(dp498
g82
I3
ssg83
g492
sg76
(lp499
S''
asbasbasbag69
(g85
g71
NtRp500
(dp501
g74
(dp502
sg83
g476
sg76
(lp503
g69
(g90
g71
NtRp504
(dp505
g74
(dp506
g94
g95
ssg83
g500
sg76
(lp507
g316
asbag69
(g90
g71
NtRp508
(dp509
g74
(dp510
g101
g102
ssg83
g500
sg76
(lp511
S':'
asbag69
(g90
g71
NtRp512
(dp513
g74
(dp514
sg83
g500
sg76
(lp515
g69
(g70
g71
NtRp516
(dp517
g74
(dp518
g82
I3
ssg83
g512
sg76
(lp519
S''
asbasbasbag69
(g85
g71
NtRp520
(dp521
g74
(dp522
sg83
g476
sg76
(lp523
g69
(g90
g71
NtRp524
(dp525
g74
(dp526
g94
g95
ssg83
g520
sg76
(lp527
g337
asbag69
(g90
g71
NtRp528
(dp529
g74
(dp530
g101
g102
ssg83
g520
sg76
(lp531
S':'
asbag69
(g90
g71
NtRp532
(dp533
g74
(dp534
sg83
g520
sg76
(lp535
g69
(g70
g71
NtRp536
(dp537
g74
(dp538
g82
I3
ssg83
g532
sg76
(lp539
S''
asbasbasbag69
(g85
g71
NtRp540
(dp541
g74
(dp542
sg83
g476
sg76
(lp543
g69
(g90
g71
NtRp544
(dp545
g74
(dp546
g94
g95
ssg83
g540
sg76
(lp547
g358
asbag69
(g90
g71
NtRp548
(dp549
g74
(dp550
g101
g102
ssg83
g540
sg76
(lp551
S':'
asbag69
(g90
g71
NtRp552
(dp553
g74
(dp554
sg83
g540
sg76
(lp555
g69
(g70
g71
NtRp556
(dp557
g74
(dp558
g82
I3
ssg83
g552
sg76
(lp559
S''
asbasbasbag69
(g85
g71
NtRp560
(dp561
g74
(dp562
sg83
g476
sg76
(lp563
g69
(g90
g71
NtRp564
(dp565
g74
(dp566
g94
g95
ssg83
g560
sg76
(lp567
g379
asbag69
(g90
g71
NtRp568
(dp569
g74
(dp570
g101
g102
ssg83
g560
sg76
(lp571
S':'
asbag69
(g90
g71
NtRp572
(dp573
g74
(dp574
sg83
g560
sg76
(lp575
g69
(g70
g71
NtRp576
(dp577
g74
(dp578
g82
I3
ssg83
g572
sg76
(lp579
S''
asbasbasbag69
(g85
g71
NtRp580
(dp581
g74
(dp582
sg83
g476
sg76
(lp583
g69
(g90
g71
NtRp584
(dp585
g74
(dp586
g94
g95
ssg83
g580
sg76
(lp587
g400
asbag69
(g90
g71
NtRp588
(dp589
g74
(dp590
g101
g102
ssg83
g580
sg76
(lp591
S':'
asbag69
(g90
g71
NtRp592
(dp593
g74
(dp594
sg83
g580
sg76
(lp595
g69
(g70
g71
NtRp596
(dp597
g74
(dp598
g82
I3
ssg83
g592
sg76
(lp599
S''
asbasbasbag69
(g85
g71
NtRp600
(dp601
g74
(dp602
sg83
g476
sg76
(lp603
g69
(g90
g71
NtRp604
(dp605
g74
(dp606
g94
g95
ssg83
g600
sg76
(lp607
g421
asbag69
(g90
g71
NtRp608
(dp609
g74
(dp610
g101
g102
ssg83
g600
sg76
(lp611
S':'
asbag69
(g90
g71
NtRp612
(dp613
g74
(dp614
sg83
g600
sg76
(lp615
g69
(g70
g71
NtRp616
(dp617
g74
(dp618
g82
I3
ssg83
g612
sg76
(lp619
S''
asbasbasbag69
(g85
g71
NtRp620
(dp621
g74
(dp622
sg83
g476
sg76
(lp623
g69
(g90
g71
NtRp624
(dp625
g74
(dp626
g94
g95
ssg83
g620
sg76
(lp627
g442
asbag69
(g90
g71
NtRp628
(dp629
g74
(dp630
g101
g102
ssg83
g620
sg76
(lp631
S':'
asbag69
(g90
g71
NtRp632
(dp633
g74
(dp634
sg83
g620
sg76
(lp635
g69
(g70
g71
NtRp636
(dp637
g74
(dp638
g82
I3
ssg83
g632
sg76
(lp639
S''
asbasbasbasbasbasbasbag69
(g85
g71
NtRp640
(dp641
g74
(dp642
sg83
g258
sg76
(lp643
g69
(g90
g71
NtRp644
(dp645
g74
(dp646
g94
g95
ssg83
g640
sg76
(lp647
S'session_id_welcome'
p648
asbag69
(g90
g71
NtRp649
(dp650
g74
(dp651
g101
g102
ssg83
g640
sg76
(lp652
S':'
asbag69
(g90
g71
NtRp653
(dp654
g74
(dp655
sg83
g640
sg76
(lp656
g69
(g70
g71
NtRp657
(dp658
g74
(dp659
g82
I4
ssg83
g653
sg76
(lp660
g69
(g78
g71
NtRp661
(dp662
g74
(dp663
g82
I3
ssg83
Nsg76
(lp664
g69
(g85
g71
NtRp665
(dp666
g74
(dp667
sg83
g661
sg76
(lp668
g69
(g90
g71
NtRp669
(dp670
g74
(dp671
g94
g95
ssg83
g665
sg76
(lp672
g295
asbag69
(g90
g71
NtRp673
(dp674
g74
(dp675
g101
g102
ssg83
g665
sg76
(lp676
S':'
asbag69
(g90
g71
NtRp677
(dp678
g74
(dp679
sg83
g665
sg76
(lp680
g69
(g70
g71
NtRp681
(dp682
g74
(dp683
g82
I3
ssg83
g677
sg76
(lp684
S''
asbasbasbag69
(g85
g71
NtRp685
(dp686
g74
(dp687
sg83
g661
sg76
(lp688
g69
(g90
g71
NtRp689
(dp690
g74
(dp691
g94
g95
ssg83
g685
sg76
(lp692
g316
asbag69
(g90
g71
NtRp693
(dp694
g74
(dp695
g101
g102
ssg83
g685
sg76
(lp696
S':'
asbag69
(g90
g71
NtRp697
(dp698
g74
(dp699
sg83
g685
sg76
(lp700
g69
(g70
g71
NtRp701
(dp702
g74
(dp703
g82
I3
ssg83
g697
sg76
(lp704
S''
asbasbasbag69
(g85
g71
NtRp705
(dp706
g74
(dp707
sg83
g661
sg76
(lp708
g69
(g90
g71
NtRp709
(dp710
g74
(dp711
g94
g95
ssg83
g705
sg76
(lp712
g337
asbag69
(g90
g71
NtRp713
(dp714
g74
(dp715
g101
g102
ssg83
g705
sg76
(lp716
S':'
asbag69
(g90
g71
NtRp717
(dp718
g74
(dp719
sg83
g705
sg76
(lp720
g69
(g70
g71
NtRp721
(dp722
g74
(dp723
g82
I3
ssg83
g717
sg76
(lp724
S''
asbasbasbag69
(g85
g71
NtRp725
(dp726
g74
(dp727
sg83
g661
sg76
(lp728
g69
(g90
g71
NtRp729
(dp730
g74
(dp731
g94
g95
ssg83
g725
sg76
(lp732
g358
asbag69
(g90
g71
NtRp733
(dp734
g74
(dp735
g101
g102
ssg83
g725
sg76
(lp736
S':'
asbag69
(g90
g71
NtRp737
(dp738
g74
(dp739
sg83
g725
sg76
(lp740
g69
(g70
g71
NtRp741
(dp742
g74
(dp743
g82
I3
ssg83
g737
sg76
(lp744
S''
asbasbasbag69
(g85
g71
NtRp745
(dp746
g74
(dp747
sg83
g661
sg76
(lp748
g69
(g90
g71
NtRp749
(dp750
g74
(dp751
g94
g95
ssg83
g745
sg76
(lp752
g379
asbag69
(g90
g71
NtRp753
(dp754
g74
(dp755
g101
g102
ssg83
g745
sg76
(lp756
S':'
asbag69
(g90
g71
NtRp757
(dp758
g74
(dp759
sg83
g745
sg76
(lp760
g69
(g70
g71
NtRp761
(dp762
g74
(dp763
g82
I3
ssg83
g757
sg76
(lp764
S''
asbasbasbag69
(g85
g71
NtRp765
(dp766
g74
(dp767
sg83
g661
sg76
(lp768
g69
(g90
g71
NtRp769
(dp770
g74
(dp771
g94
g95
ssg83
g765
sg76
(lp772
g400
asbag69
(g90
g71
NtRp773
(dp774
g74
(dp775
g101
g102
ssg83
g765
sg76
(lp776
S':'
asbag69
(g90
g71
NtRp777
(dp778
g74
(dp779
sg83
g765
sg76
(lp780
g69
(g70
g71
NtRp781
(dp782
g74
(dp783
g82
I3
ssg83
g777
sg76
(lp784
S''
asbasbasbag69
(g85
g71
NtRp785
(dp786
g74
(dp787
sg83
g661
sg76
(lp788
g69
(g90
g71
NtRp789
(dp790
g74
(dp791
g94
g95
ssg83
g785
sg76
(lp792
g421
asbag69
(g90
g71
NtRp793
(dp794
g74
(dp795
g101
g102
ssg83
g785
sg76
(lp796
S':'
asbag69
(g90
g71
NtRp797
(dp798
g74
(dp799
sg83
g785
sg76
(lp800
g69
(g70
g71
NtRp801
(dp802
g74
(dp803
g82
I3
ssg83
g797
sg76
(lp804
S''
asbasbasbag69
(g85
g71
NtRp805
(dp806
g74
(dp807
sg83
g661
sg76
(lp808
g69
(g90
g71
NtRp809
(dp810
g74
(dp811
g94
g95
ssg83
g805
sg76
(lp812
g442
asbag69
(g90
g71
NtRp813
(dp814
g74
(dp815
g101
g102
ssg83
g805
sg76
(lp816
S':'
asbag69
(g90
g71
NtRp817
(dp818
g74
(dp819
sg83
g805
sg76
(lp820
g69
(g70
g71
NtRp821
(dp822
g74
(dp823
g82
I3
ssg83
g817
sg76
(lp824
S''
asbasbasbasbasbasbasbasbasbasbasbag69
(g85
g71
NtRp825
(dp826
g74
(dp827
sg83
g79
sg76
(lp828
g69
(g90
g71
NtRp829
(dp830
g74
(dp831
g94
g95
ssg83
g825
sg76
(lp832
S'env'
p833
asbag69
(g90
g71
NtRp834
(dp835
g74
(dp836
g101
g102
ssg83
g825
sg76
(lp837
S':'
asbag69
(g90
g71
NtRp838
(dp839
g74
(dp840
sg83
g825
sg76
(lp841
g69
(g70
g71
NtRp842
(dp843
g74
(dp844
g82
I5
ssg83
g838
sg76
(lp845
g69
(g78
g71
NtRp846
(dp847
g74
(dp848
g82
I4
ssg83
Nsg76
(lp849
g69
(g85
g71
NtRp850
(dp851
g74
(dp852
sg83
g846
sg76
(lp853
g69
(g90
g71
NtRp854
(dp855
g74
(dp856
g94
g95
ssg83
g850
sg76
(lp857
S'app_folders'
p858
asbag69
(g90
g71
NtRp859
(dp860
g74
(dp861
g101
g102
ssg83
g850
sg76
(lp862
S':'
asbag69
(g90
g71
NtRp863
(dp864
g74
(dp865
sg83
g850
sg76
(lp866
g69
(g70
g71
NtRp867
(dp868
g74
(dp869
g82
I4
ssg83
g863
sg76
(lp870
S"set(['/home/goshawk/web2py/applications/milo/', '/home/goshawk/web2py/applications/admin/'])"
p871
asbasbasbag69
(g85
g71
NtRp872
(dp873
g74
(dp874
sg83
g846
sg76
(lp875
g69
(g90
g71
NtRp876
(dp877
g74
(dp878
g94
g95
ssg83
g872
sg76
(lp879
S'applications_parent'
p880
asbag69
(g90
g71
NtRp881
(dp882
g74
(dp883
g101
g102
ssg83
g872
sg76
(lp884
S':'
asbag69
(g90
g71
NtRp885
(dp886
g74
(dp887
sg83
g872
sg76
(lp888
g69
(g70
g71
NtRp889
(dp890
g74
(dp891
g82
I4
ssg83
g885
sg76
(lp892
S'/home/goshawk/web2py'
p893
asbasbasbag69
(g85
g71
NtRp894
(dp895
g74
(dp896
sg83
g846
sg76
(lp897
g69
(g90
g71
NtRp898
(dp899
g74
(dp900
g94
g95
ssg83
g894
sg76
(lp901
S'cmd_args'
p902
asbag69
(g90
g71
NtRp903
(dp904
g74
(dp905
g101
g102
ssg83
g894
sg76
(lp906
S':'
asbag69
(g90
g71
NtRp907
(dp908
g74
(dp909
sg83
g894
sg76
(lp910
g69
(g70
g71
NtRp911
(dp912
g74
(dp913
g82
I4
ssg83
g907
sg76
(lp914
g69
(g78
g71
NtRp915
(dp916
g74
(dp917
g82
I3
ssg83
Nsg76
(lp918
sbasbasbasbag69
(g85
g71
NtRp919
(dp920
g74
(dp921
sg83
g846
sg76
(lp922
g69
(g90
g71
NtRp923
(dp924
g74
(dp925
g94
g95
ssg83
g919
sg76
(lp926
S'cmd_options'
p927
asbag69
(g90
g71
NtRp928
(dp929
g74
(dp930
g101
g102
ssg83
g919
sg76
(lp931
S':'
asbag69
(g90
g71
NtRp932
(dp933
g74
(dp934
sg83
g919
sg76
(lp935
g69
(g70
g71
NtRp936
(dp937
g74
(dp938
g82
I4
ssg83
g932
sg76
(lp939
S"<Values at 0x1cc90e0: {'verbose': False, 'ip': '127.0.0.1', 'shutdown_timeout': 5, 'taskbar': False, 'nocron': False, 'pid_filename': 'httpserver.pid', 'maxthreads': None, 'softcron': False, 'server_name': 'whisperer', 'bpython': False, 'nogui': False, 'port': 8000, 'extcron': False, 'debuglevel': 30, 'test': None, 'folder': '/home/goshawk/web2py', 'config': '', 'import_models': False, 'winservice': '', 'shell': None, 'run': '', 'log_filename': 'httpserver.log', 'args': [''], 'socket_timeout': 5, 'ssl_ca_certificate': None, 'scheduler': None, 'profiler_filename': None, 'ssl_private_key': '', 'password': 'admin', 'request_queue_size': 5, 'ssl_certificate': '', 'cronjob': False, 'numthreads': None, 'quiet': False, 'interfaces': None, 'minthreads': None, 'timeout': 10, 'plain': False, 'nobanner': False}>"
p940
asbasbasbag69
(g85
g71
NtRp941
(dp942
g74
(dp943
sg83
g846
sg76
(lp944
g69
(g90
g71
NtRp945
(dp946
g74
(dp947
g94
g95
ssg83
g941
sg76
(lp948
S'db_sessions'
p949
asbag69
(g90
g71
NtRp950
(dp951
g74
(dp952
g101
g102
ssg83
g941
sg76
(lp953
S':'
asbag69
(g90
g71
NtRp954
(dp955
g74
(dp956
sg83
g941
sg76
(lp957
g69
(g70
g71
NtRp958
(dp959
g74
(dp960
g82
I4
ssg83
g954
sg76
(lp961
S'set([])'
p962
asbasbasbag69
(g85
g71
NtRp963
(dp964
g74
(dp965
sg83
g846
sg76
(lp966
g69
(g90
g71
NtRp967
(dp968
g74
(dp969
g94
g95
ssg83
g963
sg76
(lp970
S'debugging'
p971
asbag69
(g90
g71
NtRp972
(dp973
g74
(dp974
g101
g102
ssg83
g963
sg76
(lp975
S':'
asbag69
(g90
g71
NtRp976
(dp977
g74
(dp978
sg83
g963
sg76
(lp979
g69
(g70
g71
NtRp980
(dp981
g74
(dp982
g82
I4
ssg83
g976
sg76
(lp983
g112
asbasbasbag69
(g85
g71
NtRp984
(dp985
g74
(dp986
sg83
g846
sg76
(lp987
g69
(g90
g71
NtRp988
(dp989
g74
(dp990
g94
g95
ssg83
g984
sg76
(lp991
S'gluon_parent'
p992
asbag69
(g90
g71
NtRp993
(dp994
g74
(dp995
g101
g102
ssg83
g984
sg76
(lp996
S':'
asbag69
(g90
g71
NtRp997
(dp998
g74
(dp999
sg83
g984
sg76
(lp1000
g69
(g70
g71
NtRp1001
(dp1002
g74
(dp1003
g82
I4
ssg83
g997
sg76
(lp1004
S'/home/goshawk/web2py'
p1005
asbasbasbag69
(g85
g71
NtRp1006
(dp1007
g74
(dp1008
sg83
g846
sg76
(lp1009
g69
(g90
g71
NtRp1010
(dp1011
g74
(dp1012
g94
g95
ssg83
g1006
sg76
(lp1013
S'http_accept'
p1014
asbag69
(g90
g71
NtRp1015
(dp1016
g74
(dp1017
g101
g102
ssg83
g1006
sg76
(lp1018
S':'
asbag69
(g90
g71
NtRp1019
(dp1020
g74
(dp1021
sg83
g1006
sg76
(lp1022
g69
(g70
g71
NtRp1023
(dp1024
g74
(dp1025
g82
I4
ssg83
g1019
sg76
(lp1026
S'text/html,application/xhtml+xml,application/xml;q=0.9,*/*;q=0.8'
p1027
asbasbasbag69
(g85
g71
NtRp1028
(dp1029
g74
(dp1030
sg83
g846
sg76
(lp1031
g69
(g90
g71
NtRp1032
(dp1033
g74
(dp1034
g94
g95
ssg83
g1028
sg76
(lp1035
S'http_accept_charset'
p1036
asbag69
(g90
g71
NtRp1037
(dp1038
g74
(dp1039
g101
g102
ssg83
g1028
sg76
(lp1040
S':'
asbag69
(g90
g71
NtRp1041
(dp1042
g74
(dp1043
sg83
g1028
sg76
(lp1044
g69
(g70
g71
NtRp1045
(dp1046
g74
(dp1047
g82
I4
ssg83
g1041
sg76
(lp1048
S'ISO-8859-1,utf-8;q=0.7,*;q=0.3'
p1049
asbasbasbag69
(g85
g71
NtRp1050
(dp1051
g74
(dp1052
sg83
g846
sg76
(lp1053
g69
(g90
g71
NtRp1054
(dp1055
g74
(dp1056
g94
g95
ssg83
g1050
sg76
(lp1057
S'http_accept_encoding'
p1058
asbag69
(g90
g71
NtRp1059
(dp1060
g74
(dp1061
g101
g102
ssg83
g1050
sg76
(lp1062
S':'
asbag69
(g90
g71
NtRp1063
(dp1064
g74
(dp1065
sg83
g1050
sg76
(lp1066
g69
(g70
g71
NtRp1067
(dp1068
g74
(dp1069
g82
I4
ssg83
g1063
sg76
(lp1070
S'gzip,deflate,sdch'
p1071
asbasbasbag69
(g85
g71
NtRp1072
(dp1073
g74
(dp1074
sg83
g846
sg76
(lp1075
g69
(g90
g71
NtRp1076
(dp1077
g74
(dp1078
g94
g95
ssg83
g1072
sg76
(lp1079
S'http_accept_language'
p1080
asbag69
(g90
g71
NtRp1081
(dp1082
g74
(dp1083
g101
g102
ssg83
g1072
sg76
(lp1084
S':'
asbag69
(g90
g71
NtRp1085
(dp1086
g74
(dp1087
sg83
g1072
sg76
(lp1088
g69
(g70
g71
NtRp1089
(dp1090
g74
(dp1091
g82
I4
ssg83
g1085
sg76
(lp1092
S'en-US,en;q=0.8'
p1093
asbasbasbag69
(g85
g71
NtRp1094
(dp1095
g74
(dp1096
sg83
g846
sg76
(lp1097
g69
(g90
g71
NtRp1098
(dp1099
g74
(dp1100
g94
g95
ssg83
g1094
sg76
(lp1101
S'http_cache_control'
p1102
asbag69
(g90
g71
NtRp1103
(dp1104
g74
(dp1105
g101
g102
ssg83
g1094
sg76
(lp1106
S':'
asbag69
(g90
g71
NtRp1107
(dp1108
g74
(dp1109
sg83
g1094
sg76
(lp1110
g69
(g70
g71
NtRp1111
(dp1112
g74
(dp1113
g82
I4
ssg83
g1107
sg76
(lp1114
S'max-age=0'
p1115
asbasbasbag69
(g85
g71
NtRp1116
(dp1117
g74
(dp1118
sg83
g846
sg76
(lp1119
g69
(g90
g71
NtRp1120
(dp1121
g74
(dp1122
g94
g95
ssg83
g1116
sg76
(lp1123
S'http_connection'
p1124
asbag69
(g90
g71
NtRp1125
(dp1126
g74
(dp1127
g101
g102
ssg83
g1116
sg76
(lp1128
S':'
asbag69
(g90
g71
NtRp1129
(dp1130
g74
(dp1131
sg83
g1116
sg76
(lp1132
g69
(g70
g71
NtRp1133
(dp1134
g74
(dp1135
g82
I4
ssg83
g1129
sg76
(lp1136
S'keep-alive'
p1137
asbasbasbag69
(g85
g71
NtRp1138
(dp1139
g74
(dp1140
sg83
g846
sg76
(lp1141
g69
(g90
g71
NtRp1142
(dp1143
g74
(dp1144
g94
g95
ssg83
g1138
sg76
(lp1145
S'http_cookie'
p1146
asbag69
(g90
g71
NtRp1147
(dp1148
g74
(dp1149
g101
g102
ssg83
g1138
sg76
(lp1150
S':'
asbag69
(g90
g71
NtRp1151
(dp1152
g74
(dp1153
sg83
g1138
sg76
(lp1154
g69
(g70
g71
NtRp1155
(dp1156
g74
(dp1157
g82
I4
ssg83
g1151
sg76
(lp1158
S'session_id_welcome=127.0.0.1-11c8edfe-641e-45e8-a22e-9242a5dc89a6; session_id_milo=127.0.0.1-6c16d76a-1f8c-4e9b-9b63-cec19a96b9d8; session_id_admin=127.0.0.1-cc2f36f7-d4cc-4b49-a888-a3154d16ac8e'
p1159
asbasbasbag69
(g85
g71
NtRp1160
(dp1161
g74
(dp1162
sg83
g846
sg76
(lp1163
g69
(g90
g71
NtRp1164
(dp1165
g74
(dp1166
g94
g95
ssg83
g1160
sg76
(lp1167
S'http_host'
p1168
asbag69
(g90
g71
NtRp1169
(dp1170
g74
(dp1171
g101
g102
ssg83
g1160
sg76
(lp1172
S':'
asbag69
(g90
g71
NtRp1173
(dp1174
g74
(dp1175
sg83
g1160
sg76
(lp1176
g69
(g70
g71
NtRp1177
(dp1178
g74
(dp1179
g82
I4
ssg83
g1173
sg76
(lp1180
S'127.0.0.1:8000'
p1181
asbasbasbag69
(g85
g71
NtRp1182
(dp1183
g74
(dp1184
sg83
g846
sg76
(lp1185
g69
(g90
g71
NtRp1186
(dp1187
g74
(dp1188
g94
g95
ssg83
g1182
sg76
(lp1189
S'http_user_agent'
p1190
asbag69
(g90
g71
NtRp1191
(dp1192
g74
(dp1193
g101
g102
ssg83
g1182
sg76
(lp1194
S':'
asbag69
(g90
g71
NtRp1195
(dp1196
g74
(dp1197
sg83
g1182
sg76
(lp1198
g69
(g70
g71
NtRp1199
(dp1200
g74
(dp1201
g82
I4
ssg83
g1195
sg76
(lp1202
S'Mozilla/5.0 (X11; Linux x86_64) AppleWebKit/535.19 (KHTML, like Gecko) Ubuntu/12.04 Chromium/18.0.1025.168 Chrome/18.0.1025.168 Safari/535.19'
p1203
asbasbasbag69
(g85
g71
NtRp1204
(dp1205
g74
(dp1206
sg83
g846
sg76
(lp1207
g69
(g90
g71
NtRp1208
(dp1209
g74
(dp1210
g94
g95
ssg83
g1204
sg76
(lp1211
S'is_jython'
p1212
asbag69
(g90
g71
NtRp1213
(dp1214
g74
(dp1215
g101
g102
ssg83
g1204
sg76
(lp1216
S':'
asbag69
(g90
g71
NtRp1217
(dp1218
g74
(dp1219
sg83
g1204
sg76
(lp1220
g69
(g70
g71
NtRp1221
(dp1222
g74
(dp1223
g82
I4
ssg83
g1217
sg76
(lp1224
g112
asbasbasbag69
(g85
g71
NtRp1225
(dp1226
g74
(dp1227
sg83
g846
sg76
(lp1228
g69
(g90
g71
NtRp1229
(dp1230
g74
(dp1231
g94
g95
ssg83
g1225
sg76
(lp1232
S'is_pypy'
p1233
asbag69
(g90
g71
NtRp1234
(dp1235
g74
(dp1236
g101
g102
ssg83
g1225
sg76
(lp1237
S':'
asbag69
(g90
g71
NtRp1238
(dp1239
g74
(dp1240
sg83
g1225
sg76
(lp1241
g69
(g70
g71
NtRp1242
(dp1243
g74
(dp1244
g82
I4
ssg83
g1238
sg76
(lp1245
g112
asbasbasbag69
(g85
g71
NtRp1246
(dp1247
g74
(dp1248
sg83
g846
sg76
(lp1249
g69
(g90
g71
NtRp1250
(dp1251
g74
(dp1252
g94
g95
ssg83
g1246
sg76
(lp1253
S'path_info'
p1254
asbag69
(g90
g71
NtRp1255
(dp1256
g74
(dp1257
g101
g102
ssg83
g1246
sg76
(lp1258
S':'
asbag69
(g90
g71
NtRp1259
(dp1260
g74
(dp1261
sg83
g1246
sg76
(lp1262
g69
(g70
g71
NtRp1263
(dp1264
g74
(dp1265
g82
I4
ssg83
g1259
sg76
(lp1266
S'/milo/default/index/1'
p1267
asbasbasbag69
(g85
g71
NtRp1268
(dp1269
g74
(dp1270
sg83
g846
sg76
(lp1271
g69
(g90
g71
NtRp1272
(dp1273
g74
(dp1274
g94
g95
ssg83
g1268
sg76
(lp1275
S'query_string'
p1276
asbag69
(g90
g71
NtRp1277
(dp1278
g74
(dp1279
g101
g102
ssg83
g1268
sg76
(lp1280
S':'
asbag69
(g90
g71
NtRp1281
(dp1282
g74
(dp1283
sg83
g1268
sg76
(lp1284
g69
(g70
g71
NtRp1285
(dp1286
g74
(dp1287
g82
I4
ssg83
g1281
sg76
(lp1288
S''
asbasbasbag69
(g85
g71
NtRp1289
(dp1290
g74
(dp1291
sg83
g846
sg76
(lp1292
g69
(g90
g71
NtRp1293
(dp1294
g74
(dp1295
g94
g95
ssg83
g1289
sg76
(lp1296
S'remote_addr'
p1297
asbag69
(g90
g71
NtRp1298
(dp1299
g74
(dp1300
g101
g102
ssg83
g1289
sg76
(lp1301
S':'
asbag69
(g90
g71
NtRp1302
(dp1303
g74
(dp1304
sg83
g1289
sg76
(lp1305
g69
(g70
g71
NtRp1306
(dp1307
g74
(dp1308
g82
I4
ssg83
g1302
sg76
(lp1309
g214
asbasbasbag69
(g85
g71
NtRp1310
(dp1311
g74
(dp1312
sg83
g846
sg76
(lp1313
g69
(g90
g71
NtRp1314
(dp1315
g74
(dp1316
g94
g95
ssg83
g1310
sg76
(lp1317
S'remote_port'
p1318
asbag69
(g90
g71
NtRp1319
(dp1320
g74
(dp1321
g101
g102
ssg83
g1310
sg76
(lp1322
S':'
asbag69
(g90
g71
NtRp1323
(dp1324
g74
(dp1325
sg83
g1310
sg76
(lp1326
g69
(g70
g71
NtRp1327
(dp1328
g74
(dp1329
g82
I4
ssg83
g1323
sg76
(lp1330
S'54052'
p1331
asbasbasbag69
(g85
g71
NtRp1332
(dp1333
g74
(dp1334
sg83
g846
sg76
(lp1335
g69
(g90
g71
NtRp1336
(dp1337
g74
(dp1338
g94
g95
ssg83
g1332
sg76
(lp1339
S'request_method'
p1340
asbag69
(g90
g71
NtRp1341
(dp1342
g74
(dp1343
g101
g102
ssg83
g1332
sg76
(lp1344
S':'
asbag69
(g90
g71
NtRp1345
(dp1346
g74
(dp1347
sg83
g1332
sg76
(lp1348
g69
(g70
g71
NtRp1349
(dp1350
g74
(dp1351
g82
I4
ssg83
g1345
sg76
(lp1352
S'GET'
p1353
asbasbasbag69
(g85
g71
NtRp1354
(dp1355
g74
(dp1356
sg83
g846
sg76
(lp1357
g69
(g90
g71
NtRp1358
(dp1359
g74
(dp1360
g94
g95
ssg83
g1354
sg76
(lp1361
S'request_uri'
p1362
asbag69
(g90
g71
NtRp1363
(dp1364
g74
(dp1365
g101
g102
ssg83
g1354
sg76
(lp1366
S':'
asbag69
(g90
g71
NtRp1367
(dp1368
g74
(dp1369
sg83
g1354
sg76
(lp1370
g69
(g70
g71
NtRp1371
(dp1372
g74
(dp1373
g82
I4
ssg83
g1367
sg76
(lp1374
g1267
asbasbasbag69
(g85
g71
NtRp1375
(dp1376
g74
(dp1377
sg83
g846
sg76
(lp1378
g69
(g90
g71
NtRp1379
(dp1380
g74
(dp1381
g94
g95
ssg83
g1375
sg76
(lp1382
S'script_name'
p1383
asbag69
(g90
g71
NtRp1384
(dp1385
g74
(dp1386
g101
g102
ssg83
g1375
sg76
(lp1387
S':'
asbag69
(g90
g71
NtRp1388
(dp1389
g74
(dp1390
sg83
g1375
sg76
(lp1391
g69
(g70
g71
NtRp1392
(dp1393
g74
(dp1394
g82
I4
ssg83
g1388
sg76
(lp1395
S''
asbasbasbag69
(g85
g71
NtRp1396
(dp1397
g74
(dp1398
sg83
g846
sg76
(lp1399
g69
(g90
g71
NtRp1400
(dp1401
g74
(dp1402
g94
g95
ssg83
g1396
sg76
(lp1403
S'server_name'
p1404
asbag69
(g90
g71
NtRp1405
(dp1406
g74
(dp1407
g101
g102
ssg83
g1396
sg76
(lp1408
S':'
asbag69
(g90
g71
NtRp1409
(dp1410
g74
(dp1411
sg83
g1396
sg76
(lp1412
g69
(g70
g71
NtRp1413
(dp1414
g74
(dp1415
g82
I4
ssg83
g1409
sg76
(lp1416
S'whisperer'
p1417
asbasbasbag69
(g85
g71
NtRp1418
(dp1419
g74
(dp1420
sg83
g846
sg76
(lp1421
g69
(g90
g71
NtRp1422
(dp1423
g74
(dp1424
g94
g95
ssg83
g1418
sg76
(lp1425
S'server_port'
p1426
asbag69
(g90
g71
NtRp1427
(dp1428
g74
(dp1429
g101
g102
ssg83
g1418
sg76
(lp1430
S':'
asbag69
(g90
g71
NtRp1431
(dp1432
g74
(dp1433
sg83
g1418
sg76
(lp1434
g69
(g70
g71
NtRp1435
(dp1436
g74
(dp1437
g82
I4
ssg83
g1431
sg76
(lp1438
S'8000'
p1439
asbasbasbag69
(g85
g71
NtRp1440
(dp1441
g74
(dp1442
sg83
g846
sg76
(lp1443
g69
(g90
g71
NtRp1444
(dp1445
g74
(dp1446
g94
g95
ssg83
g1440
sg76
(lp1447
S'server_protocol'
p1448
asbag69
(g90
g71
NtRp1449
(dp1450
g74
(dp1451
g101
g102
ssg83
g1440
sg76
(lp1452
S':'
asbag69
(g90
g71
NtRp1453
(dp1454
g74
(dp1455
sg83
g1440
sg76
(lp1456
g69
(g70
g71
NtRp1457
(dp1458
g74
(dp1459
g82
I4
ssg83
g1453
sg76
(lp1460
S'HTTP/1.1'
p1461
asbasbasbag69
(g85
g71
NtRp1462
(dp1463
g74
(dp1464
sg83
g846
sg76
(lp1465
g69
(g90
g71
NtRp1466
(dp1467
g74
(dp1468
g94
g95
ssg83
g1462
sg76
(lp1469
S'server_software'
p1470
asbag69
(g90
g71
NtRp1471
(dp1472
g74
(dp1473
g101
g102
ssg83
g1462
sg76
(lp1474
S':'
asbag69
(g90
g71
NtRp1475
(dp1476
g74
(dp1477
sg83
g1462
sg76
(lp1478
g69
(g70
g71
NtRp1479
(dp1480
g74
(dp1481
g82
I4
ssg83
g1475
sg76
(lp1482
S'Rocket 1.2.4'
p1483
asbasbasbag69
(g85
g71
NtRp1484
(dp1485
g74
(dp1486
sg83
g846
sg76
(lp1487
g69
(g90
g71
NtRp1488
(dp1489
g74
(dp1490
g94
g95
ssg83
g1484
sg76
(lp1491
S'web2py_crontype'
p1492
asbag69
(g90
g71
NtRp1493
(dp1494
g74
(dp1495
g101
g102
ssg83
g1484
sg76
(lp1496
S':'
asbag69
(g90
g71
NtRp1497
(dp1498
g74
(dp1499
sg83
g1484
sg76
(lp1500
g69
(g70
g71
NtRp1501
(dp1502
g74
(dp1503
g82
I4
ssg83
g1497
sg76
(lp1504
S'hard'
p1505
asbasbasbag69
(g85
g71
NtRp1506
(dp1507
g74
(dp1508
sg83
g846
sg76
(lp1509
g69
(g90
g71
NtRp1510
(dp1511
g74
(dp1512
g94
g95
ssg83
g1506
sg76
(lp1513
S'web2py_original_uri'
p1514
asbag69
(g90
g71
NtRp1515
(dp1516
g74
(dp1517
g101
g102
ssg83
g1506
sg76
(lp1518
S':'
asbag69
(g90
g71
NtRp1519
(dp1520
g74
(dp1521
sg83
g1506
sg76
(lp1522
g69
(g70
g71
NtRp1523
(dp1524
g74
(dp1525
g82
I4
ssg83
g1519
sg76
(lp1526
g1267
asbasbasbag69
(g85
g71
NtRp1527
(dp1528
g74
(dp1529
sg83
g846
sg76
(lp1530
g69
(g90
g71
NtRp1531
(dp1532
g74
(dp1533
g94
g95
ssg83
g1527
sg76
(lp1534
S'web2py_path'
p1535
asbag69
(g90
g71
NtRp1536
(dp1537
g74
(dp1538
g101
g102
ssg83
g1527
sg76
(lp1539
S':'
asbag69
(g90
g71
NtRp1540
(dp1541
g74
(dp1542
sg83
g1527
sg76
(lp1543
g69
(g70
g71
NtRp1544
(dp1545
g74
(dp1546
g82
I4
ssg83
g1540
sg76
(lp1547
g893
asbasbasbag69
(g85
g71
NtRp1548
(dp1549
g74
(dp1550
sg83
g846
sg76
(lp1551
g69
(g90
g71
NtRp1552
(dp1553
g74
(dp1554
g94
g95
ssg83
g1548
sg76
(lp1555
S'web2py_version'
p1556
asbag69
(g90
g71
NtRp1557
(dp1558
g74
(dp1559
g101
g102
ssg83
g1548
sg76
(lp1560
S':'
asbag69
(g90
g71
NtRp1561
(dp1562
g74
(dp1563
sg83
g1548
sg76
(lp1564
g69
(g70
g71
NtRp1565
(dp1566
g74
(dp1567
g82
I4
ssg83
g1561
sg76
(lp1568
g69
(g78
g71
NtRp1569
(dp1570
g74
(dp1571
g82
I3
ssg83
Nsg76
(lp1572
g69
(g85
g71
NtRp1573
(dp1574
g74
(dp1575
sg83
g1569
sg76
(lp1576
g69
(g90
g71
NtRp1577
(dp1578
g74
(dp1579
sg83
g1573
sg76
(lp1580
g69
(g70
g71
NtRp1581
(dp1582
g74
(dp1583
g82
I3
ssg83
g1577
sg76
(lp1584
S'1'
asbasbasbag69
(g85
g71
NtRp1585
(dp1586
g74
(dp1587
sg83
g1569
sg76
(lp1588
g69
(g90
g71
NtRp1589
(dp1590
g74
(dp1591
sg83
g1585
sg76
(lp1592
g69
(g70
g71
NtRp1593
(dp1594
g74
(dp1595
g82
I3
ssg83
g1589
sg76
(lp1596
S'99'
p1597
asbasbasbag69
(g85
g71
NtRp1598
(dp1599
g74
(dp1600
sg83
g1569
sg76
(lp1601
g69
(g90
g71
NtRp1602
(dp1603
g74
(dp1604
sg83
g1598
sg76
(lp1605
g69
(g70
g71
NtRp1606
(dp1607
g74
(dp1608
g82
I3
ssg83
g1602
sg76
(lp1609
S'7'
asbasbasbag69
(g85
g71
NtRp1610
(dp1611
g74
(dp1612
sg83
g1569
sg76
(lp1613
g69
(g90
g71
NtRp1614
(dp1615
g74
(dp1616
sg83
g1610
sg76
(lp1617
g69
(g70
g71
NtRp1618
(dp1619
g74
(dp1620
g82
I3
ssg83
g1614
sg76
(lp1621
S'datetime.datetime(2012, 3, 4, 22, 12, 8)'
p1622
asbasbasbag69
(g85
g71
NtRp1623
(dp1624
g74
(dp1625
sg83
g1569
sg76
(lp1626
g69
(g90
g71
NtRp1627
(dp1628
g74
(dp1629
sg83
g1623
sg76
(lp1630
g69
(g70
g71
NtRp1631
(dp1632
g74
(dp1633
g82
I3
ssg83
g1627
sg76
(lp1634
S'stable'
p1635
asbasbasbasbasbasbasbag69
(g85
g71
NtRp1636
(dp1637
g74
(dp1638
sg83
g846
sg76
(lp1639
g69
(g90
g71
NtRp1640
(dp1641
g74
(dp1642
g94
g95
ssg83
g1636
sg76
(lp1643
S'wsgi_errors'
p1644
asbag69
(g90
g71
NtRp1645
(dp1646
g74
(dp1647
g101
g102
ssg83
g1636
sg76
(lp1648
S':'
asbag69
(g90
g71
NtRp1649
(dp1650
g74
(dp1651
sg83
g1636
sg76
(lp1652
g69
(g70
g71
NtRp1653
(dp1654
g74
(dp1655
g82
I4
ssg83
g1649
sg76
(lp1656
S"<open file '<stderr>', mode 'w' at 0x7fb4b1797270>"
p1657
asbasbasbag69
(g85
g71
NtRp1658
(dp1659
g74
(dp1660
sg83
g846
sg76
(lp1661
g69
(g90
g71
NtRp1662
(dp1663
g74
(dp1664
g94
g95
ssg83
g1658
sg76
(lp1665
S'wsgi_file_wrapper'
p1666
asbag69
(g90
g71
NtRp1667
(dp1668
g74
(dp1669
g101
g102
ssg83
g1658
sg76
(lp1670
S':'
asbag69
(g90
g71
NtRp1671
(dp1672
g74
(dp1673
sg83
g1658
sg76
(lp1674
g69
(g70
g71
NtRp1675
(dp1676
g74
(dp1677
g82
I4
ssg83
g1671
sg76
(lp1678
S'<class wsgiref.util.FileWrapper at 0x1bf5f58>'
p1679
asbasbasbag69
(g85
g71
NtRp1680
(dp1681
g74
(dp1682
sg83
g846
sg76
(lp1683
g69
(g90
g71
NtRp1684
(dp1685
g74
(dp1686
g94
g95
ssg83
g1680
sg76
(lp1687
S'wsgi_input'
p1688
asbag69
(g90
g71
NtRp1689
(dp1690
g74
(dp1691
g101
g102
ssg83
g1680
sg76
(lp1692
S':'
asbag69
(g90
g71
NtRp1693
(dp1694
g74
(dp1695
sg83
g1680
sg76
(lp1696
g69
(g70
g71
NtRp1697
(dp1698
g74
(dp1699
g82
I4
ssg83
g1693
sg76
(lp1700
S'<socket._fileobject object at 0x7fb49d865a50>'
p1701
asbasbasbag69
(g85
g71
NtRp1702
(dp1703
g74
(dp1704
sg83
g846
sg76
(lp1705
g69
(g90
g71
NtRp1706
(dp1707
g74
(dp1708
g94
g95
ssg83
g1702
sg76
(lp1709
S'wsgi_multiprocess'
p1710
asbag69
(g90
g71
NtRp1711
(dp1712
g74
(dp1713
g101
g102
ssg83
g1702
sg76
(lp1714
S':'
asbag69
(g90
g71
NtRp1715
(dp1716
g74
(dp1717
sg83
g1702
sg76
(lp1718
g69
(g70
g71
NtRp1719
(dp1720
g74
(dp1721
g82
I4
ssg83
g1715
sg76
(lp1722
g112
asbasbasbag69
(g85
g71
NtRp1723
(dp1724
g74
(dp1725
sg83
g846
sg76
(lp1726
g69
(g90
g71
NtRp1727
(dp1728
g74
(dp1729
g94
g95
ssg83
g1723
sg76
(lp1730
S'wsgi_multithread'
p1731
asbag69
(g90
g71
NtRp1732
(dp1733
g74
(dp1734
g101
g102
ssg83
g1723
sg76
(lp1735
S':'
asbag69
(g90
g71
NtRp1736
(dp1737
g74
(dp1738
sg83
g1723
sg76
(lp1739
g69
(g70
g71
NtRp1740
(dp1741
g74
(dp1742
g82
I4
ssg83
g1736
sg76
(lp1743
S'True'
p1744
asbasbasbag69
(g85
g71
NtRp1745
(dp1746
g74
(dp1747
sg83
g846
sg76
(lp1748
g69
(g90
g71
NtRp1749
(dp1750
g74
(dp1751
g94
g95
ssg83
g1745
sg76
(lp1752
S'wsgi_run_once'
p1753
asbag69
(g90
g71
NtRp1754
(dp1755
g74
(dp1756
g101
g102
ssg83
g1745
sg76
(lp1757
S':'
asbag69
(g90
g71
NtRp1758
(dp1759
g74
(dp1760
sg83
g1745
sg76
(lp1761
g69
(g70
g71
NtRp1762
(dp1763
g74
(dp1764
g82
I4
ssg83
g1758
sg76
(lp1765
g112
asbasbasbag69
(g85
g71
NtRp1766
(dp1767
g74
(dp1768
sg83
g846
sg76
(lp1769
g69
(g90
g71
NtRp1770
(dp1771
g74
(dp1772
g94
g95
ssg83
g1766
sg76
(lp1773
S'wsgi_url_scheme'
p1774
asbag69
(g90
g71
NtRp1775
(dp1776
g74
(dp1777
g101
g102
ssg83
g1766
sg76
(lp1778
S':'
asbag69
(g90
g71
NtRp1779
(dp1780
g74
(dp1781
sg83
g1766
sg76
(lp1782
g69
(g70
g71
NtRp1783
(dp1784
g74
(dp1785
g82
I4
ssg83
g1779
sg76
(lp1786
S'http'
p1787
asbasbasbag69
(g85
g71
NtRp1788
(dp1789
g74
(dp1790
sg83
g846
sg76
(lp1791
g69
(g90
g71
NtRp1792
(dp1793
g74
(dp1794
g94
g95
ssg83
g1788
sg76
(lp1795
S'wsgi_version'
p1796
asbag69
(g90
g71
NtRp1797
(dp1798
g74
(dp1799
g101
g102
ssg83
g1788
sg76
(lp1800
S':'
asbag69
(g90
g71
NtRp1801
(dp1802
g74
(dp1803
sg83
g1788
sg76
(lp1804
g69
(g70
g71
NtRp1805
(dp1806
g74
(dp1807
g82
I4
ssg83
g1801
sg76
(lp1808
g69
(g78
g71
NtRp1809
(dp1810
g74
(dp1811
g82
I3
ssg83
Nsg76
(lp1812
g69
(g85
g71
NtRp1813
(dp1814
g74
(dp1815
sg83
g1809
sg76
(lp1816
g69
(g90
g71
NtRp1817
(dp1818
g74
(dp1819
sg83
g1813
sg76
(lp1820
g69
(g70
g71
NtRp1821
(dp1822
g74
(dp1823
g82
I3
ssg83
g1817
sg76
(lp1824
S'1'
asbasbasbag69
(g85
g71
NtRp1825
(dp1826
g74
(dp1827
sg83
g1809
sg76
(lp1828
g69
(g90
g71
NtRp1829
(dp1830
g74
(dp1831
sg83
g1825
sg76
(lp1832
g69
(g70
g71
NtRp1833
(dp1834
g74
(dp1835
g82
I3
ssg83
g1829
sg76
(lp1836
S'0'
asbasbasbasbasbasbasbasbasbasbasbag69
(g85
g71
NtRp1837
(dp1838
g74
(dp1839
sg83
g79
sg76
(lp1840
g69
(g90
g71
NtRp1841
(dp1842
g74
(dp1843
g94
g95
ssg83
g1837
sg76
(lp1844
S'extension'
p1845
asbag69
(g90
g71
NtRp1846
(dp1847
g74
(dp1848
g101
g102
ssg83
g1837
sg76
(lp1849
S':'
asbag69
(g90
g71
NtRp1850
(dp1851
g74
(dp1852
sg83
g1837
sg76
(lp1853
g69
(g70
g71
NtRp1854
(dp1855
g74
(dp1856
g82
I5
ssg83
g1850
sg76
(lp1857
S'html'
p1858
asbasbasbag69
(g85
g71
NtRp1859
(dp1860
g74
(dp1861
sg83
g79
sg76
(lp1862
g69
(g90
g71
NtRp1863
(dp1864
g74
(dp1865
g94
g95
ssg83
g1859
sg76
(lp1866
S'folder'
p1867
asbag69
(g90
g71
NtRp1868
(dp1869
g74
(dp1870
g101
g102
ssg83
g1859
sg76
(lp1871
S':'
asbag69
(g90
g71
NtRp1872
(dp1873
g74
(dp1874
sg83
g1859
sg76
(lp1875
g69
(g70
g71
NtRp1876
(dp1877
g74
(dp1878
g82
I5
ssg83
g1872
sg76
(lp1879
S'/home/goshawk/web2py/applications/milo/'
p1880
asbasbasbag69
(g85
g71
NtRp1881
(dp1882
g74
(dp1883
sg83
g79
sg76
(lp1884
g69
(g90
g71
NtRp1885
(dp1886
g74
(dp1887
g94
g95
ssg83
g1881
sg76
(lp1888
S'function'
p1889
asbag69
(g90
g71
NtRp1890
(dp1891
g74
(dp1892
g101
g102
ssg83
g1881
sg76
(lp1893
S':'
asbag69
(g90
g71
NtRp1894
(dp1895
g74
(dp1896
sg83
g1881
sg76
(lp1897
g69
(g70
g71
NtRp1898
(dp1899
g74
(dp1900
g82
I5
ssg83
g1894
sg76
(lp1901
S'index'
p1902
asbasbasbag69
(g85
g71
NtRp1903
(dp1904
g74
(dp1905
sg83
g79
sg76
(lp1906
g69
(g90
g71
NtRp1907
(dp1908
g74
(dp1909
g94
g95
ssg83
g1903
sg76
(lp1910
S'get_vars'
p1911
asbag69
(g90
g71
NtRp1912
(dp1913
g74
(dp1914
g101
g102
ssg83
g1903
sg76
(lp1915
S':'
asbag69
(g90
g71
NtRp1916
(dp1917
g74
(dp1918
sg83
g1903
sg76
(lp1919
g69
(g70
g71
NtRp1920
(dp1921
g74
(dp1922
g82
I5
ssg83
g1916
sg76
(lp1923
g69
(g78
g71
NtRp1924
(dp1925
g74
(dp1926
g82
I4
ssg83
Nsg76
(lp1927
sbasbasbasbag69
(g85
g71
NtRp1928
(dp1929
g74
(dp1930
sg83
g79
sg76
(lp1931
g69
(g90
g71
NtRp1932
(dp1933
g74
(dp1934
g94
g95
ssg83
g1928
sg76
(lp1935
S'global_settings'
p1936
asbag69
(g90
g71
NtRp1937
(dp1938
g74
(dp1939
g101
g102
ssg83
g1928
sg76
(lp1940
S':'
asbag69
(g90
g71
NtRp1941
(dp1942
g74
(dp1943
sg83
g1928
sg76
(lp1944
g69
(g70
g71
NtRp1945
(dp1946
g74
(dp1947
g82
I5
ssg83
g1941
sg76
(lp1948
g69
(g78
g71
NtRp1949
(dp1950
g74
(dp1951
g82
I4
ssg83
Nsg76
(lp1952
g69
(g85
g71
NtRp1953
(dp1954
g74
(dp1955
sg83
g1949
sg76
(lp1956
g69
(g90
g71
NtRp1957
(dp1958
g74
(dp1959
g94
g95
ssg83
g1953
sg76
(lp1960
g858
asbag69
(g90
g71
NtRp1961
(dp1962
g74
(dp1963
g101
g102
ssg83
g1953
sg76
(lp1964
S':'
asbag69
(g90
g71
NtRp1965
(dp1966
g74
(dp1967
sg83
g1953
sg76
(lp1968
g69
(g70
g71
NtRp1969
(dp1970
g74
(dp1971
g82
I4
ssg83
g1965
sg76
(lp1972
S"set(['/home/goshawk/web2py/applications/milo/', '/home/goshawk/web2py/applications/admin/'])"
p1973
asbasbasbag69
(g85
g71
NtRp1974
(dp1975
g74
(dp1976
sg83
g1949
sg76
(lp1977
g69
(g90
g71
NtRp1978
(dp1979
g74
(dp1980
g94
g95
ssg83
g1974
sg76
(lp1981
g880
asbag69
(g90
g71
NtRp1982
(dp1983
g74
(dp1984
g101
g102
ssg83
g1974
sg76
(lp1985
S':'
asbag69
(g90
g71
NtRp1986
(dp1987
g74
(dp1988
sg83
g1974
sg76
(lp1989
g69
(g70
g71
NtRp1990
(dp1991
g74
(dp1992
g82
I4
ssg83
g1986
sg76
(lp1993
g893
asbasbasbag69
(g85
g71
NtRp1994
(dp1995
g74
(dp1996
sg83
g1949
sg76
(lp1997
g69
(g90
g71
NtRp1998
(dp1999
g74
(dp2000
g94
g95
ssg83
g1994
sg76
(lp2001
g902
asbag69
(g90
g71
NtRp2002
(dp2003
g74
(dp2004
g101
g102
ssg83
g1994
sg76
(lp2005
S':'
asbag69
(g90
g71
NtRp2006
(dp2007
g74
(dp2008
sg83
g1994
sg76
(lp2009
g69
(g70
g71
NtRp2010
(dp2011
g74
(dp2012
g82
I4
ssg83
g2006
sg76
(lp2013
g69
(g78
g71
NtRp2014
(dp2015
g74
(dp2016
g82
I3
ssg83
Nsg76
(lp2017
sbasbasbasbag69
(g85
g71
NtRp2018
(dp2019
g74
(dp2020
sg83
g1949
sg76
(lp2021
g69
(g90
g71
NtRp2022
(dp2023
g74
(dp2024
g94
g95
ssg83
g2018
sg76
(lp2025
g927
asbag69
(g90
g71
NtRp2026
(dp2027
g74
(dp2028
g101
g102
ssg83
g2018
sg76
(lp2029
S':'
asbag69
(g90
g71
NtRp2030
(dp2031
g74
(dp2032
sg83
g2018
sg76
(lp2033
g69
(g70
g71
NtRp2034
(dp2035
g74
(dp2036
g82
I4
ssg83
g2030
sg76
(lp2037
S"<Values at 0x1cc90e0: {'verbose': False, 'ip': '127.0.0.1', 'shutdown_timeout': 5, 'taskbar': False, 'nocron': False, 'pid_filename': 'httpserver.pid', 'maxthreads': None, 'softcron': False, 'server_name': 'whisperer', 'bpython': False, 'nogui': False, 'port': 8000, 'extcron': False, 'debuglevel': 30, 'test': None, 'folder': '/home/goshawk/web2py', 'config': '', 'import_models': False, 'winservice': '', 'shell': None, 'run': '', 'log_filename': 'httpserver.log', 'args': [''], 'socket_timeout': 5, 'ssl_ca_certificate': None, 'scheduler': None, 'profiler_filename': None, 'ssl_private_key': '', 'password': 'admin', 'request_queue_size': 5, 'ssl_certificate': '', 'cronjob': False, 'numthreads': None, 'quiet': False, 'interfaces': None, 'minthreads': None, 'timeout': 10, 'plain': False, 'nobanner': False}>"
p2038
asbasbasbag69
(g85
g71
NtRp2039
(dp2040
g74
(dp2041
sg83
g1949
sg76
(lp2042
g69
(g90
g71
NtRp2043
(dp2044
g74
(dp2045
g94
g95
ssg83
g2039
sg76
(lp2046
g949
asbag69
(g90
g71
NtRp2047
(dp2048
g74
(dp2049
g101
g102
ssg83
g2039
sg76
(lp2050
S':'
asbag69
(g90
g71
NtRp2051
(dp2052
g74
(dp2053
sg83
g2039
sg76
(lp2054
g69
(g70
g71
NtRp2055
(dp2056
g74
(dp2057
g82
I4
ssg83
g2051
sg76
(lp2058
S'set([])'
p2059
asbasbasbag69
(g85
g71
NtRp2060
(dp2061
g74
(dp2062
sg83
g1949
sg76
(lp2063
g69
(g90
g71
NtRp2064
(dp2065
g74
(dp2066
g94
g95
ssg83
g2060
sg76
(lp2067
g971
asbag69
(g90
g71
NtRp2068
(dp2069
g74
(dp2070
g101
g102
ssg83
g2060
sg76
(lp2071
S':'
asbag69
(g90
g71
NtRp2072
(dp2073
g74
(dp2074
sg83
g2060
sg76
(lp2075
g69
(g70
g71
NtRp2076
(dp2077
g74
(dp2078
g82
I4
ssg83
g2072
sg76
(lp2079
g112
asbasbasbag69
(g85
g71
NtRp2080
(dp2081
g74
(dp2082
sg83
g1949
sg76
(lp2083
g69
(g90
g71
NtRp2084
(dp2085
g74
(dp2086
g94
g95
ssg83
g2080
sg76
(lp2087
g992
asbag69
(g90
g71
NtRp2088
(dp2089
g74
(dp2090
g101
g102
ssg83
g2080
sg76
(lp2091
S':'
asbag69
(g90
g71
NtRp2092
(dp2093
g74
(dp2094
sg83
g2080
sg76
(lp2095
g69
(g70
g71
NtRp2096
(dp2097
g74
(dp2098
g82
I4
ssg83
g2092
sg76
(lp2099
g1005
asbasbasbag69
(g85
g71
NtRp2100
(dp2101
g74
(dp2102
sg83
g1949
sg76
(lp2103
g69
(g90
g71
NtRp2104
(dp2105
g74
(dp2106
g94
g95
ssg83
g2100
sg76
(lp2107
g1212
asbag69
(g90
g71
NtRp2108
(dp2109
g74
(dp2110
g101
g102
ssg83
g2100
sg76
(lp2111
S':'
asbag69
(g90
g71
NtRp2112
(dp2113
g74
(dp2114
sg83
g2100
sg76
(lp2115
g69
(g70
g71
NtRp2116
(dp2117
g74
(dp2118
g82
I4
ssg83
g2112
sg76
(lp2119
g112
asbasbasbag69
(g85
g71
NtRp2120
(dp2121
g74
(dp2122
sg83
g1949
sg76
(lp2123
g69
(g90
g71
NtRp2124
(dp2125
g74
(dp2126
g94
g95
ssg83
g2120
sg76
(lp2127
g1233
asbag69
(g90
g71
NtRp2128
(dp2129
g74
(dp2130
g101
g102
ssg83
g2120
sg76
(lp2131
S':'
asbag69
(g90
g71
NtRp2132
(dp2133
g74
(dp2134
sg83
g2120
sg76
(lp2135
g69
(g70
g71
NtRp2136
(dp2137
g74
(dp2138
g82
I4
ssg83
g2132
sg76
(lp2139
g112
asbasbasbag69
(g85
g71
NtRp2140
(dp2141
g74
(dp2142
sg83
g1949
sg76
(lp2143
g69
(g90
g71
NtRp2144
(dp2145
g74
(dp2146
g94
g95
ssg83
g2140
sg76
(lp2147
g1492
asbag69
(g90
g71
NtRp2148
(dp2149
g74
(dp2150
g101
g102
ssg83
g2140
sg76
(lp2151
S':'
asbag69
(g90
g71
NtRp2152
(dp2153
g74
(dp2154
sg83
g2140
sg76
(lp2155
g69
(g70
g71
NtRp2156
(dp2157
g74
(dp2158
g82
I4
ssg83
g2152
sg76
(lp2159
g1505
asbasbasbag69
(g85
g71
NtRp2160
(dp2161
g74
(dp2162
sg83
g1949
sg76
(lp2163
g69
(g90
g71
NtRp2164
(dp2165
g74
(dp2166
g94
g95
ssg83
g2160
sg76
(lp2167
g1556
asbag69
(g90
g71
NtRp2168
(dp2169
g74
(dp2170
g101
g102
ssg83
g2160
sg76
(lp2171
S':'
asbag69
(g90
g71
NtRp2172
(dp2173
g74
(dp2174
sg83
g2160
sg76
(lp2175
g69
(g70
g71
NtRp2176
(dp2177
g74
(dp2178
g82
I4
ssg83
g2172
sg76
(lp2179
g69
(g78
g71
NtRp2180
(dp2181
g74
(dp2182
g82
I3
ssg83
Nsg76
(lp2183
g69
(g85
g71
NtRp2184
(dp2185
g74
(dp2186
sg83
g2180
sg76
(lp2187
g69
(g90
g71
NtRp2188
(dp2189
g74
(dp2190
sg83
g2184
sg76
(lp2191
g69
(g70
g71
NtRp2192
(dp2193
g74
(dp2194
g82
I3
ssg83
g2188
sg76
(lp2195
S'1'
asbasbasbag69
(g85
g71
NtRp2196
(dp2197
g74
(dp2198
sg83
g2180
sg76
(lp2199
g69
(g90
g71
NtRp2200
(dp2201
g74
(dp2202
sg83
g2196
sg76
(lp2203
g69
(g70
g71
NtRp2204
(dp2205
g74
(dp2206
g82
I3
ssg83
g2200
sg76
(lp2207
S'99'
p2208
asbasbasbag69
(g85
g71
NtRp2209
(dp2210
g74
(dp2211
sg83
g2180
sg76
(lp2212
g69
(g90
g71
NtRp2213
(dp2214
g74
(dp2215
sg83
g2209
sg76
(lp2216
g69
(g70
g71
NtRp2217
(dp2218
g74
(dp2219
g82
I3
ssg83
g2213
sg76
(lp2220
S'7'
asbasbasbag69
(g85
g71
NtRp2221
(dp2222
g74
(dp2223
sg83
g2180
sg76
(lp2224
g69
(g90
g71
NtRp2225
(dp2226
g74
(dp2227
sg83
g2221
sg76
(lp2228
g69
(g70
g71
NtRp2229
(dp2230
g74
(dp2231
g82
I3
ssg83
g2225
sg76
(lp2232
S'datetime.datetime(2012, 3, 4, 22, 12, 8)'
p2233
asbasbasbag69
(g85
g71
NtRp2234
(dp2235
g74
(dp2236
sg83
g2180
sg76
(lp2237
g69
(g90
g71
NtRp2238
(dp2239
g74
(dp2240
sg83
g2234
sg76
(lp2241
g69
(g70
g71
NtRp2242
(dp2243
g74
(dp2244
g82
I3
ssg83
g2238
sg76
(lp2245
g1635
asbasbasbasbasbasbasbasbasbasbasbag69
(g85
g71
NtRp2246
(dp2247
g74
(dp2248
sg83
g79
sg76
(lp2249
g69
(g90
g71
NtRp2250
(dp2251
g74
(dp2252
g94
g95
ssg83
g2246
sg76
(lp2253
S'is_https'
p2254
asbag69
(g90
g71
NtRp2255
(dp2256
g74
(dp2257
g101
g102
ssg83
g2246
sg76
(lp2258
S':'
asbag69
(g90
g71
NtRp2259
(dp2260
g74
(dp2261
sg83
g2246
sg76
(lp2262
g69
(g70
g71
NtRp2263
(dp2264
g74
(dp2265
g82
I5
ssg83
g2259
sg76
(lp2266
g112
asbasbasbag69
(g85
g71
NtRp2267
(dp2268
g74
(dp2269
sg83
g79
sg76
(lp2270
g69
(g90
g71
NtRp2271
(dp2272
g74
(dp2273
g94
g95
ssg83
g2267
sg76
(lp2274
S'is_local'
p2275
asbag69
(g90
g71
NtRp2276
(dp2277
g74
(dp2278
g101
g102
ssg83
g2267
sg76
(lp2279
S':'
asbag69
(g90
g71
NtRp2280
(dp2281
g74
(dp2282
sg83
g2267
sg76
(lp2283
g69
(g70
g71
NtRp2284
(dp2285
g74
(dp2286
g82
I5
ssg83
g2280
sg76
(lp2287
g1744
asbasbasbag69
(g85
g71
NtRp2288
(dp2289
g74
(dp2290
sg83
g79
sg76
(lp2291
g69
(g90
g71
NtRp2292
(dp2293
g74
(dp2294
g94
g95
ssg83
g2288
sg76
(lp2295
S'is_restful'
p2296
asbag69
(g90
g71
NtRp2297
(dp2298
g74
(dp2299
g101
g102
ssg83
g2288
sg76
(lp2300
S':'
asbag69
(g90
g71
NtRp2301
(dp2302
g74
(dp2303
sg83
g2288
sg76
(lp2304
g69
(g70
g71
NtRp2305
(dp2306
g74
(dp2307
g82
I5
ssg83
g2301
sg76
(lp2308
g112
asbasbasbag69
(g85
g71
NtRp2309
(dp2310
g74
(dp2311
sg83
g79
sg76
(lp2312
g69
(g90
g71
NtRp2313
(dp2314
g74
(dp2315
g94
g95
ssg83
g2309
sg76
(lp2316
S'now'
p2317
asbag69
(g90
g71
NtRp2318
(dp2319
g74
(dp2320
g101
g102
ssg83
g2309
sg76
(lp2321
S':'
asbag69
(g90
g71
NtRp2322
(dp2323
g74
(dp2324
sg83
g2309
sg76
(lp2325
g69
(g70
g71
NtRp2326
(dp2327
g74
(dp2328
g82
I5
ssg83
g2322
sg76
(lp2329
S'datetime.datetime(2012, 7, 20, 8, 49, 3, 921844)'
p2330
asbasbasbag69
(g85
g71
NtRp2331
(dp2332
g74
(dp2333
sg83
g79
sg76
(lp2334
g69
(g90
g71
NtRp2335
(dp2336
g74
(dp2337
g94
g95
ssg83
g2331
sg76
(lp2338
S'post_vars'
p2339
asbag69
(g90
g71
NtRp2340
(dp2341
g74
(dp2342
g101
g102
ssg83
g2331
sg76
(lp2343
S':'
asbag69
(g90
g71
NtRp2344
(dp2345
g74
(dp2346
sg83
g2331
sg76
(lp2347
g69
(g70
g71
NtRp2348
(dp2349
g74
(dp2350
g82
I5
ssg83
g2344
sg76
(lp2351
g69
(g78
g71
NtRp2352
(dp2353
g74
(dp2354
g82
I4
ssg83
Nsg76
(lp2355
sbasbasbasbag69
(g85
g71
NtRp2356
(dp2357
g74
(dp2358
sg83
g79
sg76
(lp2359
g69
(g90
g71
NtRp2360
(dp2361
g74
(dp2362
g94
g95
ssg83
g2356
sg76
(lp2363
S'raw_args'
p2364
asbag69
(g90
g71
NtRp2365
(dp2366
g74
(dp2367
g101
g102
ssg83
g2356
sg76
(lp2368
S':'
asbag69
(g90
g71
NtRp2369
(dp2370
g74
(dp2371
sg83
g2356
sg76
(lp2372
g69
(g70
g71
NtRp2373
(dp2374
g74
(dp2375
g82
I5
ssg83
g2369
sg76
(lp2376
S'1'
asbasbasbag69
(g85
g71
NtRp2377
(dp2378
g74
(dp2379
sg83
g79
sg76
(lp2380
g69
(g90
g71
NtRp2381
(dp2382
g74
(dp2383
g94
g95
ssg83
g2377
sg76
(lp2384
S'url'
p2385
asbag69
(g90
g71
NtRp2386
(dp2387
g74
(dp2388
g101
g102
ssg83
g2377
sg76
(lp2389
S':'
asbag69
(g90
g71
NtRp2390
(dp2391
g74
(dp2392
sg83
g2377
sg76
(lp2393
g69
(g70
g71
NtRp2394
(dp2395
g74
(dp2396
g82
I5
ssg83
g2390
sg76
(lp2397
S'/milo/default/index/1'
p2398
asbasbasbag69
(g85
g71
NtRp2399
(dp2400
g74
(dp2401
sg83
g79
sg76
(lp2402
g69
(g90
g71
NtRp2403
(dp2404
g74
(dp2405
g94
g95
ssg83
g2399
sg76
(lp2406
S'utcnow'
p2407
asbag69
(g90
g71
NtRp2408
(dp2409
g74
(dp2410
g101
g102
ssg83
g2399
sg76
(lp2411
S':'
asbag69
(g90
g71
NtRp2412
(dp2413
g74
(dp2414
sg83
g2399
sg76
(lp2415
g69
(g70
g71
NtRp2416
(dp2417
g74
(dp2418
g82
I5
ssg83
g2412
sg76
(lp2419
S'datetime.datetime(2012, 7, 20, 6, 49, 3, 921867)'
p2420
asbasbasbag69
(g85
g71
NtRp2421
(dp2422
g74
(dp2423
sg83
g79
sg76
(lp2424
g69
(g90
g71
NtRp2425
(dp2426
g74
(dp2427
g94
g95
ssg83
g2421
sg76
(lp2428
S'uuid'
p2429
asbag69
(g90
g71
NtRp2430
(dp2431
g74
(dp2432
g101
g102
ssg83
g2421
sg76
(lp2433
S':'
asbag69
(g90
g71
NtRp2434
(dp2435
g74
(dp2436
sg83
g2421
sg76
(lp2437
g69
(g70
g71
NtRp2438
(dp2439
g74
(dp2440
g82
I5
ssg83
g2434
sg76
(lp2441
S'milo/127.0.0.1.2012-07-20.08-49-03.725dbb0c-1d66-4d79-9e44-bf50518d7ebb'
p2442
asbasbasbag69
(g85
g71
NtRp2443
(dp2444
g74
(dp2445
sg83
g79
sg76
(lp2446
g69
(g90
g71
NtRp2447
(dp2448
g74
(dp2449
g94
g95
ssg83
g2443
sg76
(lp2450
S'vars'
p2451
asbag69
(g90
g71
NtRp2452
(dp2453
g74
(dp2454
g101
g102
ssg83
g2443
sg76
(lp2455
S':'
asbag69
(g90
g71
NtRp2456
(dp2457
g74
(dp2458
sg83
g2443
sg76
(lp2459
g69
(g70
g71
NtRp2460
(dp2461
g74
(dp2462
g82
I5
ssg83
g2456
sg76
(lp2463
g69
(g78
g71
NtRp2464
(dp2465
g74
(dp2466
g82
I4
ssg83
Nsg76
(lp2467
sbasbasbasbag69
(g85
g71
NtRp2468
(dp2469
g74
(dp2470
sg83
g79
sg76
(lp2471
g69
(g90
g71
NtRp2472
(dp2473
g74
(dp2474
g94
g95
ssg83
g2468
sg76
(lp2475
S'wsgi'
p2476
asbag69
(g90
g71
NtRp2477
(dp2478
g74
(dp2479
g101
g102
ssg83
g2468
sg76
(lp2480
S':'
asbag69
(g90
g71
NtRp2481
(dp2482
g74
(dp2483
sg83
g2468
sg76
(lp2484
g69
(g70
g71
NtRp2485
(dp2486
g74
(dp2487
g82
I5
ssg83
g2481
sg76
(lp2488
g69
(g78
g71
NtRp2489
(dp2490
g74
(dp2491
g82
I4
ssg83
Nsg76
(lp2492
g69
(g85
g71
NtRp2493
(dp2494
g74
(dp2495
sg83
g2489
sg76
(lp2496
g69
(g90
g71
NtRp2497
(dp2498
g74
(dp2499
g94
g95
ssg83
g2493
sg76
(lp2500
S'environ'
p2501
asbag69
(g90
g71
NtRp2502
(dp2503
g74
(dp2504
g101
g102
ssg83
g2493
sg76
(lp2505
S':'
asbag69
(g90
g71
NtRp2506
(dp2507
g74
(dp2508
sg83
g2493
sg76
(lp2509
g69
(g70
g71
NtRp2510
(dp2511
g74
(dp2512
g82
I4
ssg83
g2506
sg76
(lp2513
g69
(g78
g71
NtRp2514
(dp2515
g74
(dp2516
g82
I3
ssg83
Nsg76
(lp2517
g69
(g85
g71
NtRp2518
(dp2519
g74
(dp2520
sg83
g2514
sg76
(lp2521
g69
(g90
g71
NtRp2522
(dp2523
g74
(dp2524
g94
g95
ssg83
g2518
sg76
(lp2525
S'HTTP_ACCEPT'
p2526
asbag69
(g90
g71
NtRp2527
(dp2528
g74
(dp2529
g101
g102
ssg83
g2518
sg76
(lp2530
S':'
asbag69
(g90
g71
NtRp2531
(dp2532
g74
(dp2533
sg83
g2518
sg76
(lp2534
g69
(g70
g71
NtRp2535
(dp2536
g74
(dp2537
g82
I3
ssg83
g2531
sg76
(lp2538
g1027
asbasbasbag69
(g85
g71
NtRp2539
(dp2540
g74
(dp2541
sg83
g2514
sg76
(lp2542
g69
(g90
g71
NtRp2543
(dp2544
g74
(dp2545
g94
g95
ssg83
g2539
sg76
(lp2546
S'HTTP_ACCEPT_CHARSET'
p2547
asbag69
(g90
g71
NtRp2548
(dp2549
g74
(dp2550
g101
g102
ssg83
g2539
sg76
(lp2551
S':'
asbag69
(g90
g71
NtRp2552
(dp2553
g74
(dp2554
sg83
g2539
sg76
(lp2555
g69
(g70
g71
NtRp2556
(dp2557
g74
(dp2558
g82
I3
ssg83
g2552
sg76
(lp2559
g1049
asbasbasbag69
(g85
g71
NtRp2560
(dp2561
g74
(dp2562
sg83
g2514
sg76
(lp2563
g69
(g90
g71
NtRp2564
(dp2565
g74
(dp2566
g94
g95
ssg83
g2560
sg76
(lp2567
S'HTTP_ACCEPT_ENCODING'
p2568
asbag69
(g90
g71
NtRp2569
(dp2570
g74
(dp2571
g101
g102
ssg83
g2560
sg76
(lp2572
S':'
asbag69
(g90
g71
NtRp2573
(dp2574
g74
(dp2575
sg83
g2560
sg76
(lp2576
g69
(g70
g71
NtRp2577
(dp2578
g74
(dp2579
g82
I3
ssg83
g2573
sg76
(lp2580
g1071
asbasbasbag69
(g85
g71
NtRp2581
(dp2582
g74
(dp2583
sg83
g2514
sg76
(lp2584
g69
(g90
g71
NtRp2585
(dp2586
g74
(dp2587
g94
g95
ssg83
g2581
sg76
(lp2588
S'HTTP_ACCEPT_LANGUAGE'
p2589
asbag69
(g90
g71
NtRp2590
(dp2591
g74
(dp2592
g101
g102
ssg83
g2581
sg76
(lp2593
S':'
asbag69
(g90
g71
NtRp2594
(dp2595
g74
(dp2596
sg83
g2581
sg76
(lp2597
g69
(g70
g71
NtRp2598
(dp2599
g74
(dp2600
g82
I3
ssg83
g2594
sg76
(lp2601
g1093
asbasbasbag69
(g85
g71
NtRp2602
(dp2603
g74
(dp2604
sg83
g2514
sg76
(lp2605
g69
(g90
g71
NtRp2606
(dp2607
g74
(dp2608
g94
g95
ssg83
g2602
sg76
(lp2609
S'HTTP_CACHE_CONTROL'
p2610
asbag69
(g90
g71
NtRp2611
(dp2612
g74
(dp2613
g101
g102
ssg83
g2602
sg76
(lp2614
S':'
asbag69
(g90
g71
NtRp2615
(dp2616
g74
(dp2617
sg83
g2602
sg76
(lp2618
g69
(g70
g71
NtRp2619
(dp2620
g74
(dp2621
g82
I3
ssg83
g2615
sg76
(lp2622
g1115
asbasbasbag69
(g85
g71
NtRp2623
(dp2624
g74
(dp2625
sg83
g2514
sg76
(lp2626
g69
(g90
g71
NtRp2627
(dp2628
g74
(dp2629
g94
g95
ssg83
g2623
sg76
(lp2630
S'HTTP_CONNECTION'
p2631
asbag69
(g90
g71
NtRp2632
(dp2633
g74
(dp2634
g101
g102
ssg83
g2623
sg76
(lp2635
S':'
asbag69
(g90
g71
NtRp2636
(dp2637
g74
(dp2638
sg83
g2623
sg76
(lp2639
g69
(g70
g71
NtRp2640
(dp2641
g74
(dp2642
g82
I3
ssg83
g2636
sg76
(lp2643
g1137
asbasbasbag69
(g85
g71
NtRp2644
(dp2645
g74
(dp2646
sg83
g2514
sg76
(lp2647
g69
(g90
g71
NtRp2648
(dp2649
g74
(dp2650
g94
g95
ssg83
g2644
sg76
(lp2651
S'HTTP_COOKIE'
p2652
asbag69
(g90
g71
NtRp2653
(dp2654
g74
(dp2655
g101
g102
ssg83
g2644
sg76
(lp2656
S':'
asbag69
(g90
g71
NtRp2657
(dp2658
g74
(dp2659
sg83
g2644
sg76
(lp2660
g69
(g70
g71
NtRp2661
(dp2662
g74
(dp2663
g82
I3
ssg83
g2657
sg76
(lp2664
g1159
asbasbasbag69
(g85
g71
NtRp2665
(dp2666
g74
(dp2667
sg83
g2514
sg76
(lp2668
g69
(g90
g71
NtRp2669
(dp2670
g74
(dp2671
g94
g95
ssg83
g2665
sg76
(lp2672
S'HTTP_HOST'
p2673
asbag69
(g90
g71
NtRp2674
(dp2675
g74
(dp2676
g101
g102
ssg83
g2665
sg76
(lp2677
S':'
asbag69
(g90
g71
NtRp2678
(dp2679
g74
(dp2680
sg83
g2665
sg76
(lp2681
g69
(g70
g71
NtRp2682
(dp2683
g74
(dp2684
g82
I3
ssg83
g2678
sg76
(lp2685
g1181
asbasbasbag69
(g85
g71
NtRp2686
(dp2687
g74
(dp2688
sg83
g2514
sg76
(lp2689
g69
(g90
g71
NtRp2690
(dp2691
g74
(dp2692
g94
g95
ssg83
g2686
sg76
(lp2693
S'HTTP_USER_AGENT'
p2694
asbag69
(g90
g71
NtRp2695
(dp2696
g74
(dp2697
g101
g102
ssg83
g2686
sg76
(lp2698
S':'
asbag69
(g90
g71
NtRp2699
(dp2700
g74
(dp2701
sg83
g2686
sg76
(lp2702
g69
(g70
g71
NtRp2703
(dp2704
g74
(dp2705
g82
I3
ssg83
g2699
sg76
(lp2706
g1203
asbasbasbag69
(g85
g71
NtRp2707
(dp2708
g74
(dp2709
sg83
g2514
sg76
(lp2710
g69
(g90
g71
NtRp2711
(dp2712
g74
(dp2713
g94
g95
ssg83
g2707
sg76
(lp2714
S'PATH_INFO'
p2715
asbag69
(g90
g71
NtRp2716
(dp2717
g74
(dp2718
g101
g102
ssg83
g2707
sg76
(lp2719
S':'
asbag69
(g90
g71
NtRp2720
(dp2721
g74
(dp2722
sg83
g2707
sg76
(lp2723
g69
(g70
g71
NtRp2724
(dp2725
g74
(dp2726
g82
I3
ssg83
g2720
sg76
(lp2727
g1267
asbasbasbag69
(g85
g71
NtRp2728
(dp2729
g74
(dp2730
sg83
g2514
sg76
(lp2731
g69
(g90
g71
NtRp2732
(dp2733
g74
(dp2734
g94
g95
ssg83
g2728
sg76
(lp2735
S'QUERY_STRING'
p2736
asbag69
(g90
g71
NtRp2737
(dp2738
g74
(dp2739
g101
g102
ssg83
g2728
sg76
(lp2740
S':'
asbag69
(g90
g71
NtRp2741
(dp2742
g74
(dp2743
sg83
g2728
sg76
(lp2744
g69
(g70
g71
NtRp2745
(dp2746
g74
(dp2747
g82
I3
ssg83
g2741
sg76
(lp2748
S''
asbasbasbag69
(g85
g71
NtRp2749
(dp2750
g74
(dp2751
sg83
g2514
sg76
(lp2752
g69
(g90
g71
NtRp2753
(dp2754
g74
(dp2755
g94
g95
ssg83
g2749
sg76
(lp2756
S'REMOTE_ADDR'
p2757
asbag69
(g90
g71
NtRp2758
(dp2759
g74
(dp2760
g101
g102
ssg83
g2749
sg76
(lp2761
S':'
asbag69
(g90
g71
NtRp2762
(dp2763
g74
(dp2764
sg83
g2749
sg76
(lp2765
g69
(g70
g71
NtRp2766
(dp2767
g74
(dp2768
g82
I3
ssg83
g2762
sg76
(lp2769
g214
asbasbasbag69
(g85
g71
NtRp2770
(dp2771
g74
(dp2772
sg83
g2514
sg76
(lp2773
g69
(g90
g71
NtRp2774
(dp2775
g74
(dp2776
g94
g95
ssg83
g2770
sg76
(lp2777
S'REMOTE_PORT'
p2778
asbag69
(g90
g71
NtRp2779
(dp2780
g74
(dp2781
g101
g102
ssg83
g2770
sg76
(lp2782
S':'
asbag69
(g90
g71
NtRp2783
(dp2784
g74
(dp2785
sg83
g2770
sg76
(lp2786
g69
(g70
g71
NtRp2787
(dp2788
g74
(dp2789
g82
I3
ssg83
g2783
sg76
(lp2790
g1331
asbasbasbag69
(g85
g71
NtRp2791
(dp2792
g74
(dp2793
sg83
g2514
sg76
(lp2794
g69
(g90
g71
NtRp2795
(dp2796
g74
(dp2797
g94
g95
ssg83
g2791
sg76
(lp2798
S'REQUEST_METHOD'
p2799
asbag69
(g90
g71
NtRp2800
(dp2801
g74
(dp2802
g101
g102
ssg83
g2791
sg76
(lp2803
S':'
asbag69
(g90
g71
NtRp2804
(dp2805
g74
(dp2806
sg83
g2791
sg76
(lp2807
g69
(g70
g71
NtRp2808
(dp2809
g74
(dp2810
g82
I3
ssg83
g2804
sg76
(lp2811
g1353
asbasbasbag69
(g85
g71
NtRp2812
(dp2813
g74
(dp2814
sg83
g2514
sg76
(lp2815
g69
(g90
g71
NtRp2816
(dp2817
g74
(dp2818
g94
g95
ssg83
g2812
sg76
(lp2819
S'REQUEST_URI'
p2820
asbag69
(g90
g71
NtRp2821
(dp2822
g74
(dp2823
g101
g102
ssg83
g2812
sg76
(lp2824
S':'
asbag69
(g90
g71
NtRp2825
(dp2826
g74
(dp2827
sg83
g2812
sg76
(lp2828
g69
(g70
g71
NtRp2829
(dp2830
g74
(dp2831
g82
I3
ssg83
g2825
sg76
(lp2832
g1267
asbasbasbag69
(g85
g71
NtRp2833
(dp2834
g74
(dp2835
sg83
g2514
sg76
(lp2836
g69
(g90
g71
NtRp2837
(dp2838
g74
(dp2839
g94
g95
ssg83
g2833
sg76
(lp2840
S'SCRIPT_NAME'
p2841
asbag69
(g90
g71
NtRp2842
(dp2843
g74
(dp2844
g101
g102
ssg83
g2833
sg76
(lp2845
S':'
asbag69
(g90
g71
NtRp2846
(dp2847
g74
(dp2848
sg83
g2833
sg76
(lp2849
g69
(g70
g71
NtRp2850
(dp2851
g74
(dp2852
g82
I3
ssg83
g2846
sg76
(lp2853
S''
asbasbasbag69
(g85
g71
NtRp2854
(dp2855
g74
(dp2856
sg83
g2514
sg76
(lp2857
g69
(g90
g71
NtRp2858
(dp2859
g74
(dp2860
g94
g95
ssg83
g2854
sg76
(lp2861
S'SERVER_NAME'
p2862
asbag69
(g90
g71
NtRp2863
(dp2864
g74
(dp2865
g101
g102
ssg83
g2854
sg76
(lp2866
S':'
asbag69
(g90
g71
NtRp2867
(dp2868
g74
(dp2869
sg83
g2854
sg76
(lp2870
g69
(g70
g71
NtRp2871
(dp2872
g74
(dp2873
g82
I3
ssg83
g2867
sg76
(lp2874
g1417
asbasbasbag69
(g85
g71
NtRp2875
(dp2876
g74
(dp2877
sg83
g2514
sg76
(lp2878
g69
(g90
g71
NtRp2879
(dp2880
g74
(dp2881
g94
g95
ssg83
g2875
sg76
(lp2882
S'SERVER_PORT'
p2883
asbag69
(g90
g71
NtRp2884
(dp2885
g74
(dp2886
g101
g102
ssg83
g2875
sg76
(lp2887
S':'
asbag69
(g90
g71
NtRp2888
(dp2889
g74
(dp2890
sg83
g2875
sg76
(lp2891
g69
(g70
g71
NtRp2892
(dp2893
g74
(dp2894
g82
I3
ssg83
g2888
sg76
(lp2895
g1439
asbasbasbag69
(g85
g71
NtRp2896
(dp2897
g74
(dp2898
sg83
g2514
sg76
(lp2899
g69
(g90
g71
NtRp2900
(dp2901
g74
(dp2902
g94
g95
ssg83
g2896
sg76
(lp2903
S'SERVER_PROTOCOL'
p2904
asbag69
(g90
g71
NtRp2905
(dp2906
g74
(dp2907
g101
g102
ssg83
g2896
sg76
(lp2908
S':'
asbag69
(g90
g71
NtRp2909
(dp2910
g74
(dp2911
sg83
g2896
sg76
(lp2912
g69
(g70
g71
NtRp2913
(dp2914
g74
(dp2915
g82
I3
ssg83
g2909
sg76
(lp2916
g1461
asbasbasbag69
(g85
g71
NtRp2917
(dp2918
g74
(dp2919
sg83
g2514
sg76
(lp2920
g69
(g90
g71
NtRp2921
(dp2922
g74
(dp2923
g94
g95
ssg83
g2917
sg76
(lp2924
S'SERVER_SOFTWARE'
p2925
asbag69
(g90
g71
NtRp2926
(dp2927
g74
(dp2928
g101
g102
ssg83
g2917
sg76
(lp2929
S':'
asbag69
(g90
g71
NtRp2930
(dp2931
g74
(dp2932
sg83
g2917
sg76
(lp2933
g69
(g70
g71
NtRp2934
(dp2935
g74
(dp2936
g82
I3
ssg83
g2930
sg76
(lp2937
g1483
asbasbasbag69
(g85
g71
NtRp2938
(dp2939
g74
(dp2940
sg83
g2514
sg76
(lp2941
g69
(g90
g71
NtRp2942
(dp2943
g74
(dp2944
g94
g95
ssg83
g2938
sg76
(lp2945
S'WEB2PY_ORIGINAL_URI'
p2946
asbag69
(g90
g71
NtRp2947
(dp2948
g74
(dp2949
g101
g102
ssg83
g2938
sg76
(lp2950
S':'
asbag69
(g90
g71
NtRp2951
(dp2952
g74
(dp2953
sg83
g2938
sg76
(lp2954
g69
(g70
g71
NtRp2955
(dp2956
g74
(dp2957
g82
I3
ssg83
g2951
sg76
(lp2958
g1267
asbasbasbag69
(g85
g71
NtRp2959
(dp2960
g74
(dp2961
sg83
g2514
sg76
(lp2962
g69
(g90
g71
NtRp2963
(dp2964
g74
(dp2965
g94
g95
ssg83
g2959
sg76
(lp2966
S'wsgi.errors'
p2967
asbag69
(g90
g71
NtRp2968
(dp2969
g74
(dp2970
g101
g102
ssg83
g2959
sg76
(lp2971
S':'
asbag69
(g90
g71
NtRp2972
(dp2973
g74
(dp2974
sg83
g2959
sg76
(lp2975
g69
(g70
g71
NtRp2976
(dp2977
g74
(dp2978
g82
I3
ssg83
g2972
sg76
(lp2979
S"<open file '<stderr>', mode 'w' at 0x7fb4b1797270>"
p2980
asbasbasbag69
(g85
g71
NtRp2981
(dp2982
g74
(dp2983
sg83
g2514
sg76
(lp2984
g69
(g90
g71
NtRp2985
(dp2986
g74
(dp2987
g94
g95
ssg83
g2981
sg76
(lp2988
S'wsgi.file_wrapper'
p2989
asbag69
(g90
g71
NtRp2990
(dp2991
g74
(dp2992
g101
g102
ssg83
g2981
sg76
(lp2993
S':'
asbag69
(g90
g71
NtRp2994
(dp2995
g74
(dp2996
sg83
g2981
sg76
(lp2997
g69
(g70
g71
NtRp2998
(dp2999
g74
(dp3000
g82
I3
ssg83
g2994
sg76
(lp3001
S'<class wsgiref.util.FileWrapper at 0x1bf5f58>'
p3002
asbasbasbag69
(g85
g71
NtRp3003
(dp3004
g74
(dp3005
sg83
g2514
sg76
(lp3006
g69
(g90
g71
NtRp3007
(dp3008
g74
(dp3009
g94
g95
ssg83
g3003
sg76
(lp3010
S'wsgi.input'
p3011
asbag69
(g90
g71
NtRp3012
(dp3013
g74
(dp3014
g101
g102
ssg83
g3003
sg76
(lp3015
S':'
asbag69
(g90
g71
NtRp3016
(dp3017
g74
(dp3018
sg83
g3003
sg76
(lp3019
g69
(g70
g71
NtRp3020
(dp3021
g74
(dp3022
g82
I3
ssg83
g3016
sg76
(lp3023
S'<cStringIO.StringO object at 0x7fb4803a2ae8>'
p3024
asbasbasbag69
(g85
g71
NtRp3025
(dp3026
g74
(dp3027
sg83
g2514
sg76
(lp3028
g69
(g90
g71
NtRp3029
(dp3030
g74
(dp3031
g94
g95
ssg83
g3025
sg76
(lp3032
S'wsgi.multiprocess'
p3033
asbag69
(g90
g71
NtRp3034
(dp3035
g74
(dp3036
g101
g102
ssg83
g3025
sg76
(lp3037
S':'
asbag69
(g90
g71
NtRp3038
(dp3039
g74
(dp3040
sg83
g3025
sg76
(lp3041
g69
(g70
g71
NtRp3042
(dp3043
g74
(dp3044
g82
I3
ssg83
g3038
sg76
(lp3045
g112
asbasbasbag69
(g85
g71
NtRp3046
(dp3047
g74
(dp3048
sg83
g2514
sg76
(lp3049
g69
(g90
g71
NtRp3050
(dp3051
g74
(dp3052
g94
g95
ssg83
g3046
sg76
(lp3053
S'wsgi.multithread'
p3054
asbag69
(g90
g71
NtRp3055
(dp3056
g74
(dp3057
g101
g102
ssg83
g3046
sg76
(lp3058
S':'
asbag69
(g90
g71
NtRp3059
(dp3060
g74
(dp3061
sg83
g3046
sg76
(lp3062
g69
(g70
g71
NtRp3063
(dp3064
g74
(dp3065
g82
I3
ssg83
g3059
sg76
(lp3066
g1744
asbasbasbag69
(g85
g71
NtRp3067
(dp3068
g74
(dp3069
sg83
g2514
sg76
(lp3070
g69
(g90
g71
NtRp3071
(dp3072
g74
(dp3073
g94
g95
ssg83
g3067
sg76
(lp3074
S'wsgi.run_once'
p3075
asbag69
(g90
g71
NtRp3076
(dp3077
g74
(dp3078
g101
g102
ssg83
g3067
sg76
(lp3079
S':'
asbag69
(g90
g71
NtRp3080
(dp3081
g74
(dp3082
sg83
g3067
sg76
(lp3083
g69
(g70
g71
NtRp3084
(dp3085
g74
(dp3086
g82
I3
ssg83
g3080
sg76
(lp3087
g112
asbasbasbag69
(g85
g71
NtRp3088
(dp3089
g74
(dp3090
sg83
g2514
sg76
(lp3091
g69
(g90
g71
NtRp3092
(dp3093
g74
(dp3094
g94
g95
ssg83
g3088
sg76
(lp3095
S'wsgi.url_scheme'
p3096
asbag69
(g90
g71
NtRp3097
(dp3098
g74
(dp3099
g101
g102
ssg83
g3088
sg76
(lp3100
S':'
asbag69
(g90
g71
NtRp3101
(dp3102
g74
(dp3103
sg83
g3088
sg76
(lp3104
g69
(g70
g71
NtRp3105
(dp3106
g74
(dp3107
g82
I3
ssg83
g3101
sg76
(lp3108
g1787
asbasbasbag69
(g85
g71
NtRp3109
(dp3110
g74
(dp3111
sg83
g2514
sg76
(lp3112
g69
(g90
g71
NtRp3113
(dp3114
g74
(dp3115
g94
g95
ssg83
g3109
sg76
(lp3116
S'wsgi.version'
p3117
asbag69
(g90
g71
NtRp3118
(dp3119
g74
(dp3120
g101
g102
ssg83
g3109
sg76
(lp3121
S':'
asbag69
(g90
g71
NtRp3122
(dp3123
g74
(dp3124
sg83
g3109
sg76
(lp3125
g69
(g70
g71
NtRp3126
(dp3127
g74
(dp3128
g82
I3
ssg83
g3122
sg76
(lp3129
S'1'
asbasbasbasbasbasbasbasbasbasbasbasbasbsS'frames'
p3130
(lp3131
(dp3132
S'file'
p3133
S'/home/goshawk/web2py/gluon/restricted.py'
p3134
sS'dump'
p3135
(dp3136
S'environment'
p3137
S"{'A': <class 'gluon.html.A'>, 'Auth': <class 'gluon.tools.Auth'>, 'B': <class 'gluon.html.B'>, 'BEAUTIFY': <class 'gluon.html.BEAUTIFY'>, 'BODY': <class 'gluon.html.BODY'>, 'BR': <class 'gluon.html.BR'>, 'BUTTON': <class 'gluon.html.BUTTON'>, 'CAT': <class 'gluon.html.CAT'>, 'CENTER': <class 'gluon.html.CENTER'>, 'CLEANUP': <class 'gluon.validators.CLEANUP'>, ...}"
p3138
sS'ccode'
p3139
S'<code object <module> at 0x7fb49d86ceb0, file "/...lications/milo/views/default/index.html", line 1>'
p3140
ssS'lnum'
p3141
I205
sS'lines'
p3142
(dp3143
I200
S'    try:'
p3144
sI201
S'        if type(code) == types.CodeType:'
p3145
sI202
S'            ccode = code'
p3146
sI203
S'        else:'
p3147
sI204
S'            ccode = compile2(code,layer)'
p3148
sI205
S'        exec ccode in environment'
p3149
sI206
S'    except HTTP:'
p3150
sI207
S'        raise'
p3151
sI208
S'    except RestrictedError:'
p3152
sI209
S'        # do not encapsulate (obfuscate) the original RestrictedError'
p3153
ssS'call'
p3154
S'(code=r"left_sidebar_enabled,right_sidebar_enabled=False...ponse.write(\'\\n</body>\\n</html>\\n\', escape=False)", environment={\'A\': <class \'gluon.html.A\'>, \'Auth\': <class \'gluon.tools.Auth\'>, \'B\': <class \'gluon.html.B\'>, \'BEAUTIFY\': <class \'gluon.html.BEAUTIFY\'>, \'BODY\': <class \'gluon.html.BODY\'>, \'BR\': <class \'gluon.html.BR\'>, \'BUTTON\': <class \'gluon.html.BUTTON\'>, \'CAT\': <class \'gluon.html.CAT\'>, \'CENTER\': <class \'gluon.html.CENTER\'>, \'CLEANUP\': <class \'gluon.validators.CLEANUP\'>, ...}, layer=\'/home/goshawk/web2py/applications/milo/views/default/index.html\')'
p3155
sS'func'
p3156
S'restricted'
p3157
sa(dp3158
g3133
S'/home/goshawk/web2py/applications/milo/views/default/index.html'
p3159
sg3135
(dp3160
S'page'
p3161
S'1'
ssg3141
I97
sg3142
(dp3162
I96
S'    response.write(\'">\\n            \\t<div class="post-thumbnail">\\n            \\t<a class="thumbnail-frame" title="See the trailer and details">\\n            \\t<img width="180" height="260" src="\', escape=False)'
p3163
sI97
S"    response.write(URL('static', movie.get('poster')))"
p3164
sI98
S'    response.write(\'" class="recommended-post-thumbnail"/>\\t\\t\\t\\t\\n\\t\\t\\t\\t</a>            \\n            \\t</div><!--post-thumbnail-->\\n\\n              \\t<h2><a href="http://www.imdb.com/title/tt\', escape=False)'
p3165
sI99
S"    response.write(movie.get('imdb_id'))"
p3166
sI100
S'    response.write(\'/" title="Go to this movie page">\', escape=False)'
p3167
sI101
S"    response.write(movie.get('title'))"
p3168
sI102
S'    response.write(\'</a><span title="Release Date">(${movie.date.strftime(\\\'%Y\\\')})</span></h2>\\n\\n              \\t<ul class="post-meta">\\n<!--               \\t <li class="date">Release date: ${movie.date.strftime(\\\'%Y\\\')}</li>\\n-->\\n\\t\\t\\t\\t\\t<tal:logged condition="logged">\\n\\t\\t\\t\\t\\t<li class="info info-logged">\\n\\t\\t\\t\\t\\t\\t<span>Rated it: </span>\\n\\t\\t\\t\\t\\t\\t<a href="javascript:panel_down(&quot;${request.resource_url(request.root, query=dict(rec=\\\'new\\\'))}&quot;,&quot;A new recommendation is available. Do you want to load it?&quot;);" title="Like this movie"><img width="18" height="18" src="${request.static_url(\\\'milo_app:static/images/icons/fatcow/32x32/thumb_up.png\\\')}"></a>\\n\\t\\t\\t\\t\\t\\t<a href="javascript:panel_down(&quot;${request.resource_url(request.root, query=dict(rec=\\\'new\\\'))}&quot;,&quot;A new recommendation is available. Do you want to load it?&quot;);" title="Dislike this movie"><img width="18" height="18" src="${request.static_url(\\\'milo_app:static/images/icons/fatcow/32x32/thumb_down.png\\\')}"></a>\\n\\t\\t\\t\\t\\t</li>\\n\\t\\t\\t\\t\\t</tal:logged>\\n\\t\\t\\t\\t\\t<li class="info"><img src="${request.static_url(\\\'milo_app:static/images/icons/play.png\\\')}"/>Views: <span>2.000</span> </li>\\n\\t\\t\\t\\t\\t<li class="info"><img src="${request.static_url(\\\'milo_app:static/images/icons/heart.png\\\')}"/><span>70%</span> of raters liked</li>\\n\\t\\t\\t\\t\\t<li class="genre">Genre: <tal:genres repeat="g movie.genre"><b>${g}&nbsp;</tal:genres></li>\\n\\n                \\t<li class="comments"><a href="#comments" title="View comments about this movie">${len(movie.comments)} Comments</a></li>\\n              </ul>\\n            </div>\\n            <!-- movie-item , first_page=\\\'false\\\')-->\\n\\t\\t\\t\', escape=False)'
p3169
sI103
S'    pass'
p3170
sI104
S'response.write(\'\\t\\t\\t\\n\\t\\t\\t<!--Next/Previous buttons-->\\n\\t\\t\\t<metal:prev_next metal:define-slot="prev_next">\\n\\t\\t\\t<div id="posts-footer">\\n\\t\\t\\t\\t\', escape=False)'
p3171
sI105
S'if page*items_per_page < max_items:'
p3172
sI106
S'    response.write(\'\\n\\t\\t\\t\\t<a id="next-bottom-button" href="\', escape=False)'
p3173
sI107
S'    response.write(URL(args=[page+1]))'
p3174
sI88
S'response.write(\' columns center">\\n          \', escape=False)'
p3175
sI89
S"response.write('\\n          ', escape=False)"
p3176
sI90
S'response.write(\'\\n<div id="content-inside">\\n      <div id="coda-nav">\\n            <div class="coda-slider" id="slider">\\n              <div class="panel">\\n                <div class="slider-post">\\n\\t\\t\\t\\t <a tal:attributes="href request.resource_url(request.root, \\\'Movie\\\',\\\'details\\\', movie.title)">\\n                  <img src="response.files.append(URL(\\\'static\\\',\\\'js/superfish.js\\\'))movie_data/\\\'+movie.image)"/>\\n                  class="slider-image" alt="${movie.title}" title="${movie.title}" />\\n                  </a>\\n                  <div class="slider-movie-description">\\n\\t\\t\\t\\t\\t<h2 tal:condition="logged"><a tal:attributes="href request.resource_url(request.root, \\\'Recommended\\\')" >Recommended for you!</a></h2>\\n                    <h2 tal:condition="not logged"><a tal:attributes="href request.resource_url(request.root, \\\'Popular\\\')" >Top ${repeat.movie.number} Movie</a></h2>\\n                    <h3><a tal:attributes="href request.resource_url(request.root, \\\'Movie\\\',\\\'details\\\', movie.title)" >${movie.title}</a></h3>\\n                    <p tal:condition="movie.description">${movie.description[:120]+\\\'...\\\'}</p>\\n                    <a class="continue" tal:attributes="href request.resource_url(request.root, \\\'Movie\\\',\\\'details\\\', movie.title)" title="More"></a>\\n                    \\n\\t\\t\\t\\t\\t<tal:logged condition="logged">\\n\\t\\t\\t\\t\\t<div class="recommend-thumbs-slider">\\n\\t\\t\\t\\t\\t\\t<a href="javascript:panel_down(\\\'${request.resource_url(request.root, query=dict(rec=\\\'new\\\'))}\\\',\\\'A new recommendation is available. Do you want to load it?\\\');" title="Like this movie">Like <img width="20" height="20" src="${request.static_url(\\\'milo_app:static/images/icons/fatcow/32x32/thumb_up.png\\\')}"></a>\\n\\t\\t\\t\\t\\t\\t<a href="javascript:panel_down(\\\'${request.resource_url(request.root, query=dict(rec=\\\'new\\\'))}\\\',\\\'A new recommendation is available. Do you want to load it?\\\');" title="Dislike this movie">Dislike <img width="20" height="20" src="${request.static_url(\\\'milo_app:static/images/icons/fatcow/32x32/thumb_down.png\\\')}"></a>\\n\\t\\t\\t\\t\\t</div><!--Recommended-thumbs-slider-->\\n\\t\\t\\t\\t\\t</tal:logged>\\t\\n                    \\n                    <div class="slider-movie-details">\\n\\t\\t\\t\\t\\t<ul> \\n\\t\\t\\t\\t\\t\\t<!--<li class="date-slider">Release date: ${movie.date.strftime(\\\'%Y\\\')}</li>-->\\n\\t\\t\\t\\t\\t\\t<li class="info-slider"><img src="${request.static_url(\\\'milo_app:static/images/icons/play.png\\\')}"/>Views: <span>2.000</span> </li>\\n\\t\\t\\t\\t\\t\\t<li class="info-slider"><img src="${request.static_url(\\\'milo_app:static/images/icons/heart.png\\\')}"/><span>70%</span> of raters liked</li>\\n\\t\\t\\t\\t\\t\\t<li class="genre-slider">Genre: <tal:genres repeat="g movie.genre"><b>${g}&nbsp;</tal:genres></li>\\n\\t\\t\\t\\t\\t\\t\\n\\t\\t\\t\\t\\t</ul>\\n\\t\\t\\t\\t\\t</div><!-- slider-movie-details-->\\n                  </div><!-- slider-movie-description-->\\n\\n                </div><!-- slider-post -->\\n              </div><!-- panel -->\\n              \\n    \\t\\t</div><!-- coda-slider -->\\n   \\t</div><!-- coda-nav -->\\n\\n\\t<div id="slider-foot">\\n    </div><!-- slider-foot-->\\n\\t\\n\\t\\t<div id="post-container">\\n         <div id="posts">\\n\\t\\t\\t\\t\\n\\t\\t\\t\\t<h2 title="Orientation">\\n\\t\\t\\t\\t<div id="filter">\\n\\t\\t\\t\\t\\tBrowsing ${category} by\\n\\t\\t\\t\\t\\t<select value="${movies.get(\\\'title\\\')}">\\n\\t\\t\\t\\t\\t  <option value="Last updates">\\n\\t\\t\\t\\t\\t\\tLast updates\\n\\t\\t\\t\\t\\t  </option>\\n\\t\\t\\t\\t\\t  <option value="Popularity">\\n\\t\\t\\t\\t\\t\\tPopularity\\n\\t\\t\\t\\t\\t  </option>\\n\\t\\t\\t\\t\\t</select>\\t\\t\\n\\t\\t\\t\\t</div><!-- filter -->\\n\\t\\t\\t\\t</h2>\\n\\t\\t\\t\', escape=False)'
p3177
sI91
S'for movie in list_movies:'
p3178
sI92
S'    response.write(\'\\n            <div class="gallery-item \', escape=False)'
p3179
sI93
S'    if not list_movies.index(movie) % 3:'
p3180
sI94
S"        response.write('clearboth', escape=False)"
p3181
sI95
S'        pass'
p3182
ssg3154
S'()'
p3183
sg3156
S'<module>'
p3184
sa(dp3185
g3133
S'/home/goshawk/web2py/gluon/html.py'
p3186
sg3135
(dp3187
S'builtinSyntaxError'
p3188
S"<type 'exceptions.SyntaxError'>"
p3189
ssg3141
I274
sg3142
(dp3190
I269
S"            function, extension = function.split('.', 1)"
p3191
sI270
S''
sI271
S"    function2 = '%s.%s' % (function,extension or 'html')"
p3192
sI272
S''
sI273
S'    if not (application and controller and function):'
p3193
sI274
S"        raise SyntaxError, 'not enough information to build the url'"
p3194
sI275
S''
sI276
S'    if args:'
p3195
sI277
S'        if url_encode:'
p3196
sI278
S'            if encode_embedded_slash:'
p3197
ssg3154
S"(a=None, c='static', f='', r=<Storage {'body': <cStringIO.StringO object at 0..._vars': <Storage {}>, 'post_vars': <Storage {}>}>, args=['static', 'images', 'movies', 'posters', '120539.jpg'], vars={}, anchor='', extension=None, env=<Storage {'debugging': False, 'http_user_agent':...[]), 'query_string': '', 'wsgi_run_once': False}>, hmac_key=None, hash_vars=True, salt=None, user_signature=None, scheme=None, host=None, port=None, encode_embedded_slash=False, url_encode=True)"
p3198
sg3156
S'URL'
p3199
sasS'pyver'
p3200
S'Python 2.7.3: /usr/bin/python'
p3201
sS'session'
p3202
g69
(g70
g71
NtRp3203
(dp3204
g74
(dp3205
sg76
(lp3206
g69
(g78
g71
NtRp3207
(dp3208
g74
(dp3209
g82
I5
ssg83
Nsg76
(lp3210
g69
(g85
g71
NtRp3211
(dp3212
g74
(dp3213
sg83
g3207
sg76
(lp3214
g69
(g90
g71
NtRp3215
(dp3216
g74
(dp3217
g94
g95
ssg83
g3211
sg76
(lp3218
S'last_query'
p3219
asbag69
(g90
g71
NtRp3220
(dp3221
g74
(dp3222
g101
g102
ssg83
g3211
sg76
(lp3223
S':'
asbag69
(g90
g71
NtRp3224
(dp3225
g74
(dp3226
sg83
g3211
sg76
(lp3227
g69
(g70
g71
NtRp3228
(dp3229
g74
(dp3230
g82
I5
ssg83
g3224
sg76
(lp3231
S"~(db.movies.poster.startswith('h'))"
p3232
asbasbasbasbasbsS'etype'
p3233
S"<type 'exceptions.SyntaxError'>"
p3234
sS'date'
p3235
S'Fri Jul 20 08:49:05 2012'
p3236
sS'response'
p3237
g69
(g70
g71
NtRp3238
(dp3239
g74
(dp3240
sg76
(lp3241
g69
(g78
g71
NtRp3242
(dp3243
g74
(dp3244
g82
I5
ssg83
Nsg76
(lp3245
g69
(g85
g71
NtRp3246
(dp3247
g74
(dp3248
sg83
g3242
sg76
(lp3249
g69
(g90
g71
NtRp3250
(dp3251
g74
(dp3252
g94
g95
ssg83
g3246
sg76
(lp3253
g179
asbag69
(g90
g71
NtRp3254
(dp3255
g74
(dp3256
g101
g102
ssg83
g3246
sg76
(lp3257
S':'
asbag69
(g90
g71
NtRp3258
(dp3259
g74
(dp3260
sg83
g3246
sg76
(lp3261
g69
(g70
g71
NtRp3262
(dp3263
g74
(dp3264
g82
I5
ssg83
g3258
sg76
(lp3265
S'<cStringIO.StringO object at 0x7fb48c020b20>'
p3266
asbasbasbag69
(g85
g71
NtRp3267
(dp3268
g74
(dp3269
sg83
g3242
sg76
(lp3270
g69
(g90
g71
NtRp3271
(dp3272
g74
(dp3273
g94
g95
ssg83
g3267
sg76
(lp3274
g245
asbag69
(g90
g71
NtRp3275
(dp3276
g74
(dp3277
g101
g102
ssg83
g3267
sg76
(lp3278
S':'
asbag69
(g90
g71
NtRp3279
(dp3280
g74
(dp3281
sg83
g3267
sg76
(lp3282
g69
(g70
g71
NtRp3283
(dp3284
g74
(dp3285
g82
I5
ssg83
g3279
sg76
(lp3286
g69
(g78
g71
NtRp3287
(dp3288
g74
(dp3289
g82
I4
ssg83
Nsg76
(lp3290
g69
(g85
g71
NtRp3291
(dp3292
g74
(dp3293
sg83
g3287
sg76
(lp3294
g69
(g90
g71
NtRp3295
(dp3296
g74
(dp3297
g94
g95
ssg83
g3291
sg76
(lp3298
S'session_id_milo'
p3299
asbag69
(g90
g71
NtRp3300
(dp3301
g74
(dp3302
g101
g102
ssg83
g3291
sg76
(lp3303
S':'
asbag69
(g90
g71
NtRp3304
(dp3305
g74
(dp3306
sg83
g3291
sg76
(lp3307
g69
(g70
g71
NtRp3308
(dp3309
g74
(dp3310
g82
I4
ssg83
g3304
sg76
(lp3311
g69
(g78
g71
NtRp3312
(dp3313
g74
(dp3314
g82
I3
ssg83
Nsg76
(lp3315
g69
(g85
g71
NtRp3316
(dp3317
g74
(dp3318
sg83
g3312
sg76
(lp3319
g69
(g90
g71
NtRp3320
(dp3321
g74
(dp3322
g94
g95
ssg83
g3316
sg76
(lp3323
g295
asbag69
(g90
g71
NtRp3324
(dp3325
g74
(dp3326
g101
g102
ssg83
g3316
sg76
(lp3327
S':'
asbag69
(g90
g71
NtRp3328
(dp3329
g74
(dp3330
sg83
g3316
sg76
(lp3331
g69
(g70
g71
NtRp3332
(dp3333
g74
(dp3334
g82
I3
ssg83
g3328
sg76
(lp3335
S''
asbasbasbag69
(g85
g71
NtRp3336
(dp3337
g74
(dp3338
sg83
g3312
sg76
(lp3339
g69
(g90
g71
NtRp3340
(dp3341
g74
(dp3342
g94
g95
ssg83
g3336
sg76
(lp3343
g316
asbag69
(g90
g71
NtRp3344
(dp3345
g74
(dp3346
g101
g102
ssg83
g3336
sg76
(lp3347
S':'
asbag69
(g90
g71
NtRp3348
(dp3349
g74
(dp3350
sg83
g3336
sg76
(lp3351
g69
(g70
g71
NtRp3352
(dp3353
g74
(dp3354
g82
I3
ssg83
g3348
sg76
(lp3355
S''
asbasbasbag69
(g85
g71
NtRp3356
(dp3357
g74
(dp3358
sg83
g3312
sg76
(lp3359
g69
(g90
g71
NtRp3360
(dp3361
g74
(dp3362
g94
g95
ssg83
g3356
sg76
(lp3363
g337
asbag69
(g90
g71
NtRp3364
(dp3365
g74
(dp3366
g101
g102
ssg83
g3356
sg76
(lp3367
S':'
asbag69
(g90
g71
NtRp3368
(dp3369
g74
(dp3370
sg83
g3356
sg76
(lp3371
g69
(g70
g71
NtRp3372
(dp3373
g74
(dp3374
g82
I3
ssg83
g3368
sg76
(lp3375
S''
asbasbasbag69
(g85
g71
NtRp3376
(dp3377
g74
(dp3378
sg83
g3312
sg76
(lp3379
g69
(g90
g71
NtRp3380
(dp3381
g74
(dp3382
g94
g95
ssg83
g3376
sg76
(lp3383
g358
asbag69
(g90
g71
NtRp3384
(dp3385
g74
(dp3386
g101
g102
ssg83
g3376
sg76
(lp3387
S':'
asbag69
(g90
g71
NtRp3388
(dp3389
g74
(dp3390
sg83
g3376
sg76
(lp3391
g69
(g70
g71
NtRp3392
(dp3393
g74
(dp3394
g82
I3
ssg83
g3388
sg76
(lp3395
S''
asbasbasbag69
(g85
g71
NtRp3396
(dp3397
g74
(dp3398
sg83
g3312
sg76
(lp3399
g69
(g90
g71
NtRp3400
(dp3401
g74
(dp3402
g94
g95
ssg83
g3396
sg76
(lp3403
g379
asbag69
(g90
g71
NtRp3404
(dp3405
g74
(dp3406
g101
g102
ssg83
g3396
sg76
(lp3407
S':'
asbag69
(g90
g71
NtRp3408
(dp3409
g74
(dp3410
sg83
g3396
sg76
(lp3411
g69
(g70
g71
NtRp3412
(dp3413
g74
(dp3414
g82
I3
ssg83
g3408
sg76
(lp3415
S''
asbasbasbag69
(g85
g71
NtRp3416
(dp3417
g74
(dp3418
sg83
g3312
sg76
(lp3419
g69
(g90
g71
NtRp3420
(dp3421
g74
(dp3422
g94
g95
ssg83
g3416
sg76
(lp3423
g400
asbag69
(g90
g71
NtRp3424
(dp3425
g74
(dp3426
g101
g102
ssg83
g3416
sg76
(lp3427
S':'
asbag69
(g90
g71
NtRp3428
(dp3429
g74
(dp3430
sg83
g3416
sg76
(lp3431
g69
(g70
g71
NtRp3432
(dp3433
g74
(dp3434
g82
I3
ssg83
g3428
sg76
(lp3435
S'/'
asbasbasbag69
(g85
g71
NtRp3436
(dp3437
g74
(dp3438
sg83
g3312
sg76
(lp3439
g69
(g90
g71
NtRp3440
(dp3441
g74
(dp3442
g94
g95
ssg83
g3436
sg76
(lp3443
g421
asbag69
(g90
g71
NtRp3444
(dp3445
g74
(dp3446
g101
g102
ssg83
g3436
sg76
(lp3447
S':'
asbag69
(g90
g71
NtRp3448
(dp3449
g74
(dp3450
sg83
g3436
sg76
(lp3451
g69
(g70
g71
NtRp3452
(dp3453
g74
(dp3454
g82
I3
ssg83
g3448
sg76
(lp3455
S''
asbasbasbag69
(g85
g71
NtRp3456
(dp3457
g74
(dp3458
sg83
g3312
sg76
(lp3459
g69
(g90
g71
NtRp3460
(dp3461
g74
(dp3462
g94
g95
ssg83
g3456
sg76
(lp3463
g442
asbag69
(g90
g71
NtRp3464
(dp3465
g74
(dp3466
g101
g102
ssg83
g3456
sg76
(lp3467
S':'
asbag69
(g90
g71
NtRp3468
(dp3469
g74
(dp3470
sg83
g3456
sg76
(lp3471
g69
(g70
g71
NtRp3472
(dp3473
g74
(dp3474
g82
I3
ssg83
g3468
sg76
(lp3475
S''
asbasbasbasbasbasbasbasbasbasbasbag69
(g85
g71
NtRp3476
(dp3477
g74
(dp3478
sg83
g3242
sg76
(lp3479
g69
(g90
g71
NtRp3480
(dp3481
g74
(dp3482
g94
g95
ssg83
g3476
sg76
(lp3483
S'delimiters'
p3484
asbag69
(g90
g71
NtRp3485
(dp3486
g74
(dp3487
g101
g102
ssg83
g3476
sg76
(lp3488
S':'
asbag69
(g90
g71
NtRp3489
(dp3490
g74
(dp3491
sg83
g3476
sg76
(lp3492
g69
(g70
g71
NtRp3493
(dp3494
g74
(dp3495
g82
I5
ssg83
g3489
sg76
(lp3496
g69
(g78
g71
NtRp3497
(dp3498
g74
(dp3499
g82
I4
ssg83
Nsg76
(lp3500
g69
(g85
g71
NtRp3501
(dp3502
g74
(dp3503
sg83
g3497
sg76
(lp3504
g69
(g90
g71
NtRp3505
(dp3506
g74
(dp3507
sg83
g3501
sg76
(lp3508
g69
(g70
g71
NtRp3509
(dp3510
g74
(dp3511
g82
I4
ssg83
g3505
sg76
(lp3512
S'{{'
p3513
asbasbasbag69
(g85
g71
NtRp3514
(dp3515
g74
(dp3516
sg83
g3497
sg76
(lp3517
g69
(g90
g71
NtRp3518
(dp3519
g74
(dp3520
sg83
g3514
sg76
(lp3521
g69
(g70
g71
NtRp3522
(dp3523
g74
(dp3524
g82
I4
ssg83
g3518
sg76
(lp3525
S'}}'
p3526
asbasbasbasbasbasbasbag69
(g85
g71
NtRp3527
(dp3528
g74
(dp3529
sg83
g3242
sg76
(lp3530
g69
(g90
g71
NtRp3531
(dp3532
g74
(dp3533
g94
g95
ssg83
g3527
sg76
(lp3534
S'files'
p3535
asbag69
(g90
g71
NtRp3536
(dp3537
g74
(dp3538
g101
g102
ssg83
g3527
sg76
(lp3539
S':'
asbag69
(g90
g71
NtRp3540
(dp3541
g74
(dp3542
sg83
g3527
sg76
(lp3543
g69
(g70
g71
NtRp3544
(dp3545
g74
(dp3546
g82
I5
ssg83
g3540
sg76
(lp3547
g69
(g78
g71
NtRp3548
(dp3549
g74
(dp3550
g82
I4
ssg83
Nsg76
(lp3551
g69
(g85
g71
NtRp3552
(dp3553
g74
(dp3554
sg83
g3548
sg76
(lp3555
g69
(g90
g71
NtRp3556
(dp3557
g74
(dp3558
sg83
g3552
sg76
(lp3559
g69
(g70
g71
NtRp3560
(dp3561
g74
(dp3562
g82
I4
ssg83
g3556
sg76
(lp3563
S'/milo/static/js/jquery.js'
p3564
asbasbasbag69
(g85
g71
NtRp3565
(dp3566
g74
(dp3567
sg83
g3548
sg76
(lp3568
g69
(g90
g71
NtRp3569
(dp3570
g74
(dp3571
sg83
g3565
sg76
(lp3572
g69
(g70
g71
NtRp3573
(dp3574
g74
(dp3575
g82
I4
ssg83
g3569
sg76
(lp3576
S'/milo/static/css/calendar.css'
p3577
asbasbasbag69
(g85
g71
NtRp3578
(dp3579
g74
(dp3580
sg83
g3548
sg76
(lp3581
g69
(g90
g71
NtRp3582
(dp3583
g74
(dp3584
sg83
g3578
sg76
(lp3585
g69
(g70
g71
NtRp3586
(dp3587
g74
(dp3588
g82
I4
ssg83
g3582
sg76
(lp3589
S'/milo/static/js/calendar.js'
p3590
asbasbasbag69
(g85
g71
NtRp3591
(dp3592
g74
(dp3593
sg83
g3548
sg76
(lp3594
g69
(g90
g71
NtRp3595
(dp3596
g74
(dp3597
sg83
g3591
sg76
(lp3598
g69
(g70
g71
NtRp3599
(dp3600
g74
(dp3601
g82
I4
ssg83
g3595
sg76
(lp3602
S'/milo/static/js/web2py.js'
p3603
asbasbasbag69
(g85
g71
NtRp3604
(dp3605
g74
(dp3606
sg83
g3548
sg76
(lp3607
g69
(g90
g71
NtRp3608
(dp3609
g74
(dp3610
sg83
g3604
sg76
(lp3611
g69
(g70
g71
NtRp3612
(dp3613
g74
(dp3614
g82
I4
ssg83
g3608
sg76
(lp3615
S'/milo/static/css/skeleton.css'
p3616
asbasbasbag69
(g85
g71
NtRp3617
(dp3618
g74
(dp3619
sg83
g3548
sg76
(lp3620
g69
(g90
g71
NtRp3621
(dp3622
g74
(dp3623
sg83
g3617
sg76
(lp3624
g69
(g70
g71
NtRp3625
(dp3626
g74
(dp3627
g82
I4
ssg83
g3621
sg76
(lp3628
S'/milo/static/css/web2py.css'
p3629
asbasbasbag69
(g85
g71
NtRp3630
(dp3631
g74
(dp3632
sg83
g3548
sg76
(lp3633
g69
(g90
g71
NtRp3634
(dp3635
g74
(dp3636
sg83
g3630
sg76
(lp3637
g69
(g70
g71
NtRp3638
(dp3639
g74
(dp3640
g82
I4
ssg83
g3634
sg76
(lp3641
S'/milo/static/css/style.css'
p3642
asbasbasbag69
(g85
g71
NtRp3643
(dp3644
g74
(dp3645
sg83
g3548
sg76
(lp3646
g69
(g90
g71
NtRp3647
(dp3648
g74
(dp3649
sg83
g3643
sg76
(lp3650
g69
(g70
g71
NtRp3651
(dp3652
g74
(dp3653
g82
I4
ssg83
g3647
sg76
(lp3654
S'/milo/static/css/style.css3.css'
p3655
asbasbasbag69
(g85
g71
NtRp3656
(dp3657
g74
(dp3658
sg83
g3548
sg76
(lp3659
g69
(g90
g71
NtRp3660
(dp3661
g74
(dp3662
sg83
g3656
sg76
(lp3663
g69
(g70
g71
NtRp3664
(dp3665
g74
(dp3666
g82
I4
ssg83
g3660
sg76
(lp3667
S'/milo/static/css/smoothness/jquery-ui.css'
p3668
asbasbasbag69
(g85
g71
NtRp3669
(dp3670
g74
(dp3671
sg83
g3548
sg76
(lp3672
g69
(g90
g71
NtRp3673
(dp3674
g74
(dp3675
sg83
g3669
sg76
(lp3676
g69
(g70
g71
NtRp3677
(dp3678
g74
(dp3679
g82
I4
ssg83
g3673
sg76
(lp3680
S'/milo/static/css/superfish.css'
p3681
asbasbasbag69
(g85
g71
NtRp3682
(dp3683
g74
(dp3684
sg83
g3548
sg76
(lp3685
g69
(g90
g71
NtRp3686
(dp3687
g74
(dp3688
sg83
g3682
sg76
(lp3689
g69
(g70
g71
NtRp3690
(dp3691
g74
(dp3692
g82
I4
ssg83
g3686
sg76
(lp3693
S'/milo/static/js/superfish.js'
p3694
asbasbasbasbasbasbasbag69
(g85
g71
NtRp3695
(dp3696
g74
(dp3697
sg83
g3242
sg76
(lp3698
g69
(g90
g71
NtRp3699
(dp3700
g74
(dp3701
g94
g95
ssg83
g3695
sg76
(lp3702
S'flash'
p3703
asbag69
(g90
g71
NtRp3704
(dp3705
g74
(dp3706
g101
g102
ssg83
g3695
sg76
(lp3707
S':'
asbag69
(g90
g71
NtRp3708
(dp3709
g74
(dp3710
sg83
g3695
sg76
(lp3711
g69
(g70
g71
NtRp3712
(dp3713
g74
(dp3714
g82
I5
ssg83
g3708
sg76
(lp3715
S''
asbasbasbag69
(g85
g71
NtRp3716
(dp3717
g74
(dp3718
sg83
g3242
sg76
(lp3719
g69
(g90
g71
NtRp3720
(dp3721
g74
(dp3722
g94
g95
ssg83
g3716
sg76
(lp3723
S'generic_patterns'
p3724
asbag69
(g90
g71
NtRp3725
(dp3726
g74
(dp3727
g101
g102
ssg83
g3716
sg76
(lp3728
S':'
asbag69
(g90
g71
NtRp3729
(dp3730
g74
(dp3731
sg83
g3716
sg76
(lp3732
g69
(g70
g71
NtRp3733
(dp3734
g74
(dp3735
g82
I5
ssg83
g3729
sg76
(lp3736
g69
(g78
g71
NtRp3737
(dp3738
g74
(dp3739
g82
I4
ssg83
Nsg76
(lp3740
g69
(g85
g71
NtRp3741
(dp3742
g74
(dp3743
sg83
g3737
sg76
(lp3744
g69
(g90
g71
NtRp3745
(dp3746
g74
(dp3747
sg83
g3741
sg76
(lp3748
g69
(g70
g71
NtRp3749
(dp3750
g74
(dp3751
g82
I4
ssg83
g3745
sg76
(lp3752
S'*'
asbasbasbasbasbasbasbag69
(g85
g71
NtRp3753
(dp3754
g74
(dp3755
sg83
g3242
sg76
(lp3756
g69
(g90
g71
NtRp3757
(dp3758
g74
(dp3759
g94
g95
ssg83
g3753
sg76
(lp3760
S'headers'
p3761
asbag69
(g90
g71
NtRp3762
(dp3763
g74
(dp3764
g101
g102
ssg83
g3753
sg76
(lp3765
S':'
asbag69
(g90
g71
NtRp3766
(dp3767
g74
(dp3768
sg83
g3753
sg76
(lp3769
g69
(g70
g71
NtRp3770
(dp3771
g74
(dp3772
g82
I5
ssg83
g3766
sg76
(lp3773
g69
(g78
g71
NtRp3774
(dp3775
g74
(dp3776
g82
I4
ssg83
Nsg76
(lp3777
g69
(g85
g71
NtRp3778
(dp3779
g74
(dp3780
sg83
g3774
sg76
(lp3781
g69
(g90
g71
NtRp3782
(dp3783
g74
(dp3784
g94
g95
ssg83
g3778
sg76
(lp3785
S'Cache-Control'
p3786
asbag69
(g90
g71
NtRp3787
(dp3788
g74
(dp3789
g101
g102
ssg83
g3778
sg76
(lp3790
S':'
asbag69
(g90
g71
NtRp3791
(dp3792
g74
(dp3793
sg83
g3778
sg76
(lp3794
g69
(g70
g71
NtRp3795
(dp3796
g74
(dp3797
g82
I4
ssg83
g3791
sg76
(lp3798
S'no-store, no-cache, must-revalidate, post-check=0, pre-check=0'
p3799
asbasbasbag69
(g85
g71
NtRp3800
(dp3801
g74
(dp3802
sg83
g3774
sg76
(lp3803
g69
(g90
g71
NtRp3804
(dp3805
g74
(dp3806
g94
g95
ssg83
g3800
sg76
(lp3807
S'Content-Type'
p3808
asbag69
(g90
g71
NtRp3809
(dp3810
g74
(dp3811
g101
g102
ssg83
g3800
sg76
(lp3812
S':'
asbag69
(g90
g71
NtRp3813
(dp3814
g74
(dp3815
sg83
g3800
sg76
(lp3816
g69
(g70
g71
NtRp3817
(dp3818
g74
(dp3819
g82
I4
ssg83
g3813
sg76
(lp3820
S'text/html; charset=utf-8'
p3821
asbasbasbag69
(g85
g71
NtRp3822
(dp3823
g74
(dp3824
sg83
g3774
sg76
(lp3825
g69
(g90
g71
NtRp3826
(dp3827
g74
(dp3828
g94
g95
ssg83
g3822
sg76
(lp3829
S'Expires'
p3830
asbag69
(g90
g71
NtRp3831
(dp3832
g74
(dp3833
g101
g102
ssg83
g3822
sg76
(lp3834
S':'
asbag69
(g90
g71
NtRp3835
(dp3836
g74
(dp3837
sg83
g3822
sg76
(lp3838
g69
(g70
g71
NtRp3839
(dp3840
g74
(dp3841
g82
I4
ssg83
g3835
sg76
(lp3842
S'Fri, 20 Jul 2012 06:49:03 GMT'
p3843
asbasbasbag69
(g85
g71
NtRp3844
(dp3845
g74
(dp3846
sg83
g3774
sg76
(lp3847
g69
(g90
g71
NtRp3848
(dp3849
g74
(dp3850
g94
g95
ssg83
g3844
sg76
(lp3851
S'Pragma'
p3852
asbag69
(g90
g71
NtRp3853
(dp3854
g74
(dp3855
g101
g102
ssg83
g3844
sg76
(lp3856
S':'
asbag69
(g90
g71
NtRp3857
(dp3858
g74
(dp3859
sg83
g3844
sg76
(lp3860
g69
(g70
g71
NtRp3861
(dp3862
g74
(dp3863
g82
I4
ssg83
g3857
sg76
(lp3864
S'no-cache'
p3865
asbasbasbag69
(g85
g71
NtRp3866
(dp3867
g74
(dp3868
sg83
g3774
sg76
(lp3869
g69
(g90
g71
NtRp3870
(dp3871
g74
(dp3872
g94
g95
ssg83
g3866
sg76
(lp3873
S'X-Powered-By'
p3874
asbag69
(g90
g71
NtRp3875
(dp3876
g74
(dp3877
g101
g102
ssg83
g3866
sg76
(lp3878
S':'
asbag69
(g90
g71
NtRp3879
(dp3880
g74
(dp3881
sg83
g3866
sg76
(lp3882
g69
(g70
g71
NtRp3883
(dp3884
g74
(dp3885
g82
I4
ssg83
g3879
sg76
(lp3886
S'web2py'
p3887
asbasbasbasbasbasbasbag69
(g85
g71
NtRp3888
(dp3889
g74
(dp3890
sg83
g3242
sg76
(lp3891
g69
(g90
g71
NtRp3892
(dp3893
g74
(dp3894
g94
g95
ssg83
g3888
sg76
(lp3895
S'menu'
p3896
asbag69
(g90
g71
NtRp3897
(dp3898
g74
(dp3899
g101
g102
ssg83
g3888
sg76
(lp3900
S':'
asbag69
(g90
g71
NtRp3901
(dp3902
g74
(dp3903
sg83
g3888
sg76
(lp3904
g69
(g70
g71
NtRp3905
(dp3906
g74
(dp3907
g82
I5
ssg83
g3901
sg76
(lp3908
g69
(g78
g71
NtRp3909
(dp3910
g74
(dp3911
g82
I4
ssg83
Nsg76
(lp3912
g69
(g85
g71
NtRp3913
(dp3914
g74
(dp3915
sg83
g3909
sg76
(lp3916
g69
(g90
g71
NtRp3917
(dp3918
g74
(dp3919
sg83
g3913
sg76
(lp3920
g69
(g70
g71
NtRp3921
(dp3922
g74
(dp3923
g82
I4
ssg83
g3917
sg76
(lp3924
g69
(g78
g71
NtRp3925
(dp3926
g74
(dp3927
g82
I3
ssg83
Nsg76
(lp3928
g69
(g85
g71
NtRp3929
(dp3930
g74
(dp3931
sg83
g3925
sg76
(lp3932
g69
(g90
g71
NtRp3933
(dp3934
g74
(dp3935
sg83
g3929
sg76
(lp3936
g69
(g70
g71
NtRp3937
(dp3938
g74
(dp3939
g82
I3
ssg83
g3933
sg76
(lp3940
cgluon.languages
lazyT_unpickle
p3941
(S't\x04\x00\x00\x00Home'
tRp3942
asbasbasbag69
(g85
g71
NtRp3943
(dp3944
g74
(dp3945
sg83
g3925
sg76
(lp3946
g69
(g90
g71
NtRp3947
(dp3948
g74
(dp3949
sg83
g3943
sg76
(lp3950
g69
(g70
g71
NtRp3951
(dp3952
g74
(dp3953
g82
I3
ssg83
g3947
sg76
(lp3954
g112
asbasbasbag69
(g85
g71
NtRp3955
(dp3956
g74
(dp3957
sg83
g3925
sg76
(lp3958
g69
(g90
g71
NtRp3959
(dp3960
g74
(dp3961
sg83
g3955
sg76
(lp3962
g69
(g70
g71
NtRp3963
(dp3964
g74
(dp3965
g82
I3
ssg83
g3959
sg76
(lp3966
S'/milo/default/index'
p3967
asbasbasbag69
(g85
g71
NtRp3968
(dp3969
g74
(dp3970
sg83
g3925
sg76
(lp3971
g69
(g90
g71
NtRp3972
(dp3973
g74
(dp3974
sg83
g3968
sg76
(lp3975
g69
(g70
g71
NtRp3976
(dp3977
g74
(dp3978
g82
I3
ssg83
g3972
sg76
(lp3979
g69
(g78
g71
NtRp3980
(dp3981
g74
(dp3982
g82
I2
ssg83
Nsg76
(lp3983
sbasbasbasbasbasbasbasbag69
(g85
g71
NtRp3984
(dp3985
g74
(dp3986
sg83
g3909
sg76
(lp3987
g69
(g90
g71
NtRp3988
(dp3989
g74
(dp3990
sg83
g3984
sg76
(lp3991
g69
(g70
g71
NtRp3992
(dp3993
g74
(dp3994
g82
I4
ssg83
g3988
sg76
(lp3995
g69
(g78
g71
NtRp3996
(dp3997
g74
(dp3998
g82
I3
ssg83
Nsg76
(lp3999
g69
(g85
g71
NtRp4000
(dp4001
g74
(dp4002
sg83
g3996
sg76
(lp4003
g69
(g90
g71
NtRp4004
(dp4005
g74
(dp4006
sg83
g4000
sg76
(lp4007
g69
(g70
g71
NtRp4008
(dp4009
g74
(dp4010
g82
I3
ssg83
g4004
sg76
(lp4011
g3941
(S't\x05\x00\x00\x00Admin'
tRp4012
asbasbasbag69
(g85
g71
NtRp4013
(dp4014
g74
(dp4015
sg83
g3996
sg76
(lp4016
g69
(g90
g71
NtRp4017
(dp4018
g74
(dp4019
sg83
g4013
sg76
(lp4020
g69
(g70
g71
NtRp4021
(dp4022
g74
(dp4023
g82
I3
ssg83
g4017
sg76
(lp4024
g112
asbasbasbag69
(g85
g71
NtRp4025
(dp4026
g74
(dp4027
sg83
g3996
sg76
(lp4028
g69
(g90
g71
NtRp4029
(dp4030
g74
(dp4031
sg83
g4025
sg76
(lp4032
g69
(g70
g71
NtRp4033
(dp4034
g74
(dp4035
g82
I3
ssg83
g4029
sg76
(lp4036
S'/milo/admin/index'
p4037
asbasbasbag69
(g85
g71
NtRp4038
(dp4039
g74
(dp4040
sg83
g3996
sg76
(lp4041
g69
(g90
g71
NtRp4042
(dp4043
g74
(dp4044
sg83
g4038
sg76
(lp4045
g69
(g70
g71
NtRp4046
(dp4047
g74
(dp4048
g82
I3
ssg83
g4042
sg76
(lp4049
g69
(g78
g71
NtRp4050
(dp4051
g74
(dp4052
g82
I2
ssg83
Nsg76
(lp4053
sbasbasbasbasbasbasbasbag69
(g85
g71
NtRp4054
(dp4055
g74
(dp4056
sg83
g3909
sg76
(lp4057
g69
(g90
g71
NtRp4058
(dp4059
g74
(dp4060
sg83
g4054
sg76
(lp4061
g69
(g70
g71
NtRp4062
(dp4063
g74
(dp4064
g82
I4
ssg83
g4058
sg76
(lp4065
g69
(g78
g71
NtRp4066
(dp4067
g74
(dp4068
g82
I3
ssg83
Nsg76
(lp4069
g69
(g85
g71
NtRp4070
(dp4071
g74
(dp4072
sg83
g4066
sg76
(lp4073
g69
(g90
g71
NtRp4074
(dp4075
g74
(dp4076
sg83
g4070
sg76
(lp4077
g69
(g70
g71
NtRp4078
(dp4079
g74
(dp4080
g82
I3
ssg83
g4074
sg76
(lp4081
g69
(cgluon.html
SPAN
p4082
g71
NtRp4083
(dp4084
g74
(dp4085
g94
S'color:yellow'
p4086
ssg83
g69
(cgluon.html
A
p4087
g71
NtRp4088
(dp4089
g74
(dp4090
S'_onclick'
p4091
S'javascript:void(0);return false;'
p4092
sS'_href'
p4093
S'#'
ssg83
g69
(cgluon.html
LI
p4094
g71
NtRp4095
(dp4096
g74
(dp4097
S'_class'
p4098
S'web2py-menu-expand'
p4099
ssg83
g69
(cgluon.html
UL
p4100
g71
NtRp4101
(dp4102
g74
(dp4103
S'mobile'
p4104
I00
sS'li_class'
p4105
g4099
sg4098
S'sf-menu'
p4106
sS'ul_class'
p4107
S'web2py-menu-vertical'
p4108
sS'li_active'
p4109
S'web2py-menu-active'
p4110
ssg83
Nsg76
(lp4111
g69
(g4094
g71
NtRp4112
(dp4113
g74
(dp4114
sg83
g4101
sg76
(lp4115
g69
(g4087
g71
NtRp4116
(dp4117
g74
(dp4118
g4093
g3967
ssg83
g4112
sg76
(lp4119
g3942
asbasbag69
(g4094
g71
NtRp4120
(dp4121
g74
(dp4122
sg83
g4101
sg76
(lp4123
g69
(g4087
g71
NtRp4124
(dp4125
g74
(dp4126
g4093
g4037
ssg83
g4120
sg76
(lp4127
g4012
asbasbag4095
asbsg76
(lp4128
g4088
ag69
(g4100
g71
NtRp4129
(dp4130
g74
(dp4131
g4098
g4108
ssg83
g4095
sg76
(lp4132
g69
(g4094
g71
NtRp4133
(dp4134
g74
(dp4135
sg83
g4129
sg76
(lp4136
g69
(g4087
g71
NtRp4137
(dp4138
g74
(dp4139
g4093
S'/admin/default/site'
p4140
ssg83
g4133
sg76
(lp4141
g3941
(S's\x08\x00\x00\x00My Sites'
tRp4142
asbasbag69
(g4094
g71
NtRp4143
(dp4144
g74
(dp4145
g4098
g4099
ssg83
g4129
sg76
(lp4146
g69
(g4087
g71
NtRp4147
(dp4148
g74
(dp4149
g4093
S'/admin/default/design/milo'
p4150
ssg83
g4143
sg76
(lp4151
g3941
(S's\x08\x00\x00\x00This App'
tRp4152
asbag69
(g4100
g71
NtRp4153
(dp4154
g74
(dp4155
g4098
g4108
ssg83
g4143
sg76
(lp4156
g69
(g4094
g71
NtRp4157
(dp4158
g74
(dp4159
sg83
g4153
sg76
(lp4160
g69
(g4087
g71
NtRp4161
(dp4162
g74
(dp4163
g4093
S'/admin/default/edit/milo/controllers/default.py'
p4164
ssg83
g4157
sg76
(lp4165
g3941
(S't\n\x00\x00\x00Controller'
tRp4166
asbasbag69
(g4094
g71
NtRp4167
(dp4168
g74
(dp4169
sg83
g4153
sg76
(lp4170
g69
(g4087
g71
NtRp4171
(dp4172
g74
(dp4173
g4093
S'/admin/default/edit/milo/views/default/index.html'
p4174
ssg83
g4167
sg76
(lp4175
g3941
(S't\x04\x00\x00\x00View'
tRp4176
asbasbag69
(g4094
g71
NtRp4177
(dp4178
g74
(dp4179
sg83
g4153
sg76
(lp4180
g69
(g4087
g71
NtRp4181
(dp4182
g74
(dp4183
g4093
S'/admin/default/edit/milo/views/layout.html'
p4184
ssg83
g4177
sg76
(lp4185
g3941
(S't\x06\x00\x00\x00Layout'
tRp4186
asbasbag69
(g4094
g71
NtRp4187
(dp4188
g74
(dp4189
sg83
g4153
sg76
(lp4190
g69
(g4087
g71
NtRp4191
(dp4192
g74
(dp4193
g4093
S'/admin/default/edit/milo/static/css/web2py.css'
p4194
ssg83
g4187
sg76
(lp4195
g3941
(S't\n\x00\x00\x00Stylesheet'
tRp4196
asbasbag69
(g4094
g71
NtRp4197
(dp4198
g74
(dp4199
sg83
g4153
sg76
(lp4200
g69
(g4087
g71
NtRp4201
(dp4202
g74
(dp4203
g4093
S'/admin/default/edit/milo/models/db.py'
p4204
ssg83
g4197
sg76
(lp4205
g3941
(S's\x08\x00\x00\x00DB Model'
tRp4206
asbasbag69
(g4094
g71
NtRp4207
(dp4208
g74
(dp4209
sg83
g4153
sg76
(lp4210
g69
(g4087
g71
NtRp4211
(dp4212
g74
(dp4213
g4093
S'/admin/default/edit/milo/models/menu.py'
p4214
ssg83
g4207
sg76
(lp4215
g3941
(S's\n\x00\x00\x00Menu Model'
tRp4216
asbasbag69
(g4094
g71
NtRp4217
(dp4218
g74
(dp4219
sg83
g4153
sg76
(lp4220
g69
(g4087
g71
NtRp4221
(dp4222
g74
(dp4223
g4093
S'/milo/appadmin/index'
p4224
ssg83
g4217
sg76
(lp4225
g3941
(S't\x08\x00\x00\x00Database'
tRp4226
asbasbag69
(g4094
g71
NtRp4227
(dp4228
g74
(dp4229
sg83
g4153
sg76
(lp4230
g69
(g4087
g71
NtRp4231
(dp4232
g74
(dp4233
g4093
S'/admin/default/errors/milo'
p4234
ssg83
g4227
sg76
(lp4235
g3941
(S't\x06\x00\x00\x00Errors'
tRp4236
asbasbag69
(g4094
g71
NtRp4237
(dp4238
g74
(dp4239
sg83
g4153
sg76
(lp4240
g69
(g4087
g71
NtRp4241
(dp4242
g74
(dp4243
g4093
S'/admin/default/about/milo'
p4244
ssg83
g4237
sg76
(lp4245
g3941
(S't\x05\x00\x00\x00About'
tRp4246
asbasbasbasbag69
(g4094
g71
NtRp4247
(dp4248
g74
(dp4249
g4098
g4099
ssg83
g4129
sg76
(lp4250
g69
(g4087
g71
NtRp4251
(dp4252
g74
(dp4253
g4093
S'http://www.web2py.com'
p4254
ssg83
g4247
sg76
(lp4255
S'web2py.com'
p4256
asbag69
(g4100
g71
NtRp4257
(dp4258
g74
(dp4259
g4098
g4108
ssg83
g4247
sg76
(lp4260
g69
(g4094
g71
NtRp4261
(dp4262
g74
(dp4263
sg83
g4257
sg76
(lp4264
g69
(g4087
g71
NtRp4265
(dp4266
g74
(dp4267
g4093
S'http://www.web2py.com/examples/default/download'
p4268
ssg83
g4261
sg76
(lp4269
g3941
(S't\x08\x00\x00\x00Download'
tRp4270
asbasbag69
(g4094
g71
NtRp4271
(dp4272
g74
(dp4273
sg83
g4257
sg76
(lp4274
g69
(g4087
g71
NtRp4275
(dp4276
g74
(dp4277
g4093
S'http://www.web2py.com/examples/default/support'
p4278
ssg83
g4271
sg76
(lp4279
g3941
(S't\x07\x00\x00\x00Support'
tRp4280
asbasbag69
(g4094
g71
NtRp4281
(dp4282
g74
(dp4283
sg83
g4257
sg76
(lp4284
g69
(g4087
g71
NtRp4285
(dp4286
g74
(dp4287
g4093
S'http://web2py.com/demo_admin'
p4288
ssg83
g4281
sg76
(lp4289
g3941
(S't\x04\x00\x00\x00Demo'
tRp4290
asbasbag69
(g4094
g71
NtRp4291
(dp4292
g74
(dp4293
sg83
g4257
sg76
(lp4294
g69
(g4087
g71
NtRp4295
(dp4296
g74
(dp4297
g4093
S'http://web2py.com/examples/default/examples'
p4298
ssg83
g4291
sg76
(lp4299
g3941
(S's\x0e\x00\x00\x00Quick Examples'
tRp4300
asbasbag69
(g4094
g71
NtRp4301
(dp4302
g74
(dp4303
sg83
g4257
sg76
(lp4304
g69
(g4087
g71
NtRp4305
(dp4306
g74
(dp4307
g4093
S'http://web2py.com/AlterEgo'
p4308
ssg83
g4301
sg76
(lp4309
g3941
(S't\x03\x00\x00\x00FAQ'
tRp4310
asbasbag69
(g4094
g71
NtRp4311
(dp4312
g74
(dp4313
sg83
g4257
sg76
(lp4314
g69
(g4087
g71
NtRp4315
(dp4316
g74
(dp4317
g4093
S'http://www.web2py.com/examples/default/videos/'
p4318
ssg83
g4311
sg76
(lp4319
g3941
(S't\x06\x00\x00\x00Videos'
tRp4320
asbasbag69
(g4094
g71
NtRp4321
(dp4322
g74
(dp4323
sg83
g4257
sg76
(lp4324
g69
(g4087
g71
NtRp4325
(dp4326
g74
(dp4327
g4093
S'http://web2py.com/appliances'
p4328
ssg83
g4321
sg76
(lp4329
g3941
(S's\x11\x00\x00\x00Free Applications'
tRp4330
asbasbag69
(g4094
g71
NtRp4331
(dp4332
g74
(dp4333
sg83
g4257
sg76
(lp4334
g69
(g4087
g71
NtRp4335
(dp4336
g74
(dp4337
g4093
S'http://web2py.com/plugins'
p4338
ssg83
g4331
sg76
(lp4339
g3941
(S't\x07\x00\x00\x00Plugins'
tRp4340
asbasbag69
(g4094
g71
NtRp4341
(dp4342
g74
(dp4343
sg83
g4257
sg76
(lp4344
g69
(g4087
g71
NtRp4345
(dp4346
g74
(dp4347
g4093
S'http://web2py.com/layouts'
p4348
ssg83
g4341
sg76
(lp4349
g3941
(S't\x07\x00\x00\x00Layouts'
tRp4350
asbasbag69
(g4094
g71
NtRp4351
(dp4352
g74
(dp4353
sg83
g4257
sg76
(lp4354
g69
(g4087
g71
NtRp4355
(dp4356
g74
(dp4357
g4093
S'http://web2pyslices.com/'
p4358
ssg83
g4351
sg76
(lp4359
g3941
(S't\x07\x00\x00\x00Recipes'
tRp4360
asbasbag69
(g4094
g71
NtRp4361
(dp4362
g74
(dp4363
sg83
g4257
sg76
(lp4364
g69
(g4087
g71
NtRp4365
(dp4366
g74
(dp4367
g4093
S'http://web2py.com/semantic'
p4368
ssg83
g4361
sg76
(lp4369
g3941
(S't\x08\x00\x00\x00Semantic'
tRp4370
asbasbasbasbag69
(g4094
g71
NtRp4371
(dp4372
g74
(dp4373
g4098
g4099
ssg83
g4129
sg76
(lp4374
g69
(g4087
g71
NtRp4375
(dp4376
g74
(dp4377
g4093
S'http://www.web2py.com/book'
p4378
ssg83
g4371
sg76
(lp4379
g3941
(S't\r\x00\x00\x00Documentation'
tRp4380
asbag69
(g4100
g71
NtRp4381
(dp4382
g74
(dp4383
g4098
g4108
ssg83
g4371
sg76
(lp4384
g69
(g4094
g71
NtRp4385
(dp4386
g74
(dp4387
sg83
g4381
sg76
(lp4388
g69
(g4087
g71
NtRp4389
(dp4390
g74
(dp4391
g4093
S'http://www.web2py.com/book/default/chapter/00'
p4392
ssg83
g4385
sg76
(lp4393
g3941
(S't\x07\x00\x00\x00Preface'
tRp4394
asbasbag69
(g4094
g71
NtRp4395
(dp4396
g74
(dp4397
sg83
g4381
sg76
(lp4398
g69
(g4087
g71
NtRp4399
(dp4400
g74
(dp4401
g4093
S'http://www.web2py.com/book/default/chapter/01'
p4402
ssg83
g4395
sg76
(lp4403
g3941
(S't\x0c\x00\x00\x00Introduction'
tRp4404
asbasbag69
(g4094
g71
NtRp4405
(dp4406
g74
(dp4407
sg83
g4381
sg76
(lp4408
g69
(g4087
g71
NtRp4409
(dp4410
g74
(dp4411
g4093
S'http://www.web2py.com/book/default/chapter/02'
p4412
ssg83
g4405
sg76
(lp4413
g3941
(S't\x06\x00\x00\x00Python'
tRp4414
asbasbag69
(g4094
g71
NtRp4415
(dp4416
g74
(dp4417
sg83
g4381
sg76
(lp4418
g69
(g4087
g71
NtRp4419
(dp4420
g74
(dp4421
g4093
S'http://www.web2py.com/book/default/chapter/03'
p4422
ssg83
g4415
sg76
(lp4423
g3941
(S't\x08\x00\x00\x00Overview'
tRp4424
asbasbag69
(g4094
g71
NtRp4425
(dp4426
g74
(dp4427
sg83
g4381
sg76
(lp4428
g69
(g4087
g71
NtRp4429
(dp4430
g74
(dp4431
g4093
S'http://www.web2py.com/book/default/chapter/04'
p4432
ssg83
g4425
sg76
(lp4433
g3941
(S's\x08\x00\x00\x00The Core'
tRp4434
asbasbag69
(g4094
g71
NtRp4435
(dp4436
g74
(dp4437
sg83
g4381
sg76
(lp4438
g69
(g4087
g71
NtRp4439
(dp4440
g74
(dp4441
g4093
S'http://www.web2py.com/book/default/chapter/05'
p4442
ssg83
g4435
sg76
(lp4443
g3941
(S's\t\x00\x00\x00The Views'
tRp4444
asbasbag69
(g4094
g71
NtRp4445
(dp4446
g74
(dp4447
sg83
g4381
sg76
(lp4448
g69
(g4087
g71
NtRp4449
(dp4450
g74
(dp4451
g4093
S'http://www.web2py.com/book/default/chapter/06'
p4452
ssg83
g4445
sg76
(lp4453
g3941
(S't\x08\x00\x00\x00Database'
tRp4454
asbasbag69
(g4094
g71
NtRp4455
(dp4456
g74
(dp4457
sg83
g4381
sg76
(lp4458
g69
(g4087
g71
NtRp4459
(dp4460
g74
(dp4461
g4093
S'http://www.web2py.com/book/default/chapter/07'
p4462
ssg83
g4455
sg76
(lp4463
g3941
(S's\x14\x00\x00\x00Forms and Validators'
tRp4464
asbasbag69
(g4094
g71
NtRp4465
(dp4466
g74
(dp4467
sg83
g4381
sg76
(lp4468
g69
(g4087
g71
NtRp4469
(dp4470
g74
(dp4471
g4093
S'http://www.web2py.com/book/default/chapter/08'
p4472
ssg83
g4465
sg76
(lp4473
g3941
(S's\r\x00\x00\x00Email and SMS'
tRp4474
asbasbag69
(g4094
g71
NtRp4475
(dp4476
g74
(dp4477
sg83
g4381
sg76
(lp4478
g69
(g4087
g71
NtRp4479
(dp4480
g74
(dp4481
g4093
S'http://www.web2py.com/book/default/chapter/09'
p4482
ssg83
g4475
sg76
(lp4483
g3941
(S's\x0e\x00\x00\x00Access Control'
tRp4484
asbasbag69
(g4094
g71
NtRp4485
(dp4486
g74
(dp4487
sg83
g4381
sg76
(lp4488
g69
(g4087
g71
NtRp4489
(dp4490
g74
(dp4491
g4093
S'http://www.web2py.com/book/default/chapter/10'
p4492
ssg83
g4485
sg76
(lp4493
g3941
(S't\x08\x00\x00\x00Services'
tRp4494
asbasbag69
(g4094
g71
NtRp4495
(dp4496
g74
(dp4497
sg83
g4381
sg76
(lp4498
g69
(g4087
g71
NtRp4499
(dp4500
g74
(dp4501
g4093
S'http://www.web2py.com/book/default/chapter/11'
p4502
ssg83
g4495
sg76
(lp4503
g3941
(S's\x0c\x00\x00\x00Ajax Recipes'
tRp4504
asbasbag69
(g4094
g71
NtRp4505
(dp4506
g74
(dp4507
sg83
g4381
sg76
(lp4508
g69
(g4087
g71
NtRp4509
(dp4510
g74
(dp4511
g4093
S'http://www.web2py.com/book/default/chapter/12'
p4512
ssg83
g4505
sg76
(lp4513
g3941
(S's\x16\x00\x00\x00Components and Plugins'
tRp4514
asbasbag69
(g4094
g71
NtRp4515
(dp4516
g74
(dp4517
sg83
g4381
sg76
(lp4518
g69
(g4087
g71
NtRp4519
(dp4520
g74
(dp4521
g4093
S'http://www.web2py.com/book/default/chapter/13'
p4522
ssg83
g4515
sg76
(lp4523
g3941
(S's\x12\x00\x00\x00Deployment Recipes'
tRp4524
asbasbag69
(g4094
g71
NtRp4525
(dp4526
g74
(dp4527
sg83
g4381
sg76
(lp4528
g69
(g4087
g71
NtRp4529
(dp4530
g74
(dp4531
g4093
S'http://www.web2py.com/book/default/chapter/14'
p4532
ssg83
g4525
sg76
(lp4533
g3941
(S's\r\x00\x00\x00Other Recipes'
tRp4534
asbasbag69
(g4094
g71
NtRp4535
(dp4536
g74
(dp4537
sg83
g4381
sg76
(lp4538
g69
(g4087
g71
NtRp4539
(dp4540
g74
(dp4541
g4093
S'http://stores.lulu.com/web2py'
p4542
ssg83
g4535
sg76
(lp4543
g3941
(S's\r\x00\x00\x00Buy this book'
tRp4544
asbasbasbasbag69
(g4094
g71
NtRp4545
(dp4546
g74
(dp4547
g4098
g4099
ssg83
g4129
sg76
(lp4548
g69
(g4087
g71
NtRp4549
(dp4550
g74
(dp4551
g4091
g4092
sg4093
S'#'
ssg83
g4545
sg76
(lp4552
g3941
(S't\t\x00\x00\x00Community'
tRp4553
asbag69
(g4100
g71
NtRp4554
(dp4555
g74
(dp4556
g4098
g4108
ssg83
g4545
sg76
(lp4557
g69
(g4094
g71
NtRp4558
(dp4559
g74
(dp4560
sg83
g4554
sg76
(lp4561
g69
(g4087
g71
NtRp4562
(dp4563
g74
(dp4564
g4093
S'http://www.web2py.com/examples/default/usergroups'
p4565
ssg83
g4558
sg76
(lp4566
g3941
(S't\x06\x00\x00\x00Groups'
tRp4567
asbasbag69
(g4094
g71
NtRp4568
(dp4569
g74
(dp4570
sg83
g4554
sg76
(lp4571
g69
(g4087
g71
NtRp4572
(dp4573
g74
(dp4574
g4093
S'http://twitter.com/web2py'
p4575
ssg83
g4568
sg76
(lp4576
g3941
(S't\x07\x00\x00\x00Twitter'
tRp4577
asbasbag69
(g4094
g71
NtRp4578
(dp4579
g74
(dp4580
sg83
g4554
sg76
(lp4581
g69
(g4087
g71
NtRp4582
(dp4583
g74
(dp4584
g4093
S'http://webchat.freenode.net/?channels=web2py'
p4585
ssg83
g4578
sg76
(lp4586
g3941
(S's\t\x00\x00\x00Live Chat'
tRp4587
asbasbasbasbag69
(g4094
g71
NtRp4588
(dp4589
g74
(dp4590
g4098
g4099
ssg83
g4129
sg76
(lp4591
g69
(g4087
g71
NtRp4592
(dp4593
g74
(dp4594
g4091
g4092
sg4093
S'#'
ssg83
g4588
sg76
(lp4595
g3941
(S't\x07\x00\x00\x00Plugins'
tRp4596
asbag69
(g4100
g71
NtRp4597
(dp4598
g74
(dp4599
g4098
g4108
ssg83
g4588
sg76
(lp4600
g69
(g4094
g71
NtRp4601
(dp4602
g74
(dp4603
sg83
g4597
sg76
(lp4604
g69
(g4087
g71
NtRp4605
(dp4606
g74
(dp4607
g4093
S'http://web2py.com/examples/default/download'
p4608
ssg83
g4601
sg76
(lp4609
S'plugin_wiki'
p4610
asbasbag69
(g4094
g71
NtRp4611
(dp4612
g74
(dp4613
sg83
g4597
sg76
(lp4614
g69
(g4087
g71
NtRp4615
(dp4616
g74
(dp4617
g4093
g4338
ssg83
g4611
sg76
(lp4618
g3941
(S's\r\x00\x00\x00Other Plugins'
tRp4619
asbasbag69
(g4094
g71
NtRp4620
(dp4621
g74
(dp4622
sg83
g4597
sg76
(lp4623
g69
(g4087
g71
NtRp4624
(dp4625
g74
(dp4626
g4093
g4348
ssg83
g4620
sg76
(lp4627
g3941
(S's\x0e\x00\x00\x00Layout Plugins'
tRp4628
asbasbasbasbasbasbsg76
(lp4629
g4083
asbsg76
(lp4630
g3887
asbasbasbasbag69
(g85
g71
NtRp4631
(dp4632
g74
(dp4633
sg83
g4066
sg76
(lp4634
g69
(g90
g71
NtRp4635
(dp4636
g74
(dp4637
sg83
g4631
sg76
(lp4638
g69
(g70
g71
NtRp4639
(dp4640
g74
(dp4641
g82
I3
ssg83
g4635
sg76
(lp4642
g112
asbasbasbag69
(g85
g71
NtRp4643
(dp4644
g74
(dp4645
sg83
g4066
sg76
(lp4646
g69
(g90
g71
NtRp4647
(dp4648
g74
(dp4649
sg83
g4643
sg76
(lp4650
g69
(g70
g71
NtRp4651
(dp4652
g74
(dp4653
g82
I3
ssg83
g4647
sg76
(lp4654
S'None'
p4655
asbasbasbag69
(g85
g71
NtRp4656
(dp4657
g74
(dp4658
sg83
g4066
sg76
(lp4659
g69
(g90
g71
NtRp4660
(dp4661
g74
(dp4662
sg83
g4656
sg76
(lp4663
g69
(g70
g71
NtRp4664
(dp4665
g74
(dp4666
g82
I3
ssg83
g4660
sg76
(lp4667
g69
(g78
g71
NtRp4668
(dp4669
g74
(dp4670
g82
I2
ssg83
Nsg76
(lp4671
g69
(g85
g71
NtRp4672
(dp4673
g74
(dp4674
sg83
g4668
sg76
(lp4675
g69
(g90
g71
NtRp4676
(dp4677
g74
(dp4678
sg83
g4672
sg76
(lp4679
g69
(g70
g71
NtRp4680
(dp4681
g74
(dp4682
g82
I2
ssg83
g4676
sg76
(lp4683
g69
(g78
g71
NtRp4684
(dp4685
g74
(dp4686
g82
I1
ssg83
Nsg76
(lp4687
g69
(g85
g71
NtRp4688
(dp4689
g74
(dp4690
sg83
g4684
sg76
(lp4691
g69
(g90
g71
NtRp4692
(dp4693
g74
(dp4694
sg83
g4688
sg76
(lp4695
g69
(g70
g71
NtRp4696
(dp4697
g74
(dp4698
g82
I1
ssg83
g4692
sg76
(lp4699
g4142
asbasbasbag69
(g85
g71
NtRp4700
(dp4701
g74
(dp4702
sg83
g4684
sg76
(lp4703
g69
(g90
g71
NtRp4704
(dp4705
g74
(dp4706
sg83
g4700
sg76
(lp4707
g69
(g70
g71
NtRp4708
(dp4709
g74
(dp4710
g82
I1
ssg83
g4704
sg76
(lp4711
I00
asbasbasbag69
(g85
g71
NtRp4712
(dp4713
g74
(dp4714
sg83
g4684
sg76
(lp4715
g69
(g90
g71
NtRp4716
(dp4717
g74
(dp4718
sg83
g4712
sg76
(lp4719
g69
(g70
g71
NtRp4720
(dp4721
g74
(dp4722
g82
I1
ssg83
g4716
sg76
(lp4723
g4140
asbasbasbasbasbasbasbag69
(g85
g71
NtRp4724
(dp4725
g74
(dp4726
sg83
g4668
sg76
(lp4727
g69
(g90
g71
NtRp4728
(dp4729
g74
(dp4730
sg83
g4724
sg76
(lp4731
g69
(g70
g71
NtRp4732
(dp4733
g74
(dp4734
g82
I2
ssg83
g4728
sg76
(lp4735
g69
(g78
g71
NtRp4736
(dp4737
g74
(dp4738
g82
I1
ssg83
Nsg76
(lp4739
g69
(g85
g71
NtRp4740
(dp4741
g74
(dp4742
sg83
g4736
sg76
(lp4743
g69
(g90
g71
NtRp4744
(dp4745
g74
(dp4746
sg83
g4740
sg76
(lp4747
g69
(g70
g71
NtRp4748
(dp4749
g74
(dp4750
g82
I1
ssg83
g4744
sg76
(lp4751
g4152
asbasbasbag69
(g85
g71
NtRp4752
(dp4753
g74
(dp4754
sg83
g4736
sg76
(lp4755
g69
(g90
g71
NtRp4756
(dp4757
g74
(dp4758
sg83
g4752
sg76
(lp4759
g69
(g70
g71
NtRp4760
(dp4761
g74
(dp4762
g82
I1
ssg83
g4756
sg76
(lp4763
I00
asbasbasbag69
(g85
g71
NtRp4764
(dp4765
g74
(dp4766
sg83
g4736
sg76
(lp4767
g69
(g90
g71
NtRp4768
(dp4769
g74
(dp4770
sg83
g4764
sg76
(lp4771
g69
(g70
g71
NtRp4772
(dp4773
g74
(dp4774
g82
I1
ssg83
g4768
sg76
(lp4775
g4150
asbasbasbag69
(g85
g71
NtRp4776
(dp4777
g74
(dp4778
sg83
g4736
sg76
(lp4779
g69
(g90
g71
NtRp4780
(dp4781
g74
(dp4782
sg83
g4776
sg76
(lp4783
g69
(g70
g71
NtRp4784
(dp4785
g74
(dp4786
g82
I1
ssg83
g4780
sg76
(lp4787
(lp4788
(g4166
I00
g4164
tp4789
a(g4176
I00
g4174
tp4790
a(g4186
I00
g4184
tp4791
a(g4196
I00
g4194
tp4792
a(g4206
I00
g4204
tp4793
a(g4216
I00
g4214
tp4794
a(g4226
I00
g4224
tp4795
a(g4236
I00
g4234
tp4796
a(g4246
I00
g4244
tp4797
aasbasbasbasbasbasbasbag69
(g85
g71
NtRp4798
(dp4799
g74
(dp4800
sg83
g4668
sg76
(lp4801
g69
(g90
g71
NtRp4802
(dp4803
g74
(dp4804
sg83
g4798
sg76
(lp4805
g69
(g70
g71
NtRp4806
(dp4807
g74
(dp4808
g82
I2
ssg83
g4802
sg76
(lp4809
g69
(g78
g71
NtRp4810
(dp4811
g74
(dp4812
g82
I1
ssg83
Nsg76
(lp4813
g69
(g85
g71
NtRp4814
(dp4815
g74
(dp4816
sg83
g4810
sg76
(lp4817
g69
(g90
g71
NtRp4818
(dp4819
g74
(dp4820
sg83
g4814
sg76
(lp4821
g69
(g70
g71
NtRp4822
(dp4823
g74
(dp4824
g82
I1
ssg83
g4818
sg76
(lp4825
g4256
asbasbasbag69
(g85
g71
NtRp4826
(dp4827
g74
(dp4828
sg83
g4810
sg76
(lp4829
g69
(g90
g71
NtRp4830
(dp4831
g74
(dp4832
sg83
g4826
sg76
(lp4833
g69
(g70
g71
NtRp4834
(dp4835
g74
(dp4836
g82
I1
ssg83
g4830
sg76
(lp4837
I00
asbasbasbag69
(g85
g71
NtRp4838
(dp4839
g74
(dp4840
sg83
g4810
sg76
(lp4841
g69
(g90
g71
NtRp4842
(dp4843
g74
(dp4844
sg83
g4838
sg76
(lp4845
g69
(g70
g71
NtRp4846
(dp4847
g74
(dp4848
g82
I1
ssg83
g4842
sg76
(lp4849
g4254
asbasbasbag69
(g85
g71
NtRp4850
(dp4851
g74
(dp4852
sg83
g4810
sg76
(lp4853
g69
(g90
g71
NtRp4854
(dp4855
g74
(dp4856
sg83
g4850
sg76
(lp4857
g69
(g70
g71
NtRp4858
(dp4859
g74
(dp4860
g82
I1
ssg83
g4854
sg76
(lp4861
(lp4862
(g4270
I00
g4268
tp4863
a(g4280
I00
g4278
tp4864
a(g4290
I00
g4288
tp4865
a(g4300
I00
g4298
tp4866
a(g4310
I00
g4308
tp4867
a(g4320
I00
g4318
tp4868
a(g4330
I00
g4328
tp4869
a(g4340
I00
g4338
tp4870
a(g4350
I00
g4348
tp4871
a(g4360
I00
g4358
tp4872
a(g4370
I00
g4368
tp4873
aasbasbasbasbasbasbasbag69
(g85
g71
NtRp4874
(dp4875
g74
(dp4876
sg83
g4668
sg76
(lp4877
g69
(g90
g71
NtRp4878
(dp4879
g74
(dp4880
sg83
g4874
sg76
(lp4881
g69
(g70
g71
NtRp4882
(dp4883
g74
(dp4884
g82
I2
ssg83
g4878
sg76
(lp4885
g69
(g78
g71
NtRp4886
(dp4887
g74
(dp4888
g82
I1
ssg83
Nsg76
(lp4889
g69
(g85
g71
NtRp4890
(dp4891
g74
(dp4892
sg83
g4886
sg76
(lp4893
g69
(g90
g71
NtRp4894
(dp4895
g74
(dp4896
sg83
g4890
sg76
(lp4897
g69
(g70
g71
NtRp4898
(dp4899
g74
(dp4900
g82
I1
ssg83
g4894
sg76
(lp4901
g4380
asbasbasbag69
(g85
g71
NtRp4902
(dp4903
g74
(dp4904
sg83
g4886
sg76
(lp4905
g69
(g90
g71
NtRp4906
(dp4907
g74
(dp4908
sg83
g4902
sg76
(lp4909
g69
(g70
g71
NtRp4910
(dp4911
g74
(dp4912
g82
I1
ssg83
g4906
sg76
(lp4913
I00
asbasbasbag69
(g85
g71
NtRp4914
(dp4915
g74
(dp4916
sg83
g4886
sg76
(lp4917
g69
(g90
g71
NtRp4918
(dp4919
g74
(dp4920
sg83
g4914
sg76
(lp4921
g69
(g70
g71
NtRp4922
(dp4923
g74
(dp4924
g82
I1
ssg83
g4918
sg76
(lp4925
g4378
asbasbasbag69
(g85
g71
NtRp4926
(dp4927
g74
(dp4928
sg83
g4886
sg76
(lp4929
g69
(g90
g71
NtRp4930
(dp4931
g74
(dp4932
sg83
g4926
sg76
(lp4933
g69
(g70
g71
NtRp4934
(dp4935
g74
(dp4936
g82
I1
ssg83
g4930
sg76
(lp4937
(lp4938
(g4394
I00
g4392
tp4939
a(g4404
I00
g4402
tp4940
a(g4414
I00
g4412
tp4941
a(g4424
I00
g4422
tp4942
a(g4434
I00
g4432
tp4943
a(g4444
I00
g4442
tp4944
a(g4454
I00
g4452
tp4945
a(g4464
I00
g4462
tp4946
a(g4474
I00
g4472
tp4947
a(g4484
I00
g4482
tp4948
a(g4494
I00
g4492
tp4949
a(g4504
I00
g4502
tp4950
a(g4514
I00
g4512
tp4951
a(g4524
I00
g4522
tp4952
a(g4534
I00
g4532
tp4953
a(g4544
I00
g4542
tp4954
aasbasbasbasbasbasbasbag69
(g85
g71
NtRp4955
(dp4956
g74
(dp4957
sg83
g4668
sg76
(lp4958
g69
(g90
g71
NtRp4959
(dp4960
g74
(dp4961
sg83
g4955
sg76
(lp4962
g69
(g70
g71
NtRp4963
(dp4964
g74
(dp4965
g82
I2
ssg83
g4959
sg76
(lp4966
g69
(g78
g71
NtRp4967
(dp4968
g74
(dp4969
g82
I1
ssg83
Nsg76
(lp4970
g69
(g85
g71
NtRp4971
(dp4972
g74
(dp4973
sg83
g4967
sg76
(lp4974
g69
(g90
g71
NtRp4975
(dp4976
g74
(dp4977
sg83
g4971
sg76
(lp4978
g69
(g70
g71
NtRp4979
(dp4980
g74
(dp4981
g82
I1
ssg83
g4975
sg76
(lp4982
g4553
asbasbasbag69
(g85
g71
NtRp4983
(dp4984
g74
(dp4985
sg83
g4967
sg76
(lp4986
g69
(g90
g71
NtRp4987
(dp4988
g74
(dp4989
sg83
g4983
sg76
(lp4990
g69
(g70
g71
NtRp4991
(dp4992
g74
(dp4993
g82
I1
ssg83
g4987
sg76
(lp4994
I00
asbasbasbag69
(g85
g71
NtRp4995
(dp4996
g74
(dp4997
sg83
g4967
sg76
(lp4998
g69
(g90
g71
NtRp4999
(dp5000
g74
(dp5001
sg83
g4995
sg76
(lp5002
g69
(g70
g71
NtRp5003
(dp5004
g74
(dp5005
g82
I1
ssg83
g4999
sg76
(lp5006
Nasbasbasbag69
(g85
g71
NtRp5007
(dp5008
g74
(dp5009
sg83
g4967
sg76
(lp5010
g69
(g90
g71
NtRp5011
(dp5012
g74
(dp5013
sg83
g5007
sg76
(lp5014
g69
(g70
g71
NtRp5015
(dp5016
g74
(dp5017
g82
I1
ssg83
g5011
sg76
(lp5018
(lp5019
(g4567
I00
g4565
tp5020
a(g4577
I00
g4575
tp5021
a(g4587
I00
g4585
tp5022
aasbasbasbasbasbasbasbag69
(g85
g71
NtRp5023
(dp5024
g74
(dp5025
sg83
g4668
sg76
(lp5026
g69
(g90
g71
NtRp5027
(dp5028
g74
(dp5029
sg83
g5023
sg76
(lp5030
g69
(g70
g71
NtRp5031
(dp5032
g74
(dp5033
g82
I2
ssg83
g5027
sg76
(lp5034
g69
(g78
g71
NtRp5035
(dp5036
g74
(dp5037
g82
I1
ssg83
Nsg76
(lp5038
g69
(g85
g71
NtRp5039
(dp5040
g74
(dp5041
sg83
g5035
sg76
(lp5042
g69
(g90
g71
NtRp5043
(dp5044
g74
(dp5045
sg83
g5039
sg76
(lp5046
g69
(g70
g71
NtRp5047
(dp5048
g74
(dp5049
g82
I1
ssg83
g5043
sg76
(lp5050
g4596
asbasbasbag69
(g85
g71
NtRp5051
(dp5052
g74
(dp5053
sg83
g5035
sg76
(lp5054
g69
(g90
g71
NtRp5055
(dp5056
g74
(dp5057
sg83
g5051
sg76
(lp5058
g69
(g70
g71
NtRp5059
(dp5060
g74
(dp5061
g82
I1
ssg83
g5055
sg76
(lp5062
I00
asbasbasbag69
(g85
g71
NtRp5063
(dp5064
g74
(dp5065
sg83
g5035
sg76
(lp5066
g69
(g90
g71
NtRp5067
(dp5068
g74
(dp5069
sg83
g5063
sg76
(lp5070
g69
(g70
g71
NtRp5071
(dp5072
g74
(dp5073
g82
I1
ssg83
g5067
sg76
(lp5074
Nasbasbasbag69
(g85
g71
NtRp5075
(dp5076
g74
(dp5077
sg83
g5035
sg76
(lp5078
g69
(g90
g71
NtRp5079
(dp5080
g74
(dp5081
sg83
g5075
sg76
(lp5082
g69
(g70
g71
NtRp5083
(dp5084
g74
(dp5085
g82
I1
ssg83
g5079
sg76
(lp5086
(lp5087
(g4610
I00
g4608
tp5088
a(g4619
I00
g4338
tp5089
a(g4628
I00
g4348
tp5090
aasbasbasbasbasbasbasbasbasbasbasbasbasbasbasbasbasbasbasbag69
(g85
g71
NtRp5091
(dp5092
g74
(dp5093
sg83
g3242
sg76
(lp5094
g69
(g90
g71
NtRp5095
(dp5096
g74
(dp5097
g94
g95
ssg83
g5091
sg76
(lp5098
S'meta'
p5099
asbag69
(g90
g71
NtRp5100
(dp5101
g74
(dp5102
g101
g102
ssg83
g5091
sg76
(lp5103
S':'
asbag69
(g90
g71
NtRp5104
(dp5105
g74
(dp5106
sg83
g5091
sg76
(lp5107
g69
(g70
g71
NtRp5108
(dp5109
g74
(dp5110
g82
I5
ssg83
g5104
sg76
(lp5111
g69
(g78
g71
NtRp5112
(dp5113
g74
(dp5114
g82
I4
ssg83
Nsg76
(lp5115
g69
(g85
g71
NtRp5116
(dp5117
g74
(dp5118
sg83
g5112
sg76
(lp5119
g69
(g90
g71
NtRp5120
(dp5121
g74
(dp5122
g94
g95
ssg83
g5116
sg76
(lp5123
S'author'
p5124
asbag69
(g90
g71
NtRp5125
(dp5126
g74
(dp5127
g101
g102
ssg83
g5116
sg76
(lp5128
S':'
asbag69
(g90
g71
NtRp5129
(dp5130
g74
(dp5131
sg83
g5116
sg76
(lp5132
g69
(g70
g71
NtRp5133
(dp5134
g74
(dp5135
g82
I4
ssg83
g5129
sg76
(lp5136
S'Vincenzo Ampolo <vincenzo.ampolo@gmail.com>'
p5137
asbasbasbag69
(g85
g71
NtRp5138
(dp5139
g74
(dp5140
sg83
g5112
sg76
(lp5141
g69
(g90
g71
NtRp5142
(dp5143
g74
(dp5144
g94
g95
ssg83
g5138
sg76
(lp5145
S'copyright'
p5146
asbag69
(g90
g71
NtRp5147
(dp5148
g74
(dp5149
g101
g102
ssg83
g5138
sg76
(lp5150
S':'
asbag69
(g90
g71
NtRp5151
(dp5152
g74
(dp5153
sg83
g5138
sg76
(lp5154
g69
(g70
g71
NtRp5155
(dp5156
g74
(dp5157
g82
I4
ssg83
g5151
sg76
(lp5158
S'Copyright 2012'
p5159
asbasbasbag69
(g85
g71
NtRp5160
(dp5161
g74
(dp5162
sg83
g5112
sg76
(lp5163
g69
(g90
g71
NtRp5164
(dp5165
g74
(dp5166
g94
g95
ssg83
g5160
sg76
(lp5167
S'description'
p5168
asbag69
(g90
g71
NtRp5169
(dp5170
g74
(dp5171
g101
g102
ssg83
g5160
sg76
(lp5172
S':'
asbag69
(g90
g71
NtRp5173
(dp5174
g74
(dp5175
sg83
g5160
sg76
(lp5176
g69
(g70
g71
NtRp5177
(dp5178
g74
(dp5179
g82
I4
ssg83
g5173
sg76
(lp5180
S'Milo recommendation system'
p5181
asbasbasbag69
(g85
g71
NtRp5182
(dp5183
g74
(dp5184
sg83
g5112
sg76
(lp5185
g69
(g90
g71
NtRp5186
(dp5187
g74
(dp5188
g94
g95
ssg83
g5182
sg76
(lp5189
S'generator'
p5190
asbag69
(g90
g71
NtRp5191
(dp5192
g74
(dp5193
g101
g102
ssg83
g5182
sg76
(lp5194
S':'
asbag69
(g90
g71
NtRp5195
(dp5196
g74
(dp5197
sg83
g5182
sg76
(lp5198
g69
(g70
g71
NtRp5199
(dp5200
g74
(dp5201
g82
I4
ssg83
g5195
sg76
(lp5202
S'Web2py Web Framework'
p5203
asbasbasbag69
(g85
g71
NtRp5204
(dp5205
g74
(dp5206
sg83
g5112
sg76
(lp5207
g69
(g90
g71
NtRp5208
(dp5209
g74
(dp5210
g94
g95
ssg83
g5204
sg76
(lp5211
S'keywords'
p5212
asbag69
(g90
g71
NtRp5213
(dp5214
g74
(dp5215
g101
g102
ssg83
g5204
sg76
(lp5216
S':'
asbag69
(g90
g71
NtRp5217
(dp5218
g74
(dp5219
sg83
g5204
sg76
(lp5220
g69
(g70
g71
NtRp5221
(dp5222
g74
(dp5223
g82
I4
ssg83
g5217
sg76
(lp5224
S'web2py, python, framework'
p5225
asbasbasbasbasbasbasbag69
(g85
g71
NtRp5226
(dp5227
g74
(dp5228
sg83
g3242
sg76
(lp5229
g69
(g90
g71
NtRp5230
(dp5231
g74
(dp5232
g94
g95
ssg83
g5226
sg76
(lp5233
S'postprocessing'
p5234
asbag69
(g90
g71
NtRp5235
(dp5236
g74
(dp5237
g101
g102
ssg83
g5226
sg76
(lp5238
S':'
asbag69
(g90
g71
NtRp5239
(dp5240
g74
(dp5241
sg83
g5226
sg76
(lp5242
g69
(g70
g71
NtRp5243
(dp5244
g74
(dp5245
g82
I5
ssg83
g5239
sg76
(lp5246
g69
(g78
g71
NtRp5247
(dp5248
g74
(dp5249
g82
I4
ssg83
Nsg76
(lp5250
sbasbasbasbag69
(g85
g71
NtRp5251
(dp5252
g74
(dp5253
sg83
g3242
sg76
(lp5254
g69
(g90
g71
NtRp5255
(dp5256
g74
(dp5257
g94
g95
ssg83
g5251
sg76
(lp5258
S'session_file'
p5259
asbag69
(g90
g71
NtRp5260
(dp5261
g74
(dp5262
g101
g102
ssg83
g5251
sg76
(lp5263
S':'
asbag69
(g90
g71
NtRp5264
(dp5265
g74
(dp5266
sg83
g5251
sg76
(lp5267
g69
(g70
g71
NtRp5268
(dp5269
g74
(dp5270
g82
I5
ssg83
g5264
sg76
(lp5271
S"<open file '/home/goshawk/web2py/applications/milo/sessions/127.0.0.1-6c16d76a-1f8c-4e9b-9b63-cec19a96b9d8', mode 'rb+' at 0x7fb480259150>"
p5272
asbasbasbag69
(g85
g71
NtRp5273
(dp5274
g74
(dp5275
sg83
g3242
sg76
(lp5276
g69
(g90
g71
NtRp5277
(dp5278
g74
(dp5279
g94
g95
ssg83
g5273
sg76
(lp5280
S'session_filename'
p5281
asbag69
(g90
g71
NtRp5282
(dp5283
g74
(dp5284
g101
g102
ssg83
g5273
sg76
(lp5285
S':'
asbag69
(g90
g71
NtRp5286
(dp5287
g74
(dp5288
sg83
g5273
sg76
(lp5289
g69
(g70
g71
NtRp5290
(dp5291
g74
(dp5292
g82
I5
ssg83
g5286
sg76
(lp5293
S'/home/goshawk/web2py/applications/milo/sessions/127.0.0.1-6c16d76a-1f8c-4e9b-9b63-cec19a96b9d8'
p5294
asbasbasbag69
(g85
g71
NtRp5295
(dp5296
g74
(dp5297
sg83
g3242
sg76
(lp5298
g69
(g90
g71
NtRp5299
(dp5300
g74
(dp5301
g94
g95
ssg83
g5295
sg76
(lp5302
S'session_id'
p5303
asbag69
(g90
g71
NtRp5304
(dp5305
g74
(dp5306
g101
g102
ssg83
g5295
sg76
(lp5307
S':'
asbag69
(g90
g71
NtRp5308
(dp5309
g74
(dp5310
sg83
g5295
sg76
(lp5311
g69
(g70
g71
NtRp5312
(dp5313
g74
(dp5314
g82
I5
ssg83
g5308
sg76
(lp5315
S'127.0.0.1-6c16d76a-1f8c-4e9b-9b63-cec19a96b9d8'
p5316
asbasbasbag69
(g85
g71
NtRp5317
(dp5318
g74
(dp5319
sg83
g3242
sg76
(lp5320
g69
(g90
g71
NtRp5321
(dp5322
g74
(dp5323
g94
g95
ssg83
g5317
sg76
(lp5324
S'session_id_name'
p5325
asbag69
(g90
g71
NtRp5326
(dp5327
g74
(dp5328
g101
g102
ssg83
g5317
sg76
(lp5329
S':'
asbag69
(g90
g71
NtRp5330
(dp5331
g74
(dp5332
sg83
g5317
sg76
(lp5333
g69
(g70
g71
NtRp5334
(dp5335
g74
(dp5336
g82
I5
ssg83
g5330
sg76
(lp5337
g3299
asbasbasbag69
(g85
g71
NtRp5338
(dp5339
g74
(dp5340
sg83
g3242
sg76
(lp5341
g69
(g90
g71
NtRp5342
(dp5343
g74
(dp5344
g94
g95
ssg83
g5338
sg76
(lp5345
S'session_locked'
p5346
asbag69
(g90
g71
NtRp5347
(dp5348
g74
(dp5349
g101
g102
ssg83
g5338
sg76
(lp5350
S':'
asbag69
(g90
g71
NtRp5351
(dp5352
g74
(dp5353
sg83
g5338
sg76
(lp5354
g69
(g70
g71
NtRp5355
(dp5356
g74
(dp5357
g82
I5
ssg83
g5351
sg76
(lp5358
g1744
asbasbasbag69
(g85
g71
NtRp5359
(dp5360
g74
(dp5361
sg83
g3242
sg76
(lp5362
g69
(g90
g71
NtRp5363
(dp5364
g74
(dp5365
g94
g95
ssg83
g5359
sg76
(lp5366
S'session_new'
p5367
asbag69
(g90
g71
NtRp5368
(dp5369
g74
(dp5370
g101
g102
ssg83
g5359
sg76
(lp5371
S':'
asbag69
(g90
g71
NtRp5372
(dp5373
g74
(dp5374
sg83
g5359
sg76
(lp5375
g69
(g70
g71
NtRp5376
(dp5377
g74
(dp5378
g82
I5
ssg83
g5372
sg76
(lp5379
g112
asbasbasbag69
(g85
g71
NtRp5380
(dp5381
g74
(dp5382
sg83
g3242
sg76
(lp5383
g69
(g90
g71
NtRp5384
(dp5385
g74
(dp5386
g94
g95
ssg83
g5380
sg76
(lp5387
S'status'
p5388
asbag69
(g90
g71
NtRp5389
(dp5390
g74
(dp5391
g101
g102
ssg83
g5380
sg76
(lp5392
S':'
asbag69
(g90
g71
NtRp5393
(dp5394
g74
(dp5395
sg83
g5380
sg76
(lp5396
g69
(g70
g71
NtRp5397
(dp5398
g74
(dp5399
g82
I5
ssg83
g5393
sg76
(lp5400
S'200'
p5401
asbasbasbag69
(g85
g71
NtRp5402
(dp5403
g74
(dp5404
sg83
g3242
sg76
(lp5405
g69
(g90
g71
NtRp5406
(dp5407
g74
(dp5408
g94
g95
ssg83
g5402
sg76
(lp5409
S'title'
p5410
asbag69
(g90
g71
NtRp5411
(dp5412
g74
(dp5413
g101
g102
ssg83
g5402
sg76
(lp5414
S':'
asbag69
(g90
g71
NtRp5415
(dp5416
g74
(dp5417
sg83
g5402
sg76
(lp5418
g69
(g70
g71
NtRp5419
(dp5420
g74
(dp5421
g82
I5
ssg83
g5415
sg76
(lp5422
S'Milo'
p5423
asbasbasbag69
(g85
g71
NtRp5424
(dp5425
g74
(dp5426
sg83
g3242
sg76
(lp5427
g69
(g90
g71
NtRp5428
(dp5429
g74
(dp5430
g94
g95
ssg83
g5424
sg76
(lp5431
g2429
asbag69
(g90
g71
NtRp5432
(dp5433
g74
(dp5434
g101
g102
ssg83
g5424
sg76
(lp5435
S':'
asbag69
(g90
g71
NtRp5436
(dp5437
g74
(dp5438
sg83
g5424
sg76
(lp5439
g69
(g70
g71
NtRp5440
(dp5441
g74
(dp5442
g82
I5
ssg83
g5436
sg76
(lp5443
g2442
asbasbasbag69
(g85
g71
NtRp5444
(dp5445
g74
(dp5446
sg83
g3242
sg76
(lp5447
g69
(g90
g71
NtRp5448
(dp5449
g74
(dp5450
g94
g95
ssg83
g5444
sg76
(lp5451
S'view'
p5452
asbag69
(g90
g71
NtRp5453
(dp5454
g74
(dp5455
g101
g102
ssg83
g5444
sg76
(lp5456
S':'
asbag69
(g90
g71
NtRp5457
(dp5458
g74
(dp5459
sg83
g5444
sg76
(lp5460
g69
(g70
g71
NtRp5461
(dp5462
g74
(dp5463
g82
I5
ssg83
g5457
sg76
(lp5464
S'default/index.html'
p5465
asbasbasbasbasbsS'locals'
p5466
(dp5467
g2451
g21
sS'hash_vars'
p5468
g1744
sS'port'
p5469
S'None'
p5470
sS'current'
p5471
S'<thread._local object>'
p5472
sg121
S"'milo'"
p5473
sS'user_signature'
p5474
S'None'
p5475
sg833
S"<Storage {'debugging': False, 'http_user_agent':...[]), 'query_string': '', 'wsgi_run_once': False}>"
p5476
sS'url_encode'
p5477
g1744
sS'scheme'
p5478
S'None'
p5479
sg1889
S"''"
p5480
sS'encode_embedded_slash'
p5481
g112
sg52
S"['static', 'images', 'movies', 'posters', '120539.jpg']"
p5482
sg223
S"'static'"
p5483
sS'a'
S'None'
p5484
sS'c'
S"'static'"
p5485
sS'function2'
p5486
S"'.html'"
p5487
sg1845
S'None'
p5488
sS'f'
S"''"
p5489
sS'items'
p5490
S"['', 'static', 'images', 'movies', 'posters', '120539.jpg']"
p5491
sS'host'
p5492
S'None'
p5493
sS'hmac_key'
p5494
S'None'
p5495
sS'r'
S"<Storage {'body': <cStringIO.StringO object at 0..._vars': <Storage {}>, 'post_vars': <Storage {}>}>"
p5496
sS'salt'
p5497
S'None'
p5498
sS'anchor'
p5499
S"''"
p5500
sssS'traceback'
p5501
S'Traceback (most recent call last):\n  File "/home/goshawk/web2py/gluon/restricted.py", line 205, in restricted\n    exec ccode in environment\n  File "/home/goshawk/web2py/applications/milo/views/default/index.html", line 97, in <module>\n    {{if page != 0:}}\n  File "/home/goshawk/web2py/gluon/html.py", line 274, in URL\n    raise SyntaxError, \'not enough information to build the url\'\nSyntaxError: not enough information to build the url\n'
p5502
s.