(dp1
S'output'
p2
S"<type 'exceptions.NameError'> name 'test' is not defined"
p3
sS'layer'
p4
S'/home/goshawk/web2py/applications/milo/views/default/index.html'
p5
sS'code'
p6
S'left_sidebar_enabled,right_sidebar_enabled=False,True\nresponse.write(\'\\n\', escape=False)\nresponse.write(\'<!DOCTYPE html>\\n<!-- paulirish.com/2008/conditional-stylesheets-vs-css-hacks-answer-neither/ -->\\n<!--[if lt IE 7]><html class="ie ie6 ie-lte9 ie-lte8 ie-lte7 no-js" lang="\', escape=False)\nresponse.write(T.accepted_language or \'en\')\nresponse.write(\'"> <![endif]-->\\n<!--[if IE 7]><html class="ie ie7 ie-lte9 ie-lte8 ie-lte7 no-js" lang="\', escape=False)\nresponse.write(T.accepted_language or \'en\')\nresponse.write(\'"> <![endif]-->\\n<!--[if IE 8]><html class="ie ie8 ie-lte9 ie-lte8 no-js" lang="\', escape=False)\nresponse.write(T.accepted_language or \'en\')\nresponse.write(\'"> <![endif]-->\\n<!--[if IE 9]><html class="ie9 ie-lte9 no-js" lang="\', escape=False)\nresponse.write(T.accepted_language or \'en\')\nresponse.write(\'"> <![endif]-->\\n<!--[if (gt IE 9)|!(IE)]><!--> <html class="no-js" lang="\', escape=False)\nresponse.write(T.accepted_language or \'en\')\nresponse.write(\'"> <!--<![endif]-->\\n<head>\\n  <meta charset="utf-8" />\\n  <!-- www.phpied.com/conditional-comments-block-downloads/ -->\\n  <!-- Always force latest IE rendering engine\\n\\t   (even in intranet) & Chrome Frame\\n\\t   Remove this if you use the .htaccess -->\\n  <!--[if IE]>\\n    <meta http-equiv="X-UA-Compatible" content="IE=edge\', escape=False)\nresponse.write(not request.is_local and \',chrome=1\' or \'\')\nresponse.write(\'">\\n  <![endif]-->\\n  \\n  <title>\', escape=False)\nresponse.write(response.title or request.application)\nresponse.write(\'</title>\\n  \\n  <!-- http://dev.w3.org/html5/markup/meta.name.html -->\\n  <meta name="application-name" content="\', escape=False)\nresponse.write(request.application)\nresponse.write(\'" />\\n  \\n  <!-- Speaking of Google, don\\\'t forget to set your site up:\\n\\t   http://google.com/webmasters -->\\n  <meta name="google-site-verification" content="" />\\n\\n  <!--  Mobile Viewport Fix\\n\\t  j.mp/mobileviewport & davidbcalhoun.com/2010/viewport-metatag\\n\\t  device-width: Occupy full width of the screen in its current orientation\\n\\t  initial-scale = 1.0 retains dimensions instead of zooming out if page height > device height\\n\\t  user-scalable = yes allows the user to zoom in -->\\n  <meta name="viewport" content="width=device-width, initial-scale=1.0, user-scalable=yes">\\n  \\n  <!-- Place favicon.ico and apple-touch-icon.png in the root of your domain and delete these references -->\\n  <link rel="shortcut icon" href="\', escape=False)\nresponse.write(URL(\'static\',\'favicon.ico\'))\nresponse.write(\'" type="image/x-icon">\\n  <link rel="apple-touch-icon" href="\', escape=False)\nresponse.write(URL(\'static\',\'favicon.png\'))\nresponse.write(\'">\\n\\n  <!-- All JavaScript at the bottom, except for Modernizr which enables \\n\\t   HTML5 elements & feature detects -->\\n  <script src="\', escape=False)\nresponse.write(URL(\'static\',\'js/modernizr.custom.js\'))\nresponse.write(\'"></script>  \\n\\n  <!-- include stylesheets -->\\n  \', escape=False)\nresponse.files.append(URL(\'static\',\'css/skeleton.css\'))\nresponse.files.append(URL(\'static\',\'css/web2py.css\'))\nif response.menu:\n    response.files.append(URL(\'static\',\'css/superfish.css\'))\n    response.files.append(URL(\'static\',\'js/superfish.js\'))\n    pass\nresponse.write(\'\\n\\n  \', escape=False)\nresponse.write(\'<script type="text/javascript"><!--\\n    // These variables are used by the web2py_ajax_init function in web2py_ajax.js (which is loaded below).\\n    var w2p_ajax_confirm_message = "\', escape=False)\nresponse.write(T(\'Are you sure you want to delete this object?\'))\nresponse.write(\'";\\n    var w2p_ajax_date_format = "\', escape=False)\nresponse.write(T(\'%Y-%m-%d\'))\nresponse.write(\'";\\n    var w2p_ajax_datetime_format = "\', escape=False)\nresponse.write(T(\'%Y-%m-%d %H:%M:%S\'))\nresponse.write(\'";\\n    //--></script>\\n\', escape=False)\nresponse.files.insert(0,URL(\'static\',\'js/jquery.js\'))\nresponse.files.insert(1,URL(\'static\',\'css/calendar.css\'))\nresponse.files.insert(2,URL(\'static\',\'js/calendar.js\'))\nresponse.files.insert(3,URL(\'static\',\'js/web2py.js\'))\nresponse.include_meta()\nresponse.include_files()\nresponse.write(\'\\n\', escape=False)\nresponse.write(\'\\n\\n  \', escape=False)\nif response.menu:\n    response.write(\'\\n  <script type="text/javascript">\\n    jQuery(function(){ jQuery(\\\'ul.sf-menu\\\').supersubs({minWidth:12,maxWidth:30,extraWidth:3}).superfish(); });\\n  </script>\\n  \', escape=False)\n    pass\nresponse.write(\'\\n\\n  \', escape=False)\n# using sidebars need to know what sidebar you want to use\nleft_sidebar_enabled = globals().get(\'left_sidebar_enabled\',False)\nright_sidebar_enabled = globals().get(\'right_sidebar_enabled\',False)\nmiddle_columns = {0:\'sixteen\',1:\'twelve\',2:\'eight\'}[\n(left_sidebar_enabled and 1 or 0)+(right_sidebar_enabled and 1 or 0)]\nresponse.write(\'\\n\\n  <!-- uncomment here to load jquery-ui\\n  <link rel="stylesheet" href="http://ajax.googleapis.com/ajax/libs/jqueryui/1.8.16/themes/base/jquery-ui.css" type="text/css" media="all" />\\n  <script src="http://ajax.googleapis.com/ajax/libs/jqueryui/1.8.16/jquery-ui.min.js" type="text/javascript"></script>\\n  uncomment to load jquery-ui //-->\\n</head>\\n<body>\\n  <div class="wrapper"><!-- for sticky footer -->\\n  \\n    <div class="topbar">\\n      <div class="container">    \\n        <div class="sixteen columns">\\n          <div id="navbar">\', escape=False)\nresponse.write(\'auth\' in globals() and auth.navbar(separators=(\' \',\' | \',\'\')))\nresponse.write(\'</div>\\n          \', escape=False)\nis_mobile=request.user_agent().is_mobile\nresponse.write(\'\\n\\t  \', escape=False)\nif response.menu:\n    response.write(\'\\n          <div id="menu">\\n             \', escape=False)\n    response.write(MENU(response.menu, _class=\'mobile-menu\' if is_mobile else \'sf-menu\',mobile=is_mobile))\n    response.write(\'\\n          </div>\\n          \', escape=False)\n    pass\nresponse.write(\'\\n        </div>\\n      </div>\\n    </div><!-- topbar -->\\n    \\n    <div class="flash">\', escape=False)\nresponse.write(response.flash or \'\')\nresponse.write(\'</div>\\n    \\n    <div class="header">\\n      <div class="container">         \\n        <div class="sixteen columns">\\n          <h1 class="remove-bottom" style="margin-top: .5em;">\\n          \', escape=False)\nresponse.write(response.title or request.application)\nresponse.write(\'\\n          </h1>\\n          <h5>\', escape=False)\nresponse.write(response.subtitle or \'\')\nresponse.write(\'</h5>\\n        </div>\\n        <div class="sixteen columns">\\n          <div class="statusbar clearfix">\\n            \', escape=False)\nresponse.write(\'\\n            <div class="breadcrumbs">\', escape=False)\nresponse.write(request.function.replace(\'_\', \' \').title())\nresponse.write(\'</div>\\n            \', escape=False)\nresponse.write(\'\\n            <!-- AddToAny BEGIN -->\\n            <div style="float:right; padding-top: .25em;" class="a2a_kit a2a_default_style">\\n            <a class="a2a_dd" href="http://www.addtoany.com/share_save">Share</a></div>\\n            <script type="text/javascript" src="http://static.addtoany.com/menu/page.js"></script>\\n            <!-- AddToAny END -->\\n          </div>\\n        </div>\\n      </div>\\n    </div>\\n\\n    <div class="main">\\n      <div class="container">                 \\n        \', escape=False)\nif left_sidebar_enabled:\n    response.write(\'\\n        <div class="four columns left-sidebar">\\n          \', escape=False)\n    response.write(\'\\n          <h3>Left Sidebar</h3>\\n          <p></p>\\n          \', escape=False)\n    response.write(\'\\n        </div>\\n        \', escape=False)\n    pass\nresponse.write(\'\\n        \\n        <div class="\', escape=False)\nresponse.write(middle_columns)\nresponse.write(\' columns center">\\n          \', escape=False)\nresponse.write(\'\\n          \', escape=False)\nresponse.write(\'\\n\\n\', escape=False)\nif \'message\' in globals():\n    response.write(\'\\n<h3>\', escape=False)\n    response.write(message)\n    response.write(\'</h3>\\n\\n<h4/>\', escape=False)\n    response.write(T(\'How did you get here?\'))\n    response.write(\'</h4>\\n<ol>\\n  <li>\', escape=False)\n    response.write(T(\'You are successfully running web2py\'))\n    response.write(\'</li>\\n  <li>\', escape=False)\n    response.write(T(\'You visited the url\'))\n    response.write(\' \', escape=False)\n    response.write(A(request.env.path_info,_href=request.env.path_info))\n    response.write(\'</li>\\n  <li>\', escape=False)\n    response.write(T(\'Which called the function\'))\n    response.write(\' \', escape=False)\n    response.write(A(request.function+\'()\',_href=\'#\'))\n    response.write(\' \', escape=False)\n    response.write(T(\'located in the file\'))\n    response.write(\'\\n    \', escape=False)\n    response.write(A(\'web2py/applications/%(application)s/controllers/%(controller)s.py\'%request,_href=URL(\'admin\',\'default\',\'peek\',args=(request.application,\'controllers\',request.controller+\'.py\'))))\n    response.write(\'</li>\\n  <li>\', escape=False)\n    response.write(T(\'The output of the file is a dictionary that was rendered by the view\'))\n    response.write(\'\\n    \', escape=False)\n    response.write(A(\'web2py/applications/%(application)s/views/%(controller)s/index.html\'%request,_href=URL(\'admin\',\'default\',\'peek\',args=(request.application,\'views\',request.controller,\'index.html\'))))\n    response.write(\'</li>\\n  <li>\', escape=False)\n    response.write(T(\'You can modify this application and adapt it to your needs\'))\n    response.write(\'</li>\\n  <li>\', escape=False)\n    response.write(test)\n    response.write(\'</li>\\n</ul>\\n</ol>\\n\', escape=False)\nelse:\n    response.write(\'\\n\', escape=False)\n    response.write(BEAUTIFY(response._vars))\n    response.write(\'\\n\', escape=False)\n    pass\nresponse.write(\'\\n\\n\', escape=False)\nresponse.write(\'\\n\\n\', escape=False)\nresponse.write(\'\\n          \', escape=False)\nresponse.write(\'\\n        </div>\\n        \\n        \', escape=False)\nif right_sidebar_enabled:\n    response.write(\'\\n        <div class="four columns">\\n          \', escape=False)\n    response.write(\'\\n\', escape=False)\n    response.write(A(T("Administrative Interface"), _href=URL(\'admin\',\'default\',\'index\'), _class=\'button\',\n    _style=\'margin-top: 1em;\'))\n    response.write(\'\\n<h6>\', escape=False)\n    response.write(T("Don\'t know what to do?"))\n    response.write(\'</h6>\\n<ul>\\n  <li>\', escape=False)\n    response.write(A(T("Online examples"), _href=URL(\'examples\',\'default\',\'index\')))\n    response.write(\'</li>\\n  <li><a href="http://web2py.com">web2py.com</a></li>\\n  <li><a href="http://web2py.com/book">\', escape=False)\n    response.write(T(\'Documentation\'))\n    response.write(\'</a></li>\\n</ul>\\n\', escape=False)\n    response.write(\'\\n        </div>    \\n        \', escape=False)\n    pass\nresponse.write(\'\\n        \\n      </div><!-- container -->\\n    </div><!-- main -->\\n    \\n    <div class="push"></div>\\n  </div><!-- wrapper -->\\n\\n  <div class="footer">\\n    <div class="container">    \\n      <div class="sixteen columns">\\n        \', escape=False)\nresponse.write(\' <!-- this is default footer -->\\n        <div class="footer-content clearfix">\\n          <div class="copyright">\', escape=False)\nresponse.write(T(\'Copyright\'))\nresponse.write(\' &#169; 2011</div>\\n          <div style="float: right;">\\n            <a href="http://www.web2py.com/">\\n            <img style="padding-bottom: 0;" src="\', escape=False)\nresponse.write(URL(\'static\',\'images/poweredby.png\'))\nresponse.write(\'"/>\\n            </a>\\n          </div>\\n        </div>\\n        \', escape=False)\nresponse.write(\'\\t\\n      </div>\\n    </div><!-- container -->\\n  </div><!-- footer -->\\n  \\n  <!--[if lt IE 7 ]>\\n\\t<script src="\', escape=False)\nresponse.write(URL(\'static\',\'js/dd_belatedpng.js\'))\nresponse.write(\'"></script>\\n\\t<script> DD_belatedPNG.fix(\\\'img, .png_bg\\\'); //fix any <img> or .png_bg background-images </script>\\n\\t<![endif]-->\\n  \', escape=False)\nif response.google_analytics_id:\n    response.write(\'<script type="text/javascript"> var _gaq = _gaq || []; _gaq.push([\\\'_setAccount\\\', \\\'\', escape=False)\n    response.write(response.google_analytics_id)\n    response.write("\']); _gaq.push([\'_trackPageview\']); (function() { var ga = document.createElement(\'script\'); ga.type = \'text/javascript\'; ga.async = true; ga.src = (\'https:\' == document.location.protocol ? \'https://ssl\' : \'http://www\') + \'.google-analytics.com/ga.js\'; var s = document.getElementsByTagName(\'script\')[0]; s.parentNode.insertBefore(ga, s); })(); </script> ", escape=False)\n    pass\nresponse.write(\'\\n</body>\\n</html>\\n\', escape=False)'
p7
sS'snapshot'
p8
(dp9
S'exception'
p10
(dp11
S'__hash__'
p12
S"<method-wrapper '__hash__' of exceptions.NameError object>"
p13
sS'__setattr__'
p14
S"<method-wrapper '__setattr__' of exceptions.NameError object>"
p15
sS'__reduce_ex__'
p16
S'<built-in method __reduce_ex__ of exceptions.NameError object>'
p17
sS'__getslice__'
p18
S"<method-wrapper '__getslice__' of exceptions.NameError object>"
p19
sS'__getitem__'
p20
S"<method-wrapper '__getitem__' of exceptions.NameError object>"
p21
sS'__setstate__'
p22
S'<built-in method __setstate__ of exceptions.NameError object>'
p23
sS'args'
p24
S'("name \'test\' is not defined",)'
p25
sS'__reduce__'
p26
S'<built-in method __reduce__ of exceptions.NameError object>'
p27
sS'__str__'
p28
S"<method-wrapper '__str__' of exceptions.NameError object>"
p29
sS'__format__'
p30
S'<built-in method __format__ of exceptions.NameError object>'
p31
sS'__getattribute__'
p32
S"<method-wrapper '__getattribute__' of exceptions.NameError object>"
p33
sS'__class__'
p34
S"<type 'exceptions.NameError'>"
p35
sS'__unicode__'
p36
S'<built-in method __unicode__ of exceptions.NameError object>'
p37
sS'__delattr__'
p38
S"<method-wrapper '__delattr__' of exceptions.NameError object>"
p39
sS'__subclasshook__'
p40
S'<built-in method __subclasshook__ of type object>'
p41
sS'__repr__'
p42
S"<method-wrapper '__repr__' of exceptions.NameError object>"
p43
sS'__dict__'
p44
S'{}'
p45
sS'__sizeof__'
p46
S'<built-in method __sizeof__ of exceptions.NameError object>'
p47
sS'__doc__'
p48
S"'Name not found globally.'"
p49
sS'__init__'
p50
S"<method-wrapper '__init__' of exceptions.NameError object>"
p51
sS'__new__'
p52
S'<built-in method __new__ of type object>'
p53
ssS'evalue'
p54
S"name 'test' is not defined"
p55
sS'request'
p56
ccopy_reg
_reconstructor
p57
(cgluon.html
BEAUTIFY
p58
c__builtin__
object
p59
NtRp60
(dp61
S'attributes'
p62
(dp63
sS'components'
p64
(lp65
g57
(cgluon.html
TABLE
p66
g59
NtRp67
(dp68
g62
(dp69
S'level'
p70
I5
ssS'parent'
p71
Nsg64
(lp72
g57
(cgluon.html
TR
p73
g59
NtRp74
(dp75
g62
(dp76
sg71
g67
sg64
(lp77
g57
(cgluon.html
TD
p78
g59
NtRp79
(dp80
g62
(dp81
S'_style'
p82
S'font-weight:bold;vertical-align:top'
p83
ssg71
g74
sg64
(lp84
S'ajax'
p85
asbag57
(g78
g59
NtRp86
(dp87
g62
(dp88
S'_valign'
p89
S'top'
p90
ssg71
g74
sg64
(lp91
S':'
asbag57
(g78
g59
NtRp92
(dp93
g62
(dp94
sg71
g74
sg64
(lp95
g57
(g58
g59
NtRp96
(dp97
g62
(dp98
g70
I5
ssg71
g92
sg64
(lp99
S'False'
p100
asbasbasbag57
(g73
g59
NtRp101
(dp102
g62
(dp103
sg71
g67
sg64
(lp104
g57
(g78
g59
NtRp105
(dp106
g62
(dp107
g82
g83
ssg71
g101
sg64
(lp108
S'application'
p109
asbag57
(g78
g59
NtRp110
(dp111
g62
(dp112
g89
g90
ssg71
g101
sg64
(lp113
S':'
asbag57
(g78
g59
NtRp114
(dp115
g62
(dp116
sg71
g101
sg64
(lp117
g57
(g58
g59
NtRp118
(dp119
g62
(dp120
g70
I5
ssg71
g114
sg64
(lp121
S'milo'
p122
asbasbasbag57
(g73
g59
NtRp123
(dp124
g62
(dp125
sg71
g67
sg64
(lp126
g57
(g78
g59
NtRp127
(dp128
g62
(dp129
g82
g83
ssg71
g123
sg64
(lp130
g24
asbag57
(g78
g59
NtRp131
(dp132
g62
(dp133
g89
g90
ssg71
g123
sg64
(lp134
S':'
asbag57
(g78
g59
NtRp135
(dp136
g62
(dp137
sg71
g123
sg64
(lp138
g57
(g58
g59
NtRp139
(dp140
g62
(dp141
g70
I5
ssg71
g135
sg64
(lp142
g57
(g66
g59
NtRp143
(dp144
g62
(dp145
g70
I4
ssg71
Nsg64
(lp146
sbasbasbasbag57
(g73
g59
NtRp147
(dp148
g62
(dp149
sg71
g67
sg64
(lp150
g57
(g78
g59
NtRp151
(dp152
g62
(dp153
g82
g83
ssg71
g147
sg64
(lp154
S'body'
p155
asbag57
(g78
g59
NtRp156
(dp157
g62
(dp158
g89
g90
ssg71
g147
sg64
(lp159
S':'
asbag57
(g78
g59
NtRp160
(dp161
g62
(dp162
sg71
g147
sg64
(lp163
g57
(g58
g59
NtRp164
(dp165
g62
(dp166
g70
I5
ssg71
g160
sg64
(lp167
S'<cStringIO.StringO object at 0x7fe3b01a4b58>'
p168
asbasbasbag57
(g73
g59
NtRp169
(dp170
g62
(dp171
sg71
g67
sg64
(lp172
g57
(g78
g59
NtRp173
(dp174
g62
(dp175
g82
g83
ssg71
g169
sg64
(lp176
S'client'
p177
asbag57
(g78
g59
NtRp178
(dp179
g62
(dp180
g89
g90
ssg71
g169
sg64
(lp181
S':'
asbag57
(g78
g59
NtRp182
(dp183
g62
(dp184
sg71
g169
sg64
(lp185
g57
(g58
g59
NtRp186
(dp187
g62
(dp188
g70
I5
ssg71
g182
sg64
(lp189
S'127.0.0.1'
p190
asbasbasbag57
(g73
g59
NtRp191
(dp192
g62
(dp193
sg71
g67
sg64
(lp194
g57
(g78
g59
NtRp195
(dp196
g62
(dp197
g82
g83
ssg71
g191
sg64
(lp198
S'controller'
p199
asbag57
(g78
g59
NtRp200
(dp201
g62
(dp202
g89
g90
ssg71
g191
sg64
(lp203
S':'
asbag57
(g78
g59
NtRp204
(dp205
g62
(dp206
sg71
g191
sg64
(lp207
g57
(g58
g59
NtRp208
(dp209
g62
(dp210
g70
I5
ssg71
g204
sg64
(lp211
S'default'
p212
asbasbasbag57
(g73
g59
NtRp213
(dp214
g62
(dp215
sg71
g67
sg64
(lp216
g57
(g78
g59
NtRp217
(dp218
g62
(dp219
g82
g83
ssg71
g213
sg64
(lp220
S'cookies'
p221
asbag57
(g78
g59
NtRp222
(dp223
g62
(dp224
g89
g90
ssg71
g213
sg64
(lp225
S':'
asbag57
(g78
g59
NtRp226
(dp227
g62
(dp228
sg71
g213
sg64
(lp229
g57
(g58
g59
NtRp230
(dp231
g62
(dp232
g70
I5
ssg71
g226
sg64
(lp233
g57
(g66
g59
NtRp234
(dp235
g62
(dp236
g70
I4
ssg71
Nsg64
(lp237
g57
(g73
g59
NtRp238
(dp239
g62
(dp240
sg71
g234
sg64
(lp241
g57
(g78
g59
NtRp242
(dp243
g62
(dp244
g82
g83
ssg71
g238
sg64
(lp245
S'session_id_admin'
p246
asbag57
(g78
g59
NtRp247
(dp248
g62
(dp249
g89
g90
ssg71
g238
sg64
(lp250
S':'
asbag57
(g78
g59
NtRp251
(dp252
g62
(dp253
sg71
g238
sg64
(lp254
g57
(g58
g59
NtRp255
(dp256
g62
(dp257
g70
I4
ssg71
g251
sg64
(lp258
g57
(g66
g59
NtRp259
(dp260
g62
(dp261
g70
I3
ssg71
Nsg64
(lp262
g57
(g73
g59
NtRp263
(dp264
g62
(dp265
sg71
g259
sg64
(lp266
g57
(g78
g59
NtRp267
(dp268
g62
(dp269
g82
g83
ssg71
g263
sg64
(lp270
S'comment'
p271
asbag57
(g78
g59
NtRp272
(dp273
g62
(dp274
g89
g90
ssg71
g263
sg64
(lp275
S':'
asbag57
(g78
g59
NtRp276
(dp277
g62
(dp278
sg71
g263
sg64
(lp279
g57
(g58
g59
NtRp280
(dp281
g62
(dp282
g70
I3
ssg71
g276
sg64
(lp283
S''
asbasbasbag57
(g73
g59
NtRp284
(dp285
g62
(dp286
sg71
g259
sg64
(lp287
g57
(g78
g59
NtRp288
(dp289
g62
(dp290
g82
g83
ssg71
g284
sg64
(lp291
S'domain'
p292
asbag57
(g78
g59
NtRp293
(dp294
g62
(dp295
g89
g90
ssg71
g284
sg64
(lp296
S':'
asbag57
(g78
g59
NtRp297
(dp298
g62
(dp299
sg71
g284
sg64
(lp300
g57
(g58
g59
NtRp301
(dp302
g62
(dp303
g70
I3
ssg71
g297
sg64
(lp304
S''
asbasbasbag57
(g73
g59
NtRp305
(dp306
g62
(dp307
sg71
g259
sg64
(lp308
g57
(g78
g59
NtRp309
(dp310
g62
(dp311
g82
g83
ssg71
g305
sg64
(lp312
S'expires'
p313
asbag57
(g78
g59
NtRp314
(dp315
g62
(dp316
g89
g90
ssg71
g305
sg64
(lp317
S':'
asbag57
(g78
g59
NtRp318
(dp319
g62
(dp320
sg71
g305
sg64
(lp321
g57
(g58
g59
NtRp322
(dp323
g62
(dp324
g70
I3
ssg71
g318
sg64
(lp325
S''
asbasbasbag57
(g73
g59
NtRp326
(dp327
g62
(dp328
sg71
g259
sg64
(lp329
g57
(g78
g59
NtRp330
(dp331
g62
(dp332
g82
g83
ssg71
g326
sg64
(lp333
S'httponly'
p334
asbag57
(g78
g59
NtRp335
(dp336
g62
(dp337
g89
g90
ssg71
g326
sg64
(lp338
S':'
asbag57
(g78
g59
NtRp339
(dp340
g62
(dp341
sg71
g326
sg64
(lp342
g57
(g58
g59
NtRp343
(dp344
g62
(dp345
g70
I3
ssg71
g339
sg64
(lp346
S''
asbasbasbag57
(g73
g59
NtRp347
(dp348
g62
(dp349
sg71
g259
sg64
(lp350
g57
(g78
g59
NtRp351
(dp352
g62
(dp353
g82
g83
ssg71
g347
sg64
(lp354
S'max-age'
p355
asbag57
(g78
g59
NtRp356
(dp357
g62
(dp358
g89
g90
ssg71
g347
sg64
(lp359
S':'
asbag57
(g78
g59
NtRp360
(dp361
g62
(dp362
sg71
g347
sg64
(lp363
g57
(g58
g59
NtRp364
(dp365
g62
(dp366
g70
I3
ssg71
g360
sg64
(lp367
S''
asbasbasbag57
(g73
g59
NtRp368
(dp369
g62
(dp370
sg71
g259
sg64
(lp371
g57
(g78
g59
NtRp372
(dp373
g62
(dp374
g82
g83
ssg71
g368
sg64
(lp375
S'path'
p376
asbag57
(g78
g59
NtRp377
(dp378
g62
(dp379
g89
g90
ssg71
g368
sg64
(lp380
S':'
asbag57
(g78
g59
NtRp381
(dp382
g62
(dp383
sg71
g368
sg64
(lp384
g57
(g58
g59
NtRp385
(dp386
g62
(dp387
g70
I3
ssg71
g381
sg64
(lp388
S''
asbasbasbag57
(g73
g59
NtRp389
(dp390
g62
(dp391
sg71
g259
sg64
(lp392
g57
(g78
g59
NtRp393
(dp394
g62
(dp395
g82
g83
ssg71
g389
sg64
(lp396
S'secure'
p397
asbag57
(g78
g59
NtRp398
(dp399
g62
(dp400
g89
g90
ssg71
g389
sg64
(lp401
S':'
asbag57
(g78
g59
NtRp402
(dp403
g62
(dp404
sg71
g389
sg64
(lp405
g57
(g58
g59
NtRp406
(dp407
g62
(dp408
g70
I3
ssg71
g402
sg64
(lp409
S''
asbasbasbag57
(g73
g59
NtRp410
(dp411
g62
(dp412
sg71
g259
sg64
(lp413
g57
(g78
g59
NtRp414
(dp415
g62
(dp416
g82
g83
ssg71
g410
sg64
(lp417
S'version'
p418
asbag57
(g78
g59
NtRp419
(dp420
g62
(dp421
g89
g90
ssg71
g410
sg64
(lp422
S':'
asbag57
(g78
g59
NtRp423
(dp424
g62
(dp425
sg71
g410
sg64
(lp426
g57
(g58
g59
NtRp427
(dp428
g62
(dp429
g70
I3
ssg71
g423
sg64
(lp430
S''
asbasbasbasbasbasbasbag57
(g73
g59
NtRp431
(dp432
g62
(dp433
sg71
g234
sg64
(lp434
g57
(g78
g59
NtRp435
(dp436
g62
(dp437
g82
g83
ssg71
g431
sg64
(lp438
S'session_id_milo'
p439
asbag57
(g78
g59
NtRp440
(dp441
g62
(dp442
g89
g90
ssg71
g431
sg64
(lp443
S':'
asbag57
(g78
g59
NtRp444
(dp445
g62
(dp446
sg71
g431
sg64
(lp447
g57
(g58
g59
NtRp448
(dp449
g62
(dp450
g70
I4
ssg71
g444
sg64
(lp451
g57
(g66
g59
NtRp452
(dp453
g62
(dp454
g70
I3
ssg71
Nsg64
(lp455
g57
(g73
g59
NtRp456
(dp457
g62
(dp458
sg71
g452
sg64
(lp459
g57
(g78
g59
NtRp460
(dp461
g62
(dp462
g82
g83
ssg71
g456
sg64
(lp463
g271
asbag57
(g78
g59
NtRp464
(dp465
g62
(dp466
g89
g90
ssg71
g456
sg64
(lp467
S':'
asbag57
(g78
g59
NtRp468
(dp469
g62
(dp470
sg71
g456
sg64
(lp471
g57
(g58
g59
NtRp472
(dp473
g62
(dp474
g70
I3
ssg71
g468
sg64
(lp475
S''
asbasbasbag57
(g73
g59
NtRp476
(dp477
g62
(dp478
sg71
g452
sg64
(lp479
g57
(g78
g59
NtRp480
(dp481
g62
(dp482
g82
g83
ssg71
g476
sg64
(lp483
g292
asbag57
(g78
g59
NtRp484
(dp485
g62
(dp486
g89
g90
ssg71
g476
sg64
(lp487
S':'
asbag57
(g78
g59
NtRp488
(dp489
g62
(dp490
sg71
g476
sg64
(lp491
g57
(g58
g59
NtRp492
(dp493
g62
(dp494
g70
I3
ssg71
g488
sg64
(lp495
S''
asbasbasbag57
(g73
g59
NtRp496
(dp497
g62
(dp498
sg71
g452
sg64
(lp499
g57
(g78
g59
NtRp500
(dp501
g62
(dp502
g82
g83
ssg71
g496
sg64
(lp503
g313
asbag57
(g78
g59
NtRp504
(dp505
g62
(dp506
g89
g90
ssg71
g496
sg64
(lp507
S':'
asbag57
(g78
g59
NtRp508
(dp509
g62
(dp510
sg71
g496
sg64
(lp511
g57
(g58
g59
NtRp512
(dp513
g62
(dp514
g70
I3
ssg71
g508
sg64
(lp515
S''
asbasbasbag57
(g73
g59
NtRp516
(dp517
g62
(dp518
sg71
g452
sg64
(lp519
g57
(g78
g59
NtRp520
(dp521
g62
(dp522
g82
g83
ssg71
g516
sg64
(lp523
g334
asbag57
(g78
g59
NtRp524
(dp525
g62
(dp526
g89
g90
ssg71
g516
sg64
(lp527
S':'
asbag57
(g78
g59
NtRp528
(dp529
g62
(dp530
sg71
g516
sg64
(lp531
g57
(g58
g59
NtRp532
(dp533
g62
(dp534
g70
I3
ssg71
g528
sg64
(lp535
S''
asbasbasbag57
(g73
g59
NtRp536
(dp537
g62
(dp538
sg71
g452
sg64
(lp539
g57
(g78
g59
NtRp540
(dp541
g62
(dp542
g82
g83
ssg71
g536
sg64
(lp543
g355
asbag57
(g78
g59
NtRp544
(dp545
g62
(dp546
g89
g90
ssg71
g536
sg64
(lp547
S':'
asbag57
(g78
g59
NtRp548
(dp549
g62
(dp550
sg71
g536
sg64
(lp551
g57
(g58
g59
NtRp552
(dp553
g62
(dp554
g70
I3
ssg71
g548
sg64
(lp555
S''
asbasbasbag57
(g73
g59
NtRp556
(dp557
g62
(dp558
sg71
g452
sg64
(lp559
g57
(g78
g59
NtRp560
(dp561
g62
(dp562
g82
g83
ssg71
g556
sg64
(lp563
g376
asbag57
(g78
g59
NtRp564
(dp565
g62
(dp566
g89
g90
ssg71
g556
sg64
(lp567
S':'
asbag57
(g78
g59
NtRp568
(dp569
g62
(dp570
sg71
g556
sg64
(lp571
g57
(g58
g59
NtRp572
(dp573
g62
(dp574
g70
I3
ssg71
g568
sg64
(lp575
S''
asbasbasbag57
(g73
g59
NtRp576
(dp577
g62
(dp578
sg71
g452
sg64
(lp579
g57
(g78
g59
NtRp580
(dp581
g62
(dp582
g82
g83
ssg71
g576
sg64
(lp583
g397
asbag57
(g78
g59
NtRp584
(dp585
g62
(dp586
g89
g90
ssg71
g576
sg64
(lp587
S':'
asbag57
(g78
g59
NtRp588
(dp589
g62
(dp590
sg71
g576
sg64
(lp591
g57
(g58
g59
NtRp592
(dp593
g62
(dp594
g70
I3
ssg71
g588
sg64
(lp595
S''
asbasbasbag57
(g73
g59
NtRp596
(dp597
g62
(dp598
sg71
g452
sg64
(lp599
g57
(g78
g59
NtRp600
(dp601
g62
(dp602
g82
g83
ssg71
g596
sg64
(lp603
g418
asbag57
(g78
g59
NtRp604
(dp605
g62
(dp606
g89
g90
ssg71
g596
sg64
(lp607
S':'
asbag57
(g78
g59
NtRp608
(dp609
g62
(dp610
sg71
g596
sg64
(lp611
g57
(g58
g59
NtRp612
(dp613
g62
(dp614
g70
I3
ssg71
g608
sg64
(lp615
S''
asbasbasbasbasbasbasbag57
(g73
g59
NtRp616
(dp617
g62
(dp618
sg71
g234
sg64
(lp619
g57
(g78
g59
NtRp620
(dp621
g62
(dp622
g82
g83
ssg71
g616
sg64
(lp623
S'session_id_welcome'
p624
asbag57
(g78
g59
NtRp625
(dp626
g62
(dp627
g89
g90
ssg71
g616
sg64
(lp628
S':'
asbag57
(g78
g59
NtRp629
(dp630
g62
(dp631
sg71
g616
sg64
(lp632
g57
(g58
g59
NtRp633
(dp634
g62
(dp635
g70
I4
ssg71
g629
sg64
(lp636
g57
(g66
g59
NtRp637
(dp638
g62
(dp639
g70
I3
ssg71
Nsg64
(lp640
g57
(g73
g59
NtRp641
(dp642
g62
(dp643
sg71
g637
sg64
(lp644
g57
(g78
g59
NtRp645
(dp646
g62
(dp647
g82
g83
ssg71
g641
sg64
(lp648
g271
asbag57
(g78
g59
NtRp649
(dp650
g62
(dp651
g89
g90
ssg71
g641
sg64
(lp652
S':'
asbag57
(g78
g59
NtRp653
(dp654
g62
(dp655
sg71
g641
sg64
(lp656
g57
(g58
g59
NtRp657
(dp658
g62
(dp659
g70
I3
ssg71
g653
sg64
(lp660
S''
asbasbasbag57
(g73
g59
NtRp661
(dp662
g62
(dp663
sg71
g637
sg64
(lp664
g57
(g78
g59
NtRp665
(dp666
g62
(dp667
g82
g83
ssg71
g661
sg64
(lp668
g292
asbag57
(g78
g59
NtRp669
(dp670
g62
(dp671
g89
g90
ssg71
g661
sg64
(lp672
S':'
asbag57
(g78
g59
NtRp673
(dp674
g62
(dp675
sg71
g661
sg64
(lp676
g57
(g58
g59
NtRp677
(dp678
g62
(dp679
g70
I3
ssg71
g673
sg64
(lp680
S''
asbasbasbag57
(g73
g59
NtRp681
(dp682
g62
(dp683
sg71
g637
sg64
(lp684
g57
(g78
g59
NtRp685
(dp686
g62
(dp687
g82
g83
ssg71
g681
sg64
(lp688
g313
asbag57
(g78
g59
NtRp689
(dp690
g62
(dp691
g89
g90
ssg71
g681
sg64
(lp692
S':'
asbag57
(g78
g59
NtRp693
(dp694
g62
(dp695
sg71
g681
sg64
(lp696
g57
(g58
g59
NtRp697
(dp698
g62
(dp699
g70
I3
ssg71
g693
sg64
(lp700
S''
asbasbasbag57
(g73
g59
NtRp701
(dp702
g62
(dp703
sg71
g637
sg64
(lp704
g57
(g78
g59
NtRp705
(dp706
g62
(dp707
g82
g83
ssg71
g701
sg64
(lp708
g334
asbag57
(g78
g59
NtRp709
(dp710
g62
(dp711
g89
g90
ssg71
g701
sg64
(lp712
S':'
asbag57
(g78
g59
NtRp713
(dp714
g62
(dp715
sg71
g701
sg64
(lp716
g57
(g58
g59
NtRp717
(dp718
g62
(dp719
g70
I3
ssg71
g713
sg64
(lp720
S''
asbasbasbag57
(g73
g59
NtRp721
(dp722
g62
(dp723
sg71
g637
sg64
(lp724
g57
(g78
g59
NtRp725
(dp726
g62
(dp727
g82
g83
ssg71
g721
sg64
(lp728
g355
asbag57
(g78
g59
NtRp729
(dp730
g62
(dp731
g89
g90
ssg71
g721
sg64
(lp732
S':'
asbag57
(g78
g59
NtRp733
(dp734
g62
(dp735
sg71
g721
sg64
(lp736
g57
(g58
g59
NtRp737
(dp738
g62
(dp739
g70
I3
ssg71
g733
sg64
(lp740
S''
asbasbasbag57
(g73
g59
NtRp741
(dp742
g62
(dp743
sg71
g637
sg64
(lp744
g57
(g78
g59
NtRp745
(dp746
g62
(dp747
g82
g83
ssg71
g741
sg64
(lp748
g376
asbag57
(g78
g59
NtRp749
(dp750
g62
(dp751
g89
g90
ssg71
g741
sg64
(lp752
S':'
asbag57
(g78
g59
NtRp753
(dp754
g62
(dp755
sg71
g741
sg64
(lp756
g57
(g58
g59
NtRp757
(dp758
g62
(dp759
g70
I3
ssg71
g753
sg64
(lp760
S''
asbasbasbag57
(g73
g59
NtRp761
(dp762
g62
(dp763
sg71
g637
sg64
(lp764
g57
(g78
g59
NtRp765
(dp766
g62
(dp767
g82
g83
ssg71
g761
sg64
(lp768
g397
asbag57
(g78
g59
NtRp769
(dp770
g62
(dp771
g89
g90
ssg71
g761
sg64
(lp772
S':'
asbag57
(g78
g59
NtRp773
(dp774
g62
(dp775
sg71
g761
sg64
(lp776
g57
(g58
g59
NtRp777
(dp778
g62
(dp779
g70
I3
ssg71
g773
sg64
(lp780
S''
asbasbasbag57
(g73
g59
NtRp781
(dp782
g62
(dp783
sg71
g637
sg64
(lp784
g57
(g78
g59
NtRp785
(dp786
g62
(dp787
g82
g83
ssg71
g781
sg64
(lp788
g418
asbag57
(g78
g59
NtRp789
(dp790
g62
(dp791
g89
g90
ssg71
g781
sg64
(lp792
S':'
asbag57
(g78
g59
NtRp793
(dp794
g62
(dp795
sg71
g781
sg64
(lp796
g57
(g58
g59
NtRp797
(dp798
g62
(dp799
g70
I3
ssg71
g793
sg64
(lp800
S''
asbasbasbasbasbasbasbasbasbasbasbag57
(g73
g59
NtRp801
(dp802
g62
(dp803
sg71
g67
sg64
(lp804
g57
(g78
g59
NtRp805
(dp806
g62
(dp807
g82
g83
ssg71
g801
sg64
(lp808
S'env'
p809
asbag57
(g78
g59
NtRp810
(dp811
g62
(dp812
g89
g90
ssg71
g801
sg64
(lp813
S':'
asbag57
(g78
g59
NtRp814
(dp815
g62
(dp816
sg71
g801
sg64
(lp817
g57
(g58
g59
NtRp818
(dp819
g62
(dp820
g70
I5
ssg71
g814
sg64
(lp821
g57
(g66
g59
NtRp822
(dp823
g62
(dp824
g70
I4
ssg71
Nsg64
(lp825
g57
(g73
g59
NtRp826
(dp827
g62
(dp828
sg71
g822
sg64
(lp829
g57
(g78
g59
NtRp830
(dp831
g62
(dp832
g82
g83
ssg71
g826
sg64
(lp833
S'app_folders'
p834
asbag57
(g78
g59
NtRp835
(dp836
g62
(dp837
g89
g90
ssg71
g826
sg64
(lp838
S':'
asbag57
(g78
g59
NtRp839
(dp840
g62
(dp841
sg71
g826
sg64
(lp842
g57
(g58
g59
NtRp843
(dp844
g62
(dp845
g70
I4
ssg71
g839
sg64
(lp846
S"set(['/home/goshawk/web2py/applications/milo/', '/home/goshawk/web2py/applications/admin/', '/home/goshawk/web2py/applications/welcome/'])"
p847
asbasbasbag57
(g73
g59
NtRp848
(dp849
g62
(dp850
sg71
g822
sg64
(lp851
g57
(g78
g59
NtRp852
(dp853
g62
(dp854
g82
g83
ssg71
g848
sg64
(lp855
S'applications_parent'
p856
asbag57
(g78
g59
NtRp857
(dp858
g62
(dp859
g89
g90
ssg71
g848
sg64
(lp860
S':'
asbag57
(g78
g59
NtRp861
(dp862
g62
(dp863
sg71
g848
sg64
(lp864
g57
(g58
g59
NtRp865
(dp866
g62
(dp867
g70
I4
ssg71
g861
sg64
(lp868
S'/home/goshawk/web2py'
p869
asbasbasbag57
(g73
g59
NtRp870
(dp871
g62
(dp872
sg71
g822
sg64
(lp873
g57
(g78
g59
NtRp874
(dp875
g62
(dp876
g82
g83
ssg71
g870
sg64
(lp877
S'cmd_args'
p878
asbag57
(g78
g59
NtRp879
(dp880
g62
(dp881
g89
g90
ssg71
g870
sg64
(lp882
S':'
asbag57
(g78
g59
NtRp883
(dp884
g62
(dp885
sg71
g870
sg64
(lp886
g57
(g58
g59
NtRp887
(dp888
g62
(dp889
g70
I4
ssg71
g883
sg64
(lp890
g57
(g66
g59
NtRp891
(dp892
g62
(dp893
g70
I3
ssg71
Nsg64
(lp894
sbasbasbasbag57
(g73
g59
NtRp895
(dp896
g62
(dp897
sg71
g822
sg64
(lp898
g57
(g78
g59
NtRp899
(dp900
g62
(dp901
g82
g83
ssg71
g895
sg64
(lp902
S'cmd_options'
p903
asbag57
(g78
g59
NtRp904
(dp905
g62
(dp906
g89
g90
ssg71
g895
sg64
(lp907
S':'
asbag57
(g78
g59
NtRp908
(dp909
g62
(dp910
sg71
g895
sg64
(lp911
g57
(g58
g59
NtRp912
(dp913
g62
(dp914
g70
I4
ssg71
g908
sg64
(lp915
S"<Values at 0x22f8b48: {'verbose': False, 'ip': '127.0.0.1', 'shutdown_timeout': 5, 'taskbar': False, 'nocron': False, 'pid_filename': 'httpserver.pid', 'maxthreads': None, 'softcron': False, 'server_name': 'whisperer', 'bpython': False, 'nogui': False, 'port': 8000, 'extcron': False, 'debuglevel': 30, 'test': None, 'folder': '/home/goshawk/web2py', 'config': '', 'import_models': False, 'winservice': '', 'shell': None, 'run': '', 'log_filename': 'httpserver.log', 'args': [''], 'socket_timeout': 5, 'ssl_ca_certificate': None, 'scheduler': None, 'profiler_filename': None, 'ssl_private_key': '', 'password': 'admin', 'request_queue_size': 5, 'ssl_certificate': '', 'cronjob': False, 'numthreads': None, 'quiet': False, 'interfaces': None, 'minthreads': None, 'timeout': 10, 'plain': False, 'nobanner': False}>"
p916
asbasbasbag57
(g73
g59
NtRp917
(dp918
g62
(dp919
sg71
g822
sg64
(lp920
g57
(g78
g59
NtRp921
(dp922
g62
(dp923
g82
g83
ssg71
g917
sg64
(lp924
S'db_sessions'
p925
asbag57
(g78
g59
NtRp926
(dp927
g62
(dp928
g89
g90
ssg71
g917
sg64
(lp929
S':'
asbag57
(g78
g59
NtRp930
(dp931
g62
(dp932
sg71
g917
sg64
(lp933
g57
(g58
g59
NtRp934
(dp935
g62
(dp936
g70
I4
ssg71
g930
sg64
(lp937
S'set([])'
p938
asbasbasbag57
(g73
g59
NtRp939
(dp940
g62
(dp941
sg71
g822
sg64
(lp942
g57
(g78
g59
NtRp943
(dp944
g62
(dp945
g82
g83
ssg71
g939
sg64
(lp946
S'debugging'
p947
asbag57
(g78
g59
NtRp948
(dp949
g62
(dp950
g89
g90
ssg71
g939
sg64
(lp951
S':'
asbag57
(g78
g59
NtRp952
(dp953
g62
(dp954
sg71
g939
sg64
(lp955
g57
(g58
g59
NtRp956
(dp957
g62
(dp958
g70
I4
ssg71
g952
sg64
(lp959
g100
asbasbasbag57
(g73
g59
NtRp960
(dp961
g62
(dp962
sg71
g822
sg64
(lp963
g57
(g78
g59
NtRp964
(dp965
g62
(dp966
g82
g83
ssg71
g960
sg64
(lp967
S'gluon_parent'
p968
asbag57
(g78
g59
NtRp969
(dp970
g62
(dp971
g89
g90
ssg71
g960
sg64
(lp972
S':'
asbag57
(g78
g59
NtRp973
(dp974
g62
(dp975
sg71
g960
sg64
(lp976
g57
(g58
g59
NtRp977
(dp978
g62
(dp979
g70
I4
ssg71
g973
sg64
(lp980
S'/home/goshawk/web2py'
p981
asbasbasbag57
(g73
g59
NtRp982
(dp983
g62
(dp984
sg71
g822
sg64
(lp985
g57
(g78
g59
NtRp986
(dp987
g62
(dp988
g82
g83
ssg71
g982
sg64
(lp989
S'http_accept'
p990
asbag57
(g78
g59
NtRp991
(dp992
g62
(dp993
g89
g90
ssg71
g982
sg64
(lp994
S':'
asbag57
(g78
g59
NtRp995
(dp996
g62
(dp997
sg71
g982
sg64
(lp998
g57
(g58
g59
NtRp999
(dp1000
g62
(dp1001
g70
I4
ssg71
g995
sg64
(lp1002
S'text/html,application/xhtml+xml,application/xml;q=0.9,*/*;q=0.8'
p1003
asbasbasbag57
(g73
g59
NtRp1004
(dp1005
g62
(dp1006
sg71
g822
sg64
(lp1007
g57
(g78
g59
NtRp1008
(dp1009
g62
(dp1010
g82
g83
ssg71
g1004
sg64
(lp1011
S'http_accept_charset'
p1012
asbag57
(g78
g59
NtRp1013
(dp1014
g62
(dp1015
g89
g90
ssg71
g1004
sg64
(lp1016
S':'
asbag57
(g78
g59
NtRp1017
(dp1018
g62
(dp1019
sg71
g1004
sg64
(lp1020
g57
(g58
g59
NtRp1021
(dp1022
g62
(dp1023
g70
I4
ssg71
g1017
sg64
(lp1024
S'ISO-8859-1,utf-8;q=0.7,*;q=0.3'
p1025
asbasbasbag57
(g73
g59
NtRp1026
(dp1027
g62
(dp1028
sg71
g822
sg64
(lp1029
g57
(g78
g59
NtRp1030
(dp1031
g62
(dp1032
g82
g83
ssg71
g1026
sg64
(lp1033
S'http_accept_encoding'
p1034
asbag57
(g78
g59
NtRp1035
(dp1036
g62
(dp1037
g89
g90
ssg71
g1026
sg64
(lp1038
S':'
asbag57
(g78
g59
NtRp1039
(dp1040
g62
(dp1041
sg71
g1026
sg64
(lp1042
g57
(g58
g59
NtRp1043
(dp1044
g62
(dp1045
g70
I4
ssg71
g1039
sg64
(lp1046
S'gzip,deflate,sdch'
p1047
asbasbasbag57
(g73
g59
NtRp1048
(dp1049
g62
(dp1050
sg71
g822
sg64
(lp1051
g57
(g78
g59
NtRp1052
(dp1053
g62
(dp1054
g82
g83
ssg71
g1048
sg64
(lp1055
S'http_accept_language'
p1056
asbag57
(g78
g59
NtRp1057
(dp1058
g62
(dp1059
g89
g90
ssg71
g1048
sg64
(lp1060
S':'
asbag57
(g78
g59
NtRp1061
(dp1062
g62
(dp1063
sg71
g1048
sg64
(lp1064
g57
(g58
g59
NtRp1065
(dp1066
g62
(dp1067
g70
I4
ssg71
g1061
sg64
(lp1068
S'en-US,en;q=0.8'
p1069
asbasbasbag57
(g73
g59
NtRp1070
(dp1071
g62
(dp1072
sg71
g822
sg64
(lp1073
g57
(g78
g59
NtRp1074
(dp1075
g62
(dp1076
g82
g83
ssg71
g1070
sg64
(lp1077
S'http_connection'
p1078
asbag57
(g78
g59
NtRp1079
(dp1080
g62
(dp1081
g89
g90
ssg71
g1070
sg64
(lp1082
S':'
asbag57
(g78
g59
NtRp1083
(dp1084
g62
(dp1085
sg71
g1070
sg64
(lp1086
g57
(g58
g59
NtRp1087
(dp1088
g62
(dp1089
g70
I4
ssg71
g1083
sg64
(lp1090
S'keep-alive'
p1091
asbasbasbag57
(g73
g59
NtRp1092
(dp1093
g62
(dp1094
sg71
g822
sg64
(lp1095
g57
(g78
g59
NtRp1096
(dp1097
g62
(dp1098
g82
g83
ssg71
g1092
sg64
(lp1099
S'http_cookie'
p1100
asbag57
(g78
g59
NtRp1101
(dp1102
g62
(dp1103
g89
g90
ssg71
g1092
sg64
(lp1104
S':'
asbag57
(g78
g59
NtRp1105
(dp1106
g62
(dp1107
sg71
g1092
sg64
(lp1108
g57
(g58
g59
NtRp1109
(dp1110
g62
(dp1111
g70
I4
ssg71
g1105
sg64
(lp1112
S'session_id_welcome=127.0.0.1-96d72ece-52aa-4589-9852-f80d2f4ef559; session_id_milo=127.0.0.1-4a464e0e-f0b9-4de3-b8af-e6a04346340f; session_id_admin=127.0.0.1-f49b6a8c-7123-4e75-a38c-23d417752286'
p1113
asbasbasbag57
(g73
g59
NtRp1114
(dp1115
g62
(dp1116
sg71
g822
sg64
(lp1117
g57
(g78
g59
NtRp1118
(dp1119
g62
(dp1120
g82
g83
ssg71
g1114
sg64
(lp1121
S'http_host'
p1122
asbag57
(g78
g59
NtRp1123
(dp1124
g62
(dp1125
g89
g90
ssg71
g1114
sg64
(lp1126
S':'
asbag57
(g78
g59
NtRp1127
(dp1128
g62
(dp1129
sg71
g1114
sg64
(lp1130
g57
(g58
g59
NtRp1131
(dp1132
g62
(dp1133
g70
I4
ssg71
g1127
sg64
(lp1134
S'127.0.0.1:8000'
p1135
asbasbasbag57
(g73
g59
NtRp1136
(dp1137
g62
(dp1138
sg71
g822
sg64
(lp1139
g57
(g78
g59
NtRp1140
(dp1141
g62
(dp1142
g82
g83
ssg71
g1136
sg64
(lp1143
S'http_referer'
p1144
asbag57
(g78
g59
NtRp1145
(dp1146
g62
(dp1147
g89
g90
ssg71
g1136
sg64
(lp1148
S':'
asbag57
(g78
g59
NtRp1149
(dp1150
g62
(dp1151
sg71
g1136
sg64
(lp1152
g57
(g58
g59
NtRp1153
(dp1154
g62
(dp1155
g70
I4
ssg71
g1149
sg64
(lp1156
S'http://127.0.0.1:8000/admin/default/site'
p1157
asbasbasbag57
(g73
g59
NtRp1158
(dp1159
g62
(dp1160
sg71
g822
sg64
(lp1161
g57
(g78
g59
NtRp1162
(dp1163
g62
(dp1164
g82
g83
ssg71
g1158
sg64
(lp1165
S'http_user_agent'
p1166
asbag57
(g78
g59
NtRp1167
(dp1168
g62
(dp1169
g89
g90
ssg71
g1158
sg64
(lp1170
S':'
asbag57
(g78
g59
NtRp1171
(dp1172
g62
(dp1173
sg71
g1158
sg64
(lp1174
g57
(g58
g59
NtRp1175
(dp1176
g62
(dp1177
g70
I4
ssg71
g1171
sg64
(lp1178
S'Mozilla/5.0 (X11; Linux x86_64) AppleWebKit/535.19 (KHTML, like Gecko) Ubuntu/12.04 Chromium/18.0.1025.151 Chrome/18.0.1025.151 Safari/535.19'
p1179
asbasbasbag57
(g73
g59
NtRp1180
(dp1181
g62
(dp1182
sg71
g822
sg64
(lp1183
g57
(g78
g59
NtRp1184
(dp1185
g62
(dp1186
g82
g83
ssg71
g1180
sg64
(lp1187
S'is_jython'
p1188
asbag57
(g78
g59
NtRp1189
(dp1190
g62
(dp1191
g89
g90
ssg71
g1180
sg64
(lp1192
S':'
asbag57
(g78
g59
NtRp1193
(dp1194
g62
(dp1195
sg71
g1180
sg64
(lp1196
g57
(g58
g59
NtRp1197
(dp1198
g62
(dp1199
g70
I4
ssg71
g1193
sg64
(lp1200
g100
asbasbasbag57
(g73
g59
NtRp1201
(dp1202
g62
(dp1203
sg71
g822
sg64
(lp1204
g57
(g78
g59
NtRp1205
(dp1206
g62
(dp1207
g82
g83
ssg71
g1201
sg64
(lp1208
S'is_pypy'
p1209
asbag57
(g78
g59
NtRp1210
(dp1211
g62
(dp1212
g89
g90
ssg71
g1201
sg64
(lp1213
S':'
asbag57
(g78
g59
NtRp1214
(dp1215
g62
(dp1216
sg71
g1201
sg64
(lp1217
g57
(g58
g59
NtRp1218
(dp1219
g62
(dp1220
g70
I4
ssg71
g1214
sg64
(lp1221
g100
asbasbasbag57
(g73
g59
NtRp1222
(dp1223
g62
(dp1224
sg71
g822
sg64
(lp1225
g57
(g78
g59
NtRp1226
(dp1227
g62
(dp1228
g82
g83
ssg71
g1222
sg64
(lp1229
S'path_info'
p1230
asbag57
(g78
g59
NtRp1231
(dp1232
g62
(dp1233
g89
g90
ssg71
g1222
sg64
(lp1234
S':'
asbag57
(g78
g59
NtRp1235
(dp1236
g62
(dp1237
sg71
g1222
sg64
(lp1238
g57
(g58
g59
NtRp1239
(dp1240
g62
(dp1241
g70
I4
ssg71
g1235
sg64
(lp1242
S'/milo/default/index'
p1243
asbasbasbag57
(g73
g59
NtRp1244
(dp1245
g62
(dp1246
sg71
g822
sg64
(lp1247
g57
(g78
g59
NtRp1248
(dp1249
g62
(dp1250
g82
g83
ssg71
g1244
sg64
(lp1251
S'query_string'
p1252
asbag57
(g78
g59
NtRp1253
(dp1254
g62
(dp1255
g89
g90
ssg71
g1244
sg64
(lp1256
S':'
asbag57
(g78
g59
NtRp1257
(dp1258
g62
(dp1259
sg71
g1244
sg64
(lp1260
g57
(g58
g59
NtRp1261
(dp1262
g62
(dp1263
g70
I4
ssg71
g1257
sg64
(lp1264
S''
asbasbasbag57
(g73
g59
NtRp1265
(dp1266
g62
(dp1267
sg71
g822
sg64
(lp1268
g57
(g78
g59
NtRp1269
(dp1270
g62
(dp1271
g82
g83
ssg71
g1265
sg64
(lp1272
S'remote_addr'
p1273
asbag57
(g78
g59
NtRp1274
(dp1275
g62
(dp1276
g89
g90
ssg71
g1265
sg64
(lp1277
S':'
asbag57
(g78
g59
NtRp1278
(dp1279
g62
(dp1280
sg71
g1265
sg64
(lp1281
g57
(g58
g59
NtRp1282
(dp1283
g62
(dp1284
g70
I4
ssg71
g1278
sg64
(lp1285
g190
asbasbasbag57
(g73
g59
NtRp1286
(dp1287
g62
(dp1288
sg71
g822
sg64
(lp1289
g57
(g78
g59
NtRp1290
(dp1291
g62
(dp1292
g82
g83
ssg71
g1286
sg64
(lp1293
S'remote_port'
p1294
asbag57
(g78
g59
NtRp1295
(dp1296
g62
(dp1297
g89
g90
ssg71
g1286
sg64
(lp1298
S':'
asbag57
(g78
g59
NtRp1299
(dp1300
g62
(dp1301
sg71
g1286
sg64
(lp1302
g57
(g58
g59
NtRp1303
(dp1304
g62
(dp1305
g70
I4
ssg71
g1299
sg64
(lp1306
S'55545'
p1307
asbasbasbag57
(g73
g59
NtRp1308
(dp1309
g62
(dp1310
sg71
g822
sg64
(lp1311
g57
(g78
g59
NtRp1312
(dp1313
g62
(dp1314
g82
g83
ssg71
g1308
sg64
(lp1315
S'request_method'
p1316
asbag57
(g78
g59
NtRp1317
(dp1318
g62
(dp1319
g89
g90
ssg71
g1308
sg64
(lp1320
S':'
asbag57
(g78
g59
NtRp1321
(dp1322
g62
(dp1323
sg71
g1308
sg64
(lp1324
g57
(g58
g59
NtRp1325
(dp1326
g62
(dp1327
g70
I4
ssg71
g1321
sg64
(lp1328
S'GET'
p1329
asbasbasbag57
(g73
g59
NtRp1330
(dp1331
g62
(dp1332
sg71
g822
sg64
(lp1333
g57
(g78
g59
NtRp1334
(dp1335
g62
(dp1336
g82
g83
ssg71
g1330
sg64
(lp1337
S'request_uri'
p1338
asbag57
(g78
g59
NtRp1339
(dp1340
g62
(dp1341
g89
g90
ssg71
g1330
sg64
(lp1342
S':'
asbag57
(g78
g59
NtRp1343
(dp1344
g62
(dp1345
sg71
g1330
sg64
(lp1346
g57
(g58
g59
NtRp1347
(dp1348
g62
(dp1349
g70
I4
ssg71
g1343
sg64
(lp1350
g1243
asbasbasbag57
(g73
g59
NtRp1351
(dp1352
g62
(dp1353
sg71
g822
sg64
(lp1354
g57
(g78
g59
NtRp1355
(dp1356
g62
(dp1357
g82
g83
ssg71
g1351
sg64
(lp1358
S'script_name'
p1359
asbag57
(g78
g59
NtRp1360
(dp1361
g62
(dp1362
g89
g90
ssg71
g1351
sg64
(lp1363
S':'
asbag57
(g78
g59
NtRp1364
(dp1365
g62
(dp1366
sg71
g1351
sg64
(lp1367
g57
(g58
g59
NtRp1368
(dp1369
g62
(dp1370
g70
I4
ssg71
g1364
sg64
(lp1371
S''
asbasbasbag57
(g73
g59
NtRp1372
(dp1373
g62
(dp1374
sg71
g822
sg64
(lp1375
g57
(g78
g59
NtRp1376
(dp1377
g62
(dp1378
g82
g83
ssg71
g1372
sg64
(lp1379
S'server_name'
p1380
asbag57
(g78
g59
NtRp1381
(dp1382
g62
(dp1383
g89
g90
ssg71
g1372
sg64
(lp1384
S':'
asbag57
(g78
g59
NtRp1385
(dp1386
g62
(dp1387
sg71
g1372
sg64
(lp1388
g57
(g58
g59
NtRp1389
(dp1390
g62
(dp1391
g70
I4
ssg71
g1385
sg64
(lp1392
S'whisperer'
p1393
asbasbasbag57
(g73
g59
NtRp1394
(dp1395
g62
(dp1396
sg71
g822
sg64
(lp1397
g57
(g78
g59
NtRp1398
(dp1399
g62
(dp1400
g82
g83
ssg71
g1394
sg64
(lp1401
S'server_port'
p1402
asbag57
(g78
g59
NtRp1403
(dp1404
g62
(dp1405
g89
g90
ssg71
g1394
sg64
(lp1406
S':'
asbag57
(g78
g59
NtRp1407
(dp1408
g62
(dp1409
sg71
g1394
sg64
(lp1410
g57
(g58
g59
NtRp1411
(dp1412
g62
(dp1413
g70
I4
ssg71
g1407
sg64
(lp1414
S'8000'
p1415
asbasbasbag57
(g73
g59
NtRp1416
(dp1417
g62
(dp1418
sg71
g822
sg64
(lp1419
g57
(g78
g59
NtRp1420
(dp1421
g62
(dp1422
g82
g83
ssg71
g1416
sg64
(lp1423
S'server_protocol'
p1424
asbag57
(g78
g59
NtRp1425
(dp1426
g62
(dp1427
g89
g90
ssg71
g1416
sg64
(lp1428
S':'
asbag57
(g78
g59
NtRp1429
(dp1430
g62
(dp1431
sg71
g1416
sg64
(lp1432
g57
(g58
g59
NtRp1433
(dp1434
g62
(dp1435
g70
I4
ssg71
g1429
sg64
(lp1436
S'HTTP/1.1'
p1437
asbasbasbag57
(g73
g59
NtRp1438
(dp1439
g62
(dp1440
sg71
g822
sg64
(lp1441
g57
(g78
g59
NtRp1442
(dp1443
g62
(dp1444
g82
g83
ssg71
g1438
sg64
(lp1445
S'server_software'
p1446
asbag57
(g78
g59
NtRp1447
(dp1448
g62
(dp1449
g89
g90
ssg71
g1438
sg64
(lp1450
S':'
asbag57
(g78
g59
NtRp1451
(dp1452
g62
(dp1453
sg71
g1438
sg64
(lp1454
g57
(g58
g59
NtRp1455
(dp1456
g62
(dp1457
g70
I4
ssg71
g1451
sg64
(lp1458
S'Rocket 1.2.4'
p1459
asbasbasbag57
(g73
g59
NtRp1460
(dp1461
g62
(dp1462
sg71
g822
sg64
(lp1463
g57
(g78
g59
NtRp1464
(dp1465
g62
(dp1466
g82
g83
ssg71
g1460
sg64
(lp1467
S'web2py_crontype'
p1468
asbag57
(g78
g59
NtRp1469
(dp1470
g62
(dp1471
g89
g90
ssg71
g1460
sg64
(lp1472
S':'
asbag57
(g78
g59
NtRp1473
(dp1474
g62
(dp1475
sg71
g1460
sg64
(lp1476
g57
(g58
g59
NtRp1477
(dp1478
g62
(dp1479
g70
I4
ssg71
g1473
sg64
(lp1480
S'hard'
p1481
asbasbasbag57
(g73
g59
NtRp1482
(dp1483
g62
(dp1484
sg71
g822
sg64
(lp1485
g57
(g78
g59
NtRp1486
(dp1487
g62
(dp1488
g82
g83
ssg71
g1482
sg64
(lp1489
S'web2py_original_uri'
p1490
asbag57
(g78
g59
NtRp1491
(dp1492
g62
(dp1493
g89
g90
ssg71
g1482
sg64
(lp1494
S':'
asbag57
(g78
g59
NtRp1495
(dp1496
g62
(dp1497
sg71
g1482
sg64
(lp1498
g57
(g58
g59
NtRp1499
(dp1500
g62
(dp1501
g70
I4
ssg71
g1495
sg64
(lp1502
g1243
asbasbasbag57
(g73
g59
NtRp1503
(dp1504
g62
(dp1505
sg71
g822
sg64
(lp1506
g57
(g78
g59
NtRp1507
(dp1508
g62
(dp1509
g82
g83
ssg71
g1503
sg64
(lp1510
S'web2py_path'
p1511
asbag57
(g78
g59
NtRp1512
(dp1513
g62
(dp1514
g89
g90
ssg71
g1503
sg64
(lp1515
S':'
asbag57
(g78
g59
NtRp1516
(dp1517
g62
(dp1518
sg71
g1503
sg64
(lp1519
g57
(g58
g59
NtRp1520
(dp1521
g62
(dp1522
g70
I4
ssg71
g1516
sg64
(lp1523
g869
asbasbasbag57
(g73
g59
NtRp1524
(dp1525
g62
(dp1526
sg71
g822
sg64
(lp1527
g57
(g78
g59
NtRp1528
(dp1529
g62
(dp1530
g82
g83
ssg71
g1524
sg64
(lp1531
S'web2py_version'
p1532
asbag57
(g78
g59
NtRp1533
(dp1534
g62
(dp1535
g89
g90
ssg71
g1524
sg64
(lp1536
S':'
asbag57
(g78
g59
NtRp1537
(dp1538
g62
(dp1539
sg71
g1524
sg64
(lp1540
g57
(g58
g59
NtRp1541
(dp1542
g62
(dp1543
g70
I4
ssg71
g1537
sg64
(lp1544
g57
(g66
g59
NtRp1545
(dp1546
g62
(dp1547
g70
I3
ssg71
Nsg64
(lp1548
g57
(g73
g59
NtRp1549
(dp1550
g62
(dp1551
sg71
g1545
sg64
(lp1552
g57
(g78
g59
NtRp1553
(dp1554
g62
(dp1555
sg71
g1549
sg64
(lp1556
g57
(g58
g59
NtRp1557
(dp1558
g62
(dp1559
g70
I3
ssg71
g1553
sg64
(lp1560
S'1'
asbasbasbag57
(g73
g59
NtRp1561
(dp1562
g62
(dp1563
sg71
g1545
sg64
(lp1564
g57
(g78
g59
NtRp1565
(dp1566
g62
(dp1567
sg71
g1561
sg64
(lp1568
g57
(g58
g59
NtRp1569
(dp1570
g62
(dp1571
g70
I3
ssg71
g1565
sg64
(lp1572
S'99'
p1573
asbasbasbag57
(g73
g59
NtRp1574
(dp1575
g62
(dp1576
sg71
g1545
sg64
(lp1577
g57
(g78
g59
NtRp1578
(dp1579
g62
(dp1580
sg71
g1574
sg64
(lp1581
g57
(g58
g59
NtRp1582
(dp1583
g62
(dp1584
g70
I3
ssg71
g1578
sg64
(lp1585
S'7'
asbasbasbag57
(g73
g59
NtRp1586
(dp1587
g62
(dp1588
sg71
g1545
sg64
(lp1589
g57
(g78
g59
NtRp1590
(dp1591
g62
(dp1592
sg71
g1586
sg64
(lp1593
g57
(g58
g59
NtRp1594
(dp1595
g62
(dp1596
g70
I3
ssg71
g1590
sg64
(lp1597
S'datetime.datetime(2012, 3, 4, 22, 12, 8)'
p1598
asbasbasbag57
(g73
g59
NtRp1599
(dp1600
g62
(dp1601
sg71
g1545
sg64
(lp1602
g57
(g78
g59
NtRp1603
(dp1604
g62
(dp1605
sg71
g1599
sg64
(lp1606
g57
(g58
g59
NtRp1607
(dp1608
g62
(dp1609
g70
I3
ssg71
g1603
sg64
(lp1610
S'stable'
p1611
asbasbasbasbasbasbasbag57
(g73
g59
NtRp1612
(dp1613
g62
(dp1614
sg71
g822
sg64
(lp1615
g57
(g78
g59
NtRp1616
(dp1617
g62
(dp1618
g82
g83
ssg71
g1612
sg64
(lp1619
S'wsgi_errors'
p1620
asbag57
(g78
g59
NtRp1621
(dp1622
g62
(dp1623
g89
g90
ssg71
g1612
sg64
(lp1624
S':'
asbag57
(g78
g59
NtRp1625
(dp1626
g62
(dp1627
sg71
g1612
sg64
(lp1628
g57
(g58
g59
NtRp1629
(dp1630
g62
(dp1631
g70
I4
ssg71
g1625
sg64
(lp1632
S"<open file '<stderr>', mode 'w' at 0x7fe3d5536270>"
p1633
asbasbasbag57
(g73
g59
NtRp1634
(dp1635
g62
(dp1636
sg71
g822
sg64
(lp1637
g57
(g78
g59
NtRp1638
(dp1639
g62
(dp1640
g82
g83
ssg71
g1634
sg64
(lp1641
S'wsgi_file_wrapper'
p1642
asbag57
(g78
g59
NtRp1643
(dp1644
g62
(dp1645
g89
g90
ssg71
g1634
sg64
(lp1646
S':'
asbag57
(g78
g59
NtRp1647
(dp1648
g62
(dp1649
sg71
g1634
sg64
(lp1650
g57
(g58
g59
NtRp1651
(dp1652
g62
(dp1653
g70
I4
ssg71
g1647
sg64
(lp1654
S'<class wsgiref.util.FileWrapper at 0x222bf58>'
p1655
asbasbasbag57
(g73
g59
NtRp1656
(dp1657
g62
(dp1658
sg71
g822
sg64
(lp1659
g57
(g78
g59
NtRp1660
(dp1661
g62
(dp1662
g82
g83
ssg71
g1656
sg64
(lp1663
S'wsgi_input'
p1664
asbag57
(g78
g59
NtRp1665
(dp1666
g62
(dp1667
g89
g90
ssg71
g1656
sg64
(lp1668
S':'
asbag57
(g78
g59
NtRp1669
(dp1670
g62
(dp1671
sg71
g1656
sg64
(lp1672
g57
(g58
g59
NtRp1673
(dp1674
g62
(dp1675
g70
I4
ssg71
g1669
sg64
(lp1676
S'<socket._fileobject object at 0x7fe3c0737250>'
p1677
asbasbasbag57
(g73
g59
NtRp1678
(dp1679
g62
(dp1680
sg71
g822
sg64
(lp1681
g57
(g78
g59
NtRp1682
(dp1683
g62
(dp1684
g82
g83
ssg71
g1678
sg64
(lp1685
S'wsgi_multiprocess'
p1686
asbag57
(g78
g59
NtRp1687
(dp1688
g62
(dp1689
g89
g90
ssg71
g1678
sg64
(lp1690
S':'
asbag57
(g78
g59
NtRp1691
(dp1692
g62
(dp1693
sg71
g1678
sg64
(lp1694
g57
(g58
g59
NtRp1695
(dp1696
g62
(dp1697
g70
I4
ssg71
g1691
sg64
(lp1698
g100
asbasbasbag57
(g73
g59
NtRp1699
(dp1700
g62
(dp1701
sg71
g822
sg64
(lp1702
g57
(g78
g59
NtRp1703
(dp1704
g62
(dp1705
g82
g83
ssg71
g1699
sg64
(lp1706
S'wsgi_multithread'
p1707
asbag57
(g78
g59
NtRp1708
(dp1709
g62
(dp1710
g89
g90
ssg71
g1699
sg64
(lp1711
S':'
asbag57
(g78
g59
NtRp1712
(dp1713
g62
(dp1714
sg71
g1699
sg64
(lp1715
g57
(g58
g59
NtRp1716
(dp1717
g62
(dp1718
g70
I4
ssg71
g1712
sg64
(lp1719
S'True'
p1720
asbasbasbag57
(g73
g59
NtRp1721
(dp1722
g62
(dp1723
sg71
g822
sg64
(lp1724
g57
(g78
g59
NtRp1725
(dp1726
g62
(dp1727
g82
g83
ssg71
g1721
sg64
(lp1728
S'wsgi_run_once'
p1729
asbag57
(g78
g59
NtRp1730
(dp1731
g62
(dp1732
g89
g90
ssg71
g1721
sg64
(lp1733
S':'
asbag57
(g78
g59
NtRp1734
(dp1735
g62
(dp1736
sg71
g1721
sg64
(lp1737
g57
(g58
g59
NtRp1738
(dp1739
g62
(dp1740
g70
I4
ssg71
g1734
sg64
(lp1741
g100
asbasbasbag57
(g73
g59
NtRp1742
(dp1743
g62
(dp1744
sg71
g822
sg64
(lp1745
g57
(g78
g59
NtRp1746
(dp1747
g62
(dp1748
g82
g83
ssg71
g1742
sg64
(lp1749
S'wsgi_url_scheme'
p1750
asbag57
(g78
g59
NtRp1751
(dp1752
g62
(dp1753
g89
g90
ssg71
g1742
sg64
(lp1754
S':'
asbag57
(g78
g59
NtRp1755
(dp1756
g62
(dp1757
sg71
g1742
sg64
(lp1758
g57
(g58
g59
NtRp1759
(dp1760
g62
(dp1761
g70
I4
ssg71
g1755
sg64
(lp1762
S'http'
p1763
asbasbasbag57
(g73
g59
NtRp1764
(dp1765
g62
(dp1766
sg71
g822
sg64
(lp1767
g57
(g78
g59
NtRp1768
(dp1769
g62
(dp1770
g82
g83
ssg71
g1764
sg64
(lp1771
S'wsgi_version'
p1772
asbag57
(g78
g59
NtRp1773
(dp1774
g62
(dp1775
g89
g90
ssg71
g1764
sg64
(lp1776
S':'
asbag57
(g78
g59
NtRp1777
(dp1778
g62
(dp1779
sg71
g1764
sg64
(lp1780
g57
(g58
g59
NtRp1781
(dp1782
g62
(dp1783
g70
I4
ssg71
g1777
sg64
(lp1784
g57
(g66
g59
NtRp1785
(dp1786
g62
(dp1787
g70
I3
ssg71
Nsg64
(lp1788
g57
(g73
g59
NtRp1789
(dp1790
g62
(dp1791
sg71
g1785
sg64
(lp1792
g57
(g78
g59
NtRp1793
(dp1794
g62
(dp1795
sg71
g1789
sg64
(lp1796
g57
(g58
g59
NtRp1797
(dp1798
g62
(dp1799
g70
I3
ssg71
g1793
sg64
(lp1800
S'1'
asbasbasbag57
(g73
g59
NtRp1801
(dp1802
g62
(dp1803
sg71
g1785
sg64
(lp1804
g57
(g78
g59
NtRp1805
(dp1806
g62
(dp1807
sg71
g1801
sg64
(lp1808
g57
(g58
g59
NtRp1809
(dp1810
g62
(dp1811
g70
I3
ssg71
g1805
sg64
(lp1812
S'0'
asbasbasbasbasbasbasbasbasbasbasbag57
(g73
g59
NtRp1813
(dp1814
g62
(dp1815
sg71
g67
sg64
(lp1816
g57
(g78
g59
NtRp1817
(dp1818
g62
(dp1819
g82
g83
ssg71
g1813
sg64
(lp1820
S'extension'
p1821
asbag57
(g78
g59
NtRp1822
(dp1823
g62
(dp1824
g89
g90
ssg71
g1813
sg64
(lp1825
S':'
asbag57
(g78
g59
NtRp1826
(dp1827
g62
(dp1828
sg71
g1813
sg64
(lp1829
g57
(g58
g59
NtRp1830
(dp1831
g62
(dp1832
g70
I5
ssg71
g1826
sg64
(lp1833
S'html'
p1834
asbasbasbag57
(g73
g59
NtRp1835
(dp1836
g62
(dp1837
sg71
g67
sg64
(lp1838
g57
(g78
g59
NtRp1839
(dp1840
g62
(dp1841
g82
g83
ssg71
g1835
sg64
(lp1842
S'folder'
p1843
asbag57
(g78
g59
NtRp1844
(dp1845
g62
(dp1846
g89
g90
ssg71
g1835
sg64
(lp1847
S':'
asbag57
(g78
g59
NtRp1848
(dp1849
g62
(dp1850
sg71
g1835
sg64
(lp1851
g57
(g58
g59
NtRp1852
(dp1853
g62
(dp1854
g70
I5
ssg71
g1848
sg64
(lp1855
S'/home/goshawk/web2py/applications/milo/'
p1856
asbasbasbag57
(g73
g59
NtRp1857
(dp1858
g62
(dp1859
sg71
g67
sg64
(lp1860
g57
(g78
g59
NtRp1861
(dp1862
g62
(dp1863
g82
g83
ssg71
g1857
sg64
(lp1864
S'function'
p1865
asbag57
(g78
g59
NtRp1866
(dp1867
g62
(dp1868
g89
g90
ssg71
g1857
sg64
(lp1869
S':'
asbag57
(g78
g59
NtRp1870
(dp1871
g62
(dp1872
sg71
g1857
sg64
(lp1873
g57
(g58
g59
NtRp1874
(dp1875
g62
(dp1876
g70
I5
ssg71
g1870
sg64
(lp1877
S'index'
p1878
asbasbasbag57
(g73
g59
NtRp1879
(dp1880
g62
(dp1881
sg71
g67
sg64
(lp1882
g57
(g78
g59
NtRp1883
(dp1884
g62
(dp1885
g82
g83
ssg71
g1879
sg64
(lp1886
S'get_vars'
p1887
asbag57
(g78
g59
NtRp1888
(dp1889
g62
(dp1890
g89
g90
ssg71
g1879
sg64
(lp1891
S':'
asbag57
(g78
g59
NtRp1892
(dp1893
g62
(dp1894
sg71
g1879
sg64
(lp1895
g57
(g58
g59
NtRp1896
(dp1897
g62
(dp1898
g70
I5
ssg71
g1892
sg64
(lp1899
g57
(g66
g59
NtRp1900
(dp1901
g62
(dp1902
g70
I4
ssg71
Nsg64
(lp1903
sbasbasbasbag57
(g73
g59
NtRp1904
(dp1905
g62
(dp1906
sg71
g67
sg64
(lp1907
g57
(g78
g59
NtRp1908
(dp1909
g62
(dp1910
g82
g83
ssg71
g1904
sg64
(lp1911
S'global_settings'
p1912
asbag57
(g78
g59
NtRp1913
(dp1914
g62
(dp1915
g89
g90
ssg71
g1904
sg64
(lp1916
S':'
asbag57
(g78
g59
NtRp1917
(dp1918
g62
(dp1919
sg71
g1904
sg64
(lp1920
g57
(g58
g59
NtRp1921
(dp1922
g62
(dp1923
g70
I5
ssg71
g1917
sg64
(lp1924
g57
(g66
g59
NtRp1925
(dp1926
g62
(dp1927
g70
I4
ssg71
Nsg64
(lp1928
g57
(g73
g59
NtRp1929
(dp1930
g62
(dp1931
sg71
g1925
sg64
(lp1932
g57
(g78
g59
NtRp1933
(dp1934
g62
(dp1935
g82
g83
ssg71
g1929
sg64
(lp1936
g834
asbag57
(g78
g59
NtRp1937
(dp1938
g62
(dp1939
g89
g90
ssg71
g1929
sg64
(lp1940
S':'
asbag57
(g78
g59
NtRp1941
(dp1942
g62
(dp1943
sg71
g1929
sg64
(lp1944
g57
(g58
g59
NtRp1945
(dp1946
g62
(dp1947
g70
I4
ssg71
g1941
sg64
(lp1948
S"set(['/home/goshawk/web2py/applications/milo/', '/home/goshawk/web2py/applications/admin/', '/home/goshawk/web2py/applications/welcome/'])"
p1949
asbasbasbag57
(g73
g59
NtRp1950
(dp1951
g62
(dp1952
sg71
g1925
sg64
(lp1953
g57
(g78
g59
NtRp1954
(dp1955
g62
(dp1956
g82
g83
ssg71
g1950
sg64
(lp1957
g856
asbag57
(g78
g59
NtRp1958
(dp1959
g62
(dp1960
g89
g90
ssg71
g1950
sg64
(lp1961
S':'
asbag57
(g78
g59
NtRp1962
(dp1963
g62
(dp1964
sg71
g1950
sg64
(lp1965
g57
(g58
g59
NtRp1966
(dp1967
g62
(dp1968
g70
I4
ssg71
g1962
sg64
(lp1969
g869
asbasbasbag57
(g73
g59
NtRp1970
(dp1971
g62
(dp1972
sg71
g1925
sg64
(lp1973
g57
(g78
g59
NtRp1974
(dp1975
g62
(dp1976
g82
g83
ssg71
g1970
sg64
(lp1977
g878
asbag57
(g78
g59
NtRp1978
(dp1979
g62
(dp1980
g89
g90
ssg71
g1970
sg64
(lp1981
S':'
asbag57
(g78
g59
NtRp1982
(dp1983
g62
(dp1984
sg71
g1970
sg64
(lp1985
g57
(g58
g59
NtRp1986
(dp1987
g62
(dp1988
g70
I4
ssg71
g1982
sg64
(lp1989
g57
(g66
g59
NtRp1990
(dp1991
g62
(dp1992
g70
I3
ssg71
Nsg64
(lp1993
sbasbasbasbag57
(g73
g59
NtRp1994
(dp1995
g62
(dp1996
sg71
g1925
sg64
(lp1997
g57
(g78
g59
NtRp1998
(dp1999
g62
(dp2000
g82
g83
ssg71
g1994
sg64
(lp2001
g903
asbag57
(g78
g59
NtRp2002
(dp2003
g62
(dp2004
g89
g90
ssg71
g1994
sg64
(lp2005
S':'
asbag57
(g78
g59
NtRp2006
(dp2007
g62
(dp2008
sg71
g1994
sg64
(lp2009
g57
(g58
g59
NtRp2010
(dp2011
g62
(dp2012
g70
I4
ssg71
g2006
sg64
(lp2013
S"<Values at 0x22f8b48: {'verbose': False, 'ip': '127.0.0.1', 'shutdown_timeout': 5, 'taskbar': False, 'nocron': False, 'pid_filename': 'httpserver.pid', 'maxthreads': None, 'softcron': False, 'server_name': 'whisperer', 'bpython': False, 'nogui': False, 'port': 8000, 'extcron': False, 'debuglevel': 30, 'test': None, 'folder': '/home/goshawk/web2py', 'config': '', 'import_models': False, 'winservice': '', 'shell': None, 'run': '', 'log_filename': 'httpserver.log', 'args': [''], 'socket_timeout': 5, 'ssl_ca_certificate': None, 'scheduler': None, 'profiler_filename': None, 'ssl_private_key': '', 'password': 'admin', 'request_queue_size': 5, 'ssl_certificate': '', 'cronjob': False, 'numthreads': None, 'quiet': False, 'interfaces': None, 'minthreads': None, 'timeout': 10, 'plain': False, 'nobanner': False}>"
p2014
asbasbasbag57
(g73
g59
NtRp2015
(dp2016
g62
(dp2017
sg71
g1925
sg64
(lp2018
g57
(g78
g59
NtRp2019
(dp2020
g62
(dp2021
g82
g83
ssg71
g2015
sg64
(lp2022
g925
asbag57
(g78
g59
NtRp2023
(dp2024
g62
(dp2025
g89
g90
ssg71
g2015
sg64
(lp2026
S':'
asbag57
(g78
g59
NtRp2027
(dp2028
g62
(dp2029
sg71
g2015
sg64
(lp2030
g57
(g58
g59
NtRp2031
(dp2032
g62
(dp2033
g70
I4
ssg71
g2027
sg64
(lp2034
S'set([])'
p2035
asbasbasbag57
(g73
g59
NtRp2036
(dp2037
g62
(dp2038
sg71
g1925
sg64
(lp2039
g57
(g78
g59
NtRp2040
(dp2041
g62
(dp2042
g82
g83
ssg71
g2036
sg64
(lp2043
g947
asbag57
(g78
g59
NtRp2044
(dp2045
g62
(dp2046
g89
g90
ssg71
g2036
sg64
(lp2047
S':'
asbag57
(g78
g59
NtRp2048
(dp2049
g62
(dp2050
sg71
g2036
sg64
(lp2051
g57
(g58
g59
NtRp2052
(dp2053
g62
(dp2054
g70
I4
ssg71
g2048
sg64
(lp2055
g100
asbasbasbag57
(g73
g59
NtRp2056
(dp2057
g62
(dp2058
sg71
g1925
sg64
(lp2059
g57
(g78
g59
NtRp2060
(dp2061
g62
(dp2062
g82
g83
ssg71
g2056
sg64
(lp2063
g968
asbag57
(g78
g59
NtRp2064
(dp2065
g62
(dp2066
g89
g90
ssg71
g2056
sg64
(lp2067
S':'
asbag57
(g78
g59
NtRp2068
(dp2069
g62
(dp2070
sg71
g2056
sg64
(lp2071
g57
(g58
g59
NtRp2072
(dp2073
g62
(dp2074
g70
I4
ssg71
g2068
sg64
(lp2075
g981
asbasbasbag57
(g73
g59
NtRp2076
(dp2077
g62
(dp2078
sg71
g1925
sg64
(lp2079
g57
(g78
g59
NtRp2080
(dp2081
g62
(dp2082
g82
g83
ssg71
g2076
sg64
(lp2083
g1188
asbag57
(g78
g59
NtRp2084
(dp2085
g62
(dp2086
g89
g90
ssg71
g2076
sg64
(lp2087
S':'
asbag57
(g78
g59
NtRp2088
(dp2089
g62
(dp2090
sg71
g2076
sg64
(lp2091
g57
(g58
g59
NtRp2092
(dp2093
g62
(dp2094
g70
I4
ssg71
g2088
sg64
(lp2095
g100
asbasbasbag57
(g73
g59
NtRp2096
(dp2097
g62
(dp2098
sg71
g1925
sg64
(lp2099
g57
(g78
g59
NtRp2100
(dp2101
g62
(dp2102
g82
g83
ssg71
g2096
sg64
(lp2103
g1209
asbag57
(g78
g59
NtRp2104
(dp2105
g62
(dp2106
g89
g90
ssg71
g2096
sg64
(lp2107
S':'
asbag57
(g78
g59
NtRp2108
(dp2109
g62
(dp2110
sg71
g2096
sg64
(lp2111
g57
(g58
g59
NtRp2112
(dp2113
g62
(dp2114
g70
I4
ssg71
g2108
sg64
(lp2115
g100
asbasbasbag57
(g73
g59
NtRp2116
(dp2117
g62
(dp2118
sg71
g1925
sg64
(lp2119
g57
(g78
g59
NtRp2120
(dp2121
g62
(dp2122
g82
g83
ssg71
g2116
sg64
(lp2123
g1468
asbag57
(g78
g59
NtRp2124
(dp2125
g62
(dp2126
g89
g90
ssg71
g2116
sg64
(lp2127
S':'
asbag57
(g78
g59
NtRp2128
(dp2129
g62
(dp2130
sg71
g2116
sg64
(lp2131
g57
(g58
g59
NtRp2132
(dp2133
g62
(dp2134
g70
I4
ssg71
g2128
sg64
(lp2135
g1481
asbasbasbag57
(g73
g59
NtRp2136
(dp2137
g62
(dp2138
sg71
g1925
sg64
(lp2139
g57
(g78
g59
NtRp2140
(dp2141
g62
(dp2142
g82
g83
ssg71
g2136
sg64
(lp2143
g1532
asbag57
(g78
g59
NtRp2144
(dp2145
g62
(dp2146
g89
g90
ssg71
g2136
sg64
(lp2147
S':'
asbag57
(g78
g59
NtRp2148
(dp2149
g62
(dp2150
sg71
g2136
sg64
(lp2151
g57
(g58
g59
NtRp2152
(dp2153
g62
(dp2154
g70
I4
ssg71
g2148
sg64
(lp2155
g57
(g66
g59
NtRp2156
(dp2157
g62
(dp2158
g70
I3
ssg71
Nsg64
(lp2159
g57
(g73
g59
NtRp2160
(dp2161
g62
(dp2162
sg71
g2156
sg64
(lp2163
g57
(g78
g59
NtRp2164
(dp2165
g62
(dp2166
sg71
g2160
sg64
(lp2167
g57
(g58
g59
NtRp2168
(dp2169
g62
(dp2170
g70
I3
ssg71
g2164
sg64
(lp2171
S'1'
asbasbasbag57
(g73
g59
NtRp2172
(dp2173
g62
(dp2174
sg71
g2156
sg64
(lp2175
g57
(g78
g59
NtRp2176
(dp2177
g62
(dp2178
sg71
g2172
sg64
(lp2179
g57
(g58
g59
NtRp2180
(dp2181
g62
(dp2182
g70
I3
ssg71
g2176
sg64
(lp2183
S'99'
p2184
asbasbasbag57
(g73
g59
NtRp2185
(dp2186
g62
(dp2187
sg71
g2156
sg64
(lp2188
g57
(g78
g59
NtRp2189
(dp2190
g62
(dp2191
sg71
g2185
sg64
(lp2192
g57
(g58
g59
NtRp2193
(dp2194
g62
(dp2195
g70
I3
ssg71
g2189
sg64
(lp2196
S'7'
asbasbasbag57
(g73
g59
NtRp2197
(dp2198
g62
(dp2199
sg71
g2156
sg64
(lp2200
g57
(g78
g59
NtRp2201
(dp2202
g62
(dp2203
sg71
g2197
sg64
(lp2204
g57
(g58
g59
NtRp2205
(dp2206
g62
(dp2207
g70
I3
ssg71
g2201
sg64
(lp2208
S'datetime.datetime(2012, 3, 4, 22, 12, 8)'
p2209
asbasbasbag57
(g73
g59
NtRp2210
(dp2211
g62
(dp2212
sg71
g2156
sg64
(lp2213
g57
(g78
g59
NtRp2214
(dp2215
g62
(dp2216
sg71
g2210
sg64
(lp2217
g57
(g58
g59
NtRp2218
(dp2219
g62
(dp2220
g70
I3
ssg71
g2214
sg64
(lp2221
g1611
asbasbasbasbasbasbasbasbasbasbasbag57
(g73
g59
NtRp2222
(dp2223
g62
(dp2224
sg71
g67
sg64
(lp2225
g57
(g78
g59
NtRp2226
(dp2227
g62
(dp2228
g82
g83
ssg71
g2222
sg64
(lp2229
S'is_https'
p2230
asbag57
(g78
g59
NtRp2231
(dp2232
g62
(dp2233
g89
g90
ssg71
g2222
sg64
(lp2234
S':'
asbag57
(g78
g59
NtRp2235
(dp2236
g62
(dp2237
sg71
g2222
sg64
(lp2238
g57
(g58
g59
NtRp2239
(dp2240
g62
(dp2241
g70
I5
ssg71
g2235
sg64
(lp2242
g100
asbasbasbag57
(g73
g59
NtRp2243
(dp2244
g62
(dp2245
sg71
g67
sg64
(lp2246
g57
(g78
g59
NtRp2247
(dp2248
g62
(dp2249
g82
g83
ssg71
g2243
sg64
(lp2250
S'is_local'
p2251
asbag57
(g78
g59
NtRp2252
(dp2253
g62
(dp2254
g89
g90
ssg71
g2243
sg64
(lp2255
S':'
asbag57
(g78
g59
NtRp2256
(dp2257
g62
(dp2258
sg71
g2243
sg64
(lp2259
g57
(g58
g59
NtRp2260
(dp2261
g62
(dp2262
g70
I5
ssg71
g2256
sg64
(lp2263
g1720
asbasbasbag57
(g73
g59
NtRp2264
(dp2265
g62
(dp2266
sg71
g67
sg64
(lp2267
g57
(g78
g59
NtRp2268
(dp2269
g62
(dp2270
g82
g83
ssg71
g2264
sg64
(lp2271
S'is_restful'
p2272
asbag57
(g78
g59
NtRp2273
(dp2274
g62
(dp2275
g89
g90
ssg71
g2264
sg64
(lp2276
S':'
asbag57
(g78
g59
NtRp2277
(dp2278
g62
(dp2279
sg71
g2264
sg64
(lp2280
g57
(g58
g59
NtRp2281
(dp2282
g62
(dp2283
g70
I5
ssg71
g2277
sg64
(lp2284
g100
asbasbasbag57
(g73
g59
NtRp2285
(dp2286
g62
(dp2287
sg71
g67
sg64
(lp2288
g57
(g78
g59
NtRp2289
(dp2290
g62
(dp2291
g82
g83
ssg71
g2285
sg64
(lp2292
S'now'
p2293
asbag57
(g78
g59
NtRp2294
(dp2295
g62
(dp2296
g89
g90
ssg71
g2285
sg64
(lp2297
S':'
asbag57
(g78
g59
NtRp2298
(dp2299
g62
(dp2300
sg71
g2285
sg64
(lp2301
g57
(g58
g59
NtRp2302
(dp2303
g62
(dp2304
g70
I5
ssg71
g2298
sg64
(lp2305
S'datetime.datetime(2012, 6, 17, 2, 59, 21, 165252)'
p2306
asbasbasbag57
(g73
g59
NtRp2307
(dp2308
g62
(dp2309
sg71
g67
sg64
(lp2310
g57
(g78
g59
NtRp2311
(dp2312
g62
(dp2313
g82
g83
ssg71
g2307
sg64
(lp2314
S'post_vars'
p2315
asbag57
(g78
g59
NtRp2316
(dp2317
g62
(dp2318
g89
g90
ssg71
g2307
sg64
(lp2319
S':'
asbag57
(g78
g59
NtRp2320
(dp2321
g62
(dp2322
sg71
g2307
sg64
(lp2323
g57
(g58
g59
NtRp2324
(dp2325
g62
(dp2326
g70
I5
ssg71
g2320
sg64
(lp2327
g57
(g66
g59
NtRp2328
(dp2329
g62
(dp2330
g70
I4
ssg71
Nsg64
(lp2331
sbasbasbasbag57
(g73
g59
NtRp2332
(dp2333
g62
(dp2334
sg71
g67
sg64
(lp2335
g57
(g78
g59
NtRp2336
(dp2337
g62
(dp2338
g82
g83
ssg71
g2332
sg64
(lp2339
S'url'
p2340
asbag57
(g78
g59
NtRp2341
(dp2342
g62
(dp2343
g89
g90
ssg71
g2332
sg64
(lp2344
S':'
asbag57
(g78
g59
NtRp2345
(dp2346
g62
(dp2347
sg71
g2332
sg64
(lp2348
g57
(g58
g59
NtRp2349
(dp2350
g62
(dp2351
g70
I5
ssg71
g2345
sg64
(lp2352
S'/milo/default/index'
p2353
asbasbasbag57
(g73
g59
NtRp2354
(dp2355
g62
(dp2356
sg71
g67
sg64
(lp2357
g57
(g78
g59
NtRp2358
(dp2359
g62
(dp2360
g82
g83
ssg71
g2354
sg64
(lp2361
S'utcnow'
p2362
asbag57
(g78
g59
NtRp2363
(dp2364
g62
(dp2365
g89
g90
ssg71
g2354
sg64
(lp2366
S':'
asbag57
(g78
g59
NtRp2367
(dp2368
g62
(dp2369
sg71
g2354
sg64
(lp2370
g57
(g58
g59
NtRp2371
(dp2372
g62
(dp2373
g70
I5
ssg71
g2367
sg64
(lp2374
S'datetime.datetime(2012, 6, 17, 0, 59, 21, 165272)'
p2375
asbasbasbag57
(g73
g59
NtRp2376
(dp2377
g62
(dp2378
sg71
g67
sg64
(lp2379
g57
(g78
g59
NtRp2380
(dp2381
g62
(dp2382
g82
g83
ssg71
g2376
sg64
(lp2383
S'uuid'
p2384
asbag57
(g78
g59
NtRp2385
(dp2386
g62
(dp2387
g89
g90
ssg71
g2376
sg64
(lp2388
S':'
asbag57
(g78
g59
NtRp2389
(dp2390
g62
(dp2391
sg71
g2376
sg64
(lp2392
g57
(g58
g59
NtRp2393
(dp2394
g62
(dp2395
g70
I5
ssg71
g2389
sg64
(lp2396
S'milo/127.0.0.1.2012-06-17.02-59-21.9f973484-bc72-416c-bfc8-23afd635c502'
p2397
asbasbasbag57
(g73
g59
NtRp2398
(dp2399
g62
(dp2400
sg71
g67
sg64
(lp2401
g57
(g78
g59
NtRp2402
(dp2403
g62
(dp2404
g82
g83
ssg71
g2398
sg64
(lp2405
S'vars'
p2406
asbag57
(g78
g59
NtRp2407
(dp2408
g62
(dp2409
g89
g90
ssg71
g2398
sg64
(lp2410
S':'
asbag57
(g78
g59
NtRp2411
(dp2412
g62
(dp2413
sg71
g2398
sg64
(lp2414
g57
(g58
g59
NtRp2415
(dp2416
g62
(dp2417
g70
I5
ssg71
g2411
sg64
(lp2418
g57
(g66
g59
NtRp2419
(dp2420
g62
(dp2421
g70
I4
ssg71
Nsg64
(lp2422
sbasbasbasbag57
(g73
g59
NtRp2423
(dp2424
g62
(dp2425
sg71
g67
sg64
(lp2426
g57
(g78
g59
NtRp2427
(dp2428
g62
(dp2429
g82
g83
ssg71
g2423
sg64
(lp2430
S'wsgi'
p2431
asbag57
(g78
g59
NtRp2432
(dp2433
g62
(dp2434
g89
g90
ssg71
g2423
sg64
(lp2435
S':'
asbag57
(g78
g59
NtRp2436
(dp2437
g62
(dp2438
sg71
g2423
sg64
(lp2439
g57
(g58
g59
NtRp2440
(dp2441
g62
(dp2442
g70
I5
ssg71
g2436
sg64
(lp2443
g57
(g66
g59
NtRp2444
(dp2445
g62
(dp2446
g70
I4
ssg71
Nsg64
(lp2447
g57
(g73
g59
NtRp2448
(dp2449
g62
(dp2450
sg71
g2444
sg64
(lp2451
g57
(g78
g59
NtRp2452
(dp2453
g62
(dp2454
g82
g83
ssg71
g2448
sg64
(lp2455
S'environ'
p2456
asbag57
(g78
g59
NtRp2457
(dp2458
g62
(dp2459
g89
g90
ssg71
g2448
sg64
(lp2460
S':'
asbag57
(g78
g59
NtRp2461
(dp2462
g62
(dp2463
sg71
g2448
sg64
(lp2464
g57
(g58
g59
NtRp2465
(dp2466
g62
(dp2467
g70
I4
ssg71
g2461
sg64
(lp2468
g57
(g66
g59
NtRp2469
(dp2470
g62
(dp2471
g70
I3
ssg71
Nsg64
(lp2472
g57
(g73
g59
NtRp2473
(dp2474
g62
(dp2475
sg71
g2469
sg64
(lp2476
g57
(g78
g59
NtRp2477
(dp2478
g62
(dp2479
g82
g83
ssg71
g2473
sg64
(lp2480
S'HTTP_ACCEPT'
p2481
asbag57
(g78
g59
NtRp2482
(dp2483
g62
(dp2484
g89
g90
ssg71
g2473
sg64
(lp2485
S':'
asbag57
(g78
g59
NtRp2486
(dp2487
g62
(dp2488
sg71
g2473
sg64
(lp2489
g57
(g58
g59
NtRp2490
(dp2491
g62
(dp2492
g70
I3
ssg71
g2486
sg64
(lp2493
g1003
asbasbasbag57
(g73
g59
NtRp2494
(dp2495
g62
(dp2496
sg71
g2469
sg64
(lp2497
g57
(g78
g59
NtRp2498
(dp2499
g62
(dp2500
g82
g83
ssg71
g2494
sg64
(lp2501
S'HTTP_ACCEPT_CHARSET'
p2502
asbag57
(g78
g59
NtRp2503
(dp2504
g62
(dp2505
g89
g90
ssg71
g2494
sg64
(lp2506
S':'
asbag57
(g78
g59
NtRp2507
(dp2508
g62
(dp2509
sg71
g2494
sg64
(lp2510
g57
(g58
g59
NtRp2511
(dp2512
g62
(dp2513
g70
I3
ssg71
g2507
sg64
(lp2514
g1025
asbasbasbag57
(g73
g59
NtRp2515
(dp2516
g62
(dp2517
sg71
g2469
sg64
(lp2518
g57
(g78
g59
NtRp2519
(dp2520
g62
(dp2521
g82
g83
ssg71
g2515
sg64
(lp2522
S'HTTP_ACCEPT_ENCODING'
p2523
asbag57
(g78
g59
NtRp2524
(dp2525
g62
(dp2526
g89
g90
ssg71
g2515
sg64
(lp2527
S':'
asbag57
(g78
g59
NtRp2528
(dp2529
g62
(dp2530
sg71
g2515
sg64
(lp2531
g57
(g58
g59
NtRp2532
(dp2533
g62
(dp2534
g70
I3
ssg71
g2528
sg64
(lp2535
g1047
asbasbasbag57
(g73
g59
NtRp2536
(dp2537
g62
(dp2538
sg71
g2469
sg64
(lp2539
g57
(g78
g59
NtRp2540
(dp2541
g62
(dp2542
g82
g83
ssg71
g2536
sg64
(lp2543
S'HTTP_ACCEPT_LANGUAGE'
p2544
asbag57
(g78
g59
NtRp2545
(dp2546
g62
(dp2547
g89
g90
ssg71
g2536
sg64
(lp2548
S':'
asbag57
(g78
g59
NtRp2549
(dp2550
g62
(dp2551
sg71
g2536
sg64
(lp2552
g57
(g58
g59
NtRp2553
(dp2554
g62
(dp2555
g70
I3
ssg71
g2549
sg64
(lp2556
g1069
asbasbasbag57
(g73
g59
NtRp2557
(dp2558
g62
(dp2559
sg71
g2469
sg64
(lp2560
g57
(g78
g59
NtRp2561
(dp2562
g62
(dp2563
g82
g83
ssg71
g2557
sg64
(lp2564
S'HTTP_CONNECTION'
p2565
asbag57
(g78
g59
NtRp2566
(dp2567
g62
(dp2568
g89
g90
ssg71
g2557
sg64
(lp2569
S':'
asbag57
(g78
g59
NtRp2570
(dp2571
g62
(dp2572
sg71
g2557
sg64
(lp2573
g57
(g58
g59
NtRp2574
(dp2575
g62
(dp2576
g70
I3
ssg71
g2570
sg64
(lp2577
g1091
asbasbasbag57
(g73
g59
NtRp2578
(dp2579
g62
(dp2580
sg71
g2469
sg64
(lp2581
g57
(g78
g59
NtRp2582
(dp2583
g62
(dp2584
g82
g83
ssg71
g2578
sg64
(lp2585
S'HTTP_COOKIE'
p2586
asbag57
(g78
g59
NtRp2587
(dp2588
g62
(dp2589
g89
g90
ssg71
g2578
sg64
(lp2590
S':'
asbag57
(g78
g59
NtRp2591
(dp2592
g62
(dp2593
sg71
g2578
sg64
(lp2594
g57
(g58
g59
NtRp2595
(dp2596
g62
(dp2597
g70
I3
ssg71
g2591
sg64
(lp2598
g1113
asbasbasbag57
(g73
g59
NtRp2599
(dp2600
g62
(dp2601
sg71
g2469
sg64
(lp2602
g57
(g78
g59
NtRp2603
(dp2604
g62
(dp2605
g82
g83
ssg71
g2599
sg64
(lp2606
S'HTTP_HOST'
p2607
asbag57
(g78
g59
NtRp2608
(dp2609
g62
(dp2610
g89
g90
ssg71
g2599
sg64
(lp2611
S':'
asbag57
(g78
g59
NtRp2612
(dp2613
g62
(dp2614
sg71
g2599
sg64
(lp2615
g57
(g58
g59
NtRp2616
(dp2617
g62
(dp2618
g70
I3
ssg71
g2612
sg64
(lp2619
g1135
asbasbasbag57
(g73
g59
NtRp2620
(dp2621
g62
(dp2622
sg71
g2469
sg64
(lp2623
g57
(g78
g59
NtRp2624
(dp2625
g62
(dp2626
g82
g83
ssg71
g2620
sg64
(lp2627
S'HTTP_REFERER'
p2628
asbag57
(g78
g59
NtRp2629
(dp2630
g62
(dp2631
g89
g90
ssg71
g2620
sg64
(lp2632
S':'
asbag57
(g78
g59
NtRp2633
(dp2634
g62
(dp2635
sg71
g2620
sg64
(lp2636
g57
(g58
g59
NtRp2637
(dp2638
g62
(dp2639
g70
I3
ssg71
g2633
sg64
(lp2640
g1157
asbasbasbag57
(g73
g59
NtRp2641
(dp2642
g62
(dp2643
sg71
g2469
sg64
(lp2644
g57
(g78
g59
NtRp2645
(dp2646
g62
(dp2647
g82
g83
ssg71
g2641
sg64
(lp2648
S'HTTP_USER_AGENT'
p2649
asbag57
(g78
g59
NtRp2650
(dp2651
g62
(dp2652
g89
g90
ssg71
g2641
sg64
(lp2653
S':'
asbag57
(g78
g59
NtRp2654
(dp2655
g62
(dp2656
sg71
g2641
sg64
(lp2657
g57
(g58
g59
NtRp2658
(dp2659
g62
(dp2660
g70
I3
ssg71
g2654
sg64
(lp2661
g1179
asbasbasbag57
(g73
g59
NtRp2662
(dp2663
g62
(dp2664
sg71
g2469
sg64
(lp2665
g57
(g78
g59
NtRp2666
(dp2667
g62
(dp2668
g82
g83
ssg71
g2662
sg64
(lp2669
S'PATH_INFO'
p2670
asbag57
(g78
g59
NtRp2671
(dp2672
g62
(dp2673
g89
g90
ssg71
g2662
sg64
(lp2674
S':'
asbag57
(g78
g59
NtRp2675
(dp2676
g62
(dp2677
sg71
g2662
sg64
(lp2678
g57
(g58
g59
NtRp2679
(dp2680
g62
(dp2681
g70
I3
ssg71
g2675
sg64
(lp2682
g1243
asbasbasbag57
(g73
g59
NtRp2683
(dp2684
g62
(dp2685
sg71
g2469
sg64
(lp2686
g57
(g78
g59
NtRp2687
(dp2688
g62
(dp2689
g82
g83
ssg71
g2683
sg64
(lp2690
S'QUERY_STRING'
p2691
asbag57
(g78
g59
NtRp2692
(dp2693
g62
(dp2694
g89
g90
ssg71
g2683
sg64
(lp2695
S':'
asbag57
(g78
g59
NtRp2696
(dp2697
g62
(dp2698
sg71
g2683
sg64
(lp2699
g57
(g58
g59
NtRp2700
(dp2701
g62
(dp2702
g70
I3
ssg71
g2696
sg64
(lp2703
S''
asbasbasbag57
(g73
g59
NtRp2704
(dp2705
g62
(dp2706
sg71
g2469
sg64
(lp2707
g57
(g78
g59
NtRp2708
(dp2709
g62
(dp2710
g82
g83
ssg71
g2704
sg64
(lp2711
S'REMOTE_ADDR'
p2712
asbag57
(g78
g59
NtRp2713
(dp2714
g62
(dp2715
g89
g90
ssg71
g2704
sg64
(lp2716
S':'
asbag57
(g78
g59
NtRp2717
(dp2718
g62
(dp2719
sg71
g2704
sg64
(lp2720
g57
(g58
g59
NtRp2721
(dp2722
g62
(dp2723
g70
I3
ssg71
g2717
sg64
(lp2724
g190
asbasbasbag57
(g73
g59
NtRp2725
(dp2726
g62
(dp2727
sg71
g2469
sg64
(lp2728
g57
(g78
g59
NtRp2729
(dp2730
g62
(dp2731
g82
g83
ssg71
g2725
sg64
(lp2732
S'REMOTE_PORT'
p2733
asbag57
(g78
g59
NtRp2734
(dp2735
g62
(dp2736
g89
g90
ssg71
g2725
sg64
(lp2737
S':'
asbag57
(g78
g59
NtRp2738
(dp2739
g62
(dp2740
sg71
g2725
sg64
(lp2741
g57
(g58
g59
NtRp2742
(dp2743
g62
(dp2744
g70
I3
ssg71
g2738
sg64
(lp2745
g1307
asbasbasbag57
(g73
g59
NtRp2746
(dp2747
g62
(dp2748
sg71
g2469
sg64
(lp2749
g57
(g78
g59
NtRp2750
(dp2751
g62
(dp2752
g82
g83
ssg71
g2746
sg64
(lp2753
S'REQUEST_METHOD'
p2754
asbag57
(g78
g59
NtRp2755
(dp2756
g62
(dp2757
g89
g90
ssg71
g2746
sg64
(lp2758
S':'
asbag57
(g78
g59
NtRp2759
(dp2760
g62
(dp2761
sg71
g2746
sg64
(lp2762
g57
(g58
g59
NtRp2763
(dp2764
g62
(dp2765
g70
I3
ssg71
g2759
sg64
(lp2766
g1329
asbasbasbag57
(g73
g59
NtRp2767
(dp2768
g62
(dp2769
sg71
g2469
sg64
(lp2770
g57
(g78
g59
NtRp2771
(dp2772
g62
(dp2773
g82
g83
ssg71
g2767
sg64
(lp2774
S'REQUEST_URI'
p2775
asbag57
(g78
g59
NtRp2776
(dp2777
g62
(dp2778
g89
g90
ssg71
g2767
sg64
(lp2779
S':'
asbag57
(g78
g59
NtRp2780
(dp2781
g62
(dp2782
sg71
g2767
sg64
(lp2783
g57
(g58
g59
NtRp2784
(dp2785
g62
(dp2786
g70
I3
ssg71
g2780
sg64
(lp2787
g1243
asbasbasbag57
(g73
g59
NtRp2788
(dp2789
g62
(dp2790
sg71
g2469
sg64
(lp2791
g57
(g78
g59
NtRp2792
(dp2793
g62
(dp2794
g82
g83
ssg71
g2788
sg64
(lp2795
S'SCRIPT_NAME'
p2796
asbag57
(g78
g59
NtRp2797
(dp2798
g62
(dp2799
g89
g90
ssg71
g2788
sg64
(lp2800
S':'
asbag57
(g78
g59
NtRp2801
(dp2802
g62
(dp2803
sg71
g2788
sg64
(lp2804
g57
(g58
g59
NtRp2805
(dp2806
g62
(dp2807
g70
I3
ssg71
g2801
sg64
(lp2808
S''
asbasbasbag57
(g73
g59
NtRp2809
(dp2810
g62
(dp2811
sg71
g2469
sg64
(lp2812
g57
(g78
g59
NtRp2813
(dp2814
g62
(dp2815
g82
g83
ssg71
g2809
sg64
(lp2816
S'SERVER_NAME'
p2817
asbag57
(g78
g59
NtRp2818
(dp2819
g62
(dp2820
g89
g90
ssg71
g2809
sg64
(lp2821
S':'
asbag57
(g78
g59
NtRp2822
(dp2823
g62
(dp2824
sg71
g2809
sg64
(lp2825
g57
(g58
g59
NtRp2826
(dp2827
g62
(dp2828
g70
I3
ssg71
g2822
sg64
(lp2829
g1393
asbasbasbag57
(g73
g59
NtRp2830
(dp2831
g62
(dp2832
sg71
g2469
sg64
(lp2833
g57
(g78
g59
NtRp2834
(dp2835
g62
(dp2836
g82
g83
ssg71
g2830
sg64
(lp2837
S'SERVER_PORT'
p2838
asbag57
(g78
g59
NtRp2839
(dp2840
g62
(dp2841
g89
g90
ssg71
g2830
sg64
(lp2842
S':'
asbag57
(g78
g59
NtRp2843
(dp2844
g62
(dp2845
sg71
g2830
sg64
(lp2846
g57
(g58
g59
NtRp2847
(dp2848
g62
(dp2849
g70
I3
ssg71
g2843
sg64
(lp2850
g1415
asbasbasbag57
(g73
g59
NtRp2851
(dp2852
g62
(dp2853
sg71
g2469
sg64
(lp2854
g57
(g78
g59
NtRp2855
(dp2856
g62
(dp2857
g82
g83
ssg71
g2851
sg64
(lp2858
S'SERVER_PROTOCOL'
p2859
asbag57
(g78
g59
NtRp2860
(dp2861
g62
(dp2862
g89
g90
ssg71
g2851
sg64
(lp2863
S':'
asbag57
(g78
g59
NtRp2864
(dp2865
g62
(dp2866
sg71
g2851
sg64
(lp2867
g57
(g58
g59
NtRp2868
(dp2869
g62
(dp2870
g70
I3
ssg71
g2864
sg64
(lp2871
g1437
asbasbasbag57
(g73
g59
NtRp2872
(dp2873
g62
(dp2874
sg71
g2469
sg64
(lp2875
g57
(g78
g59
NtRp2876
(dp2877
g62
(dp2878
g82
g83
ssg71
g2872
sg64
(lp2879
S'SERVER_SOFTWARE'
p2880
asbag57
(g78
g59
NtRp2881
(dp2882
g62
(dp2883
g89
g90
ssg71
g2872
sg64
(lp2884
S':'
asbag57
(g78
g59
NtRp2885
(dp2886
g62
(dp2887
sg71
g2872
sg64
(lp2888
g57
(g58
g59
NtRp2889
(dp2890
g62
(dp2891
g70
I3
ssg71
g2885
sg64
(lp2892
g1459
asbasbasbag57
(g73
g59
NtRp2893
(dp2894
g62
(dp2895
sg71
g2469
sg64
(lp2896
g57
(g78
g59
NtRp2897
(dp2898
g62
(dp2899
g82
g83
ssg71
g2893
sg64
(lp2900
S'WEB2PY_ORIGINAL_URI'
p2901
asbag57
(g78
g59
NtRp2902
(dp2903
g62
(dp2904
g89
g90
ssg71
g2893
sg64
(lp2905
S':'
asbag57
(g78
g59
NtRp2906
(dp2907
g62
(dp2908
sg71
g2893
sg64
(lp2909
g57
(g58
g59
NtRp2910
(dp2911
g62
(dp2912
g70
I3
ssg71
g2906
sg64
(lp2913
g1243
asbasbasbag57
(g73
g59
NtRp2914
(dp2915
g62
(dp2916
sg71
g2469
sg64
(lp2917
g57
(g78
g59
NtRp2918
(dp2919
g62
(dp2920
g82
g83
ssg71
g2914
sg64
(lp2921
S'wsgi.errors'
p2922
asbag57
(g78
g59
NtRp2923
(dp2924
g62
(dp2925
g89
g90
ssg71
g2914
sg64
(lp2926
S':'
asbag57
(g78
g59
NtRp2927
(dp2928
g62
(dp2929
sg71
g2914
sg64
(lp2930
g57
(g58
g59
NtRp2931
(dp2932
g62
(dp2933
g70
I3
ssg71
g2927
sg64
(lp2934
S"<open file '<stderr>', mode 'w' at 0x7fe3d5536270>"
p2935
asbasbasbag57
(g73
g59
NtRp2936
(dp2937
g62
(dp2938
sg71
g2469
sg64
(lp2939
g57
(g78
g59
NtRp2940
(dp2941
g62
(dp2942
g82
g83
ssg71
g2936
sg64
(lp2943
S'wsgi.file_wrapper'
p2944
asbag57
(g78
g59
NtRp2945
(dp2946
g62
(dp2947
g89
g90
ssg71
g2936
sg64
(lp2948
S':'
asbag57
(g78
g59
NtRp2949
(dp2950
g62
(dp2951
sg71
g2936
sg64
(lp2952
g57
(g58
g59
NtRp2953
(dp2954
g62
(dp2955
g70
I3
ssg71
g2949
sg64
(lp2956
S'<class wsgiref.util.FileWrapper at 0x222bf58>'
p2957
asbasbasbag57
(g73
g59
NtRp2958
(dp2959
g62
(dp2960
sg71
g2469
sg64
(lp2961
g57
(g78
g59
NtRp2962
(dp2963
g62
(dp2964
g82
g83
ssg71
g2958
sg64
(lp2965
S'wsgi.input'
p2966
asbag57
(g78
g59
NtRp2967
(dp2968
g62
(dp2969
g89
g90
ssg71
g2958
sg64
(lp2970
S':'
asbag57
(g78
g59
NtRp2971
(dp2972
g62
(dp2973
sg71
g2958
sg64
(lp2974
g57
(g58
g59
NtRp2975
(dp2976
g62
(dp2977
g70
I3
ssg71
g2971
sg64
(lp2978
S'<cStringIO.StringO object at 0x7fe3b01a4b58>'
p2979
asbasbasbag57
(g73
g59
NtRp2980
(dp2981
g62
(dp2982
sg71
g2469
sg64
(lp2983
g57
(g78
g59
NtRp2984
(dp2985
g62
(dp2986
g82
g83
ssg71
g2980
sg64
(lp2987
S'wsgi.multiprocess'
p2988
asbag57
(g78
g59
NtRp2989
(dp2990
g62
(dp2991
g89
g90
ssg71
g2980
sg64
(lp2992
S':'
asbag57
(g78
g59
NtRp2993
(dp2994
g62
(dp2995
sg71
g2980
sg64
(lp2996
g57
(g58
g59
NtRp2997
(dp2998
g62
(dp2999
g70
I3
ssg71
g2993
sg64
(lp3000
g100
asbasbasbag57
(g73
g59
NtRp3001
(dp3002
g62
(dp3003
sg71
g2469
sg64
(lp3004
g57
(g78
g59
NtRp3005
(dp3006
g62
(dp3007
g82
g83
ssg71
g3001
sg64
(lp3008
S'wsgi.multithread'
p3009
asbag57
(g78
g59
NtRp3010
(dp3011
g62
(dp3012
g89
g90
ssg71
g3001
sg64
(lp3013
S':'
asbag57
(g78
g59
NtRp3014
(dp3015
g62
(dp3016
sg71
g3001
sg64
(lp3017
g57
(g58
g59
NtRp3018
(dp3019
g62
(dp3020
g70
I3
ssg71
g3014
sg64
(lp3021
g1720
asbasbasbag57
(g73
g59
NtRp3022
(dp3023
g62
(dp3024
sg71
g2469
sg64
(lp3025
g57
(g78
g59
NtRp3026
(dp3027
g62
(dp3028
g82
g83
ssg71
g3022
sg64
(lp3029
S'wsgi.run_once'
p3030
asbag57
(g78
g59
NtRp3031
(dp3032
g62
(dp3033
g89
g90
ssg71
g3022
sg64
(lp3034
S':'
asbag57
(g78
g59
NtRp3035
(dp3036
g62
(dp3037
sg71
g3022
sg64
(lp3038
g57
(g58
g59
NtRp3039
(dp3040
g62
(dp3041
g70
I3
ssg71
g3035
sg64
(lp3042
g100
asbasbasbag57
(g73
g59
NtRp3043
(dp3044
g62
(dp3045
sg71
g2469
sg64
(lp3046
g57
(g78
g59
NtRp3047
(dp3048
g62
(dp3049
g82
g83
ssg71
g3043
sg64
(lp3050
S'wsgi.url_scheme'
p3051
asbag57
(g78
g59
NtRp3052
(dp3053
g62
(dp3054
g89
g90
ssg71
g3043
sg64
(lp3055
S':'
asbag57
(g78
g59
NtRp3056
(dp3057
g62
(dp3058
sg71
g3043
sg64
(lp3059
g57
(g58
g59
NtRp3060
(dp3061
g62
(dp3062
g70
I3
ssg71
g3056
sg64
(lp3063
g1763
asbasbasbag57
(g73
g59
NtRp3064
(dp3065
g62
(dp3066
sg71
g2469
sg64
(lp3067
g57
(g78
g59
NtRp3068
(dp3069
g62
(dp3070
g82
g83
ssg71
g3064
sg64
(lp3071
S'wsgi.version'
p3072
asbag57
(g78
g59
NtRp3073
(dp3074
g62
(dp3075
g89
g90
ssg71
g3064
sg64
(lp3076
S':'
asbag57
(g78
g59
NtRp3077
(dp3078
g62
(dp3079
sg71
g3064
sg64
(lp3080
g57
(g58
g59
NtRp3081
(dp3082
g62
(dp3083
g70
I3
ssg71
g3077
sg64
(lp3084
S'1'
asbasbasbasbasbasbasbasbasbasbasbasbasbsS'frames'
p3085
(lp3086
(dp3087
S'file'
p3088
S'/home/goshawk/web2py/gluon/restricted.py'
p3089
sS'dump'
p3090
(dp3091
S'environment'
p3092
S"{'A': <class 'gluon.html.A'>, 'Auth': <class 'gluon.tools.Auth'>, 'B': <class 'gluon.html.B'>, 'BEAUTIFY': <class 'gluon.html.BEAUTIFY'>, 'BODY': <class 'gluon.html.BODY'>, 'BR': <class 'gluon.html.BR'>, 'BUTTON': <class 'gluon.html.BUTTON'>, 'CAT': <class 'gluon.html.CAT'>, 'CENTER': <class 'gluon.html.CENTER'>, 'CLEANUP': <class 'gluon.validators.CLEANUP'>, ...}"
p3093
sS'ccode'
p3094
S'<code object <module> at 0x7fe3ac3406b0, file "/...lications/milo/views/default/index.html", line 1>'
p3095
ssS'lnum'
p3096
I205
sS'lines'
p3097
(dp3098
I200
S'    try:'
p3099
sI201
S'        if type(code) == types.CodeType:'
p3100
sI202
S'            ccode = code'
p3101
sI203
S'        else:'
p3102
sI204
S'            ccode = compile2(code,layer)'
p3103
sI205
S'        exec ccode in environment'
p3104
sI206
S'    except HTTP:'
p3105
sI207
S'        raise'
p3106
sI208
S'    except RestrictedError:'
p3107
sI209
S'        # do not encapsulate (obfuscate) the original RestrictedError'
p3108
ssS'call'
p3109
S'(code=r"left_sidebar_enabled,right_sidebar_enabled=False...ponse.write(\'\\n</body>\\n</html>\\n\', escape=False)", environment={\'A\': <class \'gluon.html.A\'>, \'Auth\': <class \'gluon.tools.Auth\'>, \'B\': <class \'gluon.html.B\'>, \'BEAUTIFY\': <class \'gluon.html.BEAUTIFY\'>, \'BODY\': <class \'gluon.html.BODY\'>, \'BR\': <class \'gluon.html.BR\'>, \'BUTTON\': <class \'gluon.html.BUTTON\'>, \'CAT\': <class \'gluon.html.CAT\'>, \'CENTER\': <class \'gluon.html.CENTER\'>, \'CLEANUP\': <class \'gluon.validators.CLEANUP\'>, ...}, layer=\'/home/goshawk/web2py/applications/milo/views/default/index.html\')'
p3110
sS'func'
p3111
S'restricted'
p3112
sa(dp3113
g3088
S'/home/goshawk/web2py/applications/milo/views/default/index.html'
p3114
sg3090
(dp3115
sg3096
I114
sg3097
(dp3116
I105
S"    response.write('\\n    ', escape=False)"
p3117
sI106
S"    response.write(A('web2py/applications/%(application)s/controllers/%(controller)s.py'%request,_href=URL('admin','default','peek',args=(request.application,'controllers',request.controller+'.py'))))"
p3118
sI107
S"    response.write('</li>\\n  <li>', escape=False)"
p3119
sI108
S"    response.write(T('The output of the file is a dictionary that was rendered by the view'))"
p3120
sI109
S"    response.write('\\n    ', escape=False)"
p3121
sI110
S"    response.write(A('web2py/applications/%(application)s/views/%(controller)s/index.html'%request,_href=URL('admin','default','peek',args=(request.application,'views',request.controller,'index.html'))))"
p3122
sI111
S"    response.write('</li>\\n  <li>', escape=False)"
p3123
sI112
S"    response.write(T('You can modify this application and adapt it to your needs'))"
p3124
sI113
S"    response.write('</li>\\n  <li>', escape=False)"
p3125
sI114
S'    response.write(test)'
p3126
sI115
S"    response.write('</li>\\n</ul>\\n</ol>\\n', escape=False)"
p3127
sI116
S'else:'
p3128
sI117
S"    response.write('\\n', escape=False)"
p3129
sI118
S'    response.write(BEAUTIFY(response._vars))'
p3130
sI119
S"    response.write('\\n', escape=False)"
p3131
sI120
S'    pass'
p3132
sI121
S"response.write('\\n\\n', escape=False)"
p3133
sI122
S"response.write('\\n\\n', escape=False)"
p3134
sI123
S"response.write('\\n          ', escape=False)"
p3135
sI124
S"response.write('\\n        </div>\\n        \\n        ', escape=False)"
p3136
ssg3109
S'()'
p3137
sg3111
S'<module>'
p3138
sasS'pyver'
p3139
S'Python 2.7.3: /usr/bin/python'
p3140
sS'session'
p3141
g57
(g58
g59
NtRp3142
(dp3143
g62
(dp3144
sg64
(lp3145
g57
(g66
g59
NtRp3146
(dp3147
g62
(dp3148
g70
I5
ssg71
Nsg64
(lp3149
sbasbsS'etype'
p3150
S"<type 'exceptions.NameError'>"
p3151
sS'date'
p3152
S'Sun Jun 17 02:59:21 2012'
p3153
sS'response'
p3154
g57
(g58
g59
NtRp3155
(dp3156
g62
(dp3157
sg64
(lp3158
g57
(g66
g59
NtRp3159
(dp3160
g62
(dp3161
g70
I5
ssg71
Nsg64
(lp3162
g57
(g73
g59
NtRp3163
(dp3164
g62
(dp3165
sg71
g3159
sg64
(lp3166
g57
(g78
g59
NtRp3167
(dp3168
g62
(dp3169
g82
g83
ssg71
g3163
sg64
(lp3170
g155
asbag57
(g78
g59
NtRp3171
(dp3172
g62
(dp3173
g89
g90
ssg71
g3163
sg64
(lp3174
S':'
asbag57
(g78
g59
NtRp3175
(dp3176
g62
(dp3177
sg71
g3163
sg64
(lp3178
g57
(g58
g59
NtRp3179
(dp3180
g62
(dp3181
g70
I5
ssg71
g3175
sg64
(lp3182
S'<cStringIO.StringO object at 0x7fe3980dbf80>'
p3183
asbasbasbag57
(g73
g59
NtRp3184
(dp3185
g62
(dp3186
sg71
g3159
sg64
(lp3187
g57
(g78
g59
NtRp3188
(dp3189
g62
(dp3190
g82
g83
ssg71
g3184
sg64
(lp3191
g221
asbag57
(g78
g59
NtRp3192
(dp3193
g62
(dp3194
g89
g90
ssg71
g3184
sg64
(lp3195
S':'
asbag57
(g78
g59
NtRp3196
(dp3197
g62
(dp3198
sg71
g3184
sg64
(lp3199
g57
(g58
g59
NtRp3200
(dp3201
g62
(dp3202
g70
I5
ssg71
g3196
sg64
(lp3203
g57
(g66
g59
NtRp3204
(dp3205
g62
(dp3206
g70
I4
ssg71
Nsg64
(lp3207
g57
(g73
g59
NtRp3208
(dp3209
g62
(dp3210
sg71
g3204
sg64
(lp3211
g57
(g78
g59
NtRp3212
(dp3213
g62
(dp3214
g82
g83
ssg71
g3208
sg64
(lp3215
S'session_id_milo'
p3216
asbag57
(g78
g59
NtRp3217
(dp3218
g62
(dp3219
g89
g90
ssg71
g3208
sg64
(lp3220
S':'
asbag57
(g78
g59
NtRp3221
(dp3222
g62
(dp3223
sg71
g3208
sg64
(lp3224
g57
(g58
g59
NtRp3225
(dp3226
g62
(dp3227
g70
I4
ssg71
g3221
sg64
(lp3228
g57
(g66
g59
NtRp3229
(dp3230
g62
(dp3231
g70
I3
ssg71
Nsg64
(lp3232
g57
(g73
g59
NtRp3233
(dp3234
g62
(dp3235
sg71
g3229
sg64
(lp3236
g57
(g78
g59
NtRp3237
(dp3238
g62
(dp3239
g82
g83
ssg71
g3233
sg64
(lp3240
g271
asbag57
(g78
g59
NtRp3241
(dp3242
g62
(dp3243
g89
g90
ssg71
g3233
sg64
(lp3244
S':'
asbag57
(g78
g59
NtRp3245
(dp3246
g62
(dp3247
sg71
g3233
sg64
(lp3248
g57
(g58
g59
NtRp3249
(dp3250
g62
(dp3251
g70
I3
ssg71
g3245
sg64
(lp3252
S''
asbasbasbag57
(g73
g59
NtRp3253
(dp3254
g62
(dp3255
sg71
g3229
sg64
(lp3256
g57
(g78
g59
NtRp3257
(dp3258
g62
(dp3259
g82
g83
ssg71
g3253
sg64
(lp3260
g292
asbag57
(g78
g59
NtRp3261
(dp3262
g62
(dp3263
g89
g90
ssg71
g3253
sg64
(lp3264
S':'
asbag57
(g78
g59
NtRp3265
(dp3266
g62
(dp3267
sg71
g3253
sg64
(lp3268
g57
(g58
g59
NtRp3269
(dp3270
g62
(dp3271
g70
I3
ssg71
g3265
sg64
(lp3272
S''
asbasbasbag57
(g73
g59
NtRp3273
(dp3274
g62
(dp3275
sg71
g3229
sg64
(lp3276
g57
(g78
g59
NtRp3277
(dp3278
g62
(dp3279
g82
g83
ssg71
g3273
sg64
(lp3280
g313
asbag57
(g78
g59
NtRp3281
(dp3282
g62
(dp3283
g89
g90
ssg71
g3273
sg64
(lp3284
S':'
asbag57
(g78
g59
NtRp3285
(dp3286
g62
(dp3287
sg71
g3273
sg64
(lp3288
g57
(g58
g59
NtRp3289
(dp3290
g62
(dp3291
g70
I3
ssg71
g3285
sg64
(lp3292
S''
asbasbasbag57
(g73
g59
NtRp3293
(dp3294
g62
(dp3295
sg71
g3229
sg64
(lp3296
g57
(g78
g59
NtRp3297
(dp3298
g62
(dp3299
g82
g83
ssg71
g3293
sg64
(lp3300
g334
asbag57
(g78
g59
NtRp3301
(dp3302
g62
(dp3303
g89
g90
ssg71
g3293
sg64
(lp3304
S':'
asbag57
(g78
g59
NtRp3305
(dp3306
g62
(dp3307
sg71
g3293
sg64
(lp3308
g57
(g58
g59
NtRp3309
(dp3310
g62
(dp3311
g70
I3
ssg71
g3305
sg64
(lp3312
S''
asbasbasbag57
(g73
g59
NtRp3313
(dp3314
g62
(dp3315
sg71
g3229
sg64
(lp3316
g57
(g78
g59
NtRp3317
(dp3318
g62
(dp3319
g82
g83
ssg71
g3313
sg64
(lp3320
g355
asbag57
(g78
g59
NtRp3321
(dp3322
g62
(dp3323
g89
g90
ssg71
g3313
sg64
(lp3324
S':'
asbag57
(g78
g59
NtRp3325
(dp3326
g62
(dp3327
sg71
g3313
sg64
(lp3328
g57
(g58
g59
NtRp3329
(dp3330
g62
(dp3331
g70
I3
ssg71
g3325
sg64
(lp3332
S''
asbasbasbag57
(g73
g59
NtRp3333
(dp3334
g62
(dp3335
sg71
g3229
sg64
(lp3336
g57
(g78
g59
NtRp3337
(dp3338
g62
(dp3339
g82
g83
ssg71
g3333
sg64
(lp3340
g376
asbag57
(g78
g59
NtRp3341
(dp3342
g62
(dp3343
g89
g90
ssg71
g3333
sg64
(lp3344
S':'
asbag57
(g78
g59
NtRp3345
(dp3346
g62
(dp3347
sg71
g3333
sg64
(lp3348
g57
(g58
g59
NtRp3349
(dp3350
g62
(dp3351
g70
I3
ssg71
g3345
sg64
(lp3352
S'/'
asbasbasbag57
(g73
g59
NtRp3353
(dp3354
g62
(dp3355
sg71
g3229
sg64
(lp3356
g57
(g78
g59
NtRp3357
(dp3358
g62
(dp3359
g82
g83
ssg71
g3353
sg64
(lp3360
g397
asbag57
(g78
g59
NtRp3361
(dp3362
g62
(dp3363
g89
g90
ssg71
g3353
sg64
(lp3364
S':'
asbag57
(g78
g59
NtRp3365
(dp3366
g62
(dp3367
sg71
g3353
sg64
(lp3368
g57
(g58
g59
NtRp3369
(dp3370
g62
(dp3371
g70
I3
ssg71
g3365
sg64
(lp3372
S''
asbasbasbag57
(g73
g59
NtRp3373
(dp3374
g62
(dp3375
sg71
g3229
sg64
(lp3376
g57
(g78
g59
NtRp3377
(dp3378
g62
(dp3379
g82
g83
ssg71
g3373
sg64
(lp3380
g418
asbag57
(g78
g59
NtRp3381
(dp3382
g62
(dp3383
g89
g90
ssg71
g3373
sg64
(lp3384
S':'
asbag57
(g78
g59
NtRp3385
(dp3386
g62
(dp3387
sg71
g3373
sg64
(lp3388
g57
(g58
g59
NtRp3389
(dp3390
g62
(dp3391
g70
I3
ssg71
g3385
sg64
(lp3392
S''
asbasbasbasbasbasbasbasbasbasbasbag57
(g73
g59
NtRp3393
(dp3394
g62
(dp3395
sg71
g3159
sg64
(lp3396
g57
(g78
g59
NtRp3397
(dp3398
g62
(dp3399
g82
g83
ssg71
g3393
sg64
(lp3400
S'delimiters'
p3401
asbag57
(g78
g59
NtRp3402
(dp3403
g62
(dp3404
g89
g90
ssg71
g3393
sg64
(lp3405
S':'
asbag57
(g78
g59
NtRp3406
(dp3407
g62
(dp3408
sg71
g3393
sg64
(lp3409
g57
(g58
g59
NtRp3410
(dp3411
g62
(dp3412
g70
I5
ssg71
g3406
sg64
(lp3413
g57
(g66
g59
NtRp3414
(dp3415
g62
(dp3416
g70
I4
ssg71
Nsg64
(lp3417
g57
(g73
g59
NtRp3418
(dp3419
g62
(dp3420
sg71
g3414
sg64
(lp3421
g57
(g78
g59
NtRp3422
(dp3423
g62
(dp3424
sg71
g3418
sg64
(lp3425
g57
(g58
g59
NtRp3426
(dp3427
g62
(dp3428
g70
I4
ssg71
g3422
sg64
(lp3429
S'{{'
p3430
asbasbasbag57
(g73
g59
NtRp3431
(dp3432
g62
(dp3433
sg71
g3414
sg64
(lp3434
g57
(g78
g59
NtRp3435
(dp3436
g62
(dp3437
sg71
g3431
sg64
(lp3438
g57
(g58
g59
NtRp3439
(dp3440
g62
(dp3441
g70
I4
ssg71
g3435
sg64
(lp3442
S'}}'
p3443
asbasbasbasbasbasbasbag57
(g73
g59
NtRp3444
(dp3445
g62
(dp3446
sg71
g3159
sg64
(lp3447
g57
(g78
g59
NtRp3448
(dp3449
g62
(dp3450
g82
g83
ssg71
g3444
sg64
(lp3451
S'files'
p3452
asbag57
(g78
g59
NtRp3453
(dp3454
g62
(dp3455
g89
g90
ssg71
g3444
sg64
(lp3456
S':'
asbag57
(g78
g59
NtRp3457
(dp3458
g62
(dp3459
sg71
g3444
sg64
(lp3460
g57
(g58
g59
NtRp3461
(dp3462
g62
(dp3463
g70
I5
ssg71
g3457
sg64
(lp3464
g57
(g66
g59
NtRp3465
(dp3466
g62
(dp3467
g70
I4
ssg71
Nsg64
(lp3468
g57
(g73
g59
NtRp3469
(dp3470
g62
(dp3471
sg71
g3465
sg64
(lp3472
g57
(g78
g59
NtRp3473
(dp3474
g62
(dp3475
sg71
g3469
sg64
(lp3476
g57
(g58
g59
NtRp3477
(dp3478
g62
(dp3479
g70
I4
ssg71
g3473
sg64
(lp3480
S'/milo/static/js/jquery.js'
p3481
asbasbasbag57
(g73
g59
NtRp3482
(dp3483
g62
(dp3484
sg71
g3465
sg64
(lp3485
g57
(g78
g59
NtRp3486
(dp3487
g62
(dp3488
sg71
g3482
sg64
(lp3489
g57
(g58
g59
NtRp3490
(dp3491
g62
(dp3492
g70
I4
ssg71
g3486
sg64
(lp3493
S'/milo/static/css/calendar.css'
p3494
asbasbasbag57
(g73
g59
NtRp3495
(dp3496
g62
(dp3497
sg71
g3465
sg64
(lp3498
g57
(g78
g59
NtRp3499
(dp3500
g62
(dp3501
sg71
g3495
sg64
(lp3502
g57
(g58
g59
NtRp3503
(dp3504
g62
(dp3505
g70
I4
ssg71
g3499
sg64
(lp3506
S'/milo/static/js/calendar.js'
p3507
asbasbasbag57
(g73
g59
NtRp3508
(dp3509
g62
(dp3510
sg71
g3465
sg64
(lp3511
g57
(g78
g59
NtRp3512
(dp3513
g62
(dp3514
sg71
g3508
sg64
(lp3515
g57
(g58
g59
NtRp3516
(dp3517
g62
(dp3518
g70
I4
ssg71
g3512
sg64
(lp3519
S'/milo/static/js/web2py.js'
p3520
asbasbasbag57
(g73
g59
NtRp3521
(dp3522
g62
(dp3523
sg71
g3465
sg64
(lp3524
g57
(g78
g59
NtRp3525
(dp3526
g62
(dp3527
sg71
g3521
sg64
(lp3528
g57
(g58
g59
NtRp3529
(dp3530
g62
(dp3531
g70
I4
ssg71
g3525
sg64
(lp3532
S'/milo/static/css/skeleton.css'
p3533
asbasbasbag57
(g73
g59
NtRp3534
(dp3535
g62
(dp3536
sg71
g3465
sg64
(lp3537
g57
(g78
g59
NtRp3538
(dp3539
g62
(dp3540
sg71
g3534
sg64
(lp3541
g57
(g58
g59
NtRp3542
(dp3543
g62
(dp3544
g70
I4
ssg71
g3538
sg64
(lp3545
S'/milo/static/css/web2py.css'
p3546
asbasbasbag57
(g73
g59
NtRp3547
(dp3548
g62
(dp3549
sg71
g3465
sg64
(lp3550
g57
(g78
g59
NtRp3551
(dp3552
g62
(dp3553
sg71
g3547
sg64
(lp3554
g57
(g58
g59
NtRp3555
(dp3556
g62
(dp3557
g70
I4
ssg71
g3551
sg64
(lp3558
S'/milo/static/css/superfish.css'
p3559
asbasbasbag57
(g73
g59
NtRp3560
(dp3561
g62
(dp3562
sg71
g3465
sg64
(lp3563
g57
(g78
g59
NtRp3564
(dp3565
g62
(dp3566
sg71
g3560
sg64
(lp3567
g57
(g58
g59
NtRp3568
(dp3569
g62
(dp3570
g70
I4
ssg71
g3564
sg64
(lp3571
S'/milo/static/js/superfish.js'
p3572
asbasbasbasbasbasbasbag57
(g73
g59
NtRp3573
(dp3574
g62
(dp3575
sg71
g3159
sg64
(lp3576
g57
(g78
g59
NtRp3577
(dp3578
g62
(dp3579
g82
g83
ssg71
g3573
sg64
(lp3580
S'flash'
p3581
asbag57
(g78
g59
NtRp3582
(dp3583
g62
(dp3584
g89
g90
ssg71
g3573
sg64
(lp3585
S':'
asbag57
(g78
g59
NtRp3586
(dp3587
g62
(dp3588
sg71
g3573
sg64
(lp3589
g57
(g58
g59
NtRp3590
(dp3591
g62
(dp3592
g70
I5
ssg71
g3586
sg64
(lp3593
S'Welcome to web2py!'
p3594
asbasbasbag57
(g73
g59
NtRp3595
(dp3596
g62
(dp3597
sg71
g3159
sg64
(lp3598
g57
(g78
g59
NtRp3599
(dp3600
g62
(dp3601
g82
g83
ssg71
g3595
sg64
(lp3602
S'generic_patterns'
p3603
asbag57
(g78
g59
NtRp3604
(dp3605
g62
(dp3606
g89
g90
ssg71
g3595
sg64
(lp3607
S':'
asbag57
(g78
g59
NtRp3608
(dp3609
g62
(dp3610
sg71
g3595
sg64
(lp3611
g57
(g58
g59
NtRp3612
(dp3613
g62
(dp3614
g70
I5
ssg71
g3608
sg64
(lp3615
g57
(g66
g59
NtRp3616
(dp3617
g62
(dp3618
g70
I4
ssg71
Nsg64
(lp3619
g57
(g73
g59
NtRp3620
(dp3621
g62
(dp3622
sg71
g3616
sg64
(lp3623
g57
(g78
g59
NtRp3624
(dp3625
g62
(dp3626
sg71
g3620
sg64
(lp3627
g57
(g58
g59
NtRp3628
(dp3629
g62
(dp3630
g70
I4
ssg71
g3624
sg64
(lp3631
S'*'
asbasbasbasbasbasbasbag57
(g73
g59
NtRp3632
(dp3633
g62
(dp3634
sg71
g3159
sg64
(lp3635
g57
(g78
g59
NtRp3636
(dp3637
g62
(dp3638
g82
g83
ssg71
g3632
sg64
(lp3639
S'headers'
p3640
asbag57
(g78
g59
NtRp3641
(dp3642
g62
(dp3643
g89
g90
ssg71
g3632
sg64
(lp3644
S':'
asbag57
(g78
g59
NtRp3645
(dp3646
g62
(dp3647
sg71
g3632
sg64
(lp3648
g57
(g58
g59
NtRp3649
(dp3650
g62
(dp3651
g70
I5
ssg71
g3645
sg64
(lp3652
g57
(g66
g59
NtRp3653
(dp3654
g62
(dp3655
g70
I4
ssg71
Nsg64
(lp3656
g57
(g73
g59
NtRp3657
(dp3658
g62
(dp3659
sg71
g3653
sg64
(lp3660
g57
(g78
g59
NtRp3661
(dp3662
g62
(dp3663
g82
g83
ssg71
g3657
sg64
(lp3664
S'Cache-Control'
p3665
asbag57
(g78
g59
NtRp3666
(dp3667
g62
(dp3668
g89
g90
ssg71
g3657
sg64
(lp3669
S':'
asbag57
(g78
g59
NtRp3670
(dp3671
g62
(dp3672
sg71
g3657
sg64
(lp3673
g57
(g58
g59
NtRp3674
(dp3675
g62
(dp3676
g70
I4
ssg71
g3670
sg64
(lp3677
S'no-store, no-cache, must-revalidate, post-check=0, pre-check=0'
p3678
asbasbasbag57
(g73
g59
NtRp3679
(dp3680
g62
(dp3681
sg71
g3653
sg64
(lp3682
g57
(g78
g59
NtRp3683
(dp3684
g62
(dp3685
g82
g83
ssg71
g3679
sg64
(lp3686
S'Content-Type'
p3687
asbag57
(g78
g59
NtRp3688
(dp3689
g62
(dp3690
g89
g90
ssg71
g3679
sg64
(lp3691
S':'
asbag57
(g78
g59
NtRp3692
(dp3693
g62
(dp3694
sg71
g3679
sg64
(lp3695
g57
(g58
g59
NtRp3696
(dp3697
g62
(dp3698
g70
I4
ssg71
g3692
sg64
(lp3699
S'text/html; charset=utf-8'
p3700
asbasbasbag57
(g73
g59
NtRp3701
(dp3702
g62
(dp3703
sg71
g3653
sg64
(lp3704
g57
(g78
g59
NtRp3705
(dp3706
g62
(dp3707
g82
g83
ssg71
g3701
sg64
(lp3708
S'Expires'
p3709
asbag57
(g78
g59
NtRp3710
(dp3711
g62
(dp3712
g89
g90
ssg71
g3701
sg64
(lp3713
S':'
asbag57
(g78
g59
NtRp3714
(dp3715
g62
(dp3716
sg71
g3701
sg64
(lp3717
g57
(g58
g59
NtRp3718
(dp3719
g62
(dp3720
g70
I4
ssg71
g3714
sg64
(lp3721
S'Sun, 17 Jun 2012 00:59:21 GMT'
p3722
asbasbasbag57
(g73
g59
NtRp3723
(dp3724
g62
(dp3725
sg71
g3653
sg64
(lp3726
g57
(g78
g59
NtRp3727
(dp3728
g62
(dp3729
g82
g83
ssg71
g3723
sg64
(lp3730
S'Pragma'
p3731
asbag57
(g78
g59
NtRp3732
(dp3733
g62
(dp3734
g89
g90
ssg71
g3723
sg64
(lp3735
S':'
asbag57
(g78
g59
NtRp3736
(dp3737
g62
(dp3738
sg71
g3723
sg64
(lp3739
g57
(g58
g59
NtRp3740
(dp3741
g62
(dp3742
g70
I4
ssg71
g3736
sg64
(lp3743
S'no-cache'
p3744
asbasbasbag57
(g73
g59
NtRp3745
(dp3746
g62
(dp3747
sg71
g3653
sg64
(lp3748
g57
(g78
g59
NtRp3749
(dp3750
g62
(dp3751
g82
g83
ssg71
g3745
sg64
(lp3752
S'X-Powered-By'
p3753
asbag57
(g78
g59
NtRp3754
(dp3755
g62
(dp3756
g89
g90
ssg71
g3745
sg64
(lp3757
S':'
asbag57
(g78
g59
NtRp3758
(dp3759
g62
(dp3760
sg71
g3745
sg64
(lp3761
g57
(g58
g59
NtRp3762
(dp3763
g62
(dp3764
g70
I4
ssg71
g3758
sg64
(lp3765
S'web2py'
p3766
asbasbasbasbasbasbasbag57
(g73
g59
NtRp3767
(dp3768
g62
(dp3769
sg71
g3159
sg64
(lp3770
g57
(g78
g59
NtRp3771
(dp3772
g62
(dp3773
g82
g83
ssg71
g3767
sg64
(lp3774
S'menu'
p3775
asbag57
(g78
g59
NtRp3776
(dp3777
g62
(dp3778
g89
g90
ssg71
g3767
sg64
(lp3779
S':'
asbag57
(g78
g59
NtRp3780
(dp3781
g62
(dp3782
sg71
g3767
sg64
(lp3783
g57
(g58
g59
NtRp3784
(dp3785
g62
(dp3786
g70
I5
ssg71
g3780
sg64
(lp3787
g57
(g66
g59
NtRp3788
(dp3789
g62
(dp3790
g70
I4
ssg71
Nsg64
(lp3791
g57
(g73
g59
NtRp3792
(dp3793
g62
(dp3794
sg71
g3788
sg64
(lp3795
g57
(g78
g59
NtRp3796
(dp3797
g62
(dp3798
sg71
g3792
sg64
(lp3799
g57
(g58
g59
NtRp3800
(dp3801
g62
(dp3802
g70
I4
ssg71
g3796
sg64
(lp3803
g57
(g66
g59
NtRp3804
(dp3805
g62
(dp3806
g70
I3
ssg71
Nsg64
(lp3807
g57
(g73
g59
NtRp3808
(dp3809
g62
(dp3810
sg71
g3804
sg64
(lp3811
g57
(g78
g59
NtRp3812
(dp3813
g62
(dp3814
sg71
g3808
sg64
(lp3815
g57
(g58
g59
NtRp3816
(dp3817
g62
(dp3818
g70
I3
ssg71
g3812
sg64
(lp3819
cgluon.languages
lazyT_unpickle
p3820
(S't\x04\x00\x00\x00Home'
tRp3821
asbasbasbag57
(g73
g59
NtRp3822
(dp3823
g62
(dp3824
sg71
g3804
sg64
(lp3825
g57
(g78
g59
NtRp3826
(dp3827
g62
(dp3828
sg71
g3822
sg64
(lp3829
g57
(g58
g59
NtRp3830
(dp3831
g62
(dp3832
g70
I3
ssg71
g3826
sg64
(lp3833
g100
asbasbasbag57
(g73
g59
NtRp3834
(dp3835
g62
(dp3836
sg71
g3804
sg64
(lp3837
g57
(g78
g59
NtRp3838
(dp3839
g62
(dp3840
sg71
g3834
sg64
(lp3841
g57
(g58
g59
NtRp3842
(dp3843
g62
(dp3844
g70
I3
ssg71
g3838
sg64
(lp3845
S'/milo/default/index'
p3846
asbasbasbag57
(g73
g59
NtRp3847
(dp3848
g62
(dp3849
sg71
g3804
sg64
(lp3850
g57
(g78
g59
NtRp3851
(dp3852
g62
(dp3853
sg71
g3847
sg64
(lp3854
g57
(g58
g59
NtRp3855
(dp3856
g62
(dp3857
g70
I3
ssg71
g3851
sg64
(lp3858
g57
(g66
g59
NtRp3859
(dp3860
g62
(dp3861
g70
I2
ssg71
Nsg64
(lp3862
sbasbasbasbasbasbasbasbag57
(g73
g59
NtRp3863
(dp3864
g62
(dp3865
sg71
g3788
sg64
(lp3866
g57
(g78
g59
NtRp3867
(dp3868
g62
(dp3869
sg71
g3863
sg64
(lp3870
g57
(g58
g59
NtRp3871
(dp3872
g62
(dp3873
g70
I4
ssg71
g3867
sg64
(lp3874
g57
(g66
g59
NtRp3875
(dp3876
g62
(dp3877
g70
I3
ssg71
Nsg64
(lp3878
g57
(g73
g59
NtRp3879
(dp3880
g62
(dp3881
sg71
g3875
sg64
(lp3882
g57
(g78
g59
NtRp3883
(dp3884
g62
(dp3885
sg71
g3879
sg64
(lp3886
g57
(g58
g59
NtRp3887
(dp3888
g62
(dp3889
g70
I3
ssg71
g3883
sg64
(lp3890
g57
(cgluon.html
SPAN
p3891
g59
NtRp3892
(dp3893
g62
(dp3894
g82
S'color:yellow'
p3895
ssg71
g57
(cgluon.html
A
p3896
g59
NtRp3897
(dp3898
g62
(dp3899
S'_onclick'
p3900
S'javascript:void(0);return false;'
p3901
sS'_href'
p3902
S'#'
ssg71
g57
(cgluon.html
LI
p3903
g59
NtRp3904
(dp3905
g62
(dp3906
S'_class'
p3907
S'web2py-menu-expand'
p3908
ssg71
g57
(cgluon.html
UL
p3909
g59
NtRp3910
(dp3911
g62
(dp3912
S'mobile'
p3913
I00
sS'li_class'
p3914
g3908
sg3907
S'sf-menu'
p3915
sS'ul_class'
p3916
S'web2py-menu-vertical'
p3917
sS'li_active'
p3918
S'web2py-menu-active'
p3919
ssg71
Nsg64
(lp3920
g57
(g3903
g59
NtRp3921
(dp3922
g62
(dp3923
sg71
g3910
sg64
(lp3924
g57
(g3896
g59
NtRp3925
(dp3926
g62
(dp3927
g3902
g3846
ssg71
g3921
sg64
(lp3928
g3821
asbasbag3904
asbsg64
(lp3929
g3897
ag57
(g3909
g59
NtRp3930
(dp3931
g62
(dp3932
g3907
g3917
ssg71
g3904
sg64
(lp3933
g57
(g3903
g59
NtRp3934
(dp3935
g62
(dp3936
sg71
g3930
sg64
(lp3937
g57
(g3896
g59
NtRp3938
(dp3939
g62
(dp3940
g3902
S'/admin/default/site'
p3941
ssg71
g3934
sg64
(lp3942
g3820
(S's\x08\x00\x00\x00My Sites'
tRp3943
asbasbag57
(g3903
g59
NtRp3944
(dp3945
g62
(dp3946
g3907
g3908
ssg71
g3930
sg64
(lp3947
g57
(g3896
g59
NtRp3948
(dp3949
g62
(dp3950
g3902
S'/admin/default/design/milo'
p3951
ssg71
g3944
sg64
(lp3952
g3820
(S's\x08\x00\x00\x00This App'
tRp3953
asbag57
(g3909
g59
NtRp3954
(dp3955
g62
(dp3956
g3907
g3917
ssg71
g3944
sg64
(lp3957
g57
(g3903
g59
NtRp3958
(dp3959
g62
(dp3960
sg71
g3954
sg64
(lp3961
g57
(g3896
g59
NtRp3962
(dp3963
g62
(dp3964
g3902
S'/admin/default/edit/milo/controllers/default.py'
p3965
ssg71
g3958
sg64
(lp3966
g3820
(S't\n\x00\x00\x00Controller'
tRp3967
asbasbag57
(g3903
g59
NtRp3968
(dp3969
g62
(dp3970
sg71
g3954
sg64
(lp3971
g57
(g3896
g59
NtRp3972
(dp3973
g62
(dp3974
g3902
S'/admin/default/edit/milo/views/default/index.html'
p3975
ssg71
g3968
sg64
(lp3976
g3820
(S't\x04\x00\x00\x00View'
tRp3977
asbasbag57
(g3903
g59
NtRp3978
(dp3979
g62
(dp3980
sg71
g3954
sg64
(lp3981
g57
(g3896
g59
NtRp3982
(dp3983
g62
(dp3984
g3902
S'/admin/default/edit/milo/views/layout.html'
p3985
ssg71
g3978
sg64
(lp3986
g3820
(S't\x06\x00\x00\x00Layout'
tRp3987
asbasbag57
(g3903
g59
NtRp3988
(dp3989
g62
(dp3990
sg71
g3954
sg64
(lp3991
g57
(g3896
g59
NtRp3992
(dp3993
g62
(dp3994
g3902
S'/admin/default/edit/milo/static/css/web2py.css'
p3995
ssg71
g3988
sg64
(lp3996
g3820
(S't\n\x00\x00\x00Stylesheet'
tRp3997
asbasbag57
(g3903
g59
NtRp3998
(dp3999
g62
(dp4000
sg71
g3954
sg64
(lp4001
g57
(g3896
g59
NtRp4002
(dp4003
g62
(dp4004
g3902
S'/admin/default/edit/milo/models/db.py'
p4005
ssg71
g3998
sg64
(lp4006
g3820
(S's\x08\x00\x00\x00DB Model'
tRp4007
asbasbag57
(g3903
g59
NtRp4008
(dp4009
g62
(dp4010
sg71
g3954
sg64
(lp4011
g57
(g3896
g59
NtRp4012
(dp4013
g62
(dp4014
g3902
S'/admin/default/edit/milo/models/menu.py'
p4015
ssg71
g4008
sg64
(lp4016
g3820
(S's\n\x00\x00\x00Menu Model'
tRp4017
asbasbag57
(g3903
g59
NtRp4018
(dp4019
g62
(dp4020
sg71
g3954
sg64
(lp4021
g57
(g3896
g59
NtRp4022
(dp4023
g62
(dp4024
g3902
S'/milo/appadmin/index'
p4025
ssg71
g4018
sg64
(lp4026
g3820
(S't\x08\x00\x00\x00Database'
tRp4027
asbasbag57
(g3903
g59
NtRp4028
(dp4029
g62
(dp4030
sg71
g3954
sg64
(lp4031
g57
(g3896
g59
NtRp4032
(dp4033
g62
(dp4034
g3902
S'/admin/default/errors/milo'
p4035
ssg71
g4028
sg64
(lp4036
g3820
(S't\x06\x00\x00\x00Errors'
tRp4037
asbasbag57
(g3903
g59
NtRp4038
(dp4039
g62
(dp4040
sg71
g3954
sg64
(lp4041
g57
(g3896
g59
NtRp4042
(dp4043
g62
(dp4044
g3902
S'/admin/default/about/milo'
p4045
ssg71
g4038
sg64
(lp4046
g3820
(S't\x05\x00\x00\x00About'
tRp4047
asbasbasbasbag57
(g3903
g59
NtRp4048
(dp4049
g62
(dp4050
g3907
g3908
ssg71
g3930
sg64
(lp4051
g57
(g3896
g59
NtRp4052
(dp4053
g62
(dp4054
g3902
S'http://www.web2py.com'
p4055
ssg71
g4048
sg64
(lp4056
S'web2py.com'
p4057
asbag57
(g3909
g59
NtRp4058
(dp4059
g62
(dp4060
g3907
g3917
ssg71
g4048
sg64
(lp4061
g57
(g3903
g59
NtRp4062
(dp4063
g62
(dp4064
sg71
g4058
sg64
(lp4065
g57
(g3896
g59
NtRp4066
(dp4067
g62
(dp4068
g3902
S'http://www.web2py.com/examples/default/download'
p4069
ssg71
g4062
sg64
(lp4070
g3820
(S't\x08\x00\x00\x00Download'
tRp4071
asbasbag57
(g3903
g59
NtRp4072
(dp4073
g62
(dp4074
sg71
g4058
sg64
(lp4075
g57
(g3896
g59
NtRp4076
(dp4077
g62
(dp4078
g3902
S'http://www.web2py.com/examples/default/support'
p4079
ssg71
g4072
sg64
(lp4080
g3820
(S't\x07\x00\x00\x00Support'
tRp4081
asbasbag57
(g3903
g59
NtRp4082
(dp4083
g62
(dp4084
sg71
g4058
sg64
(lp4085
g57
(g3896
g59
NtRp4086
(dp4087
g62
(dp4088
g3902
S'http://web2py.com/demo_admin'
p4089
ssg71
g4082
sg64
(lp4090
g3820
(S't\x04\x00\x00\x00Demo'
tRp4091
asbasbag57
(g3903
g59
NtRp4092
(dp4093
g62
(dp4094
sg71
g4058
sg64
(lp4095
g57
(g3896
g59
NtRp4096
(dp4097
g62
(dp4098
g3902
S'http://web2py.com/examples/default/examples'
p4099
ssg71
g4092
sg64
(lp4100
g3820
(S's\x0e\x00\x00\x00Quick Examples'
tRp4101
asbasbag57
(g3903
g59
NtRp4102
(dp4103
g62
(dp4104
sg71
g4058
sg64
(lp4105
g57
(g3896
g59
NtRp4106
(dp4107
g62
(dp4108
g3902
S'http://web2py.com/AlterEgo'
p4109
ssg71
g4102
sg64
(lp4110
g3820
(S't\x03\x00\x00\x00FAQ'
tRp4111
asbasbag57
(g3903
g59
NtRp4112
(dp4113
g62
(dp4114
sg71
g4058
sg64
(lp4115
g57
(g3896
g59
NtRp4116
(dp4117
g62
(dp4118
g3902
S'http://www.web2py.com/examples/default/videos/'
p4119
ssg71
g4112
sg64
(lp4120
g3820
(S't\x06\x00\x00\x00Videos'
tRp4121
asbasbag57
(g3903
g59
NtRp4122
(dp4123
g62
(dp4124
sg71
g4058
sg64
(lp4125
g57
(g3896
g59
NtRp4126
(dp4127
g62
(dp4128
g3902
S'http://web2py.com/appliances'
p4129
ssg71
g4122
sg64
(lp4130
g3820
(S's\x11\x00\x00\x00Free Applications'
tRp4131
asbasbag57
(g3903
g59
NtRp4132
(dp4133
g62
(dp4134
sg71
g4058
sg64
(lp4135
g57
(g3896
g59
NtRp4136
(dp4137
g62
(dp4138
g3902
S'http://web2py.com/plugins'
p4139
ssg71
g4132
sg64
(lp4140
g3820
(S't\x07\x00\x00\x00Plugins'
tRp4141
asbasbag57
(g3903
g59
NtRp4142
(dp4143
g62
(dp4144
sg71
g4058
sg64
(lp4145
g57
(g3896
g59
NtRp4146
(dp4147
g62
(dp4148
g3902
S'http://web2py.com/layouts'
p4149
ssg71
g4142
sg64
(lp4150
g3820
(S't\x07\x00\x00\x00Layouts'
tRp4151
asbasbag57
(g3903
g59
NtRp4152
(dp4153
g62
(dp4154
sg71
g4058
sg64
(lp4155
g57
(g3896
g59
NtRp4156
(dp4157
g62
(dp4158
g3902
S'http://web2pyslices.com/'
p4159
ssg71
g4152
sg64
(lp4160
g3820
(S't\x07\x00\x00\x00Recipes'
tRp4161
asbasbag57
(g3903
g59
NtRp4162
(dp4163
g62
(dp4164
sg71
g4058
sg64
(lp4165
g57
(g3896
g59
NtRp4166
(dp4167
g62
(dp4168
g3902
S'http://web2py.com/semantic'
p4169
ssg71
g4162
sg64
(lp4170
g3820
(S't\x08\x00\x00\x00Semantic'
tRp4171
asbasbasbasbag57
(g3903
g59
NtRp4172
(dp4173
g62
(dp4174
g3907
g3908
ssg71
g3930
sg64
(lp4175
g57
(g3896
g59
NtRp4176
(dp4177
g62
(dp4178
g3902
S'http://www.web2py.com/book'
p4179
ssg71
g4172
sg64
(lp4180
g3820
(S't\r\x00\x00\x00Documentation'
tRp4181
asbag57
(g3909
g59
NtRp4182
(dp4183
g62
(dp4184
g3907
g3917
ssg71
g4172
sg64
(lp4185
g57
(g3903
g59
NtRp4186
(dp4187
g62
(dp4188
sg71
g4182
sg64
(lp4189
g57
(g3896
g59
NtRp4190
(dp4191
g62
(dp4192
g3902
S'http://www.web2py.com/book/default/chapter/00'
p4193
ssg71
g4186
sg64
(lp4194
g3820
(S't\x07\x00\x00\x00Preface'
tRp4195
asbasbag57
(g3903
g59
NtRp4196
(dp4197
g62
(dp4198
sg71
g4182
sg64
(lp4199
g57
(g3896
g59
NtRp4200
(dp4201
g62
(dp4202
g3902
S'http://www.web2py.com/book/default/chapter/01'
p4203
ssg71
g4196
sg64
(lp4204
g3820
(S't\x0c\x00\x00\x00Introduction'
tRp4205
asbasbag57
(g3903
g59
NtRp4206
(dp4207
g62
(dp4208
sg71
g4182
sg64
(lp4209
g57
(g3896
g59
NtRp4210
(dp4211
g62
(dp4212
g3902
S'http://www.web2py.com/book/default/chapter/02'
p4213
ssg71
g4206
sg64
(lp4214
g3820
(S't\x06\x00\x00\x00Python'
tRp4215
asbasbag57
(g3903
g59
NtRp4216
(dp4217
g62
(dp4218
sg71
g4182
sg64
(lp4219
g57
(g3896
g59
NtRp4220
(dp4221
g62
(dp4222
g3902
S'http://www.web2py.com/book/default/chapter/03'
p4223
ssg71
g4216
sg64
(lp4224
g3820
(S't\x08\x00\x00\x00Overview'
tRp4225
asbasbag57
(g3903
g59
NtRp4226
(dp4227
g62
(dp4228
sg71
g4182
sg64
(lp4229
g57
(g3896
g59
NtRp4230
(dp4231
g62
(dp4232
g3902
S'http://www.web2py.com/book/default/chapter/04'
p4233
ssg71
g4226
sg64
(lp4234
g3820
(S's\x08\x00\x00\x00The Core'
tRp4235
asbasbag57
(g3903
g59
NtRp4236
(dp4237
g62
(dp4238
sg71
g4182
sg64
(lp4239
g57
(g3896
g59
NtRp4240
(dp4241
g62
(dp4242
g3902
S'http://www.web2py.com/book/default/chapter/05'
p4243
ssg71
g4236
sg64
(lp4244
g3820
(S's\t\x00\x00\x00The Views'
tRp4245
asbasbag57
(g3903
g59
NtRp4246
(dp4247
g62
(dp4248
sg71
g4182
sg64
(lp4249
g57
(g3896
g59
NtRp4250
(dp4251
g62
(dp4252
g3902
S'http://www.web2py.com/book/default/chapter/06'
p4253
ssg71
g4246
sg64
(lp4254
g3820
(S't\x08\x00\x00\x00Database'
tRp4255
asbasbag57
(g3903
g59
NtRp4256
(dp4257
g62
(dp4258
sg71
g4182
sg64
(lp4259
g57
(g3896
g59
NtRp4260
(dp4261
g62
(dp4262
g3902
S'http://www.web2py.com/book/default/chapter/07'
p4263
ssg71
g4256
sg64
(lp4264
g3820
(S's\x14\x00\x00\x00Forms and Validators'
tRp4265
asbasbag57
(g3903
g59
NtRp4266
(dp4267
g62
(dp4268
sg71
g4182
sg64
(lp4269
g57
(g3896
g59
NtRp4270
(dp4271
g62
(dp4272
g3902
S'http://www.web2py.com/book/default/chapter/08'
p4273
ssg71
g4266
sg64
(lp4274
g3820
(S's\r\x00\x00\x00Email and SMS'
tRp4275
asbasbag57
(g3903
g59
NtRp4276
(dp4277
g62
(dp4278
sg71
g4182
sg64
(lp4279
g57
(g3896
g59
NtRp4280
(dp4281
g62
(dp4282
g3902
S'http://www.web2py.com/book/default/chapter/09'
p4283
ssg71
g4276
sg64
(lp4284
g3820
(S's\x0e\x00\x00\x00Access Control'
tRp4285
asbasbag57
(g3903
g59
NtRp4286
(dp4287
g62
(dp4288
sg71
g4182
sg64
(lp4289
g57
(g3896
g59
NtRp4290
(dp4291
g62
(dp4292
g3902
S'http://www.web2py.com/book/default/chapter/10'
p4293
ssg71
g4286
sg64
(lp4294
g3820
(S't\x08\x00\x00\x00Services'
tRp4295
asbasbag57
(g3903
g59
NtRp4296
(dp4297
g62
(dp4298
sg71
g4182
sg64
(lp4299
g57
(g3896
g59
NtRp4300
(dp4301
g62
(dp4302
g3902
S'http://www.web2py.com/book/default/chapter/11'
p4303
ssg71
g4296
sg64
(lp4304
g3820
(S's\x0c\x00\x00\x00Ajax Recipes'
tRp4305
asbasbag57
(g3903
g59
NtRp4306
(dp4307
g62
(dp4308
sg71
g4182
sg64
(lp4309
g57
(g3896
g59
NtRp4310
(dp4311
g62
(dp4312
g3902
S'http://www.web2py.com/book/default/chapter/12'
p4313
ssg71
g4306
sg64
(lp4314
g3820
(S's\x16\x00\x00\x00Components and Plugins'
tRp4315
asbasbag57
(g3903
g59
NtRp4316
(dp4317
g62
(dp4318
sg71
g4182
sg64
(lp4319
g57
(g3896
g59
NtRp4320
(dp4321
g62
(dp4322
g3902
S'http://www.web2py.com/book/default/chapter/13'
p4323
ssg71
g4316
sg64
(lp4324
g3820
(S's\x12\x00\x00\x00Deployment Recipes'
tRp4325
asbasbag57
(g3903
g59
NtRp4326
(dp4327
g62
(dp4328
sg71
g4182
sg64
(lp4329
g57
(g3896
g59
NtRp4330
(dp4331
g62
(dp4332
g3902
S'http://www.web2py.com/book/default/chapter/14'
p4333
ssg71
g4326
sg64
(lp4334
g3820
(S's\r\x00\x00\x00Other Recipes'
tRp4335
asbasbag57
(g3903
g59
NtRp4336
(dp4337
g62
(dp4338
sg71
g4182
sg64
(lp4339
g57
(g3896
g59
NtRp4340
(dp4341
g62
(dp4342
g3902
S'http://stores.lulu.com/web2py'
p4343
ssg71
g4336
sg64
(lp4344
g3820
(S's\r\x00\x00\x00Buy this book'
tRp4345
asbasbasbasbag57
(g3903
g59
NtRp4346
(dp4347
g62
(dp4348
g3907
g3908
ssg71
g3930
sg64
(lp4349
g57
(g3896
g59
NtRp4350
(dp4351
g62
(dp4352
g3900
g3901
sg3902
S'#'
ssg71
g4346
sg64
(lp4353
g3820
(S't\t\x00\x00\x00Community'
tRp4354
asbag57
(g3909
g59
NtRp4355
(dp4356
g62
(dp4357
g3907
g3917
ssg71
g4346
sg64
(lp4358
g57
(g3903
g59
NtRp4359
(dp4360
g62
(dp4361
sg71
g4355
sg64
(lp4362
g57
(g3896
g59
NtRp4363
(dp4364
g62
(dp4365
g3902
S'http://www.web2py.com/examples/default/usergroups'
p4366
ssg71
g4359
sg64
(lp4367
g3820
(S't\x06\x00\x00\x00Groups'
tRp4368
asbasbag57
(g3903
g59
NtRp4369
(dp4370
g62
(dp4371
sg71
g4355
sg64
(lp4372
g57
(g3896
g59
NtRp4373
(dp4374
g62
(dp4375
g3902
S'http://twitter.com/web2py'
p4376
ssg71
g4369
sg64
(lp4377
g3820
(S't\x07\x00\x00\x00Twitter'
tRp4378
asbasbag57
(g3903
g59
NtRp4379
(dp4380
g62
(dp4381
sg71
g4355
sg64
(lp4382
g57
(g3896
g59
NtRp4383
(dp4384
g62
(dp4385
g3902
S'http://webchat.freenode.net/?channels=web2py'
p4386
ssg71
g4379
sg64
(lp4387
g3820
(S's\t\x00\x00\x00Live Chat'
tRp4388
asbasbasbasbag57
(g3903
g59
NtRp4389
(dp4390
g62
(dp4391
g3907
g3908
ssg71
g3930
sg64
(lp4392
g57
(g3896
g59
NtRp4393
(dp4394
g62
(dp4395
g3900
g3901
sg3902
S'#'
ssg71
g4389
sg64
(lp4396
g3820
(S't\x07\x00\x00\x00Plugins'
tRp4397
asbag57
(g3909
g59
NtRp4398
(dp4399
g62
(dp4400
g3907
g3917
ssg71
g4389
sg64
(lp4401
g57
(g3903
g59
NtRp4402
(dp4403
g62
(dp4404
sg71
g4398
sg64
(lp4405
g57
(g3896
g59
NtRp4406
(dp4407
g62
(dp4408
g3902
S'http://web2py.com/examples/default/download'
p4409
ssg71
g4402
sg64
(lp4410
S'plugin_wiki'
p4411
asbasbag57
(g3903
g59
NtRp4412
(dp4413
g62
(dp4414
sg71
g4398
sg64
(lp4415
g57
(g3896
g59
NtRp4416
(dp4417
g62
(dp4418
g3902
g4139
ssg71
g4412
sg64
(lp4419
g3820
(S's\r\x00\x00\x00Other Plugins'
tRp4420
asbasbag57
(g3903
g59
NtRp4421
(dp4422
g62
(dp4423
sg71
g4398
sg64
(lp4424
g57
(g3896
g59
NtRp4425
(dp4426
g62
(dp4427
g3902
g4149
ssg71
g4421
sg64
(lp4428
g3820
(S's\x0e\x00\x00\x00Layout Plugins'
tRp4429
asbasbasbasbasbasbsg64
(lp4430
g3892
asbsg64
(lp4431
g3766
asbasbasbasbag57
(g73
g59
NtRp4432
(dp4433
g62
(dp4434
sg71
g3875
sg64
(lp4435
g57
(g78
g59
NtRp4436
(dp4437
g62
(dp4438
sg71
g4432
sg64
(lp4439
g57
(g58
g59
NtRp4440
(dp4441
g62
(dp4442
g70
I3
ssg71
g4436
sg64
(lp4443
g100
asbasbasbag57
(g73
g59
NtRp4444
(dp4445
g62
(dp4446
sg71
g3875
sg64
(lp4447
g57
(g78
g59
NtRp4448
(dp4449
g62
(dp4450
sg71
g4444
sg64
(lp4451
g57
(g58
g59
NtRp4452
(dp4453
g62
(dp4454
g70
I3
ssg71
g4448
sg64
(lp4455
S'None'
p4456
asbasbasbag57
(g73
g59
NtRp4457
(dp4458
g62
(dp4459
sg71
g3875
sg64
(lp4460
g57
(g78
g59
NtRp4461
(dp4462
g62
(dp4463
sg71
g4457
sg64
(lp4464
g57
(g58
g59
NtRp4465
(dp4466
g62
(dp4467
g70
I3
ssg71
g4461
sg64
(lp4468
g57
(g66
g59
NtRp4469
(dp4470
g62
(dp4471
g70
I2
ssg71
Nsg64
(lp4472
g57
(g73
g59
NtRp4473
(dp4474
g62
(dp4475
sg71
g4469
sg64
(lp4476
g57
(g78
g59
NtRp4477
(dp4478
g62
(dp4479
sg71
g4473
sg64
(lp4480
g57
(g58
g59
NtRp4481
(dp4482
g62
(dp4483
g70
I2
ssg71
g4477
sg64
(lp4484
g57
(g66
g59
NtRp4485
(dp4486
g62
(dp4487
g70
I1
ssg71
Nsg64
(lp4488
g57
(g73
g59
NtRp4489
(dp4490
g62
(dp4491
sg71
g4485
sg64
(lp4492
g57
(g78
g59
NtRp4493
(dp4494
g62
(dp4495
sg71
g4489
sg64
(lp4496
g57
(g58
g59
NtRp4497
(dp4498
g62
(dp4499
g70
I1
ssg71
g4493
sg64
(lp4500
g3943
asbasbasbag57
(g73
g59
NtRp4501
(dp4502
g62
(dp4503
sg71
g4485
sg64
(lp4504
g57
(g78
g59
NtRp4505
(dp4506
g62
(dp4507
sg71
g4501
sg64
(lp4508
g57
(g58
g59
NtRp4509
(dp4510
g62
(dp4511
g70
I1
ssg71
g4505
sg64
(lp4512
I00
asbasbasbag57
(g73
g59
NtRp4513
(dp4514
g62
(dp4515
sg71
g4485
sg64
(lp4516
g57
(g78
g59
NtRp4517
(dp4518
g62
(dp4519
sg71
g4513
sg64
(lp4520
g57
(g58
g59
NtRp4521
(dp4522
g62
(dp4523
g70
I1
ssg71
g4517
sg64
(lp4524
g3941
asbasbasbasbasbasbasbag57
(g73
g59
NtRp4525
(dp4526
g62
(dp4527
sg71
g4469
sg64
(lp4528
g57
(g78
g59
NtRp4529
(dp4530
g62
(dp4531
sg71
g4525
sg64
(lp4532
g57
(g58
g59
NtRp4533
(dp4534
g62
(dp4535
g70
I2
ssg71
g4529
sg64
(lp4536
g57
(g66
g59
NtRp4537
(dp4538
g62
(dp4539
g70
I1
ssg71
Nsg64
(lp4540
g57
(g73
g59
NtRp4541
(dp4542
g62
(dp4543
sg71
g4537
sg64
(lp4544
g57
(g78
g59
NtRp4545
(dp4546
g62
(dp4547
sg71
g4541
sg64
(lp4548
g57
(g58
g59
NtRp4549
(dp4550
g62
(dp4551
g70
I1
ssg71
g4545
sg64
(lp4552
g3953
asbasbasbag57
(g73
g59
NtRp4553
(dp4554
g62
(dp4555
sg71
g4537
sg64
(lp4556
g57
(g78
g59
NtRp4557
(dp4558
g62
(dp4559
sg71
g4553
sg64
(lp4560
g57
(g58
g59
NtRp4561
(dp4562
g62
(dp4563
g70
I1
ssg71
g4557
sg64
(lp4564
I00
asbasbasbag57
(g73
g59
NtRp4565
(dp4566
g62
(dp4567
sg71
g4537
sg64
(lp4568
g57
(g78
g59
NtRp4569
(dp4570
g62
(dp4571
sg71
g4565
sg64
(lp4572
g57
(g58
g59
NtRp4573
(dp4574
g62
(dp4575
g70
I1
ssg71
g4569
sg64
(lp4576
g3951
asbasbasbag57
(g73
g59
NtRp4577
(dp4578
g62
(dp4579
sg71
g4537
sg64
(lp4580
g57
(g78
g59
NtRp4581
(dp4582
g62
(dp4583
sg71
g4577
sg64
(lp4584
g57
(g58
g59
NtRp4585
(dp4586
g62
(dp4587
g70
I1
ssg71
g4581
sg64
(lp4588
(lp4589
(g3967
I00
g3965
tp4590
a(g3977
I00
g3975
tp4591
a(g3987
I00
g3985
tp4592
a(g3997
I00
g3995
tp4593
a(g4007
I00
g4005
tp4594
a(g4017
I00
g4015
tp4595
a(g4027
I00
g4025
tp4596
a(g4037
I00
g4035
tp4597
a(g4047
I00
g4045
tp4598
aasbasbasbasbasbasbasbag57
(g73
g59
NtRp4599
(dp4600
g62
(dp4601
sg71
g4469
sg64
(lp4602
g57
(g78
g59
NtRp4603
(dp4604
g62
(dp4605
sg71
g4599
sg64
(lp4606
g57
(g58
g59
NtRp4607
(dp4608
g62
(dp4609
g70
I2
ssg71
g4603
sg64
(lp4610
g57
(g66
g59
NtRp4611
(dp4612
g62
(dp4613
g70
I1
ssg71
Nsg64
(lp4614
g57
(g73
g59
NtRp4615
(dp4616
g62
(dp4617
sg71
g4611
sg64
(lp4618
g57
(g78
g59
NtRp4619
(dp4620
g62
(dp4621
sg71
g4615
sg64
(lp4622
g57
(g58
g59
NtRp4623
(dp4624
g62
(dp4625
g70
I1
ssg71
g4619
sg64
(lp4626
g4057
asbasbasbag57
(g73
g59
NtRp4627
(dp4628
g62
(dp4629
sg71
g4611
sg64
(lp4630
g57
(g78
g59
NtRp4631
(dp4632
g62
(dp4633
sg71
g4627
sg64
(lp4634
g57
(g58
g59
NtRp4635
(dp4636
g62
(dp4637
g70
I1
ssg71
g4631
sg64
(lp4638
I00
asbasbasbag57
(g73
g59
NtRp4639
(dp4640
g62
(dp4641
sg71
g4611
sg64
(lp4642
g57
(g78
g59
NtRp4643
(dp4644
g62
(dp4645
sg71
g4639
sg64
(lp4646
g57
(g58
g59
NtRp4647
(dp4648
g62
(dp4649
g70
I1
ssg71
g4643
sg64
(lp4650
g4055
asbasbasbag57
(g73
g59
NtRp4651
(dp4652
g62
(dp4653
sg71
g4611
sg64
(lp4654
g57
(g78
g59
NtRp4655
(dp4656
g62
(dp4657
sg71
g4651
sg64
(lp4658
g57
(g58
g59
NtRp4659
(dp4660
g62
(dp4661
g70
I1
ssg71
g4655
sg64
(lp4662
(lp4663
(g4071
I00
g4069
tp4664
a(g4081
I00
g4079
tp4665
a(g4091
I00
g4089
tp4666
a(g4101
I00
g4099
tp4667
a(g4111
I00
g4109
tp4668
a(g4121
I00
g4119
tp4669
a(g4131
I00
g4129
tp4670
a(g4141
I00
g4139
tp4671
a(g4151
I00
g4149
tp4672
a(g4161
I00
g4159
tp4673
a(g4171
I00
g4169
tp4674
aasbasbasbasbasbasbasbag57
(g73
g59
NtRp4675
(dp4676
g62
(dp4677
sg71
g4469
sg64
(lp4678
g57
(g78
g59
NtRp4679
(dp4680
g62
(dp4681
sg71
g4675
sg64
(lp4682
g57
(g58
g59
NtRp4683
(dp4684
g62
(dp4685
g70
I2
ssg71
g4679
sg64
(lp4686
g57
(g66
g59
NtRp4687
(dp4688
g62
(dp4689
g70
I1
ssg71
Nsg64
(lp4690
g57
(g73
g59
NtRp4691
(dp4692
g62
(dp4693
sg71
g4687
sg64
(lp4694
g57
(g78
g59
NtRp4695
(dp4696
g62
(dp4697
sg71
g4691
sg64
(lp4698
g57
(g58
g59
NtRp4699
(dp4700
g62
(dp4701
g70
I1
ssg71
g4695
sg64
(lp4702
g4181
asbasbasbag57
(g73
g59
NtRp4703
(dp4704
g62
(dp4705
sg71
g4687
sg64
(lp4706
g57
(g78
g59
NtRp4707
(dp4708
g62
(dp4709
sg71
g4703
sg64
(lp4710
g57
(g58
g59
NtRp4711
(dp4712
g62
(dp4713
g70
I1
ssg71
g4707
sg64
(lp4714
I00
asbasbasbag57
(g73
g59
NtRp4715
(dp4716
g62
(dp4717
sg71
g4687
sg64
(lp4718
g57
(g78
g59
NtRp4719
(dp4720
g62
(dp4721
sg71
g4715
sg64
(lp4722
g57
(g58
g59
NtRp4723
(dp4724
g62
(dp4725
g70
I1
ssg71
g4719
sg64
(lp4726
g4179
asbasbasbag57
(g73
g59
NtRp4727
(dp4728
g62
(dp4729
sg71
g4687
sg64
(lp4730
g57
(g78
g59
NtRp4731
(dp4732
g62
(dp4733
sg71
g4727
sg64
(lp4734
g57
(g58
g59
NtRp4735
(dp4736
g62
(dp4737
g70
I1
ssg71
g4731
sg64
(lp4738
(lp4739
(g4195
I00
g4193
tp4740
a(g4205
I00
g4203
tp4741
a(g4215
I00
g4213
tp4742
a(g4225
I00
g4223
tp4743
a(g4235
I00
g4233
tp4744
a(g4245
I00
g4243
tp4745
a(g4255
I00
g4253
tp4746
a(g4265
I00
g4263
tp4747
a(g4275
I00
g4273
tp4748
a(g4285
I00
g4283
tp4749
a(g4295
I00
g4293
tp4750
a(g4305
I00
g4303
tp4751
a(g4315
I00
g4313
tp4752
a(g4325
I00
g4323
tp4753
a(g4335
I00
g4333
tp4754
a(g4345
I00
g4343
tp4755
aasbasbasbasbasbasbasbag57
(g73
g59
NtRp4756
(dp4757
g62
(dp4758
sg71
g4469
sg64
(lp4759
g57
(g78
g59
NtRp4760
(dp4761
g62
(dp4762
sg71
g4756
sg64
(lp4763
g57
(g58
g59
NtRp4764
(dp4765
g62
(dp4766
g70
I2
ssg71
g4760
sg64
(lp4767
g57
(g66
g59
NtRp4768
(dp4769
g62
(dp4770
g70
I1
ssg71
Nsg64
(lp4771
g57
(g73
g59
NtRp4772
(dp4773
g62
(dp4774
sg71
g4768
sg64
(lp4775
g57
(g78
g59
NtRp4776
(dp4777
g62
(dp4778
sg71
g4772
sg64
(lp4779
g57
(g58
g59
NtRp4780
(dp4781
g62
(dp4782
g70
I1
ssg71
g4776
sg64
(lp4783
g4354
asbasbasbag57
(g73
g59
NtRp4784
(dp4785
g62
(dp4786
sg71
g4768
sg64
(lp4787
g57
(g78
g59
NtRp4788
(dp4789
g62
(dp4790
sg71
g4784
sg64
(lp4791
g57
(g58
g59
NtRp4792
(dp4793
g62
(dp4794
g70
I1
ssg71
g4788
sg64
(lp4795
I00
asbasbasbag57
(g73
g59
NtRp4796
(dp4797
g62
(dp4798
sg71
g4768
sg64
(lp4799
g57
(g78
g59
NtRp4800
(dp4801
g62
(dp4802
sg71
g4796
sg64
(lp4803
g57
(g58
g59
NtRp4804
(dp4805
g62
(dp4806
g70
I1
ssg71
g4800
sg64
(lp4807
Nasbasbasbag57
(g73
g59
NtRp4808
(dp4809
g62
(dp4810
sg71
g4768
sg64
(lp4811
g57
(g78
g59
NtRp4812
(dp4813
g62
(dp4814
sg71
g4808
sg64
(lp4815
g57
(g58
g59
NtRp4816
(dp4817
g62
(dp4818
g70
I1
ssg71
g4812
sg64
(lp4819
(lp4820
(g4368
I00
g4366
tp4821
a(g4378
I00
g4376
tp4822
a(g4388
I00
g4386
tp4823
aasbasbasbasbasbasbasbag57
(g73
g59
NtRp4824
(dp4825
g62
(dp4826
sg71
g4469
sg64
(lp4827
g57
(g78
g59
NtRp4828
(dp4829
g62
(dp4830
sg71
g4824
sg64
(lp4831
g57
(g58
g59
NtRp4832
(dp4833
g62
(dp4834
g70
I2
ssg71
g4828
sg64
(lp4835
g57
(g66
g59
NtRp4836
(dp4837
g62
(dp4838
g70
I1
ssg71
Nsg64
(lp4839
g57
(g73
g59
NtRp4840
(dp4841
g62
(dp4842
sg71
g4836
sg64
(lp4843
g57
(g78
g59
NtRp4844
(dp4845
g62
(dp4846
sg71
g4840
sg64
(lp4847
g57
(g58
g59
NtRp4848
(dp4849
g62
(dp4850
g70
I1
ssg71
g4844
sg64
(lp4851
g4397
asbasbasbag57
(g73
g59
NtRp4852
(dp4853
g62
(dp4854
sg71
g4836
sg64
(lp4855
g57
(g78
g59
NtRp4856
(dp4857
g62
(dp4858
sg71
g4852
sg64
(lp4859
g57
(g58
g59
NtRp4860
(dp4861
g62
(dp4862
g70
I1
ssg71
g4856
sg64
(lp4863
I00
asbasbasbag57
(g73
g59
NtRp4864
(dp4865
g62
(dp4866
sg71
g4836
sg64
(lp4867
g57
(g78
g59
NtRp4868
(dp4869
g62
(dp4870
sg71
g4864
sg64
(lp4871
g57
(g58
g59
NtRp4872
(dp4873
g62
(dp4874
g70
I1
ssg71
g4868
sg64
(lp4875
Nasbasbasbag57
(g73
g59
NtRp4876
(dp4877
g62
(dp4878
sg71
g4836
sg64
(lp4879
g57
(g78
g59
NtRp4880
(dp4881
g62
(dp4882
sg71
g4876
sg64
(lp4883
g57
(g58
g59
NtRp4884
(dp4885
g62
(dp4886
g70
I1
ssg71
g4880
sg64
(lp4887
(lp4888
(g4411
I00
g4409
tp4889
a(g4420
I00
g4139
tp4890
a(g4429
I00
g4149
tp4891
aasbasbasbasbasbasbasbasbasbasbasbasbasbasbasbasbasbasbasbag57
(g73
g59
NtRp4892
(dp4893
g62
(dp4894
sg71
g3159
sg64
(lp4895
g57
(g78
g59
NtRp4896
(dp4897
g62
(dp4898
g82
g83
ssg71
g4892
sg64
(lp4899
S'meta'
p4900
asbag57
(g78
g59
NtRp4901
(dp4902
g62
(dp4903
g89
g90
ssg71
g4892
sg64
(lp4904
S':'
asbag57
(g78
g59
NtRp4905
(dp4906
g62
(dp4907
sg71
g4892
sg64
(lp4908
g57
(g58
g59
NtRp4909
(dp4910
g62
(dp4911
g70
I5
ssg71
g4905
sg64
(lp4912
g57
(g66
g59
NtRp4913
(dp4914
g62
(dp4915
g70
I4
ssg71
Nsg64
(lp4916
g57
(g73
g59
NtRp4917
(dp4918
g62
(dp4919
sg71
g4913
sg64
(lp4920
g57
(g78
g59
NtRp4921
(dp4922
g62
(dp4923
g82
g83
ssg71
g4917
sg64
(lp4924
S'author'
p4925
asbag57
(g78
g59
NtRp4926
(dp4927
g62
(dp4928
g89
g90
ssg71
g4917
sg64
(lp4929
S':'
asbag57
(g78
g59
NtRp4930
(dp4931
g62
(dp4932
sg71
g4917
sg64
(lp4933
g57
(g58
g59
NtRp4934
(dp4935
g62
(dp4936
g70
I4
ssg71
g4930
sg64
(lp4937
S'Your Name <you@example.com>'
p4938
asbasbasbag57
(g73
g59
NtRp4939
(dp4940
g62
(dp4941
sg71
g4913
sg64
(lp4942
g57
(g78
g59
NtRp4943
(dp4944
g62
(dp4945
g82
g83
ssg71
g4939
sg64
(lp4946
S'copyright'
p4947
asbag57
(g78
g59
NtRp4948
(dp4949
g62
(dp4950
g89
g90
ssg71
g4939
sg64
(lp4951
S':'
asbag57
(g78
g59
NtRp4952
(dp4953
g62
(dp4954
sg71
g4939
sg64
(lp4955
g57
(g58
g59
NtRp4956
(dp4957
g62
(dp4958
g70
I4
ssg71
g4952
sg64
(lp4959
S'Copyright 2011'
p4960
asbasbasbag57
(g73
g59
NtRp4961
(dp4962
g62
(dp4963
sg71
g4913
sg64
(lp4964
g57
(g78
g59
NtRp4965
(dp4966
g62
(dp4967
g82
g83
ssg71
g4961
sg64
(lp4968
S'description'
p4969
asbag57
(g78
g59
NtRp4970
(dp4971
g62
(dp4972
g89
g90
ssg71
g4961
sg64
(lp4973
S':'
asbag57
(g78
g59
NtRp4974
(dp4975
g62
(dp4976
sg71
g4961
sg64
(lp4977
g57
(g58
g59
NtRp4978
(dp4979
g62
(dp4980
g70
I4
ssg71
g4974
sg64
(lp4981
S'a cool new app'
p4982
asbasbasbag57
(g73
g59
NtRp4983
(dp4984
g62
(dp4985
sg71
g4913
sg64
(lp4986
g57
(g78
g59
NtRp4987
(dp4988
g62
(dp4989
g82
g83
ssg71
g4983
sg64
(lp4990
S'generator'
p4991
asbag57
(g78
g59
NtRp4992
(dp4993
g62
(dp4994
g89
g90
ssg71
g4983
sg64
(lp4995
S':'
asbag57
(g78
g59
NtRp4996
(dp4997
g62
(dp4998
sg71
g4983
sg64
(lp4999
g57
(g58
g59
NtRp5000
(dp5001
g62
(dp5002
g70
I4
ssg71
g4996
sg64
(lp5003
S'Web2py Web Framework'
p5004
asbasbasbag57
(g73
g59
NtRp5005
(dp5006
g62
(dp5007
sg71
g4913
sg64
(lp5008
g57
(g78
g59
NtRp5009
(dp5010
g62
(dp5011
g82
g83
ssg71
g5005
sg64
(lp5012
S'keywords'
p5013
asbag57
(g78
g59
NtRp5014
(dp5015
g62
(dp5016
g89
g90
ssg71
g5005
sg64
(lp5017
S':'
asbag57
(g78
g59
NtRp5018
(dp5019
g62
(dp5020
sg71
g5005
sg64
(lp5021
g57
(g58
g59
NtRp5022
(dp5023
g62
(dp5024
g70
I4
ssg71
g5018
sg64
(lp5025
S'web2py, python, framework'
p5026
asbasbasbasbasbasbasbag57
(g73
g59
NtRp5027
(dp5028
g62
(dp5029
sg71
g3159
sg64
(lp5030
g57
(g78
g59
NtRp5031
(dp5032
g62
(dp5033
g82
g83
ssg71
g5027
sg64
(lp5034
S'postprocessing'
p5035
asbag57
(g78
g59
NtRp5036
(dp5037
g62
(dp5038
g89
g90
ssg71
g5027
sg64
(lp5039
S':'
asbag57
(g78
g59
NtRp5040
(dp5041
g62
(dp5042
sg71
g5027
sg64
(lp5043
g57
(g58
g59
NtRp5044
(dp5045
g62
(dp5046
g70
I5
ssg71
g5040
sg64
(lp5047
g57
(g66
g59
NtRp5048
(dp5049
g62
(dp5050
g70
I4
ssg71
Nsg64
(lp5051
sbasbasbasbag57
(g73
g59
NtRp5052
(dp5053
g62
(dp5054
sg71
g3159
sg64
(lp5055
g57
(g78
g59
NtRp5056
(dp5057
g62
(dp5058
g82
g83
ssg71
g5052
sg64
(lp5059
S'session_file'
p5060
asbag57
(g78
g59
NtRp5061
(dp5062
g62
(dp5063
g89
g90
ssg71
g5052
sg64
(lp5064
S':'
asbag57
(g78
g59
NtRp5065
(dp5066
g62
(dp5067
sg71
g5052
sg64
(lp5068
g57
(g58
g59
NtRp5069
(dp5070
g62
(dp5071
g70
I5
ssg71
g5065
sg64
(lp5072
S"<open file '/home/goshawk/web2py/applications/milo/sessions/127.0.0.1-4a464e0e-f0b9-4de3-b8af-e6a04346340f', mode 'rb+' at 0x7fe3981a69c0>"
p5073
asbasbasbag57
(g73
g59
NtRp5074
(dp5075
g62
(dp5076
sg71
g3159
sg64
(lp5077
g57
(g78
g59
NtRp5078
(dp5079
g62
(dp5080
g82
g83
ssg71
g5074
sg64
(lp5081
S'session_filename'
p5082
asbag57
(g78
g59
NtRp5083
(dp5084
g62
(dp5085
g89
g90
ssg71
g5074
sg64
(lp5086
S':'
asbag57
(g78
g59
NtRp5087
(dp5088
g62
(dp5089
sg71
g5074
sg64
(lp5090
g57
(g58
g59
NtRp5091
(dp5092
g62
(dp5093
g70
I5
ssg71
g5087
sg64
(lp5094
S'/home/goshawk/web2py/applications/milo/sessions/127.0.0.1-4a464e0e-f0b9-4de3-b8af-e6a04346340f'
p5095
asbasbasbag57
(g73
g59
NtRp5096
(dp5097
g62
(dp5098
sg71
g3159
sg64
(lp5099
g57
(g78
g59
NtRp5100
(dp5101
g62
(dp5102
g82
g83
ssg71
g5096
sg64
(lp5103
S'session_id'
p5104
asbag57
(g78
g59
NtRp5105
(dp5106
g62
(dp5107
g89
g90
ssg71
g5096
sg64
(lp5108
S':'
asbag57
(g78
g59
NtRp5109
(dp5110
g62
(dp5111
sg71
g5096
sg64
(lp5112
g57
(g58
g59
NtRp5113
(dp5114
g62
(dp5115
g70
I5
ssg71
g5109
sg64
(lp5116
S'127.0.0.1-4a464e0e-f0b9-4de3-b8af-e6a04346340f'
p5117
asbasbasbag57
(g73
g59
NtRp5118
(dp5119
g62
(dp5120
sg71
g3159
sg64
(lp5121
g57
(g78
g59
NtRp5122
(dp5123
g62
(dp5124
g82
g83
ssg71
g5118
sg64
(lp5125
S'session_id_name'
p5126
asbag57
(g78
g59
NtRp5127
(dp5128
g62
(dp5129
g89
g90
ssg71
g5118
sg64
(lp5130
S':'
asbag57
(g78
g59
NtRp5131
(dp5132
g62
(dp5133
sg71
g5118
sg64
(lp5134
g57
(g58
g59
NtRp5135
(dp5136
g62
(dp5137
g70
I5
ssg71
g5131
sg64
(lp5138
g3216
asbasbasbag57
(g73
g59
NtRp5139
(dp5140
g62
(dp5141
sg71
g3159
sg64
(lp5142
g57
(g78
g59
NtRp5143
(dp5144
g62
(dp5145
g82
g83
ssg71
g5139
sg64
(lp5146
S'session_locked'
p5147
asbag57
(g78
g59
NtRp5148
(dp5149
g62
(dp5150
g89
g90
ssg71
g5139
sg64
(lp5151
S':'
asbag57
(g78
g59
NtRp5152
(dp5153
g62
(dp5154
sg71
g5139
sg64
(lp5155
g57
(g58
g59
NtRp5156
(dp5157
g62
(dp5158
g70
I5
ssg71
g5152
sg64
(lp5159
g1720
asbasbasbag57
(g73
g59
NtRp5160
(dp5161
g62
(dp5162
sg71
g3159
sg64
(lp5163
g57
(g78
g59
NtRp5164
(dp5165
g62
(dp5166
g82
g83
ssg71
g5160
sg64
(lp5167
S'session_new'
p5168
asbag57
(g78
g59
NtRp5169
(dp5170
g62
(dp5171
g89
g90
ssg71
g5160
sg64
(lp5172
S':'
asbag57
(g78
g59
NtRp5173
(dp5174
g62
(dp5175
sg71
g5160
sg64
(lp5176
g57
(g58
g59
NtRp5177
(dp5178
g62
(dp5179
g70
I5
ssg71
g5173
sg64
(lp5180
g100
asbasbasbag57
(g73
g59
NtRp5181
(dp5182
g62
(dp5183
sg71
g3159
sg64
(lp5184
g57
(g78
g59
NtRp5185
(dp5186
g62
(dp5187
g82
g83
ssg71
g5181
sg64
(lp5188
S'status'
p5189
asbag57
(g78
g59
NtRp5190
(dp5191
g62
(dp5192
g89
g90
ssg71
g5181
sg64
(lp5193
S':'
asbag57
(g78
g59
NtRp5194
(dp5195
g62
(dp5196
sg71
g5181
sg64
(lp5197
g57
(g58
g59
NtRp5198
(dp5199
g62
(dp5200
g70
I5
ssg71
g5194
sg64
(lp5201
S'200'
p5202
asbasbasbag57
(g73
g59
NtRp5203
(dp5204
g62
(dp5205
sg71
g3159
sg64
(lp5206
g57
(g78
g59
NtRp5207
(dp5208
g62
(dp5209
g82
g83
ssg71
g5203
sg64
(lp5210
S'subtitle'
p5211
asbag57
(g78
g59
NtRp5212
(dp5213
g62
(dp5214
g89
g90
ssg71
g5203
sg64
(lp5215
S':'
asbag57
(g78
g59
NtRp5216
(dp5217
g62
(dp5218
sg71
g5203
sg64
(lp5219
g57
(g58
g59
NtRp5220
(dp5221
g62
(dp5222
g70
I5
ssg71
g5216
sg64
(lp5223
g3820
(S's\r\x00\x00\x00customize me!'
tRp5224
asbasbasbag57
(g73
g59
NtRp5225
(dp5226
g62
(dp5227
sg71
g3159
sg64
(lp5228
g57
(g78
g59
NtRp5229
(dp5230
g62
(dp5231
g82
g83
ssg71
g5225
sg64
(lp5232
S'title'
p5233
asbag57
(g78
g59
NtRp5234
(dp5235
g62
(dp5236
g89
g90
ssg71
g5225
sg64
(lp5237
S':'
asbag57
(g78
g59
NtRp5238
(dp5239
g62
(dp5240
sg71
g5225
sg64
(lp5241
g57
(g58
g59
NtRp5242
(dp5243
g62
(dp5244
g70
I5
ssg71
g5238
sg64
(lp5245
S'Milo'
p5246
asbasbasbag57
(g73
g59
NtRp5247
(dp5248
g62
(dp5249
sg71
g3159
sg64
(lp5250
g57
(g78
g59
NtRp5251
(dp5252
g62
(dp5253
g82
g83
ssg71
g5247
sg64
(lp5254
g2384
asbag57
(g78
g59
NtRp5255
(dp5256
g62
(dp5257
g89
g90
ssg71
g5247
sg64
(lp5258
S':'
asbag57
(g78
g59
NtRp5259
(dp5260
g62
(dp5261
sg71
g5247
sg64
(lp5262
g57
(g58
g59
NtRp5263
(dp5264
g62
(dp5265
g70
I5
ssg71
g5259
sg64
(lp5266
g2397
asbasbasbag57
(g73
g59
NtRp5267
(dp5268
g62
(dp5269
sg71
g3159
sg64
(lp5270
g57
(g78
g59
NtRp5271
(dp5272
g62
(dp5273
g82
g83
ssg71
g5267
sg64
(lp5274
S'view'
p5275
asbag57
(g78
g59
NtRp5276
(dp5277
g62
(dp5278
g89
g90
ssg71
g5267
sg64
(lp5279
S':'
asbag57
(g78
g59
NtRp5280
(dp5281
g62
(dp5282
sg71
g5267
sg64
(lp5283
g57
(g58
g59
NtRp5284
(dp5285
g62
(dp5286
g70
I5
ssg71
g5280
sg64
(lp5287
S'default/index.html'
p5288
asbasbasbasbasbsS'locals'
p5289
(dp5290
S'Service'
p5291
S"<class 'gluon.tools.Service'>"
p5292
sS'OBJECT'
p5293
S"<class 'gluon.html.OBJECT'>"
p5294
sS'SQLDB'
p5295
S"<class 'gluon.dal.DAL'>"
p5296
sg3141
S"<Storage {'_Session__hash': 'w\\xf2e\\x82\\xd4\\xf3h...{'version': '18.0.1025.151', 'name': 'Chrome'}}}>"
p5297
sS'LINK'
p5298
S"<class 'gluon.html.LINK'>"
p5299
sS'BR'
p5300
S"<class 'gluon.html.BR'>"
p5301
sS'local_import'
p5302
S'<function <lambda>>'
p5303
sS'OPTGROUP'
p5304
S"<class 'gluon.html.OPTGROUP'>"
p5305
sS'__package__'
p5306
S'None'
p5307
sS'PRE'
p5308
S"<class 'gluon.html.PRE'>"
p5309
sS'IS_INT_IN_RANGE'
p5310
S"<class 'gluon.validators.IS_INT_IN_RANGE'>"
p5311
sS'left_sidebar_enabled'
p5312
g100
sS'IS_LOWER'
p5313
S"<class 'gluon.validators.IS_LOWER'>"
p5314
sS'IS_STRONG'
p5315
S"<class 'gluon.validators.IS_STRONG'>"
p5316
sS'cache'
p5317
S'<gluon.cache.Cache object>'
p5318
sS'IS_IN_DB'
p5319
S"<class 'gluon.validators.IS_IN_DB'>"
p5320
sS'TAG'
p5321
S'<gluon.html.__TAG__ object>'
p5322
sS'SQLField'
p5323
S"<class 'gluon.dal.Field'>"
p5324
sS'mail'
p5325
S'<gluon.tools.Mail object>'
p5326
sS'BODY'
p5327
S"<class 'gluon.html.BODY'>"
p5328
sS'IS_DATE_IN_RANGE'
p5329
S"<class 'gluon.validators.IS_DATE_IN_RANGE'>"
p5330
sS'TH'
p5331
S"<class 'gluon.html.TH'>"
p5332
sS'URL'
p5333
S'<function URL>'
p5334
sS'__file__'
p5335
S"'/home/goshawk/web2py/applications/milo/views/default/index.html'"
p5336
sS'db'
p5337
S"<DAL {'kind_type': <Table {'kind': <gluon.dal.Fi...i': 'postgres://imdb:imdbsecret@localhost/imdb'}>"
p5338
sS'auth'
p5339
S'<gluon.tools.Auth object>'
p5340
sS'P'
S"<class 'gluon.html.P'>"
p5341
sS'TFOOT'
p5342
S"<class 'gluon.html.TFOOT'>"
p5343
sS'XHTML'
p5344
S"<class 'gluon.html.XHTML'>"
p5345
sS'ON'
p5346
g1720
sS'OL'
p5347
S"<class 'gluon.html.OL'>"
p5348
sS'TEXTAREA'
p5349
S"<class 'gluon.html.TEXTAREA'>"
p5350
sS'MENU'
p5351
S"<class 'gluon.html.MENU'>"
p5352
sS'IS_IMAGE'
p5353
S"<class 'gluon.validators.IS_IMAGE'>"
p5354
sS'LOAD'
p5355
S'<function LOAD>'
p5356
sS'CODE'
p5357
S"<class 'gluon.html.CODE'>"
p5358
sS'HTTP'
p5359
S"<class 'gluon.http.HTTP'>"
p5360
sS'HR'
p5361
S"<class 'gluon.html.HR'>"
p5362
sS'IS_DATETIME'
p5363
S"<class 'gluon.validators.IS_DATETIME'>"
p5364
sS'HEAD'
p5365
S"<class 'gluon.html.HEAD'>"
p5366
sS'LABEL'
p5367
S"<class 'gluon.html.LABEL'>"
p5368
sS'META'
p5369
S"<class 'gluon.html.META'>"
p5370
sS'plugins'
p5371
S'<gluon.tools.PluginManager object>'
p5372
sS'SELECT'
p5373
S"<class 'gluon.html.SELECT'>"
p5374
sS'use_janrain'
p5375
S'<function use_janrain>'
p5376
sS'CENTER'
p5377
S"<class 'gluon.html.CENTER'>"
p5378
sS'prettydate'
p5379
S'<function prettydate>'
p5380
sS'Crud'
p5381
S"<class 'gluon.tools.Crud'>"
p5382
sS'Auth'
p5383
S"<class 'gluon.tools.Auth'>"
p5384
sS'IS_EQUAL_TO'
p5385
S"<class 'gluon.validators.IS_EQUAL_TO'>"
p5386
sS'HTML'
p5387
S"<class 'gluon.html.HTML'>"
p5388
sS'SQLFORM'
p5389
S"<class 'gluon.sqlhtml.SQLFORM'>"
p5390
sS'EM'
p5391
S"<class 'gluon.html.EM'>"
p5392
sS'redirect'
p5393
S'<function redirect>'
p5394
sS'FIELDSET'
p5395
S"<class 'gluon.html.FIELDSET'>"
p5396
sS'__builtins__'
p5397
S"{'ArithmeticError': <type 'exceptions.ArithmeticError'>, 'AssertionError': <type 'exceptions.AssertionError'>, 'AttributeError': <type 'exceptions.AttributeError'>, 'BaseException': <type 'exceptions.BaseException'>, 'BufferError': <type 'exceptions.BufferError'>, 'BytesWarning': <type 'exceptions.BytesWarning'>, 'DeprecationWarning': <type 'exceptions.DeprecationWarning'>, 'EOFError': <type 'exceptions.EOFError'>, 'Ellipsis': Ellipsis, 'EnvironmentError': <type 'exceptions.EnvironmentError'>, ...}"
p5398
sS'embed64'
p5399
S'<function embed64>'
p5400
sS'IS_LIST_OF'
p5401
S"<class 'gluon.validators.IS_LIST_OF'>"
p5402
sS'INPUT'
p5403
S"<class 'gluon.html.INPUT'>"
p5404
sS'EMBED'
p5405
S"<class 'gluon.html.EMBED'>"
p5406
sS'_'
S'<function _>'
p5407
sS'H2'
p5408
S"<class 'gluon.html.H2'>"
p5409
sS'H3'
p5410
S"<class 'gluon.html.H3'>"
p5411
sS'BUTTON'
p5412
S"<class 'gluon.html.BUTTON'>"
p5413
sS'H1'
p5414
S"<class 'gluon.html.H1'>"
p5415
sS'H6'
p5416
S"<class 'gluon.html.H6'>"
p5417
sS'H4'
p5418
S"<class 'gluon.html.H4'>"
p5419
sS'H5'
p5420
S"<class 'gluon.html.H5'>"
p5421
sS'UL'
p5422
S"<class 'gluon.html.UL'>"
p5423
sS'IS_UPPER'
p5424
S"<class 'gluon.validators.IS_UPPER'>"
p5425
sS'xmlescape'
p5426
S'<function xmlescape>'
p5427
sS'IS_TIME'
p5428
S"<class 'gluon.validators.IS_TIME'>"
p5429
sS'OPTION'
p5430
S"<class 'gluon.html.OPTION'>"
p5431
sS'TITLE'
p5432
S"<class 'gluon.html.TITLE'>"
p5433
sS'CRYPT'
p5434
S"<class 'gluon.validators.CRYPT'>"
p5435
sS'IS_EMPTY_OR'
p5436
S"<class 'gluon.validators.IS_EMPTY_OR'>"
p5437
sS'MARKMIN'
p5438
S"<class 'gluon.html.MARKMIN'>"
p5439
sS'__name__'
p5440
S"'__restricted__'"
p5441
sS'message'
p5442
S"<lazyT 'Hello World'>"
p5443
sS'COL'
p5444
S"<class 'gluon.html.COL'>"
p5445
sS'service'
p5446
S'<gluon.tools.Service object>'
p5447
sS'SCRIPT'
p5448
S"<class 'gluon.html.SCRIPT'>"
p5449
sS'is_mobile'
p5450
g100
sS'TABLE'
p5451
S"<class 'gluon.html.TABLE'>"
p5452
sS'IS_IPV4'
p5453
S"<class 'gluon.validators.IS_IPV4'>"
p5454
sS'IS_LENGTH'
p5455
S"<class 'gluon.validators.IS_LENGTH'>"
p5456
sS'XML'
p5457
S"<class 'gluon.html.XML'>"
p5458
sS'B'
S"<class 'gluon.html.B'>"
p5459
sS'IMG'
p5460
S"<class 'gluon.html.IMG'>"
p5461
sS'SQLTABLE'
p5462
S"<class 'gluon.sqlhtml.SQLTABLE'>"
p5463
sS'IS_MATCH'
p5464
S"<class 'gluon.validators.IS_MATCH'>"
p5465
sS'IS_ALPHANUMERIC'
p5466
S"<class 'gluon.validators.IS_ALPHANUMERIC'>"
p5467
sS'SPAN'
p5468
S"<class 'gluon.html.SPAN'>"
p5469
sS'IS_SLUG'
p5470
S"<class 'gluon.validators.IS_SLUG'>"
p5471
sS'CLEANUP'
p5472
S"<class 'gluon.validators.CLEANUP'>"
p5473
sS'im'
p5474
S'<imdb.parser.sql.IMDbSqlAccessSystem instance>'
p5475
sS'IS_DATE'
p5476
S"<class 'gluon.validators.IS_DATE'>"
p5477
sS'IS_EMAIL'
p5478
S"<class 'gluon.validators.IS_EMAIL'>"
p5479
sS'IS_NOT_EMPTY'
p5480
S"<class 'gluon.validators.IS_NOT_EMPTY'>"
p5481
sg56
S"<Storage {'body': <cStringIO.StringO object at 0..._vars': <Storage {}>, 'post_vars': <Storage {}>}>"
p5482
sS'BEAUTIFY'
p5483
S"<class 'gluon.html.BEAUTIFY'>"
p5484
sS'TBODY'
p5485
S"<class 'gluon.html.TBODY'>"
p5486
sS'CAT'
p5487
S"<class 'gluon.html.CAT'>"
p5488
sS'Field'
p5489
S"<class 'gluon.dal.Field'>"
p5490
sS'imdb'
p5491
S"<module 'imdb' from '/usr/local/lib/python2.7/dist-packages/imdb/__init__.pyc'>"
p5492
sS'middle_columns'
p5493
S"'twelve'"
p5494
sS'DIV'
p5495
S"<class 'gluon.html.DIV'>"
p5496
sS'LEGEND'
p5497
S"<class 'gluon.html.LEGEND'>"
p5498
sS'COLGROUP'
p5499
S"<class 'gluon.html.COLGROUP'>"
p5500
sS'DAL'
p5501
S"<class 'gluon.dal.DAL'>"
p5502
sS'TT'
p5503
S"<class 'gluon.html.TT'>"
p5504
sS'TR'
p5505
S"<class 'gluon.html.TR'>"
p5506
sS'LI'
p5507
S"<class 'gluon.html.LI'>"
p5508
sS'right_sidebar_enabled'
p5509
g1720
sS'IFRAME'
p5510
S"<class 'gluon.html.IFRAME'>"
p5511
sS'TD'
p5512
S"<class 'gluon.html.TD'>"
p5513
sS'PluginManager'
p5514
S"<class 'gluon.tools.PluginManager'>"
p5515
sS'IS_URL'
p5516
S"<class 'gluon.validators.IS_URL'>"
p5517
sS'A'
S"<class 'gluon.html.A'>"
p5518
sS'STYLE'
p5519
S"<class 'gluon.html.STYLE'>"
p5520
sS'IS_DATETIME_IN_RANGE'
p5521
S"<class 'gluon.validators.IS_DATETIME_IN_RANGE'>"
p5522
sS'FORM'
p5523
S"<class 'gluon.html.FORM'>"
p5524
sS'I'
S"<class 'gluon.html.I'>"
p5525
sS'crud'
p5526
S'<gluon.tools.Crud object>'
p5527
sS'IS_NOT_IN_DB'
p5528
S"<class 'gluon.validators.IS_NOT_IN_DB'>"
p5529
sS'imdb_connection_str'
p5530
S"'postgres://imdb:imdbsecret@localhost/imdb'"
p5531
sg3154
S"<Storage {'body': <cStringIO.StringO object at 0...t 0x7fe3ac21fa28>, 'view': 'default/index.html'}>"
p5532
sS'THEAD'
p5533
S"<class 'gluon.html.THEAD'>"
p5534
sS'IS_NULL_OR'
p5535
S"<class 'gluon.validators.IS_EMPTY_OR'>"
p5536
sS'IS_FLOAT_IN_RANGE'
p5537
S"<class 'gluon.validators.IS_FLOAT_IN_RANGE'>"
p5538
sS'IS_EXPR'
p5539
S"<class 'gluon.validators.IS_EXPR'>"
p5540
sS'T'
S'<gluon.languages.translator object>'
p5541
sS'IS_IN_SET'
p5542
S"<class 'gluon.validators.IS_IN_SET'>"
p5543
sS'IS_UPLOAD_FILENAME'
p5544
S"<class 'gluon.validators.IS_UPLOAD_FILENAME'>"
p5545
sS'IS_DECIMAL_IN_RANGE'
p5546
S"<class 'gluon.validators.IS_DECIMAL_IN_RANGE'>"
p5547
sssS'traceback'
p5548
S'Traceback (most recent call last):\n  File "/home/goshawk/web2py/gluon/restricted.py", line 205, in restricted\n    exec ccode in environment\n  File "/home/goshawk/web2py/applications/milo/views/default/index.html", line 114, in <module>\nNameError: name \'test\' is not defined\n'
p5549
s.