(dp1
S'output'
p2
S'<class \'psycopg2.ProgrammingError\'> syntax error at or near "cast"\nLINE 1: CREATE TABLE cast(\n                     ^\n'
p3
sS'layer'
p4
S'/home/goshawk/web2py/applications/milo/models/db.py'
p5
sS'code'
p6
S"# -*- coding: utf-8 -*-\n\n#########################################################################\n## This scaffolding model makes your app work on Google App Engine too\n## File is released under public domain and you can use without limitations\n#########################################################################\n\n## if SSL/HTTPS is properly configured and you want all HTTP requests to\n## be redirected to HTTPS, uncomment the line below:\n# request.requires_https()\n\nif not request.env.web2py_runtime_gae:\n    ## if NOT running on Google App Engine use SQLite or other DB\n    db = DAL('postgres://milo:milosecret@localhost/milo-reloaded')\nelse:\n    ## connect to Google BigTable (optional 'google:datastore://namespace')\n    db = DAL('google:datastore')\n    ## store sessions and tickets there\n    session.connect(request, response, db = db)\n    ## or store session in Memcache, Redis, etc.\n    ## from gluon.contrib.memdb import MEMDB\n    ## from google.appengine.api.memcache import Client\n    ## session.connect(request, response, db = MEMDB(Client()))\n\n## by default give a view/generic.extension to all actions from localhost\n## none otherwise. a pattern can be 'controller/function.extension'\nresponse.generic_patterns = ['*'] if request.is_local else []\n## (optional) optimize handling of static files\n# response.optimize_css = 'concat,minify,inline'\n# response.optimize_js = 'concat,minify,inline'\n\n#########################################################################\n## Here is sample code if you need for\n## - email capabilities\n## - authentication (registration, login, logout, ... )\n## - authorization (role based authorization)\n## - services (xml, csv, json, xmlrpc, jsonrpc, amf, rss)\n## - old style crud actions\n## (more options discussed in gluon/tools.py)\n#########################################################################\n\nfrom gluon.tools import Auth, Crud, Service, PluginManager, prettydate\nauth = Auth(db, hmac_key=Auth.get_or_create_key())\ncrud, service, plugins = Crud(db), Service(), PluginManager()\n\n## create all tables needed by auth if not custom tables\nauth.define_tables()\n\n## configure email\nmail=auth.settings.mailer\nmail.settings.server = 'logging' or 'smtp.gmail.com:587'\nmail.settings.sender = 'you@gmail.com'\nmail.settings.login = 'username:password'\n\n## configure auth policy\nauth.settings.registration_requires_verification = False\nauth.settings.registration_requires_approval = False\nauth.settings.reset_password_requires_verification = True\n\n## if you need to use OpenID, Facebook, MySpace, Twitter, Linkedin, etc.\n## register with janrain.com, write your domain:api_key in private/janrain.key\nfrom gluon.contrib.login_methods.rpx_account import use_janrain\nuse_janrain(auth,filename='private/janrain.key')\n\n#########################################################################\n## Define your tables below (or better in another model file) for example\n##\n## >>> db.define_table('mytable',Field('myfield','string'))\n##\n## Fields can be 'string','text','password','integer','double','boolean'\n##       'date','time','datetime','blob','upload', 'reference TABLENAME'\n## There is an implicit 'id integer autoincrement' field\n## Consult manual for more options, validators, etc.\n##\n## More API examples for controllers:\n##\n## >>> db.mytable.insert(myfield='value')\n## >>> rows=db(db.mytable.myfield=='value').select(db.mytable.ALL)\n## >>> for row in rows: print row.id, row.myfield\n#########################################################################\n\nimport imdb\n\nimdb_connection_str = 'postgres://imdb:imdbsecret@localhost/imdb'\n\nimsql = imdb.IMDb('sql', uri=imdb_connection_str)\n\nim = imdb.IMDb()\n\ndb.define_table('users',\n        Field('name'),\n        Field('email'),\n        Field('imdb_id', 'integer')\n        )\n\n#    genre = ListField(StringField())\n#    comments = ListField(EmbeddedDocumentField(Comment))\n#    cast = ListField(EmbeddedDocumentField(Person()))\n#    director = ListField(EmbeddedDocumentField(Person()))\n#    keywords = ListField(Stringfield())\n\ndb.define_table('genres',\n        Field('name')\n        )\n\n\ndb.define_table('persons',\n        Field('first_name'),\n        Field('last_name'),\n        Field('birth', 'datetime')\n        )\n\ndb.define_table('movies',\n        Field('imdb_id', 'integer'),\n        Field('title'),\n        Field('poster', 'text'),\n        Field('trailer', 'text'),\n        Field('plot', 'text'),\n        Field('date', 'datetime')\n        )\n\ndb.define_table('ratings',\n        Field('iuser', db.users, requires = IS_IN_DB(db,'users.id',db.users._format)),\n        Field('imovie', db.movies, requires = IS_IN_DB(db,'movies.id',db.movies._format)),\n        Field('rating', 'double')\n        )\n\ndb.define_table('comments',\n        Field('movie', db.movies, requires = IS_IN_DB(db, 'movies.id', db.movies._format)),\n        Field('title'),\n        Field('text', 'text'),\n        Field('rating', db.ratings, requires = IS_IN_DB(db, 'ratings.id', db.ratings._format)),\n        Field('timestamp', 'datetime'),\n        )\n\ndb.define_table('roles',\n        Field('name')\n        )\n\ndb.define_table('cast',\n        Field('movie', db.movies, requires = IS_IN_DB(db, 'movies.id', db.movies._format)),\n        Field('person', db.persons, requires = IS_IN_DB(db, 'persons.id', db.persons._format)),\n        Field('role', db.roles, requires = IS_IN_DB(db, 'roles.id', db.roles._format))\n        )\n\n\nmovies_with_ratings = (db.movies.id.belongs(db(db.ratings)._select(db.ratings.imovie, distinct=db.ratings.imovie)))\nmovies_with_titles = ~(db.movies.title==None)\nwith_poster = ~(db.movies.poster==None)\n\n#for x in db(db.ratings).select(db.ratings.ALL):\n#    for y in db(db.ratings.id>x.id).select(db.ratings.ALL):\n#        if y.iuser == x.iuser and y.imovie == x.imovie:\n#            y.delete_record()\n#    db.commit()\n\n#run only once\n#db.executesql('CREATE UNIQUE INDEX iuser_imovie ON ratings (iuser,imovie);')\n\n\ndb.define_table('features',\n        Field('name'),\n        Field('type')\n        )\n\ndb.define_table('movies_features',\n        Field('movie', db.movies, requires = IS_IN_DB(db,'movies.id',db.movies._format)),\n        Field('feature', db.features, requires = IS_IN_DB(db,'features.id',db.features._format)),\n        Field('times', 'integer')\n        )\n"
p7
sS'snapshot'
p8
(dp9
S'exception'
p10
(dp11
S'__module__'
p12
S"'psycopg2'"
p13
sS'__getslice__'
p14
S"<method-wrapper '__getslice__' of ProgrammingError object>"
p15
sS'__str__'
p16
S"<method-wrapper '__str__' of ProgrammingError object>"
p17
sS'__reduce__'
p18
S'<built-in method __reduce__ of ProgrammingError object>'
p19
sS'__dict__'
p20
S'{\'cursor\': <cursor object at 0x7f85eca49528; closed: 0>, \'pgcode\': \'42601\', \'pgerror\': \'ERROR:  syntax error at or near "cast"\\nLINE 1: CREATE TABLE cast(\\n                     ^\\n\'}'
p21
sS'__sizeof__'
p22
S'<built-in method __sizeof__ of ProgrammingError object>'
p23
sS'__weakref__'
p24
S'None'
p25
sS'__init__'
p26
S"<method-wrapper '__init__' of ProgrammingError object>"
p27
sS'__setattr__'
p28
S"<method-wrapper '__setattr__' of ProgrammingError object>"
p29
sS'__reduce_ex__'
p30
S'<built-in method __reduce_ex__ of ProgrammingError object>'
p31
sS'__new__'
p32
S'<built-in method __new__ of type object>'
p33
sS'__format__'
p34
S'<built-in method __format__ of ProgrammingError object>'
p35
sS'__class__'
p36
S"<class 'psycopg2.ProgrammingError'>"
p37
sS'pgerror'
p38
S'\'ERROR:  syntax error at or near "cast"\\nLINE 1: CREATE TABLE cast(\\n                     ^\\n\''
p39
sS'__doc__'
p40
S"'Error related to database programming (SQL error, table not found etc).'"
p41
sS'__getitem__'
p42
S"<method-wrapper '__getitem__' of ProgrammingError object>"
p43
sS'__setstate__'
p44
S'<built-in method __setstate__ of ProgrammingError object>'
p45
sS'__getattribute__'
p46
S"<method-wrapper '__getattribute__' of ProgrammingError object>"
p47
sS'args'
p48
S'(\'syntax error at or near "cast"\\nLINE 1: CREATE TABLE cast(\\n                     ^\\n\',)'
p49
sS'__subclasshook__'
p50
S'<built-in method __subclasshook__ of type object>'
p51
sS'pgcode'
p52
S"'42601'"
p53
sS'__unicode__'
p54
S'<built-in method __unicode__ of ProgrammingError object>'
p55
sS'cursor'
p56
S'<cursor object at 0x7f85eca49528; closed: 0>'
p57
sS'__delattr__'
p58
S"<method-wrapper '__delattr__' of ProgrammingError object>"
p59
sS'__repr__'
p60
S"<method-wrapper '__repr__' of ProgrammingError object>"
p61
sS'__hash__'
p62
S"<method-wrapper '__hash__' of ProgrammingError object>"
p63
ssS'evalue'
p64
S'syntax error at or near "cast"\nLINE 1: CREATE TABLE cast(\n                     ^\n'
p65
sS'request'
p66
ccopy_reg
_reconstructor
p67
(cgluon.html
BEAUTIFY
p68
c__builtin__
object
p69
NtRp70
(dp71
S'attributes'
p72
(dp73
sS'components'
p74
(lp75
g67
(cgluon.html
TABLE
p76
g69
NtRp77
(dp78
g72
(dp79
S'level'
p80
I5
ssS'parent'
p81
Nsg74
(lp82
g67
(cgluon.html
TR
p83
g69
NtRp84
(dp85
g72
(dp86
sg81
g77
sg74
(lp87
g67
(cgluon.html
TD
p88
g69
NtRp89
(dp90
g72
(dp91
S'_style'
p92
S'font-weight:bold;vertical-align:top'
p93
ssg81
g84
sg74
(lp94
S'ajax'
p95
asbag67
(g88
g69
NtRp96
(dp97
g72
(dp98
S'_valign'
p99
S'top'
p100
ssg81
g84
sg74
(lp101
S':'
asbag67
(g88
g69
NtRp102
(dp103
g72
(dp104
sg81
g84
sg74
(lp105
g67
(g68
g69
NtRp106
(dp107
g72
(dp108
g80
I5
ssg81
g102
sg74
(lp109
S'False'
p110
asbasbasbag67
(g83
g69
NtRp111
(dp112
g72
(dp113
sg81
g77
sg74
(lp114
g67
(g88
g69
NtRp115
(dp116
g72
(dp117
g92
g93
ssg81
g111
sg74
(lp118
S'application'
p119
asbag67
(g88
g69
NtRp120
(dp121
g72
(dp122
g99
g100
ssg81
g111
sg74
(lp123
S':'
asbag67
(g88
g69
NtRp124
(dp125
g72
(dp126
sg81
g111
sg74
(lp127
g67
(g68
g69
NtRp128
(dp129
g72
(dp130
g80
I5
ssg81
g124
sg74
(lp131
S'milo'
p132
asbasbasbag67
(g83
g69
NtRp133
(dp134
g72
(dp135
sg81
g77
sg74
(lp136
g67
(g88
g69
NtRp137
(dp138
g72
(dp139
g92
g93
ssg81
g133
sg74
(lp140
g48
asbag67
(g88
g69
NtRp141
(dp142
g72
(dp143
g99
g100
ssg81
g133
sg74
(lp144
S':'
asbag67
(g88
g69
NtRp145
(dp146
g72
(dp147
sg81
g133
sg74
(lp148
g67
(g68
g69
NtRp149
(dp150
g72
(dp151
g80
I5
ssg81
g145
sg74
(lp152
g67
(g76
g69
NtRp153
(dp154
g72
(dp155
g80
I4
ssg81
Nsg74
(lp156
sbasbasbasbag67
(g83
g69
NtRp157
(dp158
g72
(dp159
sg81
g77
sg74
(lp160
g67
(g88
g69
NtRp161
(dp162
g72
(dp163
g92
g93
ssg81
g157
sg74
(lp164
S'body'
p165
asbag67
(g88
g69
NtRp166
(dp167
g72
(dp168
g99
g100
ssg81
g157
sg74
(lp169
S':'
asbag67
(g88
g69
NtRp170
(dp171
g72
(dp172
sg81
g157
sg74
(lp173
g67
(g68
g69
NtRp174
(dp175
g72
(dp176
g80
I5
ssg81
g170
sg74
(lp177
S'<cStringIO.StringO object at 0x7f85ecd27030>'
p178
asbasbasbag67
(g83
g69
NtRp179
(dp180
g72
(dp181
sg81
g77
sg74
(lp182
g67
(g88
g69
NtRp183
(dp184
g72
(dp185
g92
g93
ssg81
g179
sg74
(lp186
S'client'
p187
asbag67
(g88
g69
NtRp188
(dp189
g72
(dp190
g99
g100
ssg81
g179
sg74
(lp191
S':'
asbag67
(g88
g69
NtRp192
(dp193
g72
(dp194
sg81
g179
sg74
(lp195
g67
(g68
g69
NtRp196
(dp197
g72
(dp198
g80
I5
ssg81
g192
sg74
(lp199
S'127.0.0.1'
p200
asbasbasbag67
(g83
g69
NtRp201
(dp202
g72
(dp203
sg81
g77
sg74
(lp204
g67
(g88
g69
NtRp205
(dp206
g72
(dp207
g92
g93
ssg81
g201
sg74
(lp208
S'controller'
p209
asbag67
(g88
g69
NtRp210
(dp211
g72
(dp212
g99
g100
ssg81
g201
sg74
(lp213
S':'
asbag67
(g88
g69
NtRp214
(dp215
g72
(dp216
sg81
g201
sg74
(lp217
g67
(g68
g69
NtRp218
(dp219
g72
(dp220
g80
I5
ssg81
g214
sg74
(lp221
S'default'
p222
asbasbasbag67
(g83
g69
NtRp223
(dp224
g72
(dp225
sg81
g77
sg74
(lp226
g67
(g88
g69
NtRp227
(dp228
g72
(dp229
g92
g93
ssg81
g223
sg74
(lp230
S'cookies'
p231
asbag67
(g88
g69
NtRp232
(dp233
g72
(dp234
g99
g100
ssg81
g223
sg74
(lp235
S':'
asbag67
(g88
g69
NtRp236
(dp237
g72
(dp238
sg81
g223
sg74
(lp239
g67
(g68
g69
NtRp240
(dp241
g72
(dp242
g80
I5
ssg81
g236
sg74
(lp243
g67
(g76
g69
NtRp244
(dp245
g72
(dp246
g80
I4
ssg81
Nsg74
(lp247
g67
(g83
g69
NtRp248
(dp249
g72
(dp250
sg81
g244
sg74
(lp251
g67
(g88
g69
NtRp252
(dp253
g72
(dp254
g92
g93
ssg81
g248
sg74
(lp255
S'session_id_admin'
p256
asbag67
(g88
g69
NtRp257
(dp258
g72
(dp259
g99
g100
ssg81
g248
sg74
(lp260
S':'
asbag67
(g88
g69
NtRp261
(dp262
g72
(dp263
sg81
g248
sg74
(lp264
g67
(g68
g69
NtRp265
(dp266
g72
(dp267
g80
I4
ssg81
g261
sg74
(lp268
g67
(g76
g69
NtRp269
(dp270
g72
(dp271
g80
I3
ssg81
Nsg74
(lp272
g67
(g83
g69
NtRp273
(dp274
g72
(dp275
sg81
g269
sg74
(lp276
g67
(g88
g69
NtRp277
(dp278
g72
(dp279
g92
g93
ssg81
g273
sg74
(lp280
S'comment'
p281
asbag67
(g88
g69
NtRp282
(dp283
g72
(dp284
g99
g100
ssg81
g273
sg74
(lp285
S':'
asbag67
(g88
g69
NtRp286
(dp287
g72
(dp288
sg81
g273
sg74
(lp289
g67
(g68
g69
NtRp290
(dp291
g72
(dp292
g80
I3
ssg81
g286
sg74
(lp293
S''
asbasbasbag67
(g83
g69
NtRp294
(dp295
g72
(dp296
sg81
g269
sg74
(lp297
g67
(g88
g69
NtRp298
(dp299
g72
(dp300
g92
g93
ssg81
g294
sg74
(lp301
S'domain'
p302
asbag67
(g88
g69
NtRp303
(dp304
g72
(dp305
g99
g100
ssg81
g294
sg74
(lp306
S':'
asbag67
(g88
g69
NtRp307
(dp308
g72
(dp309
sg81
g294
sg74
(lp310
g67
(g68
g69
NtRp311
(dp312
g72
(dp313
g80
I3
ssg81
g307
sg74
(lp314
S''
asbasbasbag67
(g83
g69
NtRp315
(dp316
g72
(dp317
sg81
g269
sg74
(lp318
g67
(g88
g69
NtRp319
(dp320
g72
(dp321
g92
g93
ssg81
g315
sg74
(lp322
S'expires'
p323
asbag67
(g88
g69
NtRp324
(dp325
g72
(dp326
g99
g100
ssg81
g315
sg74
(lp327
S':'
asbag67
(g88
g69
NtRp328
(dp329
g72
(dp330
sg81
g315
sg74
(lp331
g67
(g68
g69
NtRp332
(dp333
g72
(dp334
g80
I3
ssg81
g328
sg74
(lp335
S''
asbasbasbag67
(g83
g69
NtRp336
(dp337
g72
(dp338
sg81
g269
sg74
(lp339
g67
(g88
g69
NtRp340
(dp341
g72
(dp342
g92
g93
ssg81
g336
sg74
(lp343
S'httponly'
p344
asbag67
(g88
g69
NtRp345
(dp346
g72
(dp347
g99
g100
ssg81
g336
sg74
(lp348
S':'
asbag67
(g88
g69
NtRp349
(dp350
g72
(dp351
sg81
g336
sg74
(lp352
g67
(g68
g69
NtRp353
(dp354
g72
(dp355
g80
I3
ssg81
g349
sg74
(lp356
S''
asbasbasbag67
(g83
g69
NtRp357
(dp358
g72
(dp359
sg81
g269
sg74
(lp360
g67
(g88
g69
NtRp361
(dp362
g72
(dp363
g92
g93
ssg81
g357
sg74
(lp364
S'max-age'
p365
asbag67
(g88
g69
NtRp366
(dp367
g72
(dp368
g99
g100
ssg81
g357
sg74
(lp369
S':'
asbag67
(g88
g69
NtRp370
(dp371
g72
(dp372
sg81
g357
sg74
(lp373
g67
(g68
g69
NtRp374
(dp375
g72
(dp376
g80
I3
ssg81
g370
sg74
(lp377
S''
asbasbasbag67
(g83
g69
NtRp378
(dp379
g72
(dp380
sg81
g269
sg74
(lp381
g67
(g88
g69
NtRp382
(dp383
g72
(dp384
g92
g93
ssg81
g378
sg74
(lp385
S'path'
p386
asbag67
(g88
g69
NtRp387
(dp388
g72
(dp389
g99
g100
ssg81
g378
sg74
(lp390
S':'
asbag67
(g88
g69
NtRp391
(dp392
g72
(dp393
sg81
g378
sg74
(lp394
g67
(g68
g69
NtRp395
(dp396
g72
(dp397
g80
I3
ssg81
g391
sg74
(lp398
S''
asbasbasbag67
(g83
g69
NtRp399
(dp400
g72
(dp401
sg81
g269
sg74
(lp402
g67
(g88
g69
NtRp403
(dp404
g72
(dp405
g92
g93
ssg81
g399
sg74
(lp406
S'secure'
p407
asbag67
(g88
g69
NtRp408
(dp409
g72
(dp410
g99
g100
ssg81
g399
sg74
(lp411
S':'
asbag67
(g88
g69
NtRp412
(dp413
g72
(dp414
sg81
g399
sg74
(lp415
g67
(g68
g69
NtRp416
(dp417
g72
(dp418
g80
I3
ssg81
g412
sg74
(lp419
S''
asbasbasbag67
(g83
g69
NtRp420
(dp421
g72
(dp422
sg81
g269
sg74
(lp423
g67
(g88
g69
NtRp424
(dp425
g72
(dp426
g92
g93
ssg81
g420
sg74
(lp427
S'version'
p428
asbag67
(g88
g69
NtRp429
(dp430
g72
(dp431
g99
g100
ssg81
g420
sg74
(lp432
S':'
asbag67
(g88
g69
NtRp433
(dp434
g72
(dp435
sg81
g420
sg74
(lp436
g67
(g68
g69
NtRp437
(dp438
g72
(dp439
g80
I3
ssg81
g433
sg74
(lp440
S''
asbasbasbasbasbasbasbasbasbasbasbag67
(g83
g69
NtRp441
(dp442
g72
(dp443
sg81
g77
sg74
(lp444
g67
(g88
g69
NtRp445
(dp446
g72
(dp447
g92
g93
ssg81
g441
sg74
(lp448
S'env'
p449
asbag67
(g88
g69
NtRp450
(dp451
g72
(dp452
g99
g100
ssg81
g441
sg74
(lp453
S':'
asbag67
(g88
g69
NtRp454
(dp455
g72
(dp456
sg81
g441
sg74
(lp457
g67
(g68
g69
NtRp458
(dp459
g72
(dp460
g80
I5
ssg81
g454
sg74
(lp461
g67
(g76
g69
NtRp462
(dp463
g72
(dp464
g80
I4
ssg81
Nsg74
(lp465
g67
(g83
g69
NtRp466
(dp467
g72
(dp468
sg81
g462
sg74
(lp469
g67
(g88
g69
NtRp470
(dp471
g72
(dp472
g92
g93
ssg81
g466
sg74
(lp473
S'app_folders'
p474
asbag67
(g88
g69
NtRp475
(dp476
g72
(dp477
g99
g100
ssg81
g466
sg74
(lp478
S':'
asbag67
(g88
g69
NtRp479
(dp480
g72
(dp481
sg81
g466
sg74
(lp482
g67
(g68
g69
NtRp483
(dp484
g72
(dp485
g80
I4
ssg81
g479
sg74
(lp486
S"set(['/home/goshawk/web2py/applications/milo/', '/home/goshawk/web2py/applications/admin/'])"
p487
asbasbasbag67
(g83
g69
NtRp488
(dp489
g72
(dp490
sg81
g462
sg74
(lp491
g67
(g88
g69
NtRp492
(dp493
g72
(dp494
g92
g93
ssg81
g488
sg74
(lp495
S'applications_parent'
p496
asbag67
(g88
g69
NtRp497
(dp498
g72
(dp499
g99
g100
ssg81
g488
sg74
(lp500
S':'
asbag67
(g88
g69
NtRp501
(dp502
g72
(dp503
sg81
g488
sg74
(lp504
g67
(g68
g69
NtRp505
(dp506
g72
(dp507
g80
I4
ssg81
g501
sg74
(lp508
S'/home/goshawk/web2py'
p509
asbasbasbag67
(g83
g69
NtRp510
(dp511
g72
(dp512
sg81
g462
sg74
(lp513
g67
(g88
g69
NtRp514
(dp515
g72
(dp516
g92
g93
ssg81
g510
sg74
(lp517
S'cmd_args'
p518
asbag67
(g88
g69
NtRp519
(dp520
g72
(dp521
g99
g100
ssg81
g510
sg74
(lp522
S':'
asbag67
(g88
g69
NtRp523
(dp524
g72
(dp525
sg81
g510
sg74
(lp526
g67
(g68
g69
NtRp527
(dp528
g72
(dp529
g80
I4
ssg81
g523
sg74
(lp530
g67
(g76
g69
NtRp531
(dp532
g72
(dp533
g80
I3
ssg81
Nsg74
(lp534
sbasbasbasbag67
(g83
g69
NtRp535
(dp536
g72
(dp537
sg81
g462
sg74
(lp538
g67
(g88
g69
NtRp539
(dp540
g72
(dp541
g92
g93
ssg81
g535
sg74
(lp542
S'cmd_options'
p543
asbag67
(g88
g69
NtRp544
(dp545
g72
(dp546
g99
g100
ssg81
g535
sg74
(lp547
S':'
asbag67
(g88
g69
NtRp548
(dp549
g72
(dp550
sg81
g535
sg74
(lp551
g67
(g68
g69
NtRp552
(dp553
g72
(dp554
g80
I4
ssg81
g548
sg74
(lp555
S"<Values at 0x14660e0: {'verbose': False, 'ip': '127.0.0.1', 'shutdown_timeout': 5, 'taskbar': False, 'nocron': False, 'pid_filename': 'httpserver.pid', 'maxthreads': None, 'softcron': False, 'server_name': 'whisperer', 'bpython': False, 'nogui': False, 'port': 8000, 'extcron': False, 'debuglevel': 30, 'test': None, 'folder': '/home/goshawk/web2py', 'config': '', 'import_models': False, 'winservice': '', 'shell': None, 'run': '', 'log_filename': 'httpserver.log', 'args': [''], 'socket_timeout': 5, 'ssl_ca_certificate': None, 'scheduler': None, 'profiler_filename': None, 'ssl_private_key': '', 'password': 'admin', 'request_queue_size': 5, 'ssl_certificate': '', 'cronjob': False, 'numthreads': None, 'quiet': False, 'interfaces': None, 'minthreads': None, 'timeout': 10, 'plain': False, 'nobanner': False}>"
p556
asbasbasbag67
(g83
g69
NtRp557
(dp558
g72
(dp559
sg81
g462
sg74
(lp560
g67
(g88
g69
NtRp561
(dp562
g72
(dp563
g92
g93
ssg81
g557
sg74
(lp564
S'db_sessions'
p565
asbag67
(g88
g69
NtRp566
(dp567
g72
(dp568
g99
g100
ssg81
g557
sg74
(lp569
S':'
asbag67
(g88
g69
NtRp570
(dp571
g72
(dp572
sg81
g557
sg74
(lp573
g67
(g68
g69
NtRp574
(dp575
g72
(dp576
g80
I4
ssg81
g570
sg74
(lp577
S'set([])'
p578
asbasbasbag67
(g83
g69
NtRp579
(dp580
g72
(dp581
sg81
g462
sg74
(lp582
g67
(g88
g69
NtRp583
(dp584
g72
(dp585
g92
g93
ssg81
g579
sg74
(lp586
S'debugging'
p587
asbag67
(g88
g69
NtRp588
(dp589
g72
(dp590
g99
g100
ssg81
g579
sg74
(lp591
S':'
asbag67
(g88
g69
NtRp592
(dp593
g72
(dp594
sg81
g579
sg74
(lp595
g67
(g68
g69
NtRp596
(dp597
g72
(dp598
g80
I4
ssg81
g592
sg74
(lp599
g110
asbasbasbag67
(g83
g69
NtRp600
(dp601
g72
(dp602
sg81
g462
sg74
(lp603
g67
(g88
g69
NtRp604
(dp605
g72
(dp606
g92
g93
ssg81
g600
sg74
(lp607
S'gluon_parent'
p608
asbag67
(g88
g69
NtRp609
(dp610
g72
(dp611
g99
g100
ssg81
g600
sg74
(lp612
S':'
asbag67
(g88
g69
NtRp613
(dp614
g72
(dp615
sg81
g600
sg74
(lp616
g67
(g68
g69
NtRp617
(dp618
g72
(dp619
g80
I4
ssg81
g613
sg74
(lp620
S'/home/goshawk/web2py'
p621
asbasbasbag67
(g83
g69
NtRp622
(dp623
g72
(dp624
sg81
g462
sg74
(lp625
g67
(g88
g69
NtRp626
(dp627
g72
(dp628
g92
g93
ssg81
g622
sg74
(lp629
S'http_accept'
p630
asbag67
(g88
g69
NtRp631
(dp632
g72
(dp633
g99
g100
ssg81
g622
sg74
(lp634
S':'
asbag67
(g88
g69
NtRp635
(dp636
g72
(dp637
sg81
g622
sg74
(lp638
g67
(g68
g69
NtRp639
(dp640
g72
(dp641
g80
I4
ssg81
g635
sg74
(lp642
S'text/html,application/xhtml+xml,application/xml;q=0.9,*/*;q=0.8'
p643
asbasbasbag67
(g83
g69
NtRp644
(dp645
g72
(dp646
sg81
g462
sg74
(lp647
g67
(g88
g69
NtRp648
(dp649
g72
(dp650
g92
g93
ssg81
g644
sg74
(lp651
S'http_accept_charset'
p652
asbag67
(g88
g69
NtRp653
(dp654
g72
(dp655
g99
g100
ssg81
g644
sg74
(lp656
S':'
asbag67
(g88
g69
NtRp657
(dp658
g72
(dp659
sg81
g644
sg74
(lp660
g67
(g68
g69
NtRp661
(dp662
g72
(dp663
g80
I4
ssg81
g657
sg74
(lp664
S'ISO-8859-1,utf-8;q=0.7,*;q=0.3'
p665
asbasbasbag67
(g83
g69
NtRp666
(dp667
g72
(dp668
sg81
g462
sg74
(lp669
g67
(g88
g69
NtRp670
(dp671
g72
(dp672
g92
g93
ssg81
g666
sg74
(lp673
S'http_accept_encoding'
p674
asbag67
(g88
g69
NtRp675
(dp676
g72
(dp677
g99
g100
ssg81
g666
sg74
(lp678
S':'
asbag67
(g88
g69
NtRp679
(dp680
g72
(dp681
sg81
g666
sg74
(lp682
g67
(g68
g69
NtRp683
(dp684
g72
(dp685
g80
I4
ssg81
g679
sg74
(lp686
S'gzip,deflate,sdch'
p687
asbasbasbag67
(g83
g69
NtRp688
(dp689
g72
(dp690
sg81
g462
sg74
(lp691
g67
(g88
g69
NtRp692
(dp693
g72
(dp694
g92
g93
ssg81
g688
sg74
(lp695
S'http_accept_language'
p696
asbag67
(g88
g69
NtRp697
(dp698
g72
(dp699
g99
g100
ssg81
g688
sg74
(lp700
S':'
asbag67
(g88
g69
NtRp701
(dp702
g72
(dp703
sg81
g688
sg74
(lp704
g67
(g68
g69
NtRp705
(dp706
g72
(dp707
g80
I4
ssg81
g701
sg74
(lp708
S'en-US,en;q=0.8'
p709
asbasbasbag67
(g83
g69
NtRp710
(dp711
g72
(dp712
sg81
g462
sg74
(lp713
g67
(g88
g69
NtRp714
(dp715
g72
(dp716
g92
g93
ssg81
g710
sg74
(lp717
S'http_cache_control'
p718
asbag67
(g88
g69
NtRp719
(dp720
g72
(dp721
g99
g100
ssg81
g710
sg74
(lp722
S':'
asbag67
(g88
g69
NtRp723
(dp724
g72
(dp725
sg81
g710
sg74
(lp726
g67
(g68
g69
NtRp727
(dp728
g72
(dp729
g80
I4
ssg81
g723
sg74
(lp730
S'max-age=0'
p731
asbasbasbag67
(g83
g69
NtRp732
(dp733
g72
(dp734
sg81
g462
sg74
(lp735
g67
(g88
g69
NtRp736
(dp737
g72
(dp738
g92
g93
ssg81
g732
sg74
(lp739
S'http_connection'
p740
asbag67
(g88
g69
NtRp741
(dp742
g72
(dp743
g99
g100
ssg81
g732
sg74
(lp744
S':'
asbag67
(g88
g69
NtRp745
(dp746
g72
(dp747
sg81
g732
sg74
(lp748
g67
(g68
g69
NtRp749
(dp750
g72
(dp751
g80
I4
ssg81
g745
sg74
(lp752
S'keep-alive'
p753
asbasbasbag67
(g83
g69
NtRp754
(dp755
g72
(dp756
sg81
g462
sg74
(lp757
g67
(g88
g69
NtRp758
(dp759
g72
(dp760
g92
g93
ssg81
g754
sg74
(lp761
S'http_cookie'
p762
asbag67
(g88
g69
NtRp763
(dp764
g72
(dp765
g99
g100
ssg81
g754
sg74
(lp766
S':'
asbag67
(g88
g69
NtRp767
(dp768
g72
(dp769
sg81
g754
sg74
(lp770
g67
(g68
g69
NtRp771
(dp772
g72
(dp773
g80
I4
ssg81
g767
sg74
(lp774
S'session_id_admin=127.0.0.1-032953cc-3a53-4f9b-bf6d-b4a72aac7c85'
p775
asbasbasbag67
(g83
g69
NtRp776
(dp777
g72
(dp778
sg81
g462
sg74
(lp779
g67
(g88
g69
NtRp780
(dp781
g72
(dp782
g92
g93
ssg81
g776
sg74
(lp783
S'http_host'
p784
asbag67
(g88
g69
NtRp785
(dp786
g72
(dp787
g99
g100
ssg81
g776
sg74
(lp788
S':'
asbag67
(g88
g69
NtRp789
(dp790
g72
(dp791
sg81
g776
sg74
(lp792
g67
(g68
g69
NtRp793
(dp794
g72
(dp795
g80
I4
ssg81
g789
sg74
(lp796
S'127.0.0.1:8000'
p797
asbasbasbag67
(g83
g69
NtRp798
(dp799
g72
(dp800
sg81
g462
sg74
(lp801
g67
(g88
g69
NtRp802
(dp803
g72
(dp804
g92
g93
ssg81
g798
sg74
(lp805
S'http_user_agent'
p806
asbag67
(g88
g69
NtRp807
(dp808
g72
(dp809
g99
g100
ssg81
g798
sg74
(lp810
S':'
asbag67
(g88
g69
NtRp811
(dp812
g72
(dp813
sg81
g798
sg74
(lp814
g67
(g68
g69
NtRp815
(dp816
g72
(dp817
g80
I4
ssg81
g811
sg74
(lp818
S'Mozilla/5.0 (X11; Linux x86_64) AppleWebKit/535.19 (KHTML, like Gecko) Ubuntu/12.04 Chromium/18.0.1025.168 Chrome/18.0.1025.168 Safari/535.19'
p819
asbasbasbag67
(g83
g69
NtRp820
(dp821
g72
(dp822
sg81
g462
sg74
(lp823
g67
(g88
g69
NtRp824
(dp825
g72
(dp826
g92
g93
ssg81
g820
sg74
(lp827
S'is_jython'
p828
asbag67
(g88
g69
NtRp829
(dp830
g72
(dp831
g99
g100
ssg81
g820
sg74
(lp832
S':'
asbag67
(g88
g69
NtRp833
(dp834
g72
(dp835
sg81
g820
sg74
(lp836
g67
(g68
g69
NtRp837
(dp838
g72
(dp839
g80
I4
ssg81
g833
sg74
(lp840
g110
asbasbasbag67
(g83
g69
NtRp841
(dp842
g72
(dp843
sg81
g462
sg74
(lp844
g67
(g88
g69
NtRp845
(dp846
g72
(dp847
g92
g93
ssg81
g841
sg74
(lp848
S'is_pypy'
p849
asbag67
(g88
g69
NtRp850
(dp851
g72
(dp852
g99
g100
ssg81
g841
sg74
(lp853
S':'
asbag67
(g88
g69
NtRp854
(dp855
g72
(dp856
sg81
g841
sg74
(lp857
g67
(g68
g69
NtRp858
(dp859
g72
(dp860
g80
I4
ssg81
g854
sg74
(lp861
g110
asbasbasbag67
(g83
g69
NtRp862
(dp863
g72
(dp864
sg81
g462
sg74
(lp865
g67
(g88
g69
NtRp866
(dp867
g72
(dp868
g92
g93
ssg81
g862
sg74
(lp869
S'path_info'
p870
asbag67
(g88
g69
NtRp871
(dp872
g72
(dp873
g99
g100
ssg81
g862
sg74
(lp874
S':'
asbag67
(g88
g69
NtRp875
(dp876
g72
(dp877
sg81
g862
sg74
(lp878
g67
(g68
g69
NtRp879
(dp880
g72
(dp881
g80
I4
ssg81
g875
sg74
(lp882
S'/'
asbasbasbag67
(g83
g69
NtRp883
(dp884
g72
(dp885
sg81
g462
sg74
(lp886
g67
(g88
g69
NtRp887
(dp888
g72
(dp889
g92
g93
ssg81
g883
sg74
(lp890
S'query_string'
p891
asbag67
(g88
g69
NtRp892
(dp893
g72
(dp894
g99
g100
ssg81
g883
sg74
(lp895
S':'
asbag67
(g88
g69
NtRp896
(dp897
g72
(dp898
sg81
g883
sg74
(lp899
g67
(g68
g69
NtRp900
(dp901
g72
(dp902
g80
I4
ssg81
g896
sg74
(lp903
S''
asbasbasbag67
(g83
g69
NtRp904
(dp905
g72
(dp906
sg81
g462
sg74
(lp907
g67
(g88
g69
NtRp908
(dp909
g72
(dp910
g92
g93
ssg81
g904
sg74
(lp911
S'remote_addr'
p912
asbag67
(g88
g69
NtRp913
(dp914
g72
(dp915
g99
g100
ssg81
g904
sg74
(lp916
S':'
asbag67
(g88
g69
NtRp917
(dp918
g72
(dp919
sg81
g904
sg74
(lp920
g67
(g68
g69
NtRp921
(dp922
g72
(dp923
g80
I4
ssg81
g917
sg74
(lp924
g200
asbasbasbag67
(g83
g69
NtRp925
(dp926
g72
(dp927
sg81
g462
sg74
(lp928
g67
(g88
g69
NtRp929
(dp930
g72
(dp931
g92
g93
ssg81
g925
sg74
(lp932
S'remote_port'
p933
asbag67
(g88
g69
NtRp934
(dp935
g72
(dp936
g99
g100
ssg81
g925
sg74
(lp937
S':'
asbag67
(g88
g69
NtRp938
(dp939
g72
(dp940
sg81
g925
sg74
(lp941
g67
(g68
g69
NtRp942
(dp943
g72
(dp944
g80
I4
ssg81
g938
sg74
(lp945
S'41312'
p946
asbasbasbag67
(g83
g69
NtRp947
(dp948
g72
(dp949
sg81
g462
sg74
(lp950
g67
(g88
g69
NtRp951
(dp952
g72
(dp953
g92
g93
ssg81
g947
sg74
(lp954
S'request_method'
p955
asbag67
(g88
g69
NtRp956
(dp957
g72
(dp958
g99
g100
ssg81
g947
sg74
(lp959
S':'
asbag67
(g88
g69
NtRp960
(dp961
g72
(dp962
sg81
g947
sg74
(lp963
g67
(g68
g69
NtRp964
(dp965
g72
(dp966
g80
I4
ssg81
g960
sg74
(lp967
S'GET'
p968
asbasbasbag67
(g83
g69
NtRp969
(dp970
g72
(dp971
sg81
g462
sg74
(lp972
g67
(g88
g69
NtRp973
(dp974
g72
(dp975
g92
g93
ssg81
g969
sg74
(lp976
S'request_uri'
p977
asbag67
(g88
g69
NtRp978
(dp979
g72
(dp980
g99
g100
ssg81
g969
sg74
(lp981
S':'
asbag67
(g88
g69
NtRp982
(dp983
g72
(dp984
sg81
g969
sg74
(lp985
g67
(g68
g69
NtRp986
(dp987
g72
(dp988
g80
I4
ssg81
g982
sg74
(lp989
S'/'
asbasbasbag67
(g83
g69
NtRp990
(dp991
g72
(dp992
sg81
g462
sg74
(lp993
g67
(g88
g69
NtRp994
(dp995
g72
(dp996
g92
g93
ssg81
g990
sg74
(lp997
S'script_name'
p998
asbag67
(g88
g69
NtRp999
(dp1000
g72
(dp1001
g99
g100
ssg81
g990
sg74
(lp1002
S':'
asbag67
(g88
g69
NtRp1003
(dp1004
g72
(dp1005
sg81
g990
sg74
(lp1006
g67
(g68
g69
NtRp1007
(dp1008
g72
(dp1009
g80
I4
ssg81
g1003
sg74
(lp1010
S''
asbasbasbag67
(g83
g69
NtRp1011
(dp1012
g72
(dp1013
sg81
g462
sg74
(lp1014
g67
(g88
g69
NtRp1015
(dp1016
g72
(dp1017
g92
g93
ssg81
g1011
sg74
(lp1018
S'server_name'
p1019
asbag67
(g88
g69
NtRp1020
(dp1021
g72
(dp1022
g99
g100
ssg81
g1011
sg74
(lp1023
S':'
asbag67
(g88
g69
NtRp1024
(dp1025
g72
(dp1026
sg81
g1011
sg74
(lp1027
g67
(g68
g69
NtRp1028
(dp1029
g72
(dp1030
g80
I4
ssg81
g1024
sg74
(lp1031
S'whisperer'
p1032
asbasbasbag67
(g83
g69
NtRp1033
(dp1034
g72
(dp1035
sg81
g462
sg74
(lp1036
g67
(g88
g69
NtRp1037
(dp1038
g72
(dp1039
g92
g93
ssg81
g1033
sg74
(lp1040
S'server_port'
p1041
asbag67
(g88
g69
NtRp1042
(dp1043
g72
(dp1044
g99
g100
ssg81
g1033
sg74
(lp1045
S':'
asbag67
(g88
g69
NtRp1046
(dp1047
g72
(dp1048
sg81
g1033
sg74
(lp1049
g67
(g68
g69
NtRp1050
(dp1051
g72
(dp1052
g80
I4
ssg81
g1046
sg74
(lp1053
S'8000'
p1054
asbasbasbag67
(g83
g69
NtRp1055
(dp1056
g72
(dp1057
sg81
g462
sg74
(lp1058
g67
(g88
g69
NtRp1059
(dp1060
g72
(dp1061
g92
g93
ssg81
g1055
sg74
(lp1062
S'server_protocol'
p1063
asbag67
(g88
g69
NtRp1064
(dp1065
g72
(dp1066
g99
g100
ssg81
g1055
sg74
(lp1067
S':'
asbag67
(g88
g69
NtRp1068
(dp1069
g72
(dp1070
sg81
g1055
sg74
(lp1071
g67
(g68
g69
NtRp1072
(dp1073
g72
(dp1074
g80
I4
ssg81
g1068
sg74
(lp1075
S'HTTP/1.1'
p1076
asbasbasbag67
(g83
g69
NtRp1077
(dp1078
g72
(dp1079
sg81
g462
sg74
(lp1080
g67
(g88
g69
NtRp1081
(dp1082
g72
(dp1083
g92
g93
ssg81
g1077
sg74
(lp1084
S'server_software'
p1085
asbag67
(g88
g69
NtRp1086
(dp1087
g72
(dp1088
g99
g100
ssg81
g1077
sg74
(lp1089
S':'
asbag67
(g88
g69
NtRp1090
(dp1091
g72
(dp1092
sg81
g1077
sg74
(lp1093
g67
(g68
g69
NtRp1094
(dp1095
g72
(dp1096
g80
I4
ssg81
g1090
sg74
(lp1097
S'Rocket 1.2.4'
p1098
asbasbasbag67
(g83
g69
NtRp1099
(dp1100
g72
(dp1101
sg81
g462
sg74
(lp1102
g67
(g88
g69
NtRp1103
(dp1104
g72
(dp1105
g92
g93
ssg81
g1099
sg74
(lp1106
S'web2py_crontype'
p1107
asbag67
(g88
g69
NtRp1108
(dp1109
g72
(dp1110
g99
g100
ssg81
g1099
sg74
(lp1111
S':'
asbag67
(g88
g69
NtRp1112
(dp1113
g72
(dp1114
sg81
g1099
sg74
(lp1115
g67
(g68
g69
NtRp1116
(dp1117
g72
(dp1118
g80
I4
ssg81
g1112
sg74
(lp1119
S'hard'
p1120
asbasbasbag67
(g83
g69
NtRp1121
(dp1122
g72
(dp1123
sg81
g462
sg74
(lp1124
g67
(g88
g69
NtRp1125
(dp1126
g72
(dp1127
g92
g93
ssg81
g1121
sg74
(lp1128
S'web2py_original_uri'
p1129
asbag67
(g88
g69
NtRp1130
(dp1131
g72
(dp1132
g99
g100
ssg81
g1121
sg74
(lp1133
S':'
asbag67
(g88
g69
NtRp1134
(dp1135
g72
(dp1136
sg81
g1121
sg74
(lp1137
g67
(g68
g69
NtRp1138
(dp1139
g72
(dp1140
g80
I4
ssg81
g1134
sg74
(lp1141
S'/'
asbasbasbag67
(g83
g69
NtRp1142
(dp1143
g72
(dp1144
sg81
g462
sg74
(lp1145
g67
(g88
g69
NtRp1146
(dp1147
g72
(dp1148
g92
g93
ssg81
g1142
sg74
(lp1149
S'web2py_path'
p1150
asbag67
(g88
g69
NtRp1151
(dp1152
g72
(dp1153
g99
g100
ssg81
g1142
sg74
(lp1154
S':'
asbag67
(g88
g69
NtRp1155
(dp1156
g72
(dp1157
sg81
g1142
sg74
(lp1158
g67
(g68
g69
NtRp1159
(dp1160
g72
(dp1161
g80
I4
ssg81
g1155
sg74
(lp1162
g509
asbasbasbag67
(g83
g69
NtRp1163
(dp1164
g72
(dp1165
sg81
g462
sg74
(lp1166
g67
(g88
g69
NtRp1167
(dp1168
g72
(dp1169
g92
g93
ssg81
g1163
sg74
(lp1170
S'web2py_version'
p1171
asbag67
(g88
g69
NtRp1172
(dp1173
g72
(dp1174
g99
g100
ssg81
g1163
sg74
(lp1175
S':'
asbag67
(g88
g69
NtRp1176
(dp1177
g72
(dp1178
sg81
g1163
sg74
(lp1179
g67
(g68
g69
NtRp1180
(dp1181
g72
(dp1182
g80
I4
ssg81
g1176
sg74
(lp1183
g67
(g76
g69
NtRp1184
(dp1185
g72
(dp1186
g80
I3
ssg81
Nsg74
(lp1187
g67
(g83
g69
NtRp1188
(dp1189
g72
(dp1190
sg81
g1184
sg74
(lp1191
g67
(g88
g69
NtRp1192
(dp1193
g72
(dp1194
sg81
g1188
sg74
(lp1195
g67
(g68
g69
NtRp1196
(dp1197
g72
(dp1198
g80
I3
ssg81
g1192
sg74
(lp1199
S'1'
asbasbasbag67
(g83
g69
NtRp1200
(dp1201
g72
(dp1202
sg81
g1184
sg74
(lp1203
g67
(g88
g69
NtRp1204
(dp1205
g72
(dp1206
sg81
g1200
sg74
(lp1207
g67
(g68
g69
NtRp1208
(dp1209
g72
(dp1210
g80
I3
ssg81
g1204
sg74
(lp1211
S'99'
p1212
asbasbasbag67
(g83
g69
NtRp1213
(dp1214
g72
(dp1215
sg81
g1184
sg74
(lp1216
g67
(g88
g69
NtRp1217
(dp1218
g72
(dp1219
sg81
g1213
sg74
(lp1220
g67
(g68
g69
NtRp1221
(dp1222
g72
(dp1223
g80
I3
ssg81
g1217
sg74
(lp1224
S'7'
asbasbasbag67
(g83
g69
NtRp1225
(dp1226
g72
(dp1227
sg81
g1184
sg74
(lp1228
g67
(g88
g69
NtRp1229
(dp1230
g72
(dp1231
sg81
g1225
sg74
(lp1232
g67
(g68
g69
NtRp1233
(dp1234
g72
(dp1235
g80
I3
ssg81
g1229
sg74
(lp1236
S'datetime.datetime(2012, 3, 4, 22, 12, 8)'
p1237
asbasbasbag67
(g83
g69
NtRp1238
(dp1239
g72
(dp1240
sg81
g1184
sg74
(lp1241
g67
(g88
g69
NtRp1242
(dp1243
g72
(dp1244
sg81
g1238
sg74
(lp1245
g67
(g68
g69
NtRp1246
(dp1247
g72
(dp1248
g80
I3
ssg81
g1242
sg74
(lp1249
S'stable'
p1250
asbasbasbasbasbasbasbag67
(g83
g69
NtRp1251
(dp1252
g72
(dp1253
sg81
g462
sg74
(lp1254
g67
(g88
g69
NtRp1255
(dp1256
g72
(dp1257
g92
g93
ssg81
g1251
sg74
(lp1258
S'wsgi_errors'
p1259
asbag67
(g88
g69
NtRp1260
(dp1261
g72
(dp1262
g99
g100
ssg81
g1251
sg74
(lp1263
S':'
asbag67
(g88
g69
NtRp1264
(dp1265
g72
(dp1266
sg81
g1251
sg74
(lp1267
g67
(g68
g69
NtRp1268
(dp1269
g72
(dp1270
g80
I4
ssg81
g1264
sg74
(lp1271
S"<open file '<stderr>', mode 'w' at 0x7f85f8014270>"
p1272
asbasbasbag67
(g83
g69
NtRp1273
(dp1274
g72
(dp1275
sg81
g462
sg74
(lp1276
g67
(g88
g69
NtRp1277
(dp1278
g72
(dp1279
g92
g93
ssg81
g1273
sg74
(lp1280
S'wsgi_file_wrapper'
p1281
asbag67
(g88
g69
NtRp1282
(dp1283
g72
(dp1284
g99
g100
ssg81
g1273
sg74
(lp1285
S':'
asbag67
(g88
g69
NtRp1286
(dp1287
g72
(dp1288
sg81
g1273
sg74
(lp1289
g67
(g68
g69
NtRp1290
(dp1291
g72
(dp1292
g80
I4
ssg81
g1286
sg74
(lp1293
S'<class wsgiref.util.FileWrapper at 0x1391ef0>'
p1294
asbasbasbag67
(g83
g69
NtRp1295
(dp1296
g72
(dp1297
sg81
g462
sg74
(lp1298
g67
(g88
g69
NtRp1299
(dp1300
g72
(dp1301
g92
g93
ssg81
g1295
sg74
(lp1302
S'wsgi_input'
p1303
asbag67
(g88
g69
NtRp1304
(dp1305
g72
(dp1306
g99
g100
ssg81
g1295
sg74
(lp1307
S':'
asbag67
(g88
g69
NtRp1308
(dp1309
g72
(dp1310
sg81
g1295
sg74
(lp1311
g67
(g68
g69
NtRp1312
(dp1313
g72
(dp1314
g80
I4
ssg81
g1308
sg74
(lp1315
S'<socket._fileobject object at 0x14c64d0>'
p1316
asbasbasbag67
(g83
g69
NtRp1317
(dp1318
g72
(dp1319
sg81
g462
sg74
(lp1320
g67
(g88
g69
NtRp1321
(dp1322
g72
(dp1323
g92
g93
ssg81
g1317
sg74
(lp1324
S'wsgi_multiprocess'
p1325
asbag67
(g88
g69
NtRp1326
(dp1327
g72
(dp1328
g99
g100
ssg81
g1317
sg74
(lp1329
S':'
asbag67
(g88
g69
NtRp1330
(dp1331
g72
(dp1332
sg81
g1317
sg74
(lp1333
g67
(g68
g69
NtRp1334
(dp1335
g72
(dp1336
g80
I4
ssg81
g1330
sg74
(lp1337
g110
asbasbasbag67
(g83
g69
NtRp1338
(dp1339
g72
(dp1340
sg81
g462
sg74
(lp1341
g67
(g88
g69
NtRp1342
(dp1343
g72
(dp1344
g92
g93
ssg81
g1338
sg74
(lp1345
S'wsgi_multithread'
p1346
asbag67
(g88
g69
NtRp1347
(dp1348
g72
(dp1349
g99
g100
ssg81
g1338
sg74
(lp1350
S':'
asbag67
(g88
g69
NtRp1351
(dp1352
g72
(dp1353
sg81
g1338
sg74
(lp1354
g67
(g68
g69
NtRp1355
(dp1356
g72
(dp1357
g80
I4
ssg81
g1351
sg74
(lp1358
S'True'
p1359
asbasbasbag67
(g83
g69
NtRp1360
(dp1361
g72
(dp1362
sg81
g462
sg74
(lp1363
g67
(g88
g69
NtRp1364
(dp1365
g72
(dp1366
g92
g93
ssg81
g1360
sg74
(lp1367
S'wsgi_run_once'
p1368
asbag67
(g88
g69
NtRp1369
(dp1370
g72
(dp1371
g99
g100
ssg81
g1360
sg74
(lp1372
S':'
asbag67
(g88
g69
NtRp1373
(dp1374
g72
(dp1375
sg81
g1360
sg74
(lp1376
g67
(g68
g69
NtRp1377
(dp1378
g72
(dp1379
g80
I4
ssg81
g1373
sg74
(lp1380
g110
asbasbasbag67
(g83
g69
NtRp1381
(dp1382
g72
(dp1383
sg81
g462
sg74
(lp1384
g67
(g88
g69
NtRp1385
(dp1386
g72
(dp1387
g92
g93
ssg81
g1381
sg74
(lp1388
S'wsgi_url_scheme'
p1389
asbag67
(g88
g69
NtRp1390
(dp1391
g72
(dp1392
g99
g100
ssg81
g1381
sg74
(lp1393
S':'
asbag67
(g88
g69
NtRp1394
(dp1395
g72
(dp1396
sg81
g1381
sg74
(lp1397
g67
(g68
g69
NtRp1398
(dp1399
g72
(dp1400
g80
I4
ssg81
g1394
sg74
(lp1401
S'http'
p1402
asbasbasbag67
(g83
g69
NtRp1403
(dp1404
g72
(dp1405
sg81
g462
sg74
(lp1406
g67
(g88
g69
NtRp1407
(dp1408
g72
(dp1409
g92
g93
ssg81
g1403
sg74
(lp1410
S'wsgi_version'
p1411
asbag67
(g88
g69
NtRp1412
(dp1413
g72
(dp1414
g99
g100
ssg81
g1403
sg74
(lp1415
S':'
asbag67
(g88
g69
NtRp1416
(dp1417
g72
(dp1418
sg81
g1403
sg74
(lp1419
g67
(g68
g69
NtRp1420
(dp1421
g72
(dp1422
g80
I4
ssg81
g1416
sg74
(lp1423
g67
(g76
g69
NtRp1424
(dp1425
g72
(dp1426
g80
I3
ssg81
Nsg74
(lp1427
g67
(g83
g69
NtRp1428
(dp1429
g72
(dp1430
sg81
g1424
sg74
(lp1431
g67
(g88
g69
NtRp1432
(dp1433
g72
(dp1434
sg81
g1428
sg74
(lp1435
g67
(g68
g69
NtRp1436
(dp1437
g72
(dp1438
g80
I3
ssg81
g1432
sg74
(lp1439
S'1'
asbasbasbag67
(g83
g69
NtRp1440
(dp1441
g72
(dp1442
sg81
g1424
sg74
(lp1443
g67
(g88
g69
NtRp1444
(dp1445
g72
(dp1446
sg81
g1440
sg74
(lp1447
g67
(g68
g69
NtRp1448
(dp1449
g72
(dp1450
g80
I3
ssg81
g1444
sg74
(lp1451
S'0'
asbasbasbasbasbasbasbasbasbasbasbag67
(g83
g69
NtRp1452
(dp1453
g72
(dp1454
sg81
g77
sg74
(lp1455
g67
(g88
g69
NtRp1456
(dp1457
g72
(dp1458
g92
g93
ssg81
g1452
sg74
(lp1459
S'extension'
p1460
asbag67
(g88
g69
NtRp1461
(dp1462
g72
(dp1463
g99
g100
ssg81
g1452
sg74
(lp1464
S':'
asbag67
(g88
g69
NtRp1465
(dp1466
g72
(dp1467
sg81
g1452
sg74
(lp1468
g67
(g68
g69
NtRp1469
(dp1470
g72
(dp1471
g80
I5
ssg81
g1465
sg74
(lp1472
S'html'
p1473
asbasbasbag67
(g83
g69
NtRp1474
(dp1475
g72
(dp1476
sg81
g77
sg74
(lp1477
g67
(g88
g69
NtRp1478
(dp1479
g72
(dp1480
g92
g93
ssg81
g1474
sg74
(lp1481
S'folder'
p1482
asbag67
(g88
g69
NtRp1483
(dp1484
g72
(dp1485
g99
g100
ssg81
g1474
sg74
(lp1486
S':'
asbag67
(g88
g69
NtRp1487
(dp1488
g72
(dp1489
sg81
g1474
sg74
(lp1490
g67
(g68
g69
NtRp1491
(dp1492
g72
(dp1493
g80
I5
ssg81
g1487
sg74
(lp1494
S'/home/goshawk/web2py/applications/milo/'
p1495
asbasbasbag67
(g83
g69
NtRp1496
(dp1497
g72
(dp1498
sg81
g77
sg74
(lp1499
g67
(g88
g69
NtRp1500
(dp1501
g72
(dp1502
g92
g93
ssg81
g1496
sg74
(lp1503
S'function'
p1504
asbag67
(g88
g69
NtRp1505
(dp1506
g72
(dp1507
g99
g100
ssg81
g1496
sg74
(lp1508
S':'
asbag67
(g88
g69
NtRp1509
(dp1510
g72
(dp1511
sg81
g1496
sg74
(lp1512
g67
(g68
g69
NtRp1513
(dp1514
g72
(dp1515
g80
I5
ssg81
g1509
sg74
(lp1516
S'index'
p1517
asbasbasbag67
(g83
g69
NtRp1518
(dp1519
g72
(dp1520
sg81
g77
sg74
(lp1521
g67
(g88
g69
NtRp1522
(dp1523
g72
(dp1524
g92
g93
ssg81
g1518
sg74
(lp1525
S'get_vars'
p1526
asbag67
(g88
g69
NtRp1527
(dp1528
g72
(dp1529
g99
g100
ssg81
g1518
sg74
(lp1530
S':'
asbag67
(g88
g69
NtRp1531
(dp1532
g72
(dp1533
sg81
g1518
sg74
(lp1534
g67
(g68
g69
NtRp1535
(dp1536
g72
(dp1537
g80
I5
ssg81
g1531
sg74
(lp1538
g67
(g76
g69
NtRp1539
(dp1540
g72
(dp1541
g80
I4
ssg81
Nsg74
(lp1542
sbasbasbasbag67
(g83
g69
NtRp1543
(dp1544
g72
(dp1545
sg81
g77
sg74
(lp1546
g67
(g88
g69
NtRp1547
(dp1548
g72
(dp1549
g92
g93
ssg81
g1543
sg74
(lp1550
S'global_settings'
p1551
asbag67
(g88
g69
NtRp1552
(dp1553
g72
(dp1554
g99
g100
ssg81
g1543
sg74
(lp1555
S':'
asbag67
(g88
g69
NtRp1556
(dp1557
g72
(dp1558
sg81
g1543
sg74
(lp1559
g67
(g68
g69
NtRp1560
(dp1561
g72
(dp1562
g80
I5
ssg81
g1556
sg74
(lp1563
g67
(g76
g69
NtRp1564
(dp1565
g72
(dp1566
g80
I4
ssg81
Nsg74
(lp1567
g67
(g83
g69
NtRp1568
(dp1569
g72
(dp1570
sg81
g1564
sg74
(lp1571
g67
(g88
g69
NtRp1572
(dp1573
g72
(dp1574
g92
g93
ssg81
g1568
sg74
(lp1575
g474
asbag67
(g88
g69
NtRp1576
(dp1577
g72
(dp1578
g99
g100
ssg81
g1568
sg74
(lp1579
S':'
asbag67
(g88
g69
NtRp1580
(dp1581
g72
(dp1582
sg81
g1568
sg74
(lp1583
g67
(g68
g69
NtRp1584
(dp1585
g72
(dp1586
g80
I4
ssg81
g1580
sg74
(lp1587
S"set(['/home/goshawk/web2py/applications/milo/', '/home/goshawk/web2py/applications/admin/'])"
p1588
asbasbasbag67
(g83
g69
NtRp1589
(dp1590
g72
(dp1591
sg81
g1564
sg74
(lp1592
g67
(g88
g69
NtRp1593
(dp1594
g72
(dp1595
g92
g93
ssg81
g1589
sg74
(lp1596
g496
asbag67
(g88
g69
NtRp1597
(dp1598
g72
(dp1599
g99
g100
ssg81
g1589
sg74
(lp1600
S':'
asbag67
(g88
g69
NtRp1601
(dp1602
g72
(dp1603
sg81
g1589
sg74
(lp1604
g67
(g68
g69
NtRp1605
(dp1606
g72
(dp1607
g80
I4
ssg81
g1601
sg74
(lp1608
g509
asbasbasbag67
(g83
g69
NtRp1609
(dp1610
g72
(dp1611
sg81
g1564
sg74
(lp1612
g67
(g88
g69
NtRp1613
(dp1614
g72
(dp1615
g92
g93
ssg81
g1609
sg74
(lp1616
g518
asbag67
(g88
g69
NtRp1617
(dp1618
g72
(dp1619
g99
g100
ssg81
g1609
sg74
(lp1620
S':'
asbag67
(g88
g69
NtRp1621
(dp1622
g72
(dp1623
sg81
g1609
sg74
(lp1624
g67
(g68
g69
NtRp1625
(dp1626
g72
(dp1627
g80
I4
ssg81
g1621
sg74
(lp1628
g67
(g76
g69
NtRp1629
(dp1630
g72
(dp1631
g80
I3
ssg81
Nsg74
(lp1632
sbasbasbasbag67
(g83
g69
NtRp1633
(dp1634
g72
(dp1635
sg81
g1564
sg74
(lp1636
g67
(g88
g69
NtRp1637
(dp1638
g72
(dp1639
g92
g93
ssg81
g1633
sg74
(lp1640
g543
asbag67
(g88
g69
NtRp1641
(dp1642
g72
(dp1643
g99
g100
ssg81
g1633
sg74
(lp1644
S':'
asbag67
(g88
g69
NtRp1645
(dp1646
g72
(dp1647
sg81
g1633
sg74
(lp1648
g67
(g68
g69
NtRp1649
(dp1650
g72
(dp1651
g80
I4
ssg81
g1645
sg74
(lp1652
S"<Values at 0x14660e0: {'verbose': False, 'ip': '127.0.0.1', 'shutdown_timeout': 5, 'taskbar': False, 'nocron': False, 'pid_filename': 'httpserver.pid', 'maxthreads': None, 'softcron': False, 'server_name': 'whisperer', 'bpython': False, 'nogui': False, 'port': 8000, 'extcron': False, 'debuglevel': 30, 'test': None, 'folder': '/home/goshawk/web2py', 'config': '', 'import_models': False, 'winservice': '', 'shell': None, 'run': '', 'log_filename': 'httpserver.log', 'args': [''], 'socket_timeout': 5, 'ssl_ca_certificate': None, 'scheduler': None, 'profiler_filename': None, 'ssl_private_key': '', 'password': 'admin', 'request_queue_size': 5, 'ssl_certificate': '', 'cronjob': False, 'numthreads': None, 'quiet': False, 'interfaces': None, 'minthreads': None, 'timeout': 10, 'plain': False, 'nobanner': False}>"
p1653
asbasbasbag67
(g83
g69
NtRp1654
(dp1655
g72
(dp1656
sg81
g1564
sg74
(lp1657
g67
(g88
g69
NtRp1658
(dp1659
g72
(dp1660
g92
g93
ssg81
g1654
sg74
(lp1661
g565
asbag67
(g88
g69
NtRp1662
(dp1663
g72
(dp1664
g99
g100
ssg81
g1654
sg74
(lp1665
S':'
asbag67
(g88
g69
NtRp1666
(dp1667
g72
(dp1668
sg81
g1654
sg74
(lp1669
g67
(g68
g69
NtRp1670
(dp1671
g72
(dp1672
g80
I4
ssg81
g1666
sg74
(lp1673
S'set([])'
p1674
asbasbasbag67
(g83
g69
NtRp1675
(dp1676
g72
(dp1677
sg81
g1564
sg74
(lp1678
g67
(g88
g69
NtRp1679
(dp1680
g72
(dp1681
g92
g93
ssg81
g1675
sg74
(lp1682
g587
asbag67
(g88
g69
NtRp1683
(dp1684
g72
(dp1685
g99
g100
ssg81
g1675
sg74
(lp1686
S':'
asbag67
(g88
g69
NtRp1687
(dp1688
g72
(dp1689
sg81
g1675
sg74
(lp1690
g67
(g68
g69
NtRp1691
(dp1692
g72
(dp1693
g80
I4
ssg81
g1687
sg74
(lp1694
g110
asbasbasbag67
(g83
g69
NtRp1695
(dp1696
g72
(dp1697
sg81
g1564
sg74
(lp1698
g67
(g88
g69
NtRp1699
(dp1700
g72
(dp1701
g92
g93
ssg81
g1695
sg74
(lp1702
g608
asbag67
(g88
g69
NtRp1703
(dp1704
g72
(dp1705
g99
g100
ssg81
g1695
sg74
(lp1706
S':'
asbag67
(g88
g69
NtRp1707
(dp1708
g72
(dp1709
sg81
g1695
sg74
(lp1710
g67
(g68
g69
NtRp1711
(dp1712
g72
(dp1713
g80
I4
ssg81
g1707
sg74
(lp1714
g621
asbasbasbag67
(g83
g69
NtRp1715
(dp1716
g72
(dp1717
sg81
g1564
sg74
(lp1718
g67
(g88
g69
NtRp1719
(dp1720
g72
(dp1721
g92
g93
ssg81
g1715
sg74
(lp1722
g828
asbag67
(g88
g69
NtRp1723
(dp1724
g72
(dp1725
g99
g100
ssg81
g1715
sg74
(lp1726
S':'
asbag67
(g88
g69
NtRp1727
(dp1728
g72
(dp1729
sg81
g1715
sg74
(lp1730
g67
(g68
g69
NtRp1731
(dp1732
g72
(dp1733
g80
I4
ssg81
g1727
sg74
(lp1734
g110
asbasbasbag67
(g83
g69
NtRp1735
(dp1736
g72
(dp1737
sg81
g1564
sg74
(lp1738
g67
(g88
g69
NtRp1739
(dp1740
g72
(dp1741
g92
g93
ssg81
g1735
sg74
(lp1742
g849
asbag67
(g88
g69
NtRp1743
(dp1744
g72
(dp1745
g99
g100
ssg81
g1735
sg74
(lp1746
S':'
asbag67
(g88
g69
NtRp1747
(dp1748
g72
(dp1749
sg81
g1735
sg74
(lp1750
g67
(g68
g69
NtRp1751
(dp1752
g72
(dp1753
g80
I4
ssg81
g1747
sg74
(lp1754
g110
asbasbasbag67
(g83
g69
NtRp1755
(dp1756
g72
(dp1757
sg81
g1564
sg74
(lp1758
g67
(g88
g69
NtRp1759
(dp1760
g72
(dp1761
g92
g93
ssg81
g1755
sg74
(lp1762
g1107
asbag67
(g88
g69
NtRp1763
(dp1764
g72
(dp1765
g99
g100
ssg81
g1755
sg74
(lp1766
S':'
asbag67
(g88
g69
NtRp1767
(dp1768
g72
(dp1769
sg81
g1755
sg74
(lp1770
g67
(g68
g69
NtRp1771
(dp1772
g72
(dp1773
g80
I4
ssg81
g1767
sg74
(lp1774
g1120
asbasbasbag67
(g83
g69
NtRp1775
(dp1776
g72
(dp1777
sg81
g1564
sg74
(lp1778
g67
(g88
g69
NtRp1779
(dp1780
g72
(dp1781
g92
g93
ssg81
g1775
sg74
(lp1782
g1171
asbag67
(g88
g69
NtRp1783
(dp1784
g72
(dp1785
g99
g100
ssg81
g1775
sg74
(lp1786
S':'
asbag67
(g88
g69
NtRp1787
(dp1788
g72
(dp1789
sg81
g1775
sg74
(lp1790
g67
(g68
g69
NtRp1791
(dp1792
g72
(dp1793
g80
I4
ssg81
g1787
sg74
(lp1794
g67
(g76
g69
NtRp1795
(dp1796
g72
(dp1797
g80
I3
ssg81
Nsg74
(lp1798
g67
(g83
g69
NtRp1799
(dp1800
g72
(dp1801
sg81
g1795
sg74
(lp1802
g67
(g88
g69
NtRp1803
(dp1804
g72
(dp1805
sg81
g1799
sg74
(lp1806
g67
(g68
g69
NtRp1807
(dp1808
g72
(dp1809
g80
I3
ssg81
g1803
sg74
(lp1810
S'1'
asbasbasbag67
(g83
g69
NtRp1811
(dp1812
g72
(dp1813
sg81
g1795
sg74
(lp1814
g67
(g88
g69
NtRp1815
(dp1816
g72
(dp1817
sg81
g1811
sg74
(lp1818
g67
(g68
g69
NtRp1819
(dp1820
g72
(dp1821
g80
I3
ssg81
g1815
sg74
(lp1822
S'99'
p1823
asbasbasbag67
(g83
g69
NtRp1824
(dp1825
g72
(dp1826
sg81
g1795
sg74
(lp1827
g67
(g88
g69
NtRp1828
(dp1829
g72
(dp1830
sg81
g1824
sg74
(lp1831
g67
(g68
g69
NtRp1832
(dp1833
g72
(dp1834
g80
I3
ssg81
g1828
sg74
(lp1835
S'7'
asbasbasbag67
(g83
g69
NtRp1836
(dp1837
g72
(dp1838
sg81
g1795
sg74
(lp1839
g67
(g88
g69
NtRp1840
(dp1841
g72
(dp1842
sg81
g1836
sg74
(lp1843
g67
(g68
g69
NtRp1844
(dp1845
g72
(dp1846
g80
I3
ssg81
g1840
sg74
(lp1847
S'datetime.datetime(2012, 3, 4, 22, 12, 8)'
p1848
asbasbasbag67
(g83
g69
NtRp1849
(dp1850
g72
(dp1851
sg81
g1795
sg74
(lp1852
g67
(g88
g69
NtRp1853
(dp1854
g72
(dp1855
sg81
g1849
sg74
(lp1856
g67
(g68
g69
NtRp1857
(dp1858
g72
(dp1859
g80
I3
ssg81
g1853
sg74
(lp1860
g1250
asbasbasbasbasbasbasbasbasbasbasbag67
(g83
g69
NtRp1861
(dp1862
g72
(dp1863
sg81
g77
sg74
(lp1864
g67
(g88
g69
NtRp1865
(dp1866
g72
(dp1867
g92
g93
ssg81
g1861
sg74
(lp1868
S'is_https'
p1869
asbag67
(g88
g69
NtRp1870
(dp1871
g72
(dp1872
g99
g100
ssg81
g1861
sg74
(lp1873
S':'
asbag67
(g88
g69
NtRp1874
(dp1875
g72
(dp1876
sg81
g1861
sg74
(lp1877
g67
(g68
g69
NtRp1878
(dp1879
g72
(dp1880
g80
I5
ssg81
g1874
sg74
(lp1881
g110
asbasbasbag67
(g83
g69
NtRp1882
(dp1883
g72
(dp1884
sg81
g77
sg74
(lp1885
g67
(g88
g69
NtRp1886
(dp1887
g72
(dp1888
g92
g93
ssg81
g1882
sg74
(lp1889
S'is_local'
p1890
asbag67
(g88
g69
NtRp1891
(dp1892
g72
(dp1893
g99
g100
ssg81
g1882
sg74
(lp1894
S':'
asbag67
(g88
g69
NtRp1895
(dp1896
g72
(dp1897
sg81
g1882
sg74
(lp1898
g67
(g68
g69
NtRp1899
(dp1900
g72
(dp1901
g80
I5
ssg81
g1895
sg74
(lp1902
g1359
asbasbasbag67
(g83
g69
NtRp1903
(dp1904
g72
(dp1905
sg81
g77
sg74
(lp1906
g67
(g88
g69
NtRp1907
(dp1908
g72
(dp1909
g92
g93
ssg81
g1903
sg74
(lp1910
S'is_restful'
p1911
asbag67
(g88
g69
NtRp1912
(dp1913
g72
(dp1914
g99
g100
ssg81
g1903
sg74
(lp1915
S':'
asbag67
(g88
g69
NtRp1916
(dp1917
g72
(dp1918
sg81
g1903
sg74
(lp1919
g67
(g68
g69
NtRp1920
(dp1921
g72
(dp1922
g80
I5
ssg81
g1916
sg74
(lp1923
g110
asbasbasbag67
(g83
g69
NtRp1924
(dp1925
g72
(dp1926
sg81
g77
sg74
(lp1927
g67
(g88
g69
NtRp1928
(dp1929
g72
(dp1930
g92
g93
ssg81
g1924
sg74
(lp1931
S'now'
p1932
asbag67
(g88
g69
NtRp1933
(dp1934
g72
(dp1935
g99
g100
ssg81
g1924
sg74
(lp1936
S':'
asbag67
(g88
g69
NtRp1937
(dp1938
g72
(dp1939
sg81
g1924
sg74
(lp1940
g67
(g68
g69
NtRp1941
(dp1942
g72
(dp1943
g80
I5
ssg81
g1937
sg74
(lp1944
S'datetime.datetime(2012, 7, 23, 11, 12, 51, 977495)'
p1945
asbasbasbag67
(g83
g69
NtRp1946
(dp1947
g72
(dp1948
sg81
g77
sg74
(lp1949
g67
(g88
g69
NtRp1950
(dp1951
g72
(dp1952
g92
g93
ssg81
g1946
sg74
(lp1953
S'post_vars'
p1954
asbag67
(g88
g69
NtRp1955
(dp1956
g72
(dp1957
g99
g100
ssg81
g1946
sg74
(lp1958
S':'
asbag67
(g88
g69
NtRp1959
(dp1960
g72
(dp1961
sg81
g1946
sg74
(lp1962
g67
(g68
g69
NtRp1963
(dp1964
g72
(dp1965
g80
I5
ssg81
g1959
sg74
(lp1966
g67
(g76
g69
NtRp1967
(dp1968
g72
(dp1969
g80
I4
ssg81
Nsg74
(lp1970
sbasbasbasbag67
(g83
g69
NtRp1971
(dp1972
g72
(dp1973
sg81
g77
sg74
(lp1974
g67
(g88
g69
NtRp1975
(dp1976
g72
(dp1977
g92
g93
ssg81
g1971
sg74
(lp1978
S'url'
p1979
asbag67
(g88
g69
NtRp1980
(dp1981
g72
(dp1982
g99
g100
ssg81
g1971
sg74
(lp1983
S':'
asbag67
(g88
g69
NtRp1984
(dp1985
g72
(dp1986
sg81
g1971
sg74
(lp1987
g67
(g68
g69
NtRp1988
(dp1989
g72
(dp1990
g80
I5
ssg81
g1984
sg74
(lp1991
S'/milo/default/index'
p1992
asbasbasbag67
(g83
g69
NtRp1993
(dp1994
g72
(dp1995
sg81
g77
sg74
(lp1996
g67
(g88
g69
NtRp1997
(dp1998
g72
(dp1999
g92
g93
ssg81
g1993
sg74
(lp2000
S'utcnow'
p2001
asbag67
(g88
g69
NtRp2002
(dp2003
g72
(dp2004
g99
g100
ssg81
g1993
sg74
(lp2005
S':'
asbag67
(g88
g69
NtRp2006
(dp2007
g72
(dp2008
sg81
g1993
sg74
(lp2009
g67
(g68
g69
NtRp2010
(dp2011
g72
(dp2012
g80
I5
ssg81
g2006
sg74
(lp2013
S'datetime.datetime(2012, 7, 23, 9, 12, 51, 977551)'
p2014
asbasbasbag67
(g83
g69
NtRp2015
(dp2016
g72
(dp2017
sg81
g77
sg74
(lp2018
g67
(g88
g69
NtRp2019
(dp2020
g72
(dp2021
g92
g93
ssg81
g2015
sg74
(lp2022
S'uuid'
p2023
asbag67
(g88
g69
NtRp2024
(dp2025
g72
(dp2026
g99
g100
ssg81
g2015
sg74
(lp2027
S':'
asbag67
(g88
g69
NtRp2028
(dp2029
g72
(dp2030
sg81
g2015
sg74
(lp2031
g67
(g68
g69
NtRp2032
(dp2033
g72
(dp2034
g80
I5
ssg81
g2028
sg74
(lp2035
S'milo/127.0.0.1.2012-07-23.11-12-51.9c4c9a87-fcc6-4f78-9d2e-8c21009b6aa9'
p2036
asbasbasbag67
(g83
g69
NtRp2037
(dp2038
g72
(dp2039
sg81
g77
sg74
(lp2040
g67
(g88
g69
NtRp2041
(dp2042
g72
(dp2043
g92
g93
ssg81
g2037
sg74
(lp2044
S'vars'
p2045
asbag67
(g88
g69
NtRp2046
(dp2047
g72
(dp2048
g99
g100
ssg81
g2037
sg74
(lp2049
S':'
asbag67
(g88
g69
NtRp2050
(dp2051
g72
(dp2052
sg81
g2037
sg74
(lp2053
g67
(g68
g69
NtRp2054
(dp2055
g72
(dp2056
g80
I5
ssg81
g2050
sg74
(lp2057
g67
(g76
g69
NtRp2058
(dp2059
g72
(dp2060
g80
I4
ssg81
Nsg74
(lp2061
sbasbasbasbag67
(g83
g69
NtRp2062
(dp2063
g72
(dp2064
sg81
g77
sg74
(lp2065
g67
(g88
g69
NtRp2066
(dp2067
g72
(dp2068
g92
g93
ssg81
g2062
sg74
(lp2069
S'wsgi'
p2070
asbag67
(g88
g69
NtRp2071
(dp2072
g72
(dp2073
g99
g100
ssg81
g2062
sg74
(lp2074
S':'
asbag67
(g88
g69
NtRp2075
(dp2076
g72
(dp2077
sg81
g2062
sg74
(lp2078
g67
(g68
g69
NtRp2079
(dp2080
g72
(dp2081
g80
I5
ssg81
g2075
sg74
(lp2082
g67
(g76
g69
NtRp2083
(dp2084
g72
(dp2085
g80
I4
ssg81
Nsg74
(lp2086
g67
(g83
g69
NtRp2087
(dp2088
g72
(dp2089
sg81
g2083
sg74
(lp2090
g67
(g88
g69
NtRp2091
(dp2092
g72
(dp2093
g92
g93
ssg81
g2087
sg74
(lp2094
S'environ'
p2095
asbag67
(g88
g69
NtRp2096
(dp2097
g72
(dp2098
g99
g100
ssg81
g2087
sg74
(lp2099
S':'
asbag67
(g88
g69
NtRp2100
(dp2101
g72
(dp2102
sg81
g2087
sg74
(lp2103
g67
(g68
g69
NtRp2104
(dp2105
g72
(dp2106
g80
I4
ssg81
g2100
sg74
(lp2107
g67
(g76
g69
NtRp2108
(dp2109
g72
(dp2110
g80
I3
ssg81
Nsg74
(lp2111
g67
(g83
g69
NtRp2112
(dp2113
g72
(dp2114
sg81
g2108
sg74
(lp2115
g67
(g88
g69
NtRp2116
(dp2117
g72
(dp2118
g92
g93
ssg81
g2112
sg74
(lp2119
S'HTTP_ACCEPT'
p2120
asbag67
(g88
g69
NtRp2121
(dp2122
g72
(dp2123
g99
g100
ssg81
g2112
sg74
(lp2124
S':'
asbag67
(g88
g69
NtRp2125
(dp2126
g72
(dp2127
sg81
g2112
sg74
(lp2128
g67
(g68
g69
NtRp2129
(dp2130
g72
(dp2131
g80
I3
ssg81
g2125
sg74
(lp2132
g643
asbasbasbag67
(g83
g69
NtRp2133
(dp2134
g72
(dp2135
sg81
g2108
sg74
(lp2136
g67
(g88
g69
NtRp2137
(dp2138
g72
(dp2139
g92
g93
ssg81
g2133
sg74
(lp2140
S'HTTP_ACCEPT_CHARSET'
p2141
asbag67
(g88
g69
NtRp2142
(dp2143
g72
(dp2144
g99
g100
ssg81
g2133
sg74
(lp2145
S':'
asbag67
(g88
g69
NtRp2146
(dp2147
g72
(dp2148
sg81
g2133
sg74
(lp2149
g67
(g68
g69
NtRp2150
(dp2151
g72
(dp2152
g80
I3
ssg81
g2146
sg74
(lp2153
g665
asbasbasbag67
(g83
g69
NtRp2154
(dp2155
g72
(dp2156
sg81
g2108
sg74
(lp2157
g67
(g88
g69
NtRp2158
(dp2159
g72
(dp2160
g92
g93
ssg81
g2154
sg74
(lp2161
S'HTTP_ACCEPT_ENCODING'
p2162
asbag67
(g88
g69
NtRp2163
(dp2164
g72
(dp2165
g99
g100
ssg81
g2154
sg74
(lp2166
S':'
asbag67
(g88
g69
NtRp2167
(dp2168
g72
(dp2169
sg81
g2154
sg74
(lp2170
g67
(g68
g69
NtRp2171
(dp2172
g72
(dp2173
g80
I3
ssg81
g2167
sg74
(lp2174
g687
asbasbasbag67
(g83
g69
NtRp2175
(dp2176
g72
(dp2177
sg81
g2108
sg74
(lp2178
g67
(g88
g69
NtRp2179
(dp2180
g72
(dp2181
g92
g93
ssg81
g2175
sg74
(lp2182
S'HTTP_ACCEPT_LANGUAGE'
p2183
asbag67
(g88
g69
NtRp2184
(dp2185
g72
(dp2186
g99
g100
ssg81
g2175
sg74
(lp2187
S':'
asbag67
(g88
g69
NtRp2188
(dp2189
g72
(dp2190
sg81
g2175
sg74
(lp2191
g67
(g68
g69
NtRp2192
(dp2193
g72
(dp2194
g80
I3
ssg81
g2188
sg74
(lp2195
g709
asbasbasbag67
(g83
g69
NtRp2196
(dp2197
g72
(dp2198
sg81
g2108
sg74
(lp2199
g67
(g88
g69
NtRp2200
(dp2201
g72
(dp2202
g92
g93
ssg81
g2196
sg74
(lp2203
S'HTTP_CACHE_CONTROL'
p2204
asbag67
(g88
g69
NtRp2205
(dp2206
g72
(dp2207
g99
g100
ssg81
g2196
sg74
(lp2208
S':'
asbag67
(g88
g69
NtRp2209
(dp2210
g72
(dp2211
sg81
g2196
sg74
(lp2212
g67
(g68
g69
NtRp2213
(dp2214
g72
(dp2215
g80
I3
ssg81
g2209
sg74
(lp2216
g731
asbasbasbag67
(g83
g69
NtRp2217
(dp2218
g72
(dp2219
sg81
g2108
sg74
(lp2220
g67
(g88
g69
NtRp2221
(dp2222
g72
(dp2223
g92
g93
ssg81
g2217
sg74
(lp2224
S'HTTP_CONNECTION'
p2225
asbag67
(g88
g69
NtRp2226
(dp2227
g72
(dp2228
g99
g100
ssg81
g2217
sg74
(lp2229
S':'
asbag67
(g88
g69
NtRp2230
(dp2231
g72
(dp2232
sg81
g2217
sg74
(lp2233
g67
(g68
g69
NtRp2234
(dp2235
g72
(dp2236
g80
I3
ssg81
g2230
sg74
(lp2237
g753
asbasbasbag67
(g83
g69
NtRp2238
(dp2239
g72
(dp2240
sg81
g2108
sg74
(lp2241
g67
(g88
g69
NtRp2242
(dp2243
g72
(dp2244
g92
g93
ssg81
g2238
sg74
(lp2245
S'HTTP_COOKIE'
p2246
asbag67
(g88
g69
NtRp2247
(dp2248
g72
(dp2249
g99
g100
ssg81
g2238
sg74
(lp2250
S':'
asbag67
(g88
g69
NtRp2251
(dp2252
g72
(dp2253
sg81
g2238
sg74
(lp2254
g67
(g68
g69
NtRp2255
(dp2256
g72
(dp2257
g80
I3
ssg81
g2251
sg74
(lp2258
g775
asbasbasbag67
(g83
g69
NtRp2259
(dp2260
g72
(dp2261
sg81
g2108
sg74
(lp2262
g67
(g88
g69
NtRp2263
(dp2264
g72
(dp2265
g92
g93
ssg81
g2259
sg74
(lp2266
S'HTTP_HOST'
p2267
asbag67
(g88
g69
NtRp2268
(dp2269
g72
(dp2270
g99
g100
ssg81
g2259
sg74
(lp2271
S':'
asbag67
(g88
g69
NtRp2272
(dp2273
g72
(dp2274
sg81
g2259
sg74
(lp2275
g67
(g68
g69
NtRp2276
(dp2277
g72
(dp2278
g80
I3
ssg81
g2272
sg74
(lp2279
g797
asbasbasbag67
(g83
g69
NtRp2280
(dp2281
g72
(dp2282
sg81
g2108
sg74
(lp2283
g67
(g88
g69
NtRp2284
(dp2285
g72
(dp2286
g92
g93
ssg81
g2280
sg74
(lp2287
S'HTTP_USER_AGENT'
p2288
asbag67
(g88
g69
NtRp2289
(dp2290
g72
(dp2291
g99
g100
ssg81
g2280
sg74
(lp2292
S':'
asbag67
(g88
g69
NtRp2293
(dp2294
g72
(dp2295
sg81
g2280
sg74
(lp2296
g67
(g68
g69
NtRp2297
(dp2298
g72
(dp2299
g80
I3
ssg81
g2293
sg74
(lp2300
g819
asbasbasbag67
(g83
g69
NtRp2301
(dp2302
g72
(dp2303
sg81
g2108
sg74
(lp2304
g67
(g88
g69
NtRp2305
(dp2306
g72
(dp2307
g92
g93
ssg81
g2301
sg74
(lp2308
S'PATH_INFO'
p2309
asbag67
(g88
g69
NtRp2310
(dp2311
g72
(dp2312
g99
g100
ssg81
g2301
sg74
(lp2313
S':'
asbag67
(g88
g69
NtRp2314
(dp2315
g72
(dp2316
sg81
g2301
sg74
(lp2317
g67
(g68
g69
NtRp2318
(dp2319
g72
(dp2320
g80
I3
ssg81
g2314
sg74
(lp2321
S'/'
asbasbasbag67
(g83
g69
NtRp2322
(dp2323
g72
(dp2324
sg81
g2108
sg74
(lp2325
g67
(g88
g69
NtRp2326
(dp2327
g72
(dp2328
g92
g93
ssg81
g2322
sg74
(lp2329
S'QUERY_STRING'
p2330
asbag67
(g88
g69
NtRp2331
(dp2332
g72
(dp2333
g99
g100
ssg81
g2322
sg74
(lp2334
S':'
asbag67
(g88
g69
NtRp2335
(dp2336
g72
(dp2337
sg81
g2322
sg74
(lp2338
g67
(g68
g69
NtRp2339
(dp2340
g72
(dp2341
g80
I3
ssg81
g2335
sg74
(lp2342
S''
asbasbasbag67
(g83
g69
NtRp2343
(dp2344
g72
(dp2345
sg81
g2108
sg74
(lp2346
g67
(g88
g69
NtRp2347
(dp2348
g72
(dp2349
g92
g93
ssg81
g2343
sg74
(lp2350
S'REMOTE_ADDR'
p2351
asbag67
(g88
g69
NtRp2352
(dp2353
g72
(dp2354
g99
g100
ssg81
g2343
sg74
(lp2355
S':'
asbag67
(g88
g69
NtRp2356
(dp2357
g72
(dp2358
sg81
g2343
sg74
(lp2359
g67
(g68
g69
NtRp2360
(dp2361
g72
(dp2362
g80
I3
ssg81
g2356
sg74
(lp2363
g200
asbasbasbag67
(g83
g69
NtRp2364
(dp2365
g72
(dp2366
sg81
g2108
sg74
(lp2367
g67
(g88
g69
NtRp2368
(dp2369
g72
(dp2370
g92
g93
ssg81
g2364
sg74
(lp2371
S'REMOTE_PORT'
p2372
asbag67
(g88
g69
NtRp2373
(dp2374
g72
(dp2375
g99
g100
ssg81
g2364
sg74
(lp2376
S':'
asbag67
(g88
g69
NtRp2377
(dp2378
g72
(dp2379
sg81
g2364
sg74
(lp2380
g67
(g68
g69
NtRp2381
(dp2382
g72
(dp2383
g80
I3
ssg81
g2377
sg74
(lp2384
g946
asbasbasbag67
(g83
g69
NtRp2385
(dp2386
g72
(dp2387
sg81
g2108
sg74
(lp2388
g67
(g88
g69
NtRp2389
(dp2390
g72
(dp2391
g92
g93
ssg81
g2385
sg74
(lp2392
S'REQUEST_METHOD'
p2393
asbag67
(g88
g69
NtRp2394
(dp2395
g72
(dp2396
g99
g100
ssg81
g2385
sg74
(lp2397
S':'
asbag67
(g88
g69
NtRp2398
(dp2399
g72
(dp2400
sg81
g2385
sg74
(lp2401
g67
(g68
g69
NtRp2402
(dp2403
g72
(dp2404
g80
I3
ssg81
g2398
sg74
(lp2405
g968
asbasbasbag67
(g83
g69
NtRp2406
(dp2407
g72
(dp2408
sg81
g2108
sg74
(lp2409
g67
(g88
g69
NtRp2410
(dp2411
g72
(dp2412
g92
g93
ssg81
g2406
sg74
(lp2413
S'REQUEST_URI'
p2414
asbag67
(g88
g69
NtRp2415
(dp2416
g72
(dp2417
g99
g100
ssg81
g2406
sg74
(lp2418
S':'
asbag67
(g88
g69
NtRp2419
(dp2420
g72
(dp2421
sg81
g2406
sg74
(lp2422
g67
(g68
g69
NtRp2423
(dp2424
g72
(dp2425
g80
I3
ssg81
g2419
sg74
(lp2426
S'/'
asbasbasbag67
(g83
g69
NtRp2427
(dp2428
g72
(dp2429
sg81
g2108
sg74
(lp2430
g67
(g88
g69
NtRp2431
(dp2432
g72
(dp2433
g92
g93
ssg81
g2427
sg74
(lp2434
S'SCRIPT_NAME'
p2435
asbag67
(g88
g69
NtRp2436
(dp2437
g72
(dp2438
g99
g100
ssg81
g2427
sg74
(lp2439
S':'
asbag67
(g88
g69
NtRp2440
(dp2441
g72
(dp2442
sg81
g2427
sg74
(lp2443
g67
(g68
g69
NtRp2444
(dp2445
g72
(dp2446
g80
I3
ssg81
g2440
sg74
(lp2447
S''
asbasbasbag67
(g83
g69
NtRp2448
(dp2449
g72
(dp2450
sg81
g2108
sg74
(lp2451
g67
(g88
g69
NtRp2452
(dp2453
g72
(dp2454
g92
g93
ssg81
g2448
sg74
(lp2455
S'SERVER_NAME'
p2456
asbag67
(g88
g69
NtRp2457
(dp2458
g72
(dp2459
g99
g100
ssg81
g2448
sg74
(lp2460
S':'
asbag67
(g88
g69
NtRp2461
(dp2462
g72
(dp2463
sg81
g2448
sg74
(lp2464
g67
(g68
g69
NtRp2465
(dp2466
g72
(dp2467
g80
I3
ssg81
g2461
sg74
(lp2468
g1032
asbasbasbag67
(g83
g69
NtRp2469
(dp2470
g72
(dp2471
sg81
g2108
sg74
(lp2472
g67
(g88
g69
NtRp2473
(dp2474
g72
(dp2475
g92
g93
ssg81
g2469
sg74
(lp2476
S'SERVER_PORT'
p2477
asbag67
(g88
g69
NtRp2478
(dp2479
g72
(dp2480
g99
g100
ssg81
g2469
sg74
(lp2481
S':'
asbag67
(g88
g69
NtRp2482
(dp2483
g72
(dp2484
sg81
g2469
sg74
(lp2485
g67
(g68
g69
NtRp2486
(dp2487
g72
(dp2488
g80
I3
ssg81
g2482
sg74
(lp2489
g1054
asbasbasbag67
(g83
g69
NtRp2490
(dp2491
g72
(dp2492
sg81
g2108
sg74
(lp2493
g67
(g88
g69
NtRp2494
(dp2495
g72
(dp2496
g92
g93
ssg81
g2490
sg74
(lp2497
S'SERVER_PROTOCOL'
p2498
asbag67
(g88
g69
NtRp2499
(dp2500
g72
(dp2501
g99
g100
ssg81
g2490
sg74
(lp2502
S':'
asbag67
(g88
g69
NtRp2503
(dp2504
g72
(dp2505
sg81
g2490
sg74
(lp2506
g67
(g68
g69
NtRp2507
(dp2508
g72
(dp2509
g80
I3
ssg81
g2503
sg74
(lp2510
g1076
asbasbasbag67
(g83
g69
NtRp2511
(dp2512
g72
(dp2513
sg81
g2108
sg74
(lp2514
g67
(g88
g69
NtRp2515
(dp2516
g72
(dp2517
g92
g93
ssg81
g2511
sg74
(lp2518
S'SERVER_SOFTWARE'
p2519
asbag67
(g88
g69
NtRp2520
(dp2521
g72
(dp2522
g99
g100
ssg81
g2511
sg74
(lp2523
S':'
asbag67
(g88
g69
NtRp2524
(dp2525
g72
(dp2526
sg81
g2511
sg74
(lp2527
g67
(g68
g69
NtRp2528
(dp2529
g72
(dp2530
g80
I3
ssg81
g2524
sg74
(lp2531
g1098
asbasbasbag67
(g83
g69
NtRp2532
(dp2533
g72
(dp2534
sg81
g2108
sg74
(lp2535
g67
(g88
g69
NtRp2536
(dp2537
g72
(dp2538
g92
g93
ssg81
g2532
sg74
(lp2539
S'WEB2PY_ORIGINAL_URI'
p2540
asbag67
(g88
g69
NtRp2541
(dp2542
g72
(dp2543
g99
g100
ssg81
g2532
sg74
(lp2544
S':'
asbag67
(g88
g69
NtRp2545
(dp2546
g72
(dp2547
sg81
g2532
sg74
(lp2548
g67
(g68
g69
NtRp2549
(dp2550
g72
(dp2551
g80
I3
ssg81
g2545
sg74
(lp2552
S'/'
asbasbasbag67
(g83
g69
NtRp2553
(dp2554
g72
(dp2555
sg81
g2108
sg74
(lp2556
g67
(g88
g69
NtRp2557
(dp2558
g72
(dp2559
g92
g93
ssg81
g2553
sg74
(lp2560
S'wsgi.errors'
p2561
asbag67
(g88
g69
NtRp2562
(dp2563
g72
(dp2564
g99
g100
ssg81
g2553
sg74
(lp2565
S':'
asbag67
(g88
g69
NtRp2566
(dp2567
g72
(dp2568
sg81
g2553
sg74
(lp2569
g67
(g68
g69
NtRp2570
(dp2571
g72
(dp2572
g80
I3
ssg81
g2566
sg74
(lp2573
S"<open file '<stderr>', mode 'w' at 0x7f85f8014270>"
p2574
asbasbasbag67
(g83
g69
NtRp2575
(dp2576
g72
(dp2577
sg81
g2108
sg74
(lp2578
g67
(g88
g69
NtRp2579
(dp2580
g72
(dp2581
g92
g93
ssg81
g2575
sg74
(lp2582
S'wsgi.file_wrapper'
p2583
asbag67
(g88
g69
NtRp2584
(dp2585
g72
(dp2586
g99
g100
ssg81
g2575
sg74
(lp2587
S':'
asbag67
(g88
g69
NtRp2588
(dp2589
g72
(dp2590
sg81
g2575
sg74
(lp2591
g67
(g68
g69
NtRp2592
(dp2593
g72
(dp2594
g80
I3
ssg81
g2588
sg74
(lp2595
S'<class wsgiref.util.FileWrapper at 0x1391ef0>'
p2596
asbasbasbag67
(g83
g69
NtRp2597
(dp2598
g72
(dp2599
sg81
g2108
sg74
(lp2600
g67
(g88
g69
NtRp2601
(dp2602
g72
(dp2603
g92
g93
ssg81
g2597
sg74
(lp2604
S'wsgi.input'
p2605
asbag67
(g88
g69
NtRp2606
(dp2607
g72
(dp2608
g99
g100
ssg81
g2597
sg74
(lp2609
S':'
asbag67
(g88
g69
NtRp2610
(dp2611
g72
(dp2612
sg81
g2597
sg74
(lp2613
g67
(g68
g69
NtRp2614
(dp2615
g72
(dp2616
g80
I3
ssg81
g2610
sg74
(lp2617
S'<cStringIO.StringO object at 0x7f85ecd27030>'
p2618
asbasbasbag67
(g83
g69
NtRp2619
(dp2620
g72
(dp2621
sg81
g2108
sg74
(lp2622
g67
(g88
g69
NtRp2623
(dp2624
g72
(dp2625
g92
g93
ssg81
g2619
sg74
(lp2626
S'wsgi.multiprocess'
p2627
asbag67
(g88
g69
NtRp2628
(dp2629
g72
(dp2630
g99
g100
ssg81
g2619
sg74
(lp2631
S':'
asbag67
(g88
g69
NtRp2632
(dp2633
g72
(dp2634
sg81
g2619
sg74
(lp2635
g67
(g68
g69
NtRp2636
(dp2637
g72
(dp2638
g80
I3
ssg81
g2632
sg74
(lp2639
g110
asbasbasbag67
(g83
g69
NtRp2640
(dp2641
g72
(dp2642
sg81
g2108
sg74
(lp2643
g67
(g88
g69
NtRp2644
(dp2645
g72
(dp2646
g92
g93
ssg81
g2640
sg74
(lp2647
S'wsgi.multithread'
p2648
asbag67
(g88
g69
NtRp2649
(dp2650
g72
(dp2651
g99
g100
ssg81
g2640
sg74
(lp2652
S':'
asbag67
(g88
g69
NtRp2653
(dp2654
g72
(dp2655
sg81
g2640
sg74
(lp2656
g67
(g68
g69
NtRp2657
(dp2658
g72
(dp2659
g80
I3
ssg81
g2653
sg74
(lp2660
g1359
asbasbasbag67
(g83
g69
NtRp2661
(dp2662
g72
(dp2663
sg81
g2108
sg74
(lp2664
g67
(g88
g69
NtRp2665
(dp2666
g72
(dp2667
g92
g93
ssg81
g2661
sg74
(lp2668
S'wsgi.run_once'
p2669
asbag67
(g88
g69
NtRp2670
(dp2671
g72
(dp2672
g99
g100
ssg81
g2661
sg74
(lp2673
S':'
asbag67
(g88
g69
NtRp2674
(dp2675
g72
(dp2676
sg81
g2661
sg74
(lp2677
g67
(g68
g69
NtRp2678
(dp2679
g72
(dp2680
g80
I3
ssg81
g2674
sg74
(lp2681
g110
asbasbasbag67
(g83
g69
NtRp2682
(dp2683
g72
(dp2684
sg81
g2108
sg74
(lp2685
g67
(g88
g69
NtRp2686
(dp2687
g72
(dp2688
g92
g93
ssg81
g2682
sg74
(lp2689
S'wsgi.url_scheme'
p2690
asbag67
(g88
g69
NtRp2691
(dp2692
g72
(dp2693
g99
g100
ssg81
g2682
sg74
(lp2694
S':'
asbag67
(g88
g69
NtRp2695
(dp2696
g72
(dp2697
sg81
g2682
sg74
(lp2698
g67
(g68
g69
NtRp2699
(dp2700
g72
(dp2701
g80
I3
ssg81
g2695
sg74
(lp2702
g1402
asbasbasbag67
(g83
g69
NtRp2703
(dp2704
g72
(dp2705
sg81
g2108
sg74
(lp2706
g67
(g88
g69
NtRp2707
(dp2708
g72
(dp2709
g92
g93
ssg81
g2703
sg74
(lp2710
S'wsgi.version'
p2711
asbag67
(g88
g69
NtRp2712
(dp2713
g72
(dp2714
g99
g100
ssg81
g2703
sg74
(lp2715
S':'
asbag67
(g88
g69
NtRp2716
(dp2717
g72
(dp2718
sg81
g2703
sg74
(lp2719
g67
(g68
g69
NtRp2720
(dp2721
g72
(dp2722
g80
I3
ssg81
g2716
sg74
(lp2723
S'1'
asbasbasbasbasbasbasbasbasbasbasbasbasbsS'frames'
p2724
(lp2725
(dp2726
S'file'
p2727
S'/home/goshawk/web2py/gluon/restricted.py'
p2728
sS'dump'
p2729
(dp2730
S'environment'
p2731
S"{'A': <class 'gluon.html.A'>, 'Auth': <class 'gluon.tools.Auth'>, 'B': <class 'gluon.html.B'>, 'BEAUTIFY': <class 'gluon.html.BEAUTIFY'>, 'BODY': <class 'gluon.html.BODY'>, 'BR': <class 'gluon.html.BR'>, 'BUTTON': <class 'gluon.html.BUTTON'>, 'CAT': <class 'gluon.html.CAT'>, 'CENTER': <class 'gluon.html.CENTER'>, 'CLEANUP': <class 'gluon.validators.CLEANUP'>, ...}"
p2732
sS'ccode'
p2733
S'<code object <module> at 0x7f85eca68530, file "/.../web2py/applications/milo/models/db.py", line 12>'
p2734
ssS'lnum'
p2735
I205
sS'lines'
p2736
(dp2737
I200
S'    try:'
p2738
sI201
S'        if type(code) == types.CodeType:'
p2739
sI202
S'            ccode = code'
p2740
sI203
S'        else:'
p2741
sI204
S'            ccode = compile2(code,layer)'
p2742
sI205
S'        exec ccode in environment'
p2743
sI206
S'    except HTTP:'
p2744
sI207
S'        raise'
p2745
sI208
S'    except RestrictedError:'
p2746
sI209
S'        # do not encapsulate (obfuscate) the original RestrictedError'
p2747
ssS'call'
p2748
S'(code="# -*- coding: utf-8 -*-\\n\\n#######################...t)),\\n        Field(\'times\', \'integer\')\\n        )\\n", environment={\'A\': <class \'gluon.html.A\'>, \'Auth\': <class \'gluon.tools.Auth\'>, \'B\': <class \'gluon.html.B\'>, \'BEAUTIFY\': <class \'gluon.html.BEAUTIFY\'>, \'BODY\': <class \'gluon.html.BODY\'>, \'BR\': <class \'gluon.html.BR\'>, \'BUTTON\': <class \'gluon.html.BUTTON\'>, \'CAT\': <class \'gluon.html.CAT\'>, \'CENTER\': <class \'gluon.html.CENTER\'>, \'CLEANUP\': <class \'gluon.validators.CLEANUP\'>, ...}, layer=\'/home/goshawk/web2py/applications/milo/models/db.py\')'
p2749
sS'func'
p2750
S'restricted'
p2751
sa(dp2752
g2727
S'/home/goshawk/web2py/applications/milo/models/db.py'
p2753
sg2729
(dp2754
S'db'
p2755
S"<DAL {'auth_event': <Table {'origin': <gluon.dal...': <gluon.dal.Field object at 0x7f85ecd07710>}>}>"
p2756
sS'IS_IN_DB'
p2757
S"<class 'gluon.validators.IS_IN_DB'>"
p2758
sS'Field'
p2759
S"<class 'gluon.dal.Field'>"
p2760
sS'db.roles._format'
p2761
S'None'
p2762
sS'db.roles'
p2763
S"<Table {'ALL': <gluon.dal.SQLALL object at 0x7f8...id': <gluon.dal.Field object at 0x7f85ecd0da10>}>"
p2764
sS'requires'
p2765
S'undefined'
p2766
ssg2735
I143
sg2736
(dp2767
I138
S'        )'
p2768
sI139
S''
sI140
S"db.define_table('cast',"
p2769
sI141
S"        Field('movie', db.movies, requires = IS_IN_DB(db, 'movies.id', db.movies._format)),"
p2770
sI142
S"        Field('person', db.persons, requires = IS_IN_DB(db, 'persons.id', db.persons._format)),"
p2771
sI143
S"        Field('role', db.roles, requires = IS_IN_DB(db, 'roles.id', db.roles._format))"
p2772
sI144
S'        )'
p2773
sI145
S''
sI146
S''
sI147
S'movies_with_ratings = (db.movies.id.belongs(db(db.ratings)._select(db.ratings.imovie, distinct=db.ratings.imovie)))'
p2774
ssg2748
S'()'
p2775
sg2750
S'<module>'
p2776
sa(dp2777
g2727
S'/home/goshawk/web2py/gluon/dal.py'
p2778
sg2729
(dp2779
S'polymodel'
p2780
S'None'
p2781
ssg2735
I6320
sg2736
(dp2782
I6315
S"        if migrate or self._adapter.dbengine=='google:datastore':"
p2783
sI6316
S'            try:'
p2784
sI6317
S'                sql_locker.acquire()'
p2785
sI6318
S'                self._adapter.create_table(t,migrate=migrate,'
p2786
sI6319
S'                                           fake_migrate=fake_migrate,'
p2787
sI6320
S'                                           polymodel=polymodel)'
p2788
sI6321
S'            finally:'
p2789
sI6322
S'                sql_locker.release()'
p2790
sI6323
S'        else:'
p2791
sI6324
S'            t._dbt = None'
p2792
ssg2748
S"(self=<DAL {'auth_event': <Table {'origin': <gluon.dal...': <gluon.dal.Field object at 0x7f85ecd07710>}>}>, tablename='cast', *fields=(<gluon.dal.Field object>, <gluon.dal.Field object>, <gluon.dal.Field object>), **args={})"
p2793
sg2750
S'define_table'
p2794
sa(dp2795
g2727
S'/home/goshawk/web2py/gluon/dal.py'
p2796
sg2729
(dp2797
S'query'
p2798
S"'CREATE TABLE cast(\\n    id SERIAL PRIMARY KEY,\\n  ...INTEGER REFERENCES roles(id) ON DELETE CASCADE\\n);'"
p2799
sS'self'
p2800
S'<gluon.dal.PostgreSQLAdapter object>'
p2801
sS'table'
p2802
S"<Table {'ALL': <gluon.dal.SQLALL object at 0x7f8...id': <gluon.dal.Field object at 0x7f85ecd0dd50>}>"
p2803
sS'self.create_sequence_and_triggers'
p2804
S'<bound method PostgreSQLAdapter.create_sequence_...triggers of <gluon.dal.PostgreSQLAdapter object>>'
p2805
ssg2735
I719
sg2736
(dp2806
I714
S'            if table._dbt:'
p2807
sI715
S"                logfile.write('timestamp: %s\\n'"
p2808
sI716
S'                               % datetime.datetime.today().isoformat())'
p2809
sI717
S"                logfile.write(query + '\\n')"
p2810
sI718
S'            if not fake_migrate:'
p2811
sI719
S'                self.create_sequence_and_triggers(query,table)'
p2812
sI720
S'                table._db.commit()'
p2813
sI721
S'            if table._dbt:'
p2814
sI722
S"                tfile = self.file_open(table._dbt, 'w')"
p2815
sI723
S'                cPickle.dump(sql_fields, tfile)'
p2816
ssg2748
S"(self=<gluon.dal.PostgreSQLAdapter object>, table=<Table {'ALL': <gluon.dal.SQLALL object at 0x7f8...id': <gluon.dal.Field object at 0x7f85ecd0dd50>}>, migrate=True, fake_migrate=False, polymodel=None)"
p2817
sg2750
S'create_table'
p2818
sa(dp2819
g2727
S'/home/goshawk/web2py/gluon/dal.py'
p2820
sg2729
(dp2821
S'query'
p2822
S"'CREATE TABLE cast(\\n    id SERIAL PRIMARY KEY,\\n  ...INTEGER REFERENCES roles(id) ON DELETE CASCADE\\n);'"
p2823
sS'self'
p2824
S'<gluon.dal.PostgreSQLAdapter object>'
p2825
sS'self.execute'
p2826
S'<bound method PostgreSQLAdapter.execute of <gluon.dal.PostgreSQLAdapter object>>'
p2827
ssg2735
I1954
sg2736
(dp2828
I1952
S'        # self.execute("ALTER TABLE %s ALTER COLUMN %s SET DEFAULT NEXTVAL(\'%s\');" \\'
p2829
sI1953
S'        #              % (table._tablename, table._fieldname, table._sequence_name))'
p2830
sI1954
S'        self.execute(query)'
p2831
sI1955
S''
sI1956
S"    def __init__(self,db,uri,pool_size=0,folder=None,db_codec ='UTF-8',"
p2832
sI1957
S'                 credential_decoder=lambda x:x, driver_args={},'
p2833
sI1958
S'                 adapter_args={}):'
p2834
sI1949
S'    def create_sequence_and_triggers(self, query, table, **args):'
p2835
sI1950
S'        # following lines should only be executed if table._sequence_name does not exist'
p2836
sI1951
S"        # self.execute('CREATE SEQUENCE %s;' % table._sequence_name)"
p2837
ssg2748
S"(self=<gluon.dal.PostgreSQLAdapter object>, query='CREATE TABLE cast(\\n    id SERIAL PRIMARY KEY,\\n  ...INTEGER REFERENCES roles(id) ON DELETE CASCADE\\n);', table=<Table {'ALL': <gluon.dal.SQLALL object at 0x7f8...id': <gluon.dal.Field object at 0x7f85ecd0dd50>}>, **args={})"
p2838
sg2750
S'create_sequence_and_triggers'
p2839
sa(dp2840
g2727
S'/home/goshawk/web2py/gluon/dal.py'
p2841
sg2729
(dp2842
S'a'
S"('CREATE TABLE cast(\\n    id SERIAL PRIMARY KEY,\\n  ...INTEGER REFERENCES roles(id) ON DELETE CASCADE\\n);',)"
p2843
sS'self'
p2844
S'<gluon.dal.PostgreSQLAdapter object>'
p2845
sS'b'
S'{}'
p2846
sS'self.log_execute'
p2847
S'<bound method PostgreSQLAdapter.log_execute of <gluon.dal.PostgreSQLAdapter object>>'
p2848
ssg2735
I1392
sg2736
(dp2849
I1387
S'        self.db._timings.append((a[0],time.time()-t0))'
p2850
sI1388
S'        del self.db._timings[:-TIMINGSSIZE]'
p2851
sI1389
S'        return ret'
p2852
sI1390
S''
sI1391
S'    def execute(self, *a, **b):'
p2853
sI1392
S'        return self.log_execute(*a, **b)'
p2854
sI1393
S''
sI1394
S'    def represent(self, obj, fieldtype):'
p2855
sI1395
S'        if isinstance(obj, CALLABLETYPES):'
p2856
sI1396
S'            obj = obj()'
p2857
ssg2748
S"(self=<gluon.dal.PostgreSQLAdapter object>, *a=('CREATE TABLE cast(\\n    id SERIAL PRIMARY KEY,\\n  ...INTEGER REFERENCES roles(id) ON DELETE CASCADE\\n);',), **b={})"
p2858
sg2750
S'execute'
p2859
sa(dp2860
g2727
S'/home/goshawk/web2py/gluon/dal.py'
p2861
sg2729
(dp2862
S'a'
S"('CREATE TABLE cast(\\n    id SERIAL PRIMARY KEY,\\n  ...INTEGER REFERENCES roles(id) ON DELETE CASCADE\\n);',)"
p2863
sS'b'
g2846
sS'self'
p2864
S'<gluon.dal.PostgreSQLAdapter object>'
p2865
sS'ret'
p2866
g2766
sS'self.cursor'
p2867
S'<cursor object at 0x7f85eca49528; closed: 0>'
p2868
sS'self.cursor.execute'
p2869
S'<built-in method execute of psycopg2._psycopg.cursor object>'
p2870
ssg2735
I1386
sg2736
(dp2871
I1381
S'        self.execute(query)'
p2872
sI1382
S''
sI1383
S'    def log_execute(self, *a, **b):'
p2873
sI1384
S'        self.db._lastsql = a[0]'
p2874
sI1385
S'        t0 = time.time()'
p2875
sI1386
S'        ret = self.cursor.execute(*a, **b)'
p2876
sI1387
S'        self.db._timings.append((a[0],time.time()-t0))'
p2877
sI1388
S'        del self.db._timings[:-TIMINGSSIZE]'
p2878
sI1389
S'        return ret'
p2879
sI1390
S''
ssg2748
S"(self=<gluon.dal.PostgreSQLAdapter object>, *a=('CREATE TABLE cast(\\n    id SERIAL PRIMARY KEY,\\n  ...INTEGER REFERENCES roles(id) ON DELETE CASCADE\\n);',), **b={})"
p2880
sg2750
S'log_execute'
p2881
sasS'pyver'
p2882
S'Python 2.7.3: /usr/bin/python'
p2883
sS'session'
p2884
g67
(g68
g69
NtRp2885
(dp2886
g72
(dp2887
sg74
(lp2888
g67
(g76
g69
NtRp2889
(dp2890
g72
(dp2891
g80
I5
ssg81
Nsg74
(lp2892
sbasbsS'etype'
p2893
S"<class 'psycopg2.ProgrammingError'>"
p2894
sS'date'
p2895
S'Mon Jul 23 11:12:52 2012'
p2896
sS'response'
p2897
g67
(g68
g69
NtRp2898
(dp2899
g72
(dp2900
sg74
(lp2901
g67
(g76
g69
NtRp2902
(dp2903
g72
(dp2904
g80
I5
ssg81
Nsg74
(lp2905
g67
(g83
g69
NtRp2906
(dp2907
g72
(dp2908
sg81
g2902
sg74
(lp2909
g67
(g88
g69
NtRp2910
(dp2911
g72
(dp2912
g92
g93
ssg81
g2906
sg74
(lp2913
g165
asbag67
(g88
g69
NtRp2914
(dp2915
g72
(dp2916
g99
g100
ssg81
g2906
sg74
(lp2917
S':'
asbag67
(g88
g69
NtRp2918
(dp2919
g72
(dp2920
sg81
g2906
sg74
(lp2921
g67
(g68
g69
NtRp2922
(dp2923
g72
(dp2924
g80
I5
ssg81
g2918
sg74
(lp2925
S'<cStringIO.StringO object at 0x7f85ecd2cdc0>'
p2926
asbasbasbag67
(g83
g69
NtRp2927
(dp2928
g72
(dp2929
sg81
g2902
sg74
(lp2930
g67
(g88
g69
NtRp2931
(dp2932
g72
(dp2933
g92
g93
ssg81
g2927
sg74
(lp2934
g231
asbag67
(g88
g69
NtRp2935
(dp2936
g72
(dp2937
g99
g100
ssg81
g2927
sg74
(lp2938
S':'
asbag67
(g88
g69
NtRp2939
(dp2940
g72
(dp2941
sg81
g2927
sg74
(lp2942
g67
(g68
g69
NtRp2943
(dp2944
g72
(dp2945
g80
I5
ssg81
g2939
sg74
(lp2946
g67
(g76
g69
NtRp2947
(dp2948
g72
(dp2949
g80
I4
ssg81
Nsg74
(lp2950
g67
(g83
g69
NtRp2951
(dp2952
g72
(dp2953
sg81
g2947
sg74
(lp2954
g67
(g88
g69
NtRp2955
(dp2956
g72
(dp2957
g92
g93
ssg81
g2951
sg74
(lp2958
S'session_id_milo'
p2959
asbag67
(g88
g69
NtRp2960
(dp2961
g72
(dp2962
g99
g100
ssg81
g2951
sg74
(lp2963
S':'
asbag67
(g88
g69
NtRp2964
(dp2965
g72
(dp2966
sg81
g2951
sg74
(lp2967
g67
(g68
g69
NtRp2968
(dp2969
g72
(dp2970
g80
I4
ssg81
g2964
sg74
(lp2971
g67
(g76
g69
NtRp2972
(dp2973
g72
(dp2974
g80
I3
ssg81
Nsg74
(lp2975
g67
(g83
g69
NtRp2976
(dp2977
g72
(dp2978
sg81
g2972
sg74
(lp2979
g67
(g88
g69
NtRp2980
(dp2981
g72
(dp2982
g92
g93
ssg81
g2976
sg74
(lp2983
g281
asbag67
(g88
g69
NtRp2984
(dp2985
g72
(dp2986
g99
g100
ssg81
g2976
sg74
(lp2987
S':'
asbag67
(g88
g69
NtRp2988
(dp2989
g72
(dp2990
sg81
g2976
sg74
(lp2991
g67
(g68
g69
NtRp2992
(dp2993
g72
(dp2994
g80
I3
ssg81
g2988
sg74
(lp2995
S''
asbasbasbag67
(g83
g69
NtRp2996
(dp2997
g72
(dp2998
sg81
g2972
sg74
(lp2999
g67
(g88
g69
NtRp3000
(dp3001
g72
(dp3002
g92
g93
ssg81
g2996
sg74
(lp3003
g302
asbag67
(g88
g69
NtRp3004
(dp3005
g72
(dp3006
g99
g100
ssg81
g2996
sg74
(lp3007
S':'
asbag67
(g88
g69
NtRp3008
(dp3009
g72
(dp3010
sg81
g2996
sg74
(lp3011
g67
(g68
g69
NtRp3012
(dp3013
g72
(dp3014
g80
I3
ssg81
g3008
sg74
(lp3015
S''
asbasbasbag67
(g83
g69
NtRp3016
(dp3017
g72
(dp3018
sg81
g2972
sg74
(lp3019
g67
(g88
g69
NtRp3020
(dp3021
g72
(dp3022
g92
g93
ssg81
g3016
sg74
(lp3023
g323
asbag67
(g88
g69
NtRp3024
(dp3025
g72
(dp3026
g99
g100
ssg81
g3016
sg74
(lp3027
S':'
asbag67
(g88
g69
NtRp3028
(dp3029
g72
(dp3030
sg81
g3016
sg74
(lp3031
g67
(g68
g69
NtRp3032
(dp3033
g72
(dp3034
g80
I3
ssg81
g3028
sg74
(lp3035
S''
asbasbasbag67
(g83
g69
NtRp3036
(dp3037
g72
(dp3038
sg81
g2972
sg74
(lp3039
g67
(g88
g69
NtRp3040
(dp3041
g72
(dp3042
g92
g93
ssg81
g3036
sg74
(lp3043
g344
asbag67
(g88
g69
NtRp3044
(dp3045
g72
(dp3046
g99
g100
ssg81
g3036
sg74
(lp3047
S':'
asbag67
(g88
g69
NtRp3048
(dp3049
g72
(dp3050
sg81
g3036
sg74
(lp3051
g67
(g68
g69
NtRp3052
(dp3053
g72
(dp3054
g80
I3
ssg81
g3048
sg74
(lp3055
S''
asbasbasbag67
(g83
g69
NtRp3056
(dp3057
g72
(dp3058
sg81
g2972
sg74
(lp3059
g67
(g88
g69
NtRp3060
(dp3061
g72
(dp3062
g92
g93
ssg81
g3056
sg74
(lp3063
g365
asbag67
(g88
g69
NtRp3064
(dp3065
g72
(dp3066
g99
g100
ssg81
g3056
sg74
(lp3067
S':'
asbag67
(g88
g69
NtRp3068
(dp3069
g72
(dp3070
sg81
g3056
sg74
(lp3071
g67
(g68
g69
NtRp3072
(dp3073
g72
(dp3074
g80
I3
ssg81
g3068
sg74
(lp3075
S''
asbasbasbag67
(g83
g69
NtRp3076
(dp3077
g72
(dp3078
sg81
g2972
sg74
(lp3079
g67
(g88
g69
NtRp3080
(dp3081
g72
(dp3082
g92
g93
ssg81
g3076
sg74
(lp3083
g386
asbag67
(g88
g69
NtRp3084
(dp3085
g72
(dp3086
g99
g100
ssg81
g3076
sg74
(lp3087
S':'
asbag67
(g88
g69
NtRp3088
(dp3089
g72
(dp3090
sg81
g3076
sg74
(lp3091
g67
(g68
g69
NtRp3092
(dp3093
g72
(dp3094
g80
I3
ssg81
g3088
sg74
(lp3095
S'/'
asbasbasbag67
(g83
g69
NtRp3096
(dp3097
g72
(dp3098
sg81
g2972
sg74
(lp3099
g67
(g88
g69
NtRp3100
(dp3101
g72
(dp3102
g92
g93
ssg81
g3096
sg74
(lp3103
g407
asbag67
(g88
g69
NtRp3104
(dp3105
g72
(dp3106
g99
g100
ssg81
g3096
sg74
(lp3107
S':'
asbag67
(g88
g69
NtRp3108
(dp3109
g72
(dp3110
sg81
g3096
sg74
(lp3111
g67
(g68
g69
NtRp3112
(dp3113
g72
(dp3114
g80
I3
ssg81
g3108
sg74
(lp3115
S''
asbasbasbag67
(g83
g69
NtRp3116
(dp3117
g72
(dp3118
sg81
g2972
sg74
(lp3119
g67
(g88
g69
NtRp3120
(dp3121
g72
(dp3122
g92
g93
ssg81
g3116
sg74
(lp3123
g428
asbag67
(g88
g69
NtRp3124
(dp3125
g72
(dp3126
g99
g100
ssg81
g3116
sg74
(lp3127
S':'
asbag67
(g88
g69
NtRp3128
(dp3129
g72
(dp3130
sg81
g3116
sg74
(lp3131
g67
(g68
g69
NtRp3132
(dp3133
g72
(dp3134
g80
I3
ssg81
g3128
sg74
(lp3135
S''
asbasbasbasbasbasbasbasbasbasbasbag67
(g83
g69
NtRp3136
(dp3137
g72
(dp3138
sg81
g2902
sg74
(lp3139
g67
(g88
g69
NtRp3140
(dp3141
g72
(dp3142
g92
g93
ssg81
g3136
sg74
(lp3143
S'delimiters'
p3144
asbag67
(g88
g69
NtRp3145
(dp3146
g72
(dp3147
g99
g100
ssg81
g3136
sg74
(lp3148
S':'
asbag67
(g88
g69
NtRp3149
(dp3150
g72
(dp3151
sg81
g3136
sg74
(lp3152
g67
(g68
g69
NtRp3153
(dp3154
g72
(dp3155
g80
I5
ssg81
g3149
sg74
(lp3156
g67
(g76
g69
NtRp3157
(dp3158
g72
(dp3159
g80
I4
ssg81
Nsg74
(lp3160
g67
(g83
g69
NtRp3161
(dp3162
g72
(dp3163
sg81
g3157
sg74
(lp3164
g67
(g88
g69
NtRp3165
(dp3166
g72
(dp3167
sg81
g3161
sg74
(lp3168
g67
(g68
g69
NtRp3169
(dp3170
g72
(dp3171
g80
I4
ssg81
g3165
sg74
(lp3172
S'{{'
p3173
asbasbasbag67
(g83
g69
NtRp3174
(dp3175
g72
(dp3176
sg81
g3157
sg74
(lp3177
g67
(g88
g69
NtRp3178
(dp3179
g72
(dp3180
sg81
g3174
sg74
(lp3181
g67
(g68
g69
NtRp3182
(dp3183
g72
(dp3184
g80
I4
ssg81
g3178
sg74
(lp3185
S'}}'
p3186
asbasbasbasbasbasbasbag67
(g83
g69
NtRp3187
(dp3188
g72
(dp3189
sg81
g2902
sg74
(lp3190
g67
(g88
g69
NtRp3191
(dp3192
g72
(dp3193
g92
g93
ssg81
g3187
sg74
(lp3194
S'files'
p3195
asbag67
(g88
g69
NtRp3196
(dp3197
g72
(dp3198
g99
g100
ssg81
g3187
sg74
(lp3199
S':'
asbag67
(g88
g69
NtRp3200
(dp3201
g72
(dp3202
sg81
g3187
sg74
(lp3203
g67
(g68
g69
NtRp3204
(dp3205
g72
(dp3206
g80
I5
ssg81
g3200
sg74
(lp3207
g67
(g76
g69
NtRp3208
(dp3209
g72
(dp3210
g80
I4
ssg81
Nsg74
(lp3211
sbasbasbasbag67
(g83
g69
NtRp3212
(dp3213
g72
(dp3214
sg81
g2902
sg74
(lp3215
g67
(g88
g69
NtRp3216
(dp3217
g72
(dp3218
g92
g93
ssg81
g3212
sg74
(lp3219
S'flash'
p3220
asbag67
(g88
g69
NtRp3221
(dp3222
g72
(dp3223
g99
g100
ssg81
g3212
sg74
(lp3224
S':'
asbag67
(g88
g69
NtRp3225
(dp3226
g72
(dp3227
sg81
g3212
sg74
(lp3228
g67
(g68
g69
NtRp3229
(dp3230
g72
(dp3231
g80
I5
ssg81
g3225
sg74
(lp3232
S''
asbasbasbag67
(g83
g69
NtRp3233
(dp3234
g72
(dp3235
sg81
g2902
sg74
(lp3236
g67
(g88
g69
NtRp3237
(dp3238
g72
(dp3239
g92
g93
ssg81
g3233
sg74
(lp3240
S'generic_patterns'
p3241
asbag67
(g88
g69
NtRp3242
(dp3243
g72
(dp3244
g99
g100
ssg81
g3233
sg74
(lp3245
S':'
asbag67
(g88
g69
NtRp3246
(dp3247
g72
(dp3248
sg81
g3233
sg74
(lp3249
g67
(g68
g69
NtRp3250
(dp3251
g72
(dp3252
g80
I5
ssg81
g3246
sg74
(lp3253
g67
(g76
g69
NtRp3254
(dp3255
g72
(dp3256
g80
I4
ssg81
Nsg74
(lp3257
g67
(g83
g69
NtRp3258
(dp3259
g72
(dp3260
sg81
g3254
sg74
(lp3261
g67
(g88
g69
NtRp3262
(dp3263
g72
(dp3264
sg81
g3258
sg74
(lp3265
g67
(g68
g69
NtRp3266
(dp3267
g72
(dp3268
g80
I4
ssg81
g3262
sg74
(lp3269
S'*'
asbasbasbasbasbasbasbag67
(g83
g69
NtRp3270
(dp3271
g72
(dp3272
sg81
g2902
sg74
(lp3273
g67
(g88
g69
NtRp3274
(dp3275
g72
(dp3276
g92
g93
ssg81
g3270
sg74
(lp3277
S'headers'
p3278
asbag67
(g88
g69
NtRp3279
(dp3280
g72
(dp3281
g99
g100
ssg81
g3270
sg74
(lp3282
S':'
asbag67
(g88
g69
NtRp3283
(dp3284
g72
(dp3285
sg81
g3270
sg74
(lp3286
g67
(g68
g69
NtRp3287
(dp3288
g72
(dp3289
g80
I5
ssg81
g3283
sg74
(lp3290
g67
(g76
g69
NtRp3291
(dp3292
g72
(dp3293
g80
I4
ssg81
Nsg74
(lp3294
g67
(g83
g69
NtRp3295
(dp3296
g72
(dp3297
sg81
g3291
sg74
(lp3298
g67
(g88
g69
NtRp3299
(dp3300
g72
(dp3301
g92
g93
ssg81
g3295
sg74
(lp3302
S'Cache-Control'
p3303
asbag67
(g88
g69
NtRp3304
(dp3305
g72
(dp3306
g99
g100
ssg81
g3295
sg74
(lp3307
S':'
asbag67
(g88
g69
NtRp3308
(dp3309
g72
(dp3310
sg81
g3295
sg74
(lp3311
g67
(g68
g69
NtRp3312
(dp3313
g72
(dp3314
g80
I4
ssg81
g3308
sg74
(lp3315
S'no-store, no-cache, must-revalidate, post-check=0, pre-check=0'
p3316
asbasbasbag67
(g83
g69
NtRp3317
(dp3318
g72
(dp3319
sg81
g3291
sg74
(lp3320
g67
(g88
g69
NtRp3321
(dp3322
g72
(dp3323
g92
g93
ssg81
g3317
sg74
(lp3324
S'Content-Type'
p3325
asbag67
(g88
g69
NtRp3326
(dp3327
g72
(dp3328
g99
g100
ssg81
g3317
sg74
(lp3329
S':'
asbag67
(g88
g69
NtRp3330
(dp3331
g72
(dp3332
sg81
g3317
sg74
(lp3333
g67
(g68
g69
NtRp3334
(dp3335
g72
(dp3336
g80
I4
ssg81
g3330
sg74
(lp3337
S'text/html; charset=utf-8'
p3338
asbasbasbag67
(g83
g69
NtRp3339
(dp3340
g72
(dp3341
sg81
g3291
sg74
(lp3342
g67
(g88
g69
NtRp3343
(dp3344
g72
(dp3345
g92
g93
ssg81
g3339
sg74
(lp3346
S'Expires'
p3347
asbag67
(g88
g69
NtRp3348
(dp3349
g72
(dp3350
g99
g100
ssg81
g3339
sg74
(lp3351
S':'
asbag67
(g88
g69
NtRp3352
(dp3353
g72
(dp3354
sg81
g3339
sg74
(lp3355
g67
(g68
g69
NtRp3356
(dp3357
g72
(dp3358
g80
I4
ssg81
g3352
sg74
(lp3359
S'Mon, 23 Jul 2012 09:12:51 GMT'
p3360
asbasbasbag67
(g83
g69
NtRp3361
(dp3362
g72
(dp3363
sg81
g3291
sg74
(lp3364
g67
(g88
g69
NtRp3365
(dp3366
g72
(dp3367
g92
g93
ssg81
g3361
sg74
(lp3368
S'Pragma'
p3369
asbag67
(g88
g69
NtRp3370
(dp3371
g72
(dp3372
g99
g100
ssg81
g3361
sg74
(lp3373
S':'
asbag67
(g88
g69
NtRp3374
(dp3375
g72
(dp3376
sg81
g3361
sg74
(lp3377
g67
(g68
g69
NtRp3378
(dp3379
g72
(dp3380
g80
I4
ssg81
g3374
sg74
(lp3381
S'no-cache'
p3382
asbasbasbag67
(g83
g69
NtRp3383
(dp3384
g72
(dp3385
sg81
g3291
sg74
(lp3386
g67
(g88
g69
NtRp3387
(dp3388
g72
(dp3389
g92
g93
ssg81
g3383
sg74
(lp3390
S'X-Powered-By'
p3391
asbag67
(g88
g69
NtRp3392
(dp3393
g72
(dp3394
g99
g100
ssg81
g3383
sg74
(lp3395
S':'
asbag67
(g88
g69
NtRp3396
(dp3397
g72
(dp3398
sg81
g3383
sg74
(lp3399
g67
(g68
g69
NtRp3400
(dp3401
g72
(dp3402
g80
I4
ssg81
g3396
sg74
(lp3403
S'web2py'
p3404
asbasbasbasbasbasbasbag67
(g83
g69
NtRp3405
(dp3406
g72
(dp3407
sg81
g2902
sg74
(lp3408
g67
(g88
g69
NtRp3409
(dp3410
g72
(dp3411
g92
g93
ssg81
g3405
sg74
(lp3412
S'menu'
p3413
asbag67
(g88
g69
NtRp3414
(dp3415
g72
(dp3416
g99
g100
ssg81
g3405
sg74
(lp3417
S':'
asbag67
(g88
g69
NtRp3418
(dp3419
g72
(dp3420
sg81
g3405
sg74
(lp3421
g67
(g68
g69
NtRp3422
(dp3423
g72
(dp3424
g80
I5
ssg81
g3418
sg74
(lp3425
g67
(g76
g69
NtRp3426
(dp3427
g72
(dp3428
g80
I4
ssg81
Nsg74
(lp3429
sbasbasbasbag67
(g83
g69
NtRp3430
(dp3431
g72
(dp3432
sg81
g2902
sg74
(lp3433
g67
(g88
g69
NtRp3434
(dp3435
g72
(dp3436
g92
g93
ssg81
g3430
sg74
(lp3437
S'meta'
p3438
asbag67
(g88
g69
NtRp3439
(dp3440
g72
(dp3441
g99
g100
ssg81
g3430
sg74
(lp3442
S':'
asbag67
(g88
g69
NtRp3443
(dp3444
g72
(dp3445
sg81
g3430
sg74
(lp3446
g67
(g68
g69
NtRp3447
(dp3448
g72
(dp3449
g80
I5
ssg81
g3443
sg74
(lp3450
g67
(g76
g69
NtRp3451
(dp3452
g72
(dp3453
g80
I4
ssg81
Nsg74
(lp3454
sbasbasbasbag67
(g83
g69
NtRp3455
(dp3456
g72
(dp3457
sg81
g2902
sg74
(lp3458
g67
(g88
g69
NtRp3459
(dp3460
g72
(dp3461
g92
g93
ssg81
g3455
sg74
(lp3462
S'postprocessing'
p3463
asbag67
(g88
g69
NtRp3464
(dp3465
g72
(dp3466
g99
g100
ssg81
g3455
sg74
(lp3467
S':'
asbag67
(g88
g69
NtRp3468
(dp3469
g72
(dp3470
sg81
g3455
sg74
(lp3471
g67
(g68
g69
NtRp3472
(dp3473
g72
(dp3474
g80
I5
ssg81
g3468
sg74
(lp3475
g67
(g76
g69
NtRp3476
(dp3477
g72
(dp3478
g80
I4
ssg81
Nsg74
(lp3479
sbasbasbasbag67
(g83
g69
NtRp3480
(dp3481
g72
(dp3482
sg81
g2902
sg74
(lp3483
g67
(g88
g69
NtRp3484
(dp3485
g72
(dp3486
g92
g93
ssg81
g3480
sg74
(lp3487
S'session_filename'
p3488
asbag67
(g88
g69
NtRp3489
(dp3490
g72
(dp3491
g99
g100
ssg81
g3480
sg74
(lp3492
S':'
asbag67
(g88
g69
NtRp3493
(dp3494
g72
(dp3495
sg81
g3480
sg74
(lp3496
g67
(g68
g69
NtRp3497
(dp3498
g72
(dp3499
g80
I5
ssg81
g3493
sg74
(lp3500
S'/home/goshawk/web2py/applications/milo/sessions/127.0.0.1-a42da3eb-0ac3-4040-b884-dafb3032ee48'
p3501
asbasbasbag67
(g83
g69
NtRp3502
(dp3503
g72
(dp3504
sg81
g2902
sg74
(lp3505
g67
(g88
g69
NtRp3506
(dp3507
g72
(dp3508
g92
g93
ssg81
g3502
sg74
(lp3509
S'session_id'
p3510
asbag67
(g88
g69
NtRp3511
(dp3512
g72
(dp3513
g99
g100
ssg81
g3502
sg74
(lp3514
S':'
asbag67
(g88
g69
NtRp3515
(dp3516
g72
(dp3517
sg81
g3502
sg74
(lp3518
g67
(g68
g69
NtRp3519
(dp3520
g72
(dp3521
g80
I5
ssg81
g3515
sg74
(lp3522
S'127.0.0.1-a42da3eb-0ac3-4040-b884-dafb3032ee48'
p3523
asbasbasbag67
(g83
g69
NtRp3524
(dp3525
g72
(dp3526
sg81
g2902
sg74
(lp3527
g67
(g88
g69
NtRp3528
(dp3529
g72
(dp3530
g92
g93
ssg81
g3524
sg74
(lp3531
S'session_id_name'
p3532
asbag67
(g88
g69
NtRp3533
(dp3534
g72
(dp3535
g99
g100
ssg81
g3524
sg74
(lp3536
S':'
asbag67
(g88
g69
NtRp3537
(dp3538
g72
(dp3539
sg81
g3524
sg74
(lp3540
g67
(g68
g69
NtRp3541
(dp3542
g72
(dp3543
g80
I5
ssg81
g3537
sg74
(lp3544
g2959
asbasbasbag67
(g83
g69
NtRp3545
(dp3546
g72
(dp3547
sg81
g2902
sg74
(lp3548
g67
(g88
g69
NtRp3549
(dp3550
g72
(dp3551
g92
g93
ssg81
g3545
sg74
(lp3552
S'session_new'
p3553
asbag67
(g88
g69
NtRp3554
(dp3555
g72
(dp3556
g99
g100
ssg81
g3545
sg74
(lp3557
S':'
asbag67
(g88
g69
NtRp3558
(dp3559
g72
(dp3560
sg81
g3545
sg74
(lp3561
g67
(g68
g69
NtRp3562
(dp3563
g72
(dp3564
g80
I5
ssg81
g3558
sg74
(lp3565
g1359
asbasbasbag67
(g83
g69
NtRp3566
(dp3567
g72
(dp3568
sg81
g2902
sg74
(lp3569
g67
(g88
g69
NtRp3570
(dp3571
g72
(dp3572
g92
g93
ssg81
g3566
sg74
(lp3573
S'status'
p3574
asbag67
(g88
g69
NtRp3575
(dp3576
g72
(dp3577
g99
g100
ssg81
g3566
sg74
(lp3578
S':'
asbag67
(g88
g69
NtRp3579
(dp3580
g72
(dp3581
sg81
g3566
sg74
(lp3582
g67
(g68
g69
NtRp3583
(dp3584
g72
(dp3585
g80
I5
ssg81
g3579
sg74
(lp3586
S'200'
p3587
asbasbasbag67
(g83
g69
NtRp3588
(dp3589
g72
(dp3590
sg81
g2902
sg74
(lp3591
g67
(g88
g69
NtRp3592
(dp3593
g72
(dp3594
g92
g93
ssg81
g3588
sg74
(lp3595
g2023
asbag67
(g88
g69
NtRp3596
(dp3597
g72
(dp3598
g99
g100
ssg81
g3588
sg74
(lp3599
S':'
asbag67
(g88
g69
NtRp3600
(dp3601
g72
(dp3602
sg81
g3588
sg74
(lp3603
g67
(g68
g69
NtRp3604
(dp3605
g72
(dp3606
g80
I5
ssg81
g3600
sg74
(lp3607
g2036
asbasbasbag67
(g83
g69
NtRp3608
(dp3609
g72
(dp3610
sg81
g2902
sg74
(lp3611
g67
(g88
g69
NtRp3612
(dp3613
g72
(dp3614
g92
g93
ssg81
g3608
sg74
(lp3615
S'view'
p3616
asbag67
(g88
g69
NtRp3617
(dp3618
g72
(dp3619
g99
g100
ssg81
g3608
sg74
(lp3620
S':'
asbag67
(g88
g69
NtRp3621
(dp3622
g72
(dp3623
sg81
g3608
sg74
(lp3624
g67
(g68
g69
NtRp3625
(dp3626
g72
(dp3627
g80
I5
ssg81
g3621
sg74
(lp3628
S'default/index.html'
p3629
asbasbasbasbasbsS'locals'
p3630
(dp3631
S'a'
S"('CREATE TABLE cast(\\n    id SERIAL PRIMARY KEY,\\n  ...INTEGER REFERENCES roles(id) ON DELETE CASCADE\\n);',)"
p3632
sS'self'
p3633
S'<gluon.dal.PostgreSQLAdapter object>'
p3634
sS'b'
g2846
sS't0'
p3635
S'1343034772.17867'
p3636
sssS'traceback'
p3637
S'Traceback (most recent call last):\n  File "/home/goshawk/web2py/gluon/restricted.py", line 205, in restricted\n    exec ccode in environment\n  File "/home/goshawk/web2py/applications/milo/models/db.py", line 143, in <module>\n    Field(\'role\', db.roles, requires = IS_IN_DB(db, \'roles.id\', db.roles._format))\n  File "/home/goshawk/web2py/gluon/dal.py", line 6320, in define_table\n    polymodel=polymodel)\n  File "/home/goshawk/web2py/gluon/dal.py", line 719, in create_table\n    self.create_sequence_and_triggers(query,table)\n  File "/home/goshawk/web2py/gluon/dal.py", line 1954, in create_sequence_and_triggers\n    self.execute(query)\n  File "/home/goshawk/web2py/gluon/dal.py", line 1392, in execute\n    return self.log_execute(*a, **b)\n  File "/home/goshawk/web2py/gluon/dal.py", line 1386, in log_execute\n    ret = self.cursor.execute(*a, **b)\nProgrammingError: syntax error at or near "cast"\nLINE 1: CREATE TABLE cast(\n                     ^\n\n'
p3638
s.