(dp1
S'output'
p2
S"<class 'sqlalchemy.exc.OperationalError'> (OperationalError) FATAL:  remaining connection slots are reserved for non-replication superuser connections\n None None"
p3
sS'layer'
p4
S'/home/goshawk/web2py/applications/milo/models/db.py'
p5
sS'code'
p6
S"# -*- coding: utf-8 -*-\n\n#########################################################################\n## This scaffolding model makes your app work on Google App Engine too\n## File is released under public domain and you can use without limitations\n#########################################################################\n\n## if SSL/HTTPS is properly configured and you want all HTTP requests to\n## be redirected to HTTPS, uncomment the line below:\n# request.requires_https()\n\nif not request.env.web2py_runtime_gae:\n    ## if NOT running on Google App Engine use SQLite or other DB\n    db = DAL('postgres://milo:milosecret@localhost/milo-reloaded')\nelse:\n    ## connect to Google BigTable (optional 'google:datastore://namespace')\n    db = DAL('google:datastore')\n    ## store sessions and tickets there\n    session.connect(request, response, db = db)\n    ## or store session in Memcache, Redis, etc.\n    ## from gluon.contrib.memdb import MEMDB\n    ## from google.appengine.api.memcache import Client\n    ## session.connect(request, response, db = MEMDB(Client()))\n\n## by default give a view/generic.extension to all actions from localhost\n## none otherwise. a pattern can be 'controller/function.extension'\nresponse.generic_patterns = ['*'] if request.is_local else []\n## (optional) optimize handling of static files\n# response.optimize_css = 'concat,minify,inline'\n# response.optimize_js = 'concat,minify,inline'\n\n#########################################################################\n## Here is sample code if you need for\n## - email capabilities\n## - authentication (registration, login, logout, ... )\n## - authorization (role based authorization)\n## - services (xml, csv, json, xmlrpc, jsonrpc, amf, rss)\n## - old style crud actions\n## (more options discussed in gluon/tools.py)\n#########################################################################\n\nfrom gluon.tools import Auth, Crud, Service, PluginManager, prettydate\nauth = Auth(db, hmac_key=Auth.get_or_create_key())\ncrud, service, plugins = Crud(db), Service(), PluginManager()\n\n## create all tables needed by auth if not custom tables\nauth.define_tables()\n\n## configure email\nmail=auth.settings.mailer\nmail.settings.server = 'logging' or 'smtp.gmail.com:587'\nmail.settings.sender = 'you@gmail.com'\nmail.settings.login = 'username:password'\n\n## configure auth policy\nauth.settings.registration_requires_verification = False\nauth.settings.registration_requires_approval = False\nauth.settings.reset_password_requires_verification = True\n\n## if you need to use OpenID, Facebook, MySpace, Twitter, Linkedin, etc.\n## register with janrain.com, write your domain:api_key in private/janrain.key\nfrom gluon.contrib.login_methods.rpx_account import use_janrain\nuse_janrain(auth,filename='private/janrain.key')\n\n#########################################################################\n## Define your tables below (or better in another model file) for example\n##\n## >>> db.define_table('mytable',Field('myfield','string'))\n##\n## Fields can be 'string','text','password','integer','double','boolean'\n##       'date','time','datetime','blob','upload', 'reference TABLENAME'\n## There is an implicit 'id integer autoincrement' field\n## Consult manual for more options, validators, etc.\n##\n## More API examples for controllers:\n##\n## >>> db.mytable.insert(myfield='value')\n## >>> rows=db(db.mytable.myfield=='value').select(db.mytable.ALL)\n## >>> for row in rows: print row.id, row.myfield\n#########################################################################\n\nimport imdb\n\nimdb_connection_str = 'postgres://imdb:imdbsecret@localhost/imdb'\n\nim = imdb.IMDb('sql', uri=imdb_connection_str)\n\n\ndb.define_table('users',\n        Field('name'),\n        Field('email'),\n        Field('imdb_id', 'integer')\n        )\n\ndb.define_table('movies',\n        Field('imdb_id', 'integer')\n        )\n\ndb.define_table('ratings',\n        Field('iuser', db.users, requires = IS_IN_DB(db,'users.id',db.users._format)),\n        Field('imovie', db.movies, requires = IS_IN_DB(db,'movies.id',db.movies._format)),\n        Field('rating', 'double')\n        )\n\n\n#for x in db(db.ratings).select(db.ratings.ALL):\n#    for y in db(db.ratings.id>x.id).select(db.ratings.ALL):\n#        if y.iuser == x.iuser and y.imovie == x.imovie:\n#            y.delete_record()\n#    db.commit()\n\n#run only once\n#db.executesql('CREATE UNIQUE INDEX iuser_imovie ON ratings (iuser,imovie);')\n\n\ndb.define_table('features',\n        Field('name'),\n        Field('type')\n        )\n\ndb.define_table('movies_features',\n        Field('movie', db.movies, requires = IS_IN_DB(db,'movies.id',db.movies._format)),\n        Field('feature', db.features, requires = IS_IN_DB(db,'features.id',db.features._format)),\n        Field('times', 'integer')\n        )\n"
p7
sS'snapshot'
p8
(dp9
S'exception'
p10
(dp11
S'__module__'
p12
S"'sqlalchemy.exc'"
p13
sS'__getslice__'
p14
S"<method-wrapper '__getslice__' of OperationalError object>"
p15
sS'__str__'
p16
S"<bound method OperationalError.__str__ of Operat...d for non-replication superuser connections\\n',)>"
p17
sS'__reduce__'
p18
S'<built-in method __reduce__ of OperationalError object>'
p19
sS'__dict__'
p20
S"{'connection_invalidated': False, 'orig': OperationalError('FATAL:  remaining connection s...ed for non-replication superuser connections\\n',), 'params': None, 'statement': None}"
p21
sS'__sizeof__'
p22
S'<built-in method __sizeof__ of OperationalError object>'
p23
sS'__weakref__'
p24
S'None'
p25
sS'__init__'
p26
S"<bound method OperationalError.__init__ of Opera...d for non-replication superuser connections\\n',)>"
p27
sS'orig'
p28
S"OperationalError('FATAL:  remaining connection s...ed for non-replication superuser connections\\n',)"
p29
sS'__setattr__'
p30
S"<method-wrapper '__setattr__' of OperationalError object>"
p31
sS'__reduce_ex__'
p32
S'<built-in method __reduce_ex__ of OperationalError object>'
p33
sS'__new__'
p34
S'<built-in method __new__ of type object>'
p35
sS'__format__'
p36
S'<built-in method __format__ of OperationalError object>'
p37
sS'__class__'
p38
S"<class 'sqlalchemy.exc.OperationalError'>"
p39
sS'instance'
p40
S"<bound method type.instance of <class 'sqlalchemy.exc.OperationalError'>>"
p41
sS'params'
p42
S'None'
p43
sS'statement'
p44
S'None'
p45
sS'__doc__'
p46
S"'Wraps a DB-API OperationalError.'"
p47
sS'connection_invalidated'
p48
S'False'
p49
sS'__getitem__'
p50
S"<method-wrapper '__getitem__' of OperationalError object>"
p51
sS'__setstate__'
p52
S'<built-in method __setstate__ of OperationalError object>'
p53
sS'__getattribute__'
p54
S"<method-wrapper '__getattribute__' of OperationalError object>"
p55
sS'args'
p56
S"('(OperationalError) FATAL:  remaining connection ...served for non-replication superuser connections\\n',)"
p57
sS'__subclasshook__'
p58
S'<built-in method __subclasshook__ of type object>'
p59
sS'__unicode__'
p60
S'<built-in method __unicode__ of OperationalError object>'
p61
sS'__delattr__'
p62
S"<method-wrapper '__delattr__' of OperationalError object>"
p63
sS'__repr__'
p64
S"<method-wrapper '__repr__' of OperationalError object>"
p65
sS'__hash__'
p66
S"<method-wrapper '__hash__' of OperationalError object>"
p67
ssS'evalue'
p68
S'(OperationalError) FATAL:  remaining connection slots are reserved for non-replication superuser connections\n None None'
p69
sS'request'
p70
ccopy_reg
_reconstructor
p71
(cgluon.html
BEAUTIFY
p72
c__builtin__
object
p73
NtRp74
(dp75
S'attributes'
p76
(dp77
sS'components'
p78
(lp79
g71
(cgluon.html
TABLE
p80
g73
NtRp81
(dp82
g76
(dp83
S'level'
p84
I5
ssS'parent'
p85
Nsg78
(lp86
g71
(cgluon.html
TR
p87
g73
NtRp88
(dp89
g76
(dp90
sg85
g81
sg78
(lp91
g71
(cgluon.html
TD
p92
g73
NtRp93
(dp94
g76
(dp95
S'_style'
p96
S'font-weight:bold;vertical-align:top'
p97
ssg85
g88
sg78
(lp98
S'ajax'
p99
asbag71
(g92
g73
NtRp100
(dp101
g76
(dp102
S'_valign'
p103
S'top'
p104
ssg85
g88
sg78
(lp105
S':'
asbag71
(g92
g73
NtRp106
(dp107
g76
(dp108
sg85
g88
sg78
(lp109
g71
(g72
g73
NtRp110
(dp111
g76
(dp112
g84
I5
ssg85
g106
sg78
(lp113
g49
asbasbasbag71
(g87
g73
NtRp114
(dp115
g76
(dp116
sg85
g81
sg78
(lp117
g71
(g92
g73
NtRp118
(dp119
g76
(dp120
g96
g97
ssg85
g114
sg78
(lp121
S'application'
p122
asbag71
(g92
g73
NtRp123
(dp124
g76
(dp125
g103
g104
ssg85
g114
sg78
(lp126
S':'
asbag71
(g92
g73
NtRp127
(dp128
g76
(dp129
sg85
g114
sg78
(lp130
g71
(g72
g73
NtRp131
(dp132
g76
(dp133
g84
I5
ssg85
g127
sg78
(lp134
S'milo'
p135
asbasbasbag71
(g87
g73
NtRp136
(dp137
g76
(dp138
sg85
g81
sg78
(lp139
g71
(g92
g73
NtRp140
(dp141
g76
(dp142
g96
g97
ssg85
g136
sg78
(lp143
g56
asbag71
(g92
g73
NtRp144
(dp145
g76
(dp146
g103
g104
ssg85
g136
sg78
(lp147
S':'
asbag71
(g92
g73
NtRp148
(dp149
g76
(dp150
sg85
g136
sg78
(lp151
g71
(g72
g73
NtRp152
(dp153
g76
(dp154
g84
I5
ssg85
g148
sg78
(lp155
g71
(g80
g73
NtRp156
(dp157
g76
(dp158
g84
I4
ssg85
Nsg78
(lp159
sbasbasbasbag71
(g87
g73
NtRp160
(dp161
g76
(dp162
sg85
g81
sg78
(lp163
g71
(g92
g73
NtRp164
(dp165
g76
(dp166
g96
g97
ssg85
g160
sg78
(lp167
S'body'
p168
asbag71
(g92
g73
NtRp169
(dp170
g76
(dp171
g103
g104
ssg85
g160
sg78
(lp172
S':'
asbag71
(g92
g73
NtRp173
(dp174
g76
(dp175
sg85
g160
sg78
(lp176
g71
(g72
g73
NtRp177
(dp178
g76
(dp179
g84
I5
ssg85
g173
sg78
(lp180
S'<cStringIO.StringO object at 0x7f43e94d9ed8>'
p181
asbasbasbag71
(g87
g73
NtRp182
(dp183
g76
(dp184
sg85
g81
sg78
(lp185
g71
(g92
g73
NtRp186
(dp187
g76
(dp188
g96
g97
ssg85
g182
sg78
(lp189
S'client'
p190
asbag71
(g92
g73
NtRp191
(dp192
g76
(dp193
g103
g104
ssg85
g182
sg78
(lp194
S':'
asbag71
(g92
g73
NtRp195
(dp196
g76
(dp197
sg85
g182
sg78
(lp198
g71
(g72
g73
NtRp199
(dp200
g76
(dp201
g84
I5
ssg85
g195
sg78
(lp202
S'127.0.0.1'
p203
asbasbasbag71
(g87
g73
NtRp204
(dp205
g76
(dp206
sg85
g81
sg78
(lp207
g71
(g92
g73
NtRp208
(dp209
g76
(dp210
g96
g97
ssg85
g204
sg78
(lp211
S'controller'
p212
asbag71
(g92
g73
NtRp213
(dp214
g76
(dp215
g103
g104
ssg85
g204
sg78
(lp216
S':'
asbag71
(g92
g73
NtRp217
(dp218
g76
(dp219
sg85
g204
sg78
(lp220
g71
(g72
g73
NtRp221
(dp222
g76
(dp223
g84
I5
ssg85
g217
sg78
(lp224
S'admin'
p225
asbasbasbag71
(g87
g73
NtRp226
(dp227
g76
(dp228
sg85
g81
sg78
(lp229
g71
(g92
g73
NtRp230
(dp231
g76
(dp232
g96
g97
ssg85
g226
sg78
(lp233
S'cookies'
p234
asbag71
(g92
g73
NtRp235
(dp236
g76
(dp237
g103
g104
ssg85
g226
sg78
(lp238
S':'
asbag71
(g92
g73
NtRp239
(dp240
g76
(dp241
sg85
g226
sg78
(lp242
g71
(g72
g73
NtRp243
(dp244
g76
(dp245
g84
I5
ssg85
g239
sg78
(lp246
g71
(g80
g73
NtRp247
(dp248
g76
(dp249
g84
I4
ssg85
Nsg78
(lp250
g71
(g87
g73
NtRp251
(dp252
g76
(dp253
sg85
g247
sg78
(lp254
g71
(g92
g73
NtRp255
(dp256
g76
(dp257
g96
g97
ssg85
g251
sg78
(lp258
S'session_id_milo'
p259
asbag71
(g92
g73
NtRp260
(dp261
g76
(dp262
g103
g104
ssg85
g251
sg78
(lp263
S':'
asbag71
(g92
g73
NtRp264
(dp265
g76
(dp266
sg85
g251
sg78
(lp267
g71
(g72
g73
NtRp268
(dp269
g76
(dp270
g84
I4
ssg85
g264
sg78
(lp271
g71
(g80
g73
NtRp272
(dp273
g76
(dp274
g84
I3
ssg85
Nsg78
(lp275
g71
(g87
g73
NtRp276
(dp277
g76
(dp278
sg85
g272
sg78
(lp279
g71
(g92
g73
NtRp280
(dp281
g76
(dp282
g96
g97
ssg85
g276
sg78
(lp283
S'comment'
p284
asbag71
(g92
g73
NtRp285
(dp286
g76
(dp287
g103
g104
ssg85
g276
sg78
(lp288
S':'
asbag71
(g92
g73
NtRp289
(dp290
g76
(dp291
sg85
g276
sg78
(lp292
g71
(g72
g73
NtRp293
(dp294
g76
(dp295
g84
I3
ssg85
g289
sg78
(lp296
S''
asbasbasbag71
(g87
g73
NtRp297
(dp298
g76
(dp299
sg85
g272
sg78
(lp300
g71
(g92
g73
NtRp301
(dp302
g76
(dp303
g96
g97
ssg85
g297
sg78
(lp304
S'domain'
p305
asbag71
(g92
g73
NtRp306
(dp307
g76
(dp308
g103
g104
ssg85
g297
sg78
(lp309
S':'
asbag71
(g92
g73
NtRp310
(dp311
g76
(dp312
sg85
g297
sg78
(lp313
g71
(g72
g73
NtRp314
(dp315
g76
(dp316
g84
I3
ssg85
g310
sg78
(lp317
S''
asbasbasbag71
(g87
g73
NtRp318
(dp319
g76
(dp320
sg85
g272
sg78
(lp321
g71
(g92
g73
NtRp322
(dp323
g76
(dp324
g96
g97
ssg85
g318
sg78
(lp325
S'expires'
p326
asbag71
(g92
g73
NtRp327
(dp328
g76
(dp329
g103
g104
ssg85
g318
sg78
(lp330
S':'
asbag71
(g92
g73
NtRp331
(dp332
g76
(dp333
sg85
g318
sg78
(lp334
g71
(g72
g73
NtRp335
(dp336
g76
(dp337
g84
I3
ssg85
g331
sg78
(lp338
S''
asbasbasbag71
(g87
g73
NtRp339
(dp340
g76
(dp341
sg85
g272
sg78
(lp342
g71
(g92
g73
NtRp343
(dp344
g76
(dp345
g96
g97
ssg85
g339
sg78
(lp346
S'httponly'
p347
asbag71
(g92
g73
NtRp348
(dp349
g76
(dp350
g103
g104
ssg85
g339
sg78
(lp351
S':'
asbag71
(g92
g73
NtRp352
(dp353
g76
(dp354
sg85
g339
sg78
(lp355
g71
(g72
g73
NtRp356
(dp357
g76
(dp358
g84
I3
ssg85
g352
sg78
(lp359
S''
asbasbasbag71
(g87
g73
NtRp360
(dp361
g76
(dp362
sg85
g272
sg78
(lp363
g71
(g92
g73
NtRp364
(dp365
g76
(dp366
g96
g97
ssg85
g360
sg78
(lp367
S'max-age'
p368
asbag71
(g92
g73
NtRp369
(dp370
g76
(dp371
g103
g104
ssg85
g360
sg78
(lp372
S':'
asbag71
(g92
g73
NtRp373
(dp374
g76
(dp375
sg85
g360
sg78
(lp376
g71
(g72
g73
NtRp377
(dp378
g76
(dp379
g84
I3
ssg85
g373
sg78
(lp380
S''
asbasbasbag71
(g87
g73
NtRp381
(dp382
g76
(dp383
sg85
g272
sg78
(lp384
g71
(g92
g73
NtRp385
(dp386
g76
(dp387
g96
g97
ssg85
g381
sg78
(lp388
S'path'
p389
asbag71
(g92
g73
NtRp390
(dp391
g76
(dp392
g103
g104
ssg85
g381
sg78
(lp393
S':'
asbag71
(g92
g73
NtRp394
(dp395
g76
(dp396
sg85
g381
sg78
(lp397
g71
(g72
g73
NtRp398
(dp399
g76
(dp400
g84
I3
ssg85
g394
sg78
(lp401
S''
asbasbasbag71
(g87
g73
NtRp402
(dp403
g76
(dp404
sg85
g272
sg78
(lp405
g71
(g92
g73
NtRp406
(dp407
g76
(dp408
g96
g97
ssg85
g402
sg78
(lp409
S'secure'
p410
asbag71
(g92
g73
NtRp411
(dp412
g76
(dp413
g103
g104
ssg85
g402
sg78
(lp414
S':'
asbag71
(g92
g73
NtRp415
(dp416
g76
(dp417
sg85
g402
sg78
(lp418
g71
(g72
g73
NtRp419
(dp420
g76
(dp421
g84
I3
ssg85
g415
sg78
(lp422
S''
asbasbasbag71
(g87
g73
NtRp423
(dp424
g76
(dp425
sg85
g272
sg78
(lp426
g71
(g92
g73
NtRp427
(dp428
g76
(dp429
g96
g97
ssg85
g423
sg78
(lp430
S'version'
p431
asbag71
(g92
g73
NtRp432
(dp433
g76
(dp434
g103
g104
ssg85
g423
sg78
(lp435
S':'
asbag71
(g92
g73
NtRp436
(dp437
g76
(dp438
sg85
g423
sg78
(lp439
g71
(g72
g73
NtRp440
(dp441
g76
(dp442
g84
I3
ssg85
g436
sg78
(lp443
S''
asbasbasbasbasbasbasbasbasbasbasbag71
(g87
g73
NtRp444
(dp445
g76
(dp446
sg85
g81
sg78
(lp447
g71
(g92
g73
NtRp448
(dp449
g76
(dp450
g96
g97
ssg85
g444
sg78
(lp451
S'env'
p452
asbag71
(g92
g73
NtRp453
(dp454
g76
(dp455
g103
g104
ssg85
g444
sg78
(lp456
S':'
asbag71
(g92
g73
NtRp457
(dp458
g76
(dp459
sg85
g444
sg78
(lp460
g71
(g72
g73
NtRp461
(dp462
g76
(dp463
g84
I5
ssg85
g457
sg78
(lp464
g71
(g80
g73
NtRp465
(dp466
g76
(dp467
g84
I4
ssg85
Nsg78
(lp468
g71
(g87
g73
NtRp469
(dp470
g76
(dp471
sg85
g465
sg78
(lp472
g71
(g92
g73
NtRp473
(dp474
g76
(dp475
g96
g97
ssg85
g469
sg78
(lp476
S'app_folders'
p477
asbag71
(g92
g73
NtRp478
(dp479
g76
(dp480
g103
g104
ssg85
g469
sg78
(lp481
S':'
asbag71
(g92
g73
NtRp482
(dp483
g76
(dp484
sg85
g469
sg78
(lp485
g71
(g72
g73
NtRp486
(dp487
g76
(dp488
g84
I4
ssg85
g482
sg78
(lp489
S"set(['/home/goshawk/web2py/applications/milo/', '/home/goshawk/web2py/applications/admin/'])"
p490
asbasbasbag71
(g87
g73
NtRp491
(dp492
g76
(dp493
sg85
g465
sg78
(lp494
g71
(g92
g73
NtRp495
(dp496
g76
(dp497
g96
g97
ssg85
g491
sg78
(lp498
S'applications_parent'
p499
asbag71
(g92
g73
NtRp500
(dp501
g76
(dp502
g103
g104
ssg85
g491
sg78
(lp503
S':'
asbag71
(g92
g73
NtRp504
(dp505
g76
(dp506
sg85
g491
sg78
(lp507
g71
(g72
g73
NtRp508
(dp509
g76
(dp510
g84
I4
ssg85
g504
sg78
(lp511
S'/home/goshawk/web2py'
p512
asbasbasbag71
(g87
g73
NtRp513
(dp514
g76
(dp515
sg85
g465
sg78
(lp516
g71
(g92
g73
NtRp517
(dp518
g76
(dp519
g96
g97
ssg85
g513
sg78
(lp520
S'cmd_args'
p521
asbag71
(g92
g73
NtRp522
(dp523
g76
(dp524
g103
g104
ssg85
g513
sg78
(lp525
S':'
asbag71
(g92
g73
NtRp526
(dp527
g76
(dp528
sg85
g513
sg78
(lp529
g71
(g72
g73
NtRp530
(dp531
g76
(dp532
g84
I4
ssg85
g526
sg78
(lp533
g71
(g80
g73
NtRp534
(dp535
g76
(dp536
g84
I3
ssg85
Nsg78
(lp537
sbasbasbasbag71
(g87
g73
NtRp538
(dp539
g76
(dp540
sg85
g465
sg78
(lp541
g71
(g92
g73
NtRp542
(dp543
g76
(dp544
g96
g97
ssg85
g538
sg78
(lp545
S'cmd_options'
p546
asbag71
(g92
g73
NtRp547
(dp548
g76
(dp549
g103
g104
ssg85
g538
sg78
(lp550
S':'
asbag71
(g92
g73
NtRp551
(dp552
g76
(dp553
sg85
g538
sg78
(lp554
g71
(g72
g73
NtRp555
(dp556
g76
(dp557
g84
I4
ssg85
g551
sg78
(lp558
S"<Values at 0x34150e0: {'verbose': False, 'ip': '127.0.0.1', 'shutdown_timeout': 5, 'taskbar': False, 'nocron': False, 'pid_filename': 'httpserver.pid', 'maxthreads': None, 'softcron': False, 'server_name': 'whisperer', 'bpython': False, 'nogui': False, 'port': 8000, 'extcron': False, 'debuglevel': 30, 'test': None, 'folder': '/home/goshawk/web2py', 'config': '', 'import_models': False, 'winservice': '', 'shell': None, 'run': '', 'log_filename': 'httpserver.log', 'args': [''], 'socket_timeout': 5, 'ssl_ca_certificate': None, 'scheduler': None, 'profiler_filename': None, 'ssl_private_key': '', 'password': 'admin', 'request_queue_size': 5, 'ssl_certificate': '', 'cronjob': False, 'numthreads': None, 'quiet': False, 'interfaces': None, 'minthreads': None, 'timeout': 10, 'plain': False, 'nobanner': False}>"
p559
asbasbasbag71
(g87
g73
NtRp560
(dp561
g76
(dp562
sg85
g465
sg78
(lp563
g71
(g92
g73
NtRp564
(dp565
g76
(dp566
g96
g97
ssg85
g560
sg78
(lp567
S'db_sessions'
p568
asbag71
(g92
g73
NtRp569
(dp570
g76
(dp571
g103
g104
ssg85
g560
sg78
(lp572
S':'
asbag71
(g92
g73
NtRp573
(dp574
g76
(dp575
sg85
g560
sg78
(lp576
g71
(g72
g73
NtRp577
(dp578
g76
(dp579
g84
I4
ssg85
g573
sg78
(lp580
S'set([])'
p581
asbasbasbag71
(g87
g73
NtRp582
(dp583
g76
(dp584
sg85
g465
sg78
(lp585
g71
(g92
g73
NtRp586
(dp587
g76
(dp588
g96
g97
ssg85
g582
sg78
(lp589
S'debugging'
p590
asbag71
(g92
g73
NtRp591
(dp592
g76
(dp593
g103
g104
ssg85
g582
sg78
(lp594
S':'
asbag71
(g92
g73
NtRp595
(dp596
g76
(dp597
sg85
g582
sg78
(lp598
g71
(g72
g73
NtRp599
(dp600
g76
(dp601
g84
I4
ssg85
g595
sg78
(lp602
g49
asbasbasbag71
(g87
g73
NtRp603
(dp604
g76
(dp605
sg85
g465
sg78
(lp606
g71
(g92
g73
NtRp607
(dp608
g76
(dp609
g96
g97
ssg85
g603
sg78
(lp610
S'gluon_parent'
p611
asbag71
(g92
g73
NtRp612
(dp613
g76
(dp614
g103
g104
ssg85
g603
sg78
(lp615
S':'
asbag71
(g92
g73
NtRp616
(dp617
g76
(dp618
sg85
g603
sg78
(lp619
g71
(g72
g73
NtRp620
(dp621
g76
(dp622
g84
I4
ssg85
g616
sg78
(lp623
S'/home/goshawk/web2py'
p624
asbasbasbag71
(g87
g73
NtRp625
(dp626
g76
(dp627
sg85
g465
sg78
(lp628
g71
(g92
g73
NtRp629
(dp630
g76
(dp631
g96
g97
ssg85
g625
sg78
(lp632
S'http_accept'
p633
asbag71
(g92
g73
NtRp634
(dp635
g76
(dp636
g103
g104
ssg85
g625
sg78
(lp637
S':'
asbag71
(g92
g73
NtRp638
(dp639
g76
(dp640
sg85
g625
sg78
(lp641
g71
(g72
g73
NtRp642
(dp643
g76
(dp644
g84
I4
ssg85
g638
sg78
(lp645
S'text/html,application/xhtml+xml,application/xml;q=0.9,*/*;q=0.8'
p646
asbasbasbag71
(g87
g73
NtRp647
(dp648
g76
(dp649
sg85
g465
sg78
(lp650
g71
(g92
g73
NtRp651
(dp652
g76
(dp653
g96
g97
ssg85
g647
sg78
(lp654
S'http_accept_charset'
p655
asbag71
(g92
g73
NtRp656
(dp657
g76
(dp658
g103
g104
ssg85
g647
sg78
(lp659
S':'
asbag71
(g92
g73
NtRp660
(dp661
g76
(dp662
sg85
g647
sg78
(lp663
g71
(g72
g73
NtRp664
(dp665
g76
(dp666
g84
I4
ssg85
g660
sg78
(lp667
S'ISO-8859-1,utf-8;q=0.7,*;q=0.3'
p668
asbasbasbag71
(g87
g73
NtRp669
(dp670
g76
(dp671
sg85
g465
sg78
(lp672
g71
(g92
g73
NtRp673
(dp674
g76
(dp675
g96
g97
ssg85
g669
sg78
(lp676
S'http_accept_encoding'
p677
asbag71
(g92
g73
NtRp678
(dp679
g76
(dp680
g103
g104
ssg85
g669
sg78
(lp681
S':'
asbag71
(g92
g73
NtRp682
(dp683
g76
(dp684
sg85
g669
sg78
(lp685
g71
(g72
g73
NtRp686
(dp687
g76
(dp688
g84
I4
ssg85
g682
sg78
(lp689
S'gzip,deflate,sdch'
p690
asbasbasbag71
(g87
g73
NtRp691
(dp692
g76
(dp693
sg85
g465
sg78
(lp694
g71
(g92
g73
NtRp695
(dp696
g76
(dp697
g96
g97
ssg85
g691
sg78
(lp698
S'http_accept_language'
p699
asbag71
(g92
g73
NtRp700
(dp701
g76
(dp702
g103
g104
ssg85
g691
sg78
(lp703
S':'
asbag71
(g92
g73
NtRp704
(dp705
g76
(dp706
sg85
g691
sg78
(lp707
g71
(g72
g73
NtRp708
(dp709
g76
(dp710
g84
I4
ssg85
g704
sg78
(lp711
S'en-US,en;q=0.8'
p712
asbasbasbag71
(g87
g73
NtRp713
(dp714
g76
(dp715
sg85
g465
sg78
(lp716
g71
(g92
g73
NtRp717
(dp718
g76
(dp719
g96
g97
ssg85
g713
sg78
(lp720
S'http_cache_control'
p721
asbag71
(g92
g73
NtRp722
(dp723
g76
(dp724
g103
g104
ssg85
g713
sg78
(lp725
S':'
asbag71
(g92
g73
NtRp726
(dp727
g76
(dp728
sg85
g713
sg78
(lp729
g71
(g72
g73
NtRp730
(dp731
g76
(dp732
g84
I4
ssg85
g726
sg78
(lp733
S'max-age=0'
p734
asbasbasbag71
(g87
g73
NtRp735
(dp736
g76
(dp737
sg85
g465
sg78
(lp738
g71
(g92
g73
NtRp739
(dp740
g76
(dp741
g96
g97
ssg85
g735
sg78
(lp742
S'http_connection'
p743
asbag71
(g92
g73
NtRp744
(dp745
g76
(dp746
g103
g104
ssg85
g735
sg78
(lp747
S':'
asbag71
(g92
g73
NtRp748
(dp749
g76
(dp750
sg85
g735
sg78
(lp751
g71
(g72
g73
NtRp752
(dp753
g76
(dp754
g84
I4
ssg85
g748
sg78
(lp755
S'keep-alive'
p756
asbasbasbag71
(g87
g73
NtRp757
(dp758
g76
(dp759
sg85
g465
sg78
(lp760
g71
(g92
g73
NtRp761
(dp762
g76
(dp763
g96
g97
ssg85
g757
sg78
(lp764
S'http_cookie'
p765
asbag71
(g92
g73
NtRp766
(dp767
g76
(dp768
g103
g104
ssg85
g757
sg78
(lp769
S':'
asbag71
(g92
g73
NtRp770
(dp771
g76
(dp772
sg85
g757
sg78
(lp773
g71
(g72
g73
NtRp774
(dp775
g76
(dp776
g84
I4
ssg85
g770
sg78
(lp777
S'session_id_milo=127.0.0.1-cc5d8104-0ec6-49f6-aba2-454dfcf6c681'
p778
asbasbasbag71
(g87
g73
NtRp779
(dp780
g76
(dp781
sg85
g465
sg78
(lp782
g71
(g92
g73
NtRp783
(dp784
g76
(dp785
g96
g97
ssg85
g779
sg78
(lp786
S'http_host'
p787
asbag71
(g92
g73
NtRp788
(dp789
g76
(dp790
g103
g104
ssg85
g779
sg78
(lp791
S':'
asbag71
(g92
g73
NtRp792
(dp793
g76
(dp794
sg85
g779
sg78
(lp795
g71
(g72
g73
NtRp796
(dp797
g76
(dp798
g84
I4
ssg85
g792
sg78
(lp799
S'localhost:8000'
p800
asbasbasbag71
(g87
g73
NtRp801
(dp802
g76
(dp803
sg85
g465
sg78
(lp804
g71
(g92
g73
NtRp805
(dp806
g76
(dp807
g96
g97
ssg85
g801
sg78
(lp808
S'http_user_agent'
p809
asbag71
(g92
g73
NtRp810
(dp811
g76
(dp812
g103
g104
ssg85
g801
sg78
(lp813
S':'
asbag71
(g92
g73
NtRp814
(dp815
g76
(dp816
sg85
g801
sg78
(lp817
g71
(g72
g73
NtRp818
(dp819
g76
(dp820
g84
I4
ssg85
g814
sg78
(lp821
S'Mozilla/5.0 (X11; Linux x86_64) AppleWebKit/535.19 (KHTML, like Gecko) Ubuntu/12.04 Chromium/18.0.1025.168 Chrome/18.0.1025.168 Safari/535.19'
p822
asbasbasbag71
(g87
g73
NtRp823
(dp824
g76
(dp825
sg85
g465
sg78
(lp826
g71
(g92
g73
NtRp827
(dp828
g76
(dp829
g96
g97
ssg85
g823
sg78
(lp830
S'is_jython'
p831
asbag71
(g92
g73
NtRp832
(dp833
g76
(dp834
g103
g104
ssg85
g823
sg78
(lp835
S':'
asbag71
(g92
g73
NtRp836
(dp837
g76
(dp838
sg85
g823
sg78
(lp839
g71
(g72
g73
NtRp840
(dp841
g76
(dp842
g84
I4
ssg85
g836
sg78
(lp843
g49
asbasbasbag71
(g87
g73
NtRp844
(dp845
g76
(dp846
sg85
g465
sg78
(lp847
g71
(g92
g73
NtRp848
(dp849
g76
(dp850
g96
g97
ssg85
g844
sg78
(lp851
S'is_pypy'
p852
asbag71
(g92
g73
NtRp853
(dp854
g76
(dp855
g103
g104
ssg85
g844
sg78
(lp856
S':'
asbag71
(g92
g73
NtRp857
(dp858
g76
(dp859
sg85
g844
sg78
(lp860
g71
(g72
g73
NtRp861
(dp862
g76
(dp863
g84
I4
ssg85
g857
sg78
(lp864
g49
asbasbasbag71
(g87
g73
NtRp865
(dp866
g76
(dp867
sg85
g465
sg78
(lp868
g71
(g92
g73
NtRp869
(dp870
g76
(dp871
g96
g97
ssg85
g865
sg78
(lp872
S'path_info'
p873
asbag71
(g92
g73
NtRp874
(dp875
g76
(dp876
g103
g104
ssg85
g865
sg78
(lp877
S':'
asbag71
(g92
g73
NtRp878
(dp879
g76
(dp880
sg85
g865
sg78
(lp881
g71
(g72
g73
NtRp882
(dp883
g76
(dp884
g84
I4
ssg85
g878
sg78
(lp885
S'/milo/admin/index'
p886
asbasbasbag71
(g87
g73
NtRp887
(dp888
g76
(dp889
sg85
g465
sg78
(lp890
g71
(g92
g73
NtRp891
(dp892
g76
(dp893
g96
g97
ssg85
g887
sg78
(lp894
S'query_string'
p895
asbag71
(g92
g73
NtRp896
(dp897
g76
(dp898
g103
g104
ssg85
g887
sg78
(lp899
S':'
asbag71
(g92
g73
NtRp900
(dp901
g76
(dp902
sg85
g887
sg78
(lp903
g71
(g72
g73
NtRp904
(dp905
g76
(dp906
g84
I4
ssg85
g900
sg78
(lp907
S''
asbasbasbag71
(g87
g73
NtRp908
(dp909
g76
(dp910
sg85
g465
sg78
(lp911
g71
(g92
g73
NtRp912
(dp913
g76
(dp914
g96
g97
ssg85
g908
sg78
(lp915
S'remote_addr'
p916
asbag71
(g92
g73
NtRp917
(dp918
g76
(dp919
g103
g104
ssg85
g908
sg78
(lp920
S':'
asbag71
(g92
g73
NtRp921
(dp922
g76
(dp923
sg85
g908
sg78
(lp924
g71
(g72
g73
NtRp925
(dp926
g76
(dp927
g84
I4
ssg85
g921
sg78
(lp928
g203
asbasbasbag71
(g87
g73
NtRp929
(dp930
g76
(dp931
sg85
g465
sg78
(lp932
g71
(g92
g73
NtRp933
(dp934
g76
(dp935
g96
g97
ssg85
g929
sg78
(lp936
S'remote_port'
p937
asbag71
(g92
g73
NtRp938
(dp939
g76
(dp940
g103
g104
ssg85
g929
sg78
(lp941
S':'
asbag71
(g92
g73
NtRp942
(dp943
g76
(dp944
sg85
g929
sg78
(lp945
g71
(g72
g73
NtRp946
(dp947
g76
(dp948
g84
I4
ssg85
g942
sg78
(lp949
S'36786'
p950
asbasbasbag71
(g87
g73
NtRp951
(dp952
g76
(dp953
sg85
g465
sg78
(lp954
g71
(g92
g73
NtRp955
(dp956
g76
(dp957
g96
g97
ssg85
g951
sg78
(lp958
S'request_method'
p959
asbag71
(g92
g73
NtRp960
(dp961
g76
(dp962
g103
g104
ssg85
g951
sg78
(lp963
S':'
asbag71
(g92
g73
NtRp964
(dp965
g76
(dp966
sg85
g951
sg78
(lp967
g71
(g72
g73
NtRp968
(dp969
g76
(dp970
g84
I4
ssg85
g964
sg78
(lp971
S'GET'
p972
asbasbasbag71
(g87
g73
NtRp973
(dp974
g76
(dp975
sg85
g465
sg78
(lp976
g71
(g92
g73
NtRp977
(dp978
g76
(dp979
g96
g97
ssg85
g973
sg78
(lp980
S'request_uri'
p981
asbag71
(g92
g73
NtRp982
(dp983
g76
(dp984
g103
g104
ssg85
g973
sg78
(lp985
S':'
asbag71
(g92
g73
NtRp986
(dp987
g76
(dp988
sg85
g973
sg78
(lp989
g71
(g72
g73
NtRp990
(dp991
g76
(dp992
g84
I4
ssg85
g986
sg78
(lp993
g886
asbasbasbag71
(g87
g73
NtRp994
(dp995
g76
(dp996
sg85
g465
sg78
(lp997
g71
(g92
g73
NtRp998
(dp999
g76
(dp1000
g96
g97
ssg85
g994
sg78
(lp1001
S'script_name'
p1002
asbag71
(g92
g73
NtRp1003
(dp1004
g76
(dp1005
g103
g104
ssg85
g994
sg78
(lp1006
S':'
asbag71
(g92
g73
NtRp1007
(dp1008
g76
(dp1009
sg85
g994
sg78
(lp1010
g71
(g72
g73
NtRp1011
(dp1012
g76
(dp1013
g84
I4
ssg85
g1007
sg78
(lp1014
S''
asbasbasbag71
(g87
g73
NtRp1015
(dp1016
g76
(dp1017
sg85
g465
sg78
(lp1018
g71
(g92
g73
NtRp1019
(dp1020
g76
(dp1021
g96
g97
ssg85
g1015
sg78
(lp1022
S'server_name'
p1023
asbag71
(g92
g73
NtRp1024
(dp1025
g76
(dp1026
g103
g104
ssg85
g1015
sg78
(lp1027
S':'
asbag71
(g92
g73
NtRp1028
(dp1029
g76
(dp1030
sg85
g1015
sg78
(lp1031
g71
(g72
g73
NtRp1032
(dp1033
g76
(dp1034
g84
I4
ssg85
g1028
sg78
(lp1035
S'whisperer'
p1036
asbasbasbag71
(g87
g73
NtRp1037
(dp1038
g76
(dp1039
sg85
g465
sg78
(lp1040
g71
(g92
g73
NtRp1041
(dp1042
g76
(dp1043
g96
g97
ssg85
g1037
sg78
(lp1044
S'server_port'
p1045
asbag71
(g92
g73
NtRp1046
(dp1047
g76
(dp1048
g103
g104
ssg85
g1037
sg78
(lp1049
S':'
asbag71
(g92
g73
NtRp1050
(dp1051
g76
(dp1052
sg85
g1037
sg78
(lp1053
g71
(g72
g73
NtRp1054
(dp1055
g76
(dp1056
g84
I4
ssg85
g1050
sg78
(lp1057
S'8000'
p1058
asbasbasbag71
(g87
g73
NtRp1059
(dp1060
g76
(dp1061
sg85
g465
sg78
(lp1062
g71
(g92
g73
NtRp1063
(dp1064
g76
(dp1065
g96
g97
ssg85
g1059
sg78
(lp1066
S'server_protocol'
p1067
asbag71
(g92
g73
NtRp1068
(dp1069
g76
(dp1070
g103
g104
ssg85
g1059
sg78
(lp1071
S':'
asbag71
(g92
g73
NtRp1072
(dp1073
g76
(dp1074
sg85
g1059
sg78
(lp1075
g71
(g72
g73
NtRp1076
(dp1077
g76
(dp1078
g84
I4
ssg85
g1072
sg78
(lp1079
S'HTTP/1.1'
p1080
asbasbasbag71
(g87
g73
NtRp1081
(dp1082
g76
(dp1083
sg85
g465
sg78
(lp1084
g71
(g92
g73
NtRp1085
(dp1086
g76
(dp1087
g96
g97
ssg85
g1081
sg78
(lp1088
S'server_software'
p1089
asbag71
(g92
g73
NtRp1090
(dp1091
g76
(dp1092
g103
g104
ssg85
g1081
sg78
(lp1093
S':'
asbag71
(g92
g73
NtRp1094
(dp1095
g76
(dp1096
sg85
g1081
sg78
(lp1097
g71
(g72
g73
NtRp1098
(dp1099
g76
(dp1100
g84
I4
ssg85
g1094
sg78
(lp1101
S'Rocket 1.2.4'
p1102
asbasbasbag71
(g87
g73
NtRp1103
(dp1104
g76
(dp1105
sg85
g465
sg78
(lp1106
g71
(g92
g73
NtRp1107
(dp1108
g76
(dp1109
g96
g97
ssg85
g1103
sg78
(lp1110
S'web2py_crontype'
p1111
asbag71
(g92
g73
NtRp1112
(dp1113
g76
(dp1114
g103
g104
ssg85
g1103
sg78
(lp1115
S':'
asbag71
(g92
g73
NtRp1116
(dp1117
g76
(dp1118
sg85
g1103
sg78
(lp1119
g71
(g72
g73
NtRp1120
(dp1121
g76
(dp1122
g84
I4
ssg85
g1116
sg78
(lp1123
S'hard'
p1124
asbasbasbag71
(g87
g73
NtRp1125
(dp1126
g76
(dp1127
sg85
g465
sg78
(lp1128
g71
(g92
g73
NtRp1129
(dp1130
g76
(dp1131
g96
g97
ssg85
g1125
sg78
(lp1132
S'web2py_original_uri'
p1133
asbag71
(g92
g73
NtRp1134
(dp1135
g76
(dp1136
g103
g104
ssg85
g1125
sg78
(lp1137
S':'
asbag71
(g92
g73
NtRp1138
(dp1139
g76
(dp1140
sg85
g1125
sg78
(lp1141
g71
(g72
g73
NtRp1142
(dp1143
g76
(dp1144
g84
I4
ssg85
g1138
sg78
(lp1145
g886
asbasbasbag71
(g87
g73
NtRp1146
(dp1147
g76
(dp1148
sg85
g465
sg78
(lp1149
g71
(g92
g73
NtRp1150
(dp1151
g76
(dp1152
g96
g97
ssg85
g1146
sg78
(lp1153
S'web2py_path'
p1154
asbag71
(g92
g73
NtRp1155
(dp1156
g76
(dp1157
g103
g104
ssg85
g1146
sg78
(lp1158
S':'
asbag71
(g92
g73
NtRp1159
(dp1160
g76
(dp1161
sg85
g1146
sg78
(lp1162
g71
(g72
g73
NtRp1163
(dp1164
g76
(dp1165
g84
I4
ssg85
g1159
sg78
(lp1166
g512
asbasbasbag71
(g87
g73
NtRp1167
(dp1168
g76
(dp1169
sg85
g465
sg78
(lp1170
g71
(g92
g73
NtRp1171
(dp1172
g76
(dp1173
g96
g97
ssg85
g1167
sg78
(lp1174
S'web2py_version'
p1175
asbag71
(g92
g73
NtRp1176
(dp1177
g76
(dp1178
g103
g104
ssg85
g1167
sg78
(lp1179
S':'
asbag71
(g92
g73
NtRp1180
(dp1181
g76
(dp1182
sg85
g1167
sg78
(lp1183
g71
(g72
g73
NtRp1184
(dp1185
g76
(dp1186
g84
I4
ssg85
g1180
sg78
(lp1187
g71
(g80
g73
NtRp1188
(dp1189
g76
(dp1190
g84
I3
ssg85
Nsg78
(lp1191
g71
(g87
g73
NtRp1192
(dp1193
g76
(dp1194
sg85
g1188
sg78
(lp1195
g71
(g92
g73
NtRp1196
(dp1197
g76
(dp1198
sg85
g1192
sg78
(lp1199
g71
(g72
g73
NtRp1200
(dp1201
g76
(dp1202
g84
I3
ssg85
g1196
sg78
(lp1203
S'1'
asbasbasbag71
(g87
g73
NtRp1204
(dp1205
g76
(dp1206
sg85
g1188
sg78
(lp1207
g71
(g92
g73
NtRp1208
(dp1209
g76
(dp1210
sg85
g1204
sg78
(lp1211
g71
(g72
g73
NtRp1212
(dp1213
g76
(dp1214
g84
I3
ssg85
g1208
sg78
(lp1215
S'99'
p1216
asbasbasbag71
(g87
g73
NtRp1217
(dp1218
g76
(dp1219
sg85
g1188
sg78
(lp1220
g71
(g92
g73
NtRp1221
(dp1222
g76
(dp1223
sg85
g1217
sg78
(lp1224
g71
(g72
g73
NtRp1225
(dp1226
g76
(dp1227
g84
I3
ssg85
g1221
sg78
(lp1228
S'7'
asbasbasbag71
(g87
g73
NtRp1229
(dp1230
g76
(dp1231
sg85
g1188
sg78
(lp1232
g71
(g92
g73
NtRp1233
(dp1234
g76
(dp1235
sg85
g1229
sg78
(lp1236
g71
(g72
g73
NtRp1237
(dp1238
g76
(dp1239
g84
I3
ssg85
g1233
sg78
(lp1240
S'datetime.datetime(2012, 3, 4, 22, 12, 8)'
p1241
asbasbasbag71
(g87
g73
NtRp1242
(dp1243
g76
(dp1244
sg85
g1188
sg78
(lp1245
g71
(g92
g73
NtRp1246
(dp1247
g76
(dp1248
sg85
g1242
sg78
(lp1249
g71
(g72
g73
NtRp1250
(dp1251
g76
(dp1252
g84
I3
ssg85
g1246
sg78
(lp1253
S'stable'
p1254
asbasbasbasbasbasbasbag71
(g87
g73
NtRp1255
(dp1256
g76
(dp1257
sg85
g465
sg78
(lp1258
g71
(g92
g73
NtRp1259
(dp1260
g76
(dp1261
g96
g97
ssg85
g1255
sg78
(lp1262
S'wsgi_errors'
p1263
asbag71
(g92
g73
NtRp1264
(dp1265
g76
(dp1266
g103
g104
ssg85
g1255
sg78
(lp1267
S':'
asbag71
(g92
g73
NtRp1268
(dp1269
g76
(dp1270
sg85
g1255
sg78
(lp1271
g71
(g72
g73
NtRp1272
(dp1273
g76
(dp1274
g84
I4
ssg85
g1268
sg78
(lp1275
S"<open file '<stderr>', mode 'w' at 0x7f43fec2c270>"
p1276
asbasbasbag71
(g87
g73
NtRp1277
(dp1278
g76
(dp1279
sg85
g465
sg78
(lp1280
g71
(g92
g73
NtRp1281
(dp1282
g76
(dp1283
g96
g97
ssg85
g1277
sg78
(lp1284
S'wsgi_file_wrapper'
p1285
asbag71
(g92
g73
NtRp1286
(dp1287
g76
(dp1288
g103
g104
ssg85
g1277
sg78
(lp1289
S':'
asbag71
(g92
g73
NtRp1290
(dp1291
g76
(dp1292
sg85
g1277
sg78
(lp1293
g71
(g72
g73
NtRp1294
(dp1295
g76
(dp1296
g84
I4
ssg85
g1290
sg78
(lp1297
S'<class wsgiref.util.FileWrapper at 0x3341f58>'
p1298
asbasbasbag71
(g87
g73
NtRp1299
(dp1300
g76
(dp1301
sg85
g465
sg78
(lp1302
g71
(g92
g73
NtRp1303
(dp1304
g76
(dp1305
g96
g97
ssg85
g1299
sg78
(lp1306
S'wsgi_input'
p1307
asbag71
(g92
g73
NtRp1308
(dp1309
g76
(dp1310
g103
g104
ssg85
g1299
sg78
(lp1311
S':'
asbag71
(g92
g73
NtRp1312
(dp1313
g76
(dp1314
sg85
g1299
sg78
(lp1315
g71
(g72
g73
NtRp1316
(dp1317
g76
(dp1318
g84
I4
ssg85
g1312
sg78
(lp1319
S'<socket._fileobject object at 0x7f43d4d977d0>'
p1320
asbasbasbag71
(g87
g73
NtRp1321
(dp1322
g76
(dp1323
sg85
g465
sg78
(lp1324
g71
(g92
g73
NtRp1325
(dp1326
g76
(dp1327
g96
g97
ssg85
g1321
sg78
(lp1328
S'wsgi_multiprocess'
p1329
asbag71
(g92
g73
NtRp1330
(dp1331
g76
(dp1332
g103
g104
ssg85
g1321
sg78
(lp1333
S':'
asbag71
(g92
g73
NtRp1334
(dp1335
g76
(dp1336
sg85
g1321
sg78
(lp1337
g71
(g72
g73
NtRp1338
(dp1339
g76
(dp1340
g84
I4
ssg85
g1334
sg78
(lp1341
g49
asbasbasbag71
(g87
g73
NtRp1342
(dp1343
g76
(dp1344
sg85
g465
sg78
(lp1345
g71
(g92
g73
NtRp1346
(dp1347
g76
(dp1348
g96
g97
ssg85
g1342
sg78
(lp1349
S'wsgi_multithread'
p1350
asbag71
(g92
g73
NtRp1351
(dp1352
g76
(dp1353
g103
g104
ssg85
g1342
sg78
(lp1354
S':'
asbag71
(g92
g73
NtRp1355
(dp1356
g76
(dp1357
sg85
g1342
sg78
(lp1358
g71
(g72
g73
NtRp1359
(dp1360
g76
(dp1361
g84
I4
ssg85
g1355
sg78
(lp1362
S'True'
p1363
asbasbasbag71
(g87
g73
NtRp1364
(dp1365
g76
(dp1366
sg85
g465
sg78
(lp1367
g71
(g92
g73
NtRp1368
(dp1369
g76
(dp1370
g96
g97
ssg85
g1364
sg78
(lp1371
S'wsgi_run_once'
p1372
asbag71
(g92
g73
NtRp1373
(dp1374
g76
(dp1375
g103
g104
ssg85
g1364
sg78
(lp1376
S':'
asbag71
(g92
g73
NtRp1377
(dp1378
g76
(dp1379
sg85
g1364
sg78
(lp1380
g71
(g72
g73
NtRp1381
(dp1382
g76
(dp1383
g84
I4
ssg85
g1377
sg78
(lp1384
g49
asbasbasbag71
(g87
g73
NtRp1385
(dp1386
g76
(dp1387
sg85
g465
sg78
(lp1388
g71
(g92
g73
NtRp1389
(dp1390
g76
(dp1391
g96
g97
ssg85
g1385
sg78
(lp1392
S'wsgi_url_scheme'
p1393
asbag71
(g92
g73
NtRp1394
(dp1395
g76
(dp1396
g103
g104
ssg85
g1385
sg78
(lp1397
S':'
asbag71
(g92
g73
NtRp1398
(dp1399
g76
(dp1400
sg85
g1385
sg78
(lp1401
g71
(g72
g73
NtRp1402
(dp1403
g76
(dp1404
g84
I4
ssg85
g1398
sg78
(lp1405
S'http'
p1406
asbasbasbag71
(g87
g73
NtRp1407
(dp1408
g76
(dp1409
sg85
g465
sg78
(lp1410
g71
(g92
g73
NtRp1411
(dp1412
g76
(dp1413
g96
g97
ssg85
g1407
sg78
(lp1414
S'wsgi_version'
p1415
asbag71
(g92
g73
NtRp1416
(dp1417
g76
(dp1418
g103
g104
ssg85
g1407
sg78
(lp1419
S':'
asbag71
(g92
g73
NtRp1420
(dp1421
g76
(dp1422
sg85
g1407
sg78
(lp1423
g71
(g72
g73
NtRp1424
(dp1425
g76
(dp1426
g84
I4
ssg85
g1420
sg78
(lp1427
g71
(g80
g73
NtRp1428
(dp1429
g76
(dp1430
g84
I3
ssg85
Nsg78
(lp1431
g71
(g87
g73
NtRp1432
(dp1433
g76
(dp1434
sg85
g1428
sg78
(lp1435
g71
(g92
g73
NtRp1436
(dp1437
g76
(dp1438
sg85
g1432
sg78
(lp1439
g71
(g72
g73
NtRp1440
(dp1441
g76
(dp1442
g84
I3
ssg85
g1436
sg78
(lp1443
S'1'
asbasbasbag71
(g87
g73
NtRp1444
(dp1445
g76
(dp1446
sg85
g1428
sg78
(lp1447
g71
(g92
g73
NtRp1448
(dp1449
g76
(dp1450
sg85
g1444
sg78
(lp1451
g71
(g72
g73
NtRp1452
(dp1453
g76
(dp1454
g84
I3
ssg85
g1448
sg78
(lp1455
S'0'
asbasbasbasbasbasbasbasbasbasbasbag71
(g87
g73
NtRp1456
(dp1457
g76
(dp1458
sg85
g81
sg78
(lp1459
g71
(g92
g73
NtRp1460
(dp1461
g76
(dp1462
g96
g97
ssg85
g1456
sg78
(lp1463
S'extension'
p1464
asbag71
(g92
g73
NtRp1465
(dp1466
g76
(dp1467
g103
g104
ssg85
g1456
sg78
(lp1468
S':'
asbag71
(g92
g73
NtRp1469
(dp1470
g76
(dp1471
sg85
g1456
sg78
(lp1472
g71
(g72
g73
NtRp1473
(dp1474
g76
(dp1475
g84
I5
ssg85
g1469
sg78
(lp1476
S'html'
p1477
asbasbasbag71
(g87
g73
NtRp1478
(dp1479
g76
(dp1480
sg85
g81
sg78
(lp1481
g71
(g92
g73
NtRp1482
(dp1483
g76
(dp1484
g96
g97
ssg85
g1478
sg78
(lp1485
S'folder'
p1486
asbag71
(g92
g73
NtRp1487
(dp1488
g76
(dp1489
g103
g104
ssg85
g1478
sg78
(lp1490
S':'
asbag71
(g92
g73
NtRp1491
(dp1492
g76
(dp1493
sg85
g1478
sg78
(lp1494
g71
(g72
g73
NtRp1495
(dp1496
g76
(dp1497
g84
I5
ssg85
g1491
sg78
(lp1498
S'/home/goshawk/web2py/applications/milo/'
p1499
asbasbasbag71
(g87
g73
NtRp1500
(dp1501
g76
(dp1502
sg85
g81
sg78
(lp1503
g71
(g92
g73
NtRp1504
(dp1505
g76
(dp1506
g96
g97
ssg85
g1500
sg78
(lp1507
S'function'
p1508
asbag71
(g92
g73
NtRp1509
(dp1510
g76
(dp1511
g103
g104
ssg85
g1500
sg78
(lp1512
S':'
asbag71
(g92
g73
NtRp1513
(dp1514
g76
(dp1515
sg85
g1500
sg78
(lp1516
g71
(g72
g73
NtRp1517
(dp1518
g76
(dp1519
g84
I5
ssg85
g1513
sg78
(lp1520
S'index'
p1521
asbasbasbag71
(g87
g73
NtRp1522
(dp1523
g76
(dp1524
sg85
g81
sg78
(lp1525
g71
(g92
g73
NtRp1526
(dp1527
g76
(dp1528
g96
g97
ssg85
g1522
sg78
(lp1529
S'get_vars'
p1530
asbag71
(g92
g73
NtRp1531
(dp1532
g76
(dp1533
g103
g104
ssg85
g1522
sg78
(lp1534
S':'
asbag71
(g92
g73
NtRp1535
(dp1536
g76
(dp1537
sg85
g1522
sg78
(lp1538
g71
(g72
g73
NtRp1539
(dp1540
g76
(dp1541
g84
I5
ssg85
g1535
sg78
(lp1542
g71
(g80
g73
NtRp1543
(dp1544
g76
(dp1545
g84
I4
ssg85
Nsg78
(lp1546
sbasbasbasbag71
(g87
g73
NtRp1547
(dp1548
g76
(dp1549
sg85
g81
sg78
(lp1550
g71
(g92
g73
NtRp1551
(dp1552
g76
(dp1553
g96
g97
ssg85
g1547
sg78
(lp1554
S'global_settings'
p1555
asbag71
(g92
g73
NtRp1556
(dp1557
g76
(dp1558
g103
g104
ssg85
g1547
sg78
(lp1559
S':'
asbag71
(g92
g73
NtRp1560
(dp1561
g76
(dp1562
sg85
g1547
sg78
(lp1563
g71
(g72
g73
NtRp1564
(dp1565
g76
(dp1566
g84
I5
ssg85
g1560
sg78
(lp1567
g71
(g80
g73
NtRp1568
(dp1569
g76
(dp1570
g84
I4
ssg85
Nsg78
(lp1571
g71
(g87
g73
NtRp1572
(dp1573
g76
(dp1574
sg85
g1568
sg78
(lp1575
g71
(g92
g73
NtRp1576
(dp1577
g76
(dp1578
g96
g97
ssg85
g1572
sg78
(lp1579
g477
asbag71
(g92
g73
NtRp1580
(dp1581
g76
(dp1582
g103
g104
ssg85
g1572
sg78
(lp1583
S':'
asbag71
(g92
g73
NtRp1584
(dp1585
g76
(dp1586
sg85
g1572
sg78
(lp1587
g71
(g72
g73
NtRp1588
(dp1589
g76
(dp1590
g84
I4
ssg85
g1584
sg78
(lp1591
S"set(['/home/goshawk/web2py/applications/milo/', '/home/goshawk/web2py/applications/admin/'])"
p1592
asbasbasbag71
(g87
g73
NtRp1593
(dp1594
g76
(dp1595
sg85
g1568
sg78
(lp1596
g71
(g92
g73
NtRp1597
(dp1598
g76
(dp1599
g96
g97
ssg85
g1593
sg78
(lp1600
g499
asbag71
(g92
g73
NtRp1601
(dp1602
g76
(dp1603
g103
g104
ssg85
g1593
sg78
(lp1604
S':'
asbag71
(g92
g73
NtRp1605
(dp1606
g76
(dp1607
sg85
g1593
sg78
(lp1608
g71
(g72
g73
NtRp1609
(dp1610
g76
(dp1611
g84
I4
ssg85
g1605
sg78
(lp1612
g512
asbasbasbag71
(g87
g73
NtRp1613
(dp1614
g76
(dp1615
sg85
g1568
sg78
(lp1616
g71
(g92
g73
NtRp1617
(dp1618
g76
(dp1619
g96
g97
ssg85
g1613
sg78
(lp1620
g521
asbag71
(g92
g73
NtRp1621
(dp1622
g76
(dp1623
g103
g104
ssg85
g1613
sg78
(lp1624
S':'
asbag71
(g92
g73
NtRp1625
(dp1626
g76
(dp1627
sg85
g1613
sg78
(lp1628
g71
(g72
g73
NtRp1629
(dp1630
g76
(dp1631
g84
I4
ssg85
g1625
sg78
(lp1632
g71
(g80
g73
NtRp1633
(dp1634
g76
(dp1635
g84
I3
ssg85
Nsg78
(lp1636
sbasbasbasbag71
(g87
g73
NtRp1637
(dp1638
g76
(dp1639
sg85
g1568
sg78
(lp1640
g71
(g92
g73
NtRp1641
(dp1642
g76
(dp1643
g96
g97
ssg85
g1637
sg78
(lp1644
g546
asbag71
(g92
g73
NtRp1645
(dp1646
g76
(dp1647
g103
g104
ssg85
g1637
sg78
(lp1648
S':'
asbag71
(g92
g73
NtRp1649
(dp1650
g76
(dp1651
sg85
g1637
sg78
(lp1652
g71
(g72
g73
NtRp1653
(dp1654
g76
(dp1655
g84
I4
ssg85
g1649
sg78
(lp1656
S"<Values at 0x34150e0: {'verbose': False, 'ip': '127.0.0.1', 'shutdown_timeout': 5, 'taskbar': False, 'nocron': False, 'pid_filename': 'httpserver.pid', 'maxthreads': None, 'softcron': False, 'server_name': 'whisperer', 'bpython': False, 'nogui': False, 'port': 8000, 'extcron': False, 'debuglevel': 30, 'test': None, 'folder': '/home/goshawk/web2py', 'config': '', 'import_models': False, 'winservice': '', 'shell': None, 'run': '', 'log_filename': 'httpserver.log', 'args': [''], 'socket_timeout': 5, 'ssl_ca_certificate': None, 'scheduler': None, 'profiler_filename': None, 'ssl_private_key': '', 'password': 'admin', 'request_queue_size': 5, 'ssl_certificate': '', 'cronjob': False, 'numthreads': None, 'quiet': False, 'interfaces': None, 'minthreads': None, 'timeout': 10, 'plain': False, 'nobanner': False}>"
p1657
asbasbasbag71
(g87
g73
NtRp1658
(dp1659
g76
(dp1660
sg85
g1568
sg78
(lp1661
g71
(g92
g73
NtRp1662
(dp1663
g76
(dp1664
g96
g97
ssg85
g1658
sg78
(lp1665
g568
asbag71
(g92
g73
NtRp1666
(dp1667
g76
(dp1668
g103
g104
ssg85
g1658
sg78
(lp1669
S':'
asbag71
(g92
g73
NtRp1670
(dp1671
g76
(dp1672
sg85
g1658
sg78
(lp1673
g71
(g72
g73
NtRp1674
(dp1675
g76
(dp1676
g84
I4
ssg85
g1670
sg78
(lp1677
S'set([])'
p1678
asbasbasbag71
(g87
g73
NtRp1679
(dp1680
g76
(dp1681
sg85
g1568
sg78
(lp1682
g71
(g92
g73
NtRp1683
(dp1684
g76
(dp1685
g96
g97
ssg85
g1679
sg78
(lp1686
g590
asbag71
(g92
g73
NtRp1687
(dp1688
g76
(dp1689
g103
g104
ssg85
g1679
sg78
(lp1690
S':'
asbag71
(g92
g73
NtRp1691
(dp1692
g76
(dp1693
sg85
g1679
sg78
(lp1694
g71
(g72
g73
NtRp1695
(dp1696
g76
(dp1697
g84
I4
ssg85
g1691
sg78
(lp1698
g49
asbasbasbag71
(g87
g73
NtRp1699
(dp1700
g76
(dp1701
sg85
g1568
sg78
(lp1702
g71
(g92
g73
NtRp1703
(dp1704
g76
(dp1705
g96
g97
ssg85
g1699
sg78
(lp1706
g611
asbag71
(g92
g73
NtRp1707
(dp1708
g76
(dp1709
g103
g104
ssg85
g1699
sg78
(lp1710
S':'
asbag71
(g92
g73
NtRp1711
(dp1712
g76
(dp1713
sg85
g1699
sg78
(lp1714
g71
(g72
g73
NtRp1715
(dp1716
g76
(dp1717
g84
I4
ssg85
g1711
sg78
(lp1718
g624
asbasbasbag71
(g87
g73
NtRp1719
(dp1720
g76
(dp1721
sg85
g1568
sg78
(lp1722
g71
(g92
g73
NtRp1723
(dp1724
g76
(dp1725
g96
g97
ssg85
g1719
sg78
(lp1726
g831
asbag71
(g92
g73
NtRp1727
(dp1728
g76
(dp1729
g103
g104
ssg85
g1719
sg78
(lp1730
S':'
asbag71
(g92
g73
NtRp1731
(dp1732
g76
(dp1733
sg85
g1719
sg78
(lp1734
g71
(g72
g73
NtRp1735
(dp1736
g76
(dp1737
g84
I4
ssg85
g1731
sg78
(lp1738
g49
asbasbasbag71
(g87
g73
NtRp1739
(dp1740
g76
(dp1741
sg85
g1568
sg78
(lp1742
g71
(g92
g73
NtRp1743
(dp1744
g76
(dp1745
g96
g97
ssg85
g1739
sg78
(lp1746
g852
asbag71
(g92
g73
NtRp1747
(dp1748
g76
(dp1749
g103
g104
ssg85
g1739
sg78
(lp1750
S':'
asbag71
(g92
g73
NtRp1751
(dp1752
g76
(dp1753
sg85
g1739
sg78
(lp1754
g71
(g72
g73
NtRp1755
(dp1756
g76
(dp1757
g84
I4
ssg85
g1751
sg78
(lp1758
g49
asbasbasbag71
(g87
g73
NtRp1759
(dp1760
g76
(dp1761
sg85
g1568
sg78
(lp1762
g71
(g92
g73
NtRp1763
(dp1764
g76
(dp1765
g96
g97
ssg85
g1759
sg78
(lp1766
g1111
asbag71
(g92
g73
NtRp1767
(dp1768
g76
(dp1769
g103
g104
ssg85
g1759
sg78
(lp1770
S':'
asbag71
(g92
g73
NtRp1771
(dp1772
g76
(dp1773
sg85
g1759
sg78
(lp1774
g71
(g72
g73
NtRp1775
(dp1776
g76
(dp1777
g84
I4
ssg85
g1771
sg78
(lp1778
g1124
asbasbasbag71
(g87
g73
NtRp1779
(dp1780
g76
(dp1781
sg85
g1568
sg78
(lp1782
g71
(g92
g73
NtRp1783
(dp1784
g76
(dp1785
g96
g97
ssg85
g1779
sg78
(lp1786
g1175
asbag71
(g92
g73
NtRp1787
(dp1788
g76
(dp1789
g103
g104
ssg85
g1779
sg78
(lp1790
S':'
asbag71
(g92
g73
NtRp1791
(dp1792
g76
(dp1793
sg85
g1779
sg78
(lp1794
g71
(g72
g73
NtRp1795
(dp1796
g76
(dp1797
g84
I4
ssg85
g1791
sg78
(lp1798
g71
(g80
g73
NtRp1799
(dp1800
g76
(dp1801
g84
I3
ssg85
Nsg78
(lp1802
g71
(g87
g73
NtRp1803
(dp1804
g76
(dp1805
sg85
g1799
sg78
(lp1806
g71
(g92
g73
NtRp1807
(dp1808
g76
(dp1809
sg85
g1803
sg78
(lp1810
g71
(g72
g73
NtRp1811
(dp1812
g76
(dp1813
g84
I3
ssg85
g1807
sg78
(lp1814
S'1'
asbasbasbag71
(g87
g73
NtRp1815
(dp1816
g76
(dp1817
sg85
g1799
sg78
(lp1818
g71
(g92
g73
NtRp1819
(dp1820
g76
(dp1821
sg85
g1815
sg78
(lp1822
g71
(g72
g73
NtRp1823
(dp1824
g76
(dp1825
g84
I3
ssg85
g1819
sg78
(lp1826
S'99'
p1827
asbasbasbag71
(g87
g73
NtRp1828
(dp1829
g76
(dp1830
sg85
g1799
sg78
(lp1831
g71
(g92
g73
NtRp1832
(dp1833
g76
(dp1834
sg85
g1828
sg78
(lp1835
g71
(g72
g73
NtRp1836
(dp1837
g76
(dp1838
g84
I3
ssg85
g1832
sg78
(lp1839
S'7'
asbasbasbag71
(g87
g73
NtRp1840
(dp1841
g76
(dp1842
sg85
g1799
sg78
(lp1843
g71
(g92
g73
NtRp1844
(dp1845
g76
(dp1846
sg85
g1840
sg78
(lp1847
g71
(g72
g73
NtRp1848
(dp1849
g76
(dp1850
g84
I3
ssg85
g1844
sg78
(lp1851
S'datetime.datetime(2012, 3, 4, 22, 12, 8)'
p1852
asbasbasbag71
(g87
g73
NtRp1853
(dp1854
g76
(dp1855
sg85
g1799
sg78
(lp1856
g71
(g92
g73
NtRp1857
(dp1858
g76
(dp1859
sg85
g1853
sg78
(lp1860
g71
(g72
g73
NtRp1861
(dp1862
g76
(dp1863
g84
I3
ssg85
g1857
sg78
(lp1864
g1254
asbasbasbasbasbasbasbasbasbasbasbag71
(g87
g73
NtRp1865
(dp1866
g76
(dp1867
sg85
g81
sg78
(lp1868
g71
(g92
g73
NtRp1869
(dp1870
g76
(dp1871
g96
g97
ssg85
g1865
sg78
(lp1872
S'is_https'
p1873
asbag71
(g92
g73
NtRp1874
(dp1875
g76
(dp1876
g103
g104
ssg85
g1865
sg78
(lp1877
S':'
asbag71
(g92
g73
NtRp1878
(dp1879
g76
(dp1880
sg85
g1865
sg78
(lp1881
g71
(g72
g73
NtRp1882
(dp1883
g76
(dp1884
g84
I5
ssg85
g1878
sg78
(lp1885
g49
asbasbasbag71
(g87
g73
NtRp1886
(dp1887
g76
(dp1888
sg85
g81
sg78
(lp1889
g71
(g92
g73
NtRp1890
(dp1891
g76
(dp1892
g96
g97
ssg85
g1886
sg78
(lp1893
S'is_local'
p1894
asbag71
(g92
g73
NtRp1895
(dp1896
g76
(dp1897
g103
g104
ssg85
g1886
sg78
(lp1898
S':'
asbag71
(g92
g73
NtRp1899
(dp1900
g76
(dp1901
sg85
g1886
sg78
(lp1902
g71
(g72
g73
NtRp1903
(dp1904
g76
(dp1905
g84
I5
ssg85
g1899
sg78
(lp1906
g1363
asbasbasbag71
(g87
g73
NtRp1907
(dp1908
g76
(dp1909
sg85
g81
sg78
(lp1910
g71
(g92
g73
NtRp1911
(dp1912
g76
(dp1913
g96
g97
ssg85
g1907
sg78
(lp1914
S'is_restful'
p1915
asbag71
(g92
g73
NtRp1916
(dp1917
g76
(dp1918
g103
g104
ssg85
g1907
sg78
(lp1919
S':'
asbag71
(g92
g73
NtRp1920
(dp1921
g76
(dp1922
sg85
g1907
sg78
(lp1923
g71
(g72
g73
NtRp1924
(dp1925
g76
(dp1926
g84
I5
ssg85
g1920
sg78
(lp1927
g49
asbasbasbag71
(g87
g73
NtRp1928
(dp1929
g76
(dp1930
sg85
g81
sg78
(lp1931
g71
(g92
g73
NtRp1932
(dp1933
g76
(dp1934
g96
g97
ssg85
g1928
sg78
(lp1935
S'now'
p1936
asbag71
(g92
g73
NtRp1937
(dp1938
g76
(dp1939
g103
g104
ssg85
g1928
sg78
(lp1940
S':'
asbag71
(g92
g73
NtRp1941
(dp1942
g76
(dp1943
sg85
g1928
sg78
(lp1944
g71
(g72
g73
NtRp1945
(dp1946
g76
(dp1947
g84
I5
ssg85
g1941
sg78
(lp1948
S'datetime.datetime(2012, 7, 15, 2, 0, 22, 965250)'
p1949
asbasbasbag71
(g87
g73
NtRp1950
(dp1951
g76
(dp1952
sg85
g81
sg78
(lp1953
g71
(g92
g73
NtRp1954
(dp1955
g76
(dp1956
g96
g97
ssg85
g1950
sg78
(lp1957
S'post_vars'
p1958
asbag71
(g92
g73
NtRp1959
(dp1960
g76
(dp1961
g103
g104
ssg85
g1950
sg78
(lp1962
S':'
asbag71
(g92
g73
NtRp1963
(dp1964
g76
(dp1965
sg85
g1950
sg78
(lp1966
g71
(g72
g73
NtRp1967
(dp1968
g76
(dp1969
g84
I5
ssg85
g1963
sg78
(lp1970
g71
(g80
g73
NtRp1971
(dp1972
g76
(dp1973
g84
I4
ssg85
Nsg78
(lp1974
sbasbasbasbag71
(g87
g73
NtRp1975
(dp1976
g76
(dp1977
sg85
g81
sg78
(lp1978
g71
(g92
g73
NtRp1979
(dp1980
g76
(dp1981
g96
g97
ssg85
g1975
sg78
(lp1982
S'url'
p1983
asbag71
(g92
g73
NtRp1984
(dp1985
g76
(dp1986
g103
g104
ssg85
g1975
sg78
(lp1987
S':'
asbag71
(g92
g73
NtRp1988
(dp1989
g76
(dp1990
sg85
g1975
sg78
(lp1991
g71
(g72
g73
NtRp1992
(dp1993
g76
(dp1994
g84
I5
ssg85
g1988
sg78
(lp1995
S'/milo/admin/index'
p1996
asbasbasbag71
(g87
g73
NtRp1997
(dp1998
g76
(dp1999
sg85
g81
sg78
(lp2000
g71
(g92
g73
NtRp2001
(dp2002
g76
(dp2003
g96
g97
ssg85
g1997
sg78
(lp2004
S'utcnow'
p2005
asbag71
(g92
g73
NtRp2006
(dp2007
g76
(dp2008
g103
g104
ssg85
g1997
sg78
(lp2009
S':'
asbag71
(g92
g73
NtRp2010
(dp2011
g76
(dp2012
sg85
g1997
sg78
(lp2013
g71
(g72
g73
NtRp2014
(dp2015
g76
(dp2016
g84
I5
ssg85
g2010
sg78
(lp2017
S'datetime.datetime(2012, 7, 15, 0, 0, 22, 965271)'
p2018
asbasbasbag71
(g87
g73
NtRp2019
(dp2020
g76
(dp2021
sg85
g81
sg78
(lp2022
g71
(g92
g73
NtRp2023
(dp2024
g76
(dp2025
g96
g97
ssg85
g2019
sg78
(lp2026
S'uuid'
p2027
asbag71
(g92
g73
NtRp2028
(dp2029
g76
(dp2030
g103
g104
ssg85
g2019
sg78
(lp2031
S':'
asbag71
(g92
g73
NtRp2032
(dp2033
g76
(dp2034
sg85
g2019
sg78
(lp2035
g71
(g72
g73
NtRp2036
(dp2037
g76
(dp2038
g84
I5
ssg85
g2032
sg78
(lp2039
S'milo/127.0.0.1.2012-07-15.02-00-22.cdffd6cc-ef8a-4905-babf-b7b479771aef'
p2040
asbasbasbag71
(g87
g73
NtRp2041
(dp2042
g76
(dp2043
sg85
g81
sg78
(lp2044
g71
(g92
g73
NtRp2045
(dp2046
g76
(dp2047
g96
g97
ssg85
g2041
sg78
(lp2048
S'vars'
p2049
asbag71
(g92
g73
NtRp2050
(dp2051
g76
(dp2052
g103
g104
ssg85
g2041
sg78
(lp2053
S':'
asbag71
(g92
g73
NtRp2054
(dp2055
g76
(dp2056
sg85
g2041
sg78
(lp2057
g71
(g72
g73
NtRp2058
(dp2059
g76
(dp2060
g84
I5
ssg85
g2054
sg78
(lp2061
g71
(g80
g73
NtRp2062
(dp2063
g76
(dp2064
g84
I4
ssg85
Nsg78
(lp2065
sbasbasbasbag71
(g87
g73
NtRp2066
(dp2067
g76
(dp2068
sg85
g81
sg78
(lp2069
g71
(g92
g73
NtRp2070
(dp2071
g76
(dp2072
g96
g97
ssg85
g2066
sg78
(lp2073
S'wsgi'
p2074
asbag71
(g92
g73
NtRp2075
(dp2076
g76
(dp2077
g103
g104
ssg85
g2066
sg78
(lp2078
S':'
asbag71
(g92
g73
NtRp2079
(dp2080
g76
(dp2081
sg85
g2066
sg78
(lp2082
g71
(g72
g73
NtRp2083
(dp2084
g76
(dp2085
g84
I5
ssg85
g2079
sg78
(lp2086
g71
(g80
g73
NtRp2087
(dp2088
g76
(dp2089
g84
I4
ssg85
Nsg78
(lp2090
g71
(g87
g73
NtRp2091
(dp2092
g76
(dp2093
sg85
g2087
sg78
(lp2094
g71
(g92
g73
NtRp2095
(dp2096
g76
(dp2097
g96
g97
ssg85
g2091
sg78
(lp2098
S'environ'
p2099
asbag71
(g92
g73
NtRp2100
(dp2101
g76
(dp2102
g103
g104
ssg85
g2091
sg78
(lp2103
S':'
asbag71
(g92
g73
NtRp2104
(dp2105
g76
(dp2106
sg85
g2091
sg78
(lp2107
g71
(g72
g73
NtRp2108
(dp2109
g76
(dp2110
g84
I4
ssg85
g2104
sg78
(lp2111
g71
(g80
g73
NtRp2112
(dp2113
g76
(dp2114
g84
I3
ssg85
Nsg78
(lp2115
g71
(g87
g73
NtRp2116
(dp2117
g76
(dp2118
sg85
g2112
sg78
(lp2119
g71
(g92
g73
NtRp2120
(dp2121
g76
(dp2122
g96
g97
ssg85
g2116
sg78
(lp2123
S'HTTP_ACCEPT'
p2124
asbag71
(g92
g73
NtRp2125
(dp2126
g76
(dp2127
g103
g104
ssg85
g2116
sg78
(lp2128
S':'
asbag71
(g92
g73
NtRp2129
(dp2130
g76
(dp2131
sg85
g2116
sg78
(lp2132
g71
(g72
g73
NtRp2133
(dp2134
g76
(dp2135
g84
I3
ssg85
g2129
sg78
(lp2136
g646
asbasbasbag71
(g87
g73
NtRp2137
(dp2138
g76
(dp2139
sg85
g2112
sg78
(lp2140
g71
(g92
g73
NtRp2141
(dp2142
g76
(dp2143
g96
g97
ssg85
g2137
sg78
(lp2144
S'HTTP_ACCEPT_CHARSET'
p2145
asbag71
(g92
g73
NtRp2146
(dp2147
g76
(dp2148
g103
g104
ssg85
g2137
sg78
(lp2149
S':'
asbag71
(g92
g73
NtRp2150
(dp2151
g76
(dp2152
sg85
g2137
sg78
(lp2153
g71
(g72
g73
NtRp2154
(dp2155
g76
(dp2156
g84
I3
ssg85
g2150
sg78
(lp2157
g668
asbasbasbag71
(g87
g73
NtRp2158
(dp2159
g76
(dp2160
sg85
g2112
sg78
(lp2161
g71
(g92
g73
NtRp2162
(dp2163
g76
(dp2164
g96
g97
ssg85
g2158
sg78
(lp2165
S'HTTP_ACCEPT_ENCODING'
p2166
asbag71
(g92
g73
NtRp2167
(dp2168
g76
(dp2169
g103
g104
ssg85
g2158
sg78
(lp2170
S':'
asbag71
(g92
g73
NtRp2171
(dp2172
g76
(dp2173
sg85
g2158
sg78
(lp2174
g71
(g72
g73
NtRp2175
(dp2176
g76
(dp2177
g84
I3
ssg85
g2171
sg78
(lp2178
g690
asbasbasbag71
(g87
g73
NtRp2179
(dp2180
g76
(dp2181
sg85
g2112
sg78
(lp2182
g71
(g92
g73
NtRp2183
(dp2184
g76
(dp2185
g96
g97
ssg85
g2179
sg78
(lp2186
S'HTTP_ACCEPT_LANGUAGE'
p2187
asbag71
(g92
g73
NtRp2188
(dp2189
g76
(dp2190
g103
g104
ssg85
g2179
sg78
(lp2191
S':'
asbag71
(g92
g73
NtRp2192
(dp2193
g76
(dp2194
sg85
g2179
sg78
(lp2195
g71
(g72
g73
NtRp2196
(dp2197
g76
(dp2198
g84
I3
ssg85
g2192
sg78
(lp2199
g712
asbasbasbag71
(g87
g73
NtRp2200
(dp2201
g76
(dp2202
sg85
g2112
sg78
(lp2203
g71
(g92
g73
NtRp2204
(dp2205
g76
(dp2206
g96
g97
ssg85
g2200
sg78
(lp2207
S'HTTP_CACHE_CONTROL'
p2208
asbag71
(g92
g73
NtRp2209
(dp2210
g76
(dp2211
g103
g104
ssg85
g2200
sg78
(lp2212
S':'
asbag71
(g92
g73
NtRp2213
(dp2214
g76
(dp2215
sg85
g2200
sg78
(lp2216
g71
(g72
g73
NtRp2217
(dp2218
g76
(dp2219
g84
I3
ssg85
g2213
sg78
(lp2220
g734
asbasbasbag71
(g87
g73
NtRp2221
(dp2222
g76
(dp2223
sg85
g2112
sg78
(lp2224
g71
(g92
g73
NtRp2225
(dp2226
g76
(dp2227
g96
g97
ssg85
g2221
sg78
(lp2228
S'HTTP_CONNECTION'
p2229
asbag71
(g92
g73
NtRp2230
(dp2231
g76
(dp2232
g103
g104
ssg85
g2221
sg78
(lp2233
S':'
asbag71
(g92
g73
NtRp2234
(dp2235
g76
(dp2236
sg85
g2221
sg78
(lp2237
g71
(g72
g73
NtRp2238
(dp2239
g76
(dp2240
g84
I3
ssg85
g2234
sg78
(lp2241
g756
asbasbasbag71
(g87
g73
NtRp2242
(dp2243
g76
(dp2244
sg85
g2112
sg78
(lp2245
g71
(g92
g73
NtRp2246
(dp2247
g76
(dp2248
g96
g97
ssg85
g2242
sg78
(lp2249
S'HTTP_COOKIE'
p2250
asbag71
(g92
g73
NtRp2251
(dp2252
g76
(dp2253
g103
g104
ssg85
g2242
sg78
(lp2254
S':'
asbag71
(g92
g73
NtRp2255
(dp2256
g76
(dp2257
sg85
g2242
sg78
(lp2258
g71
(g72
g73
NtRp2259
(dp2260
g76
(dp2261
g84
I3
ssg85
g2255
sg78
(lp2262
g778
asbasbasbag71
(g87
g73
NtRp2263
(dp2264
g76
(dp2265
sg85
g2112
sg78
(lp2266
g71
(g92
g73
NtRp2267
(dp2268
g76
(dp2269
g96
g97
ssg85
g2263
sg78
(lp2270
S'HTTP_HOST'
p2271
asbag71
(g92
g73
NtRp2272
(dp2273
g76
(dp2274
g103
g104
ssg85
g2263
sg78
(lp2275
S':'
asbag71
(g92
g73
NtRp2276
(dp2277
g76
(dp2278
sg85
g2263
sg78
(lp2279
g71
(g72
g73
NtRp2280
(dp2281
g76
(dp2282
g84
I3
ssg85
g2276
sg78
(lp2283
g800
asbasbasbag71
(g87
g73
NtRp2284
(dp2285
g76
(dp2286
sg85
g2112
sg78
(lp2287
g71
(g92
g73
NtRp2288
(dp2289
g76
(dp2290
g96
g97
ssg85
g2284
sg78
(lp2291
S'HTTP_USER_AGENT'
p2292
asbag71
(g92
g73
NtRp2293
(dp2294
g76
(dp2295
g103
g104
ssg85
g2284
sg78
(lp2296
S':'
asbag71
(g92
g73
NtRp2297
(dp2298
g76
(dp2299
sg85
g2284
sg78
(lp2300
g71
(g72
g73
NtRp2301
(dp2302
g76
(dp2303
g84
I3
ssg85
g2297
sg78
(lp2304
g822
asbasbasbag71
(g87
g73
NtRp2305
(dp2306
g76
(dp2307
sg85
g2112
sg78
(lp2308
g71
(g92
g73
NtRp2309
(dp2310
g76
(dp2311
g96
g97
ssg85
g2305
sg78
(lp2312
S'PATH_INFO'
p2313
asbag71
(g92
g73
NtRp2314
(dp2315
g76
(dp2316
g103
g104
ssg85
g2305
sg78
(lp2317
S':'
asbag71
(g92
g73
NtRp2318
(dp2319
g76
(dp2320
sg85
g2305
sg78
(lp2321
g71
(g72
g73
NtRp2322
(dp2323
g76
(dp2324
g84
I3
ssg85
g2318
sg78
(lp2325
g886
asbasbasbag71
(g87
g73
NtRp2326
(dp2327
g76
(dp2328
sg85
g2112
sg78
(lp2329
g71
(g92
g73
NtRp2330
(dp2331
g76
(dp2332
g96
g97
ssg85
g2326
sg78
(lp2333
S'QUERY_STRING'
p2334
asbag71
(g92
g73
NtRp2335
(dp2336
g76
(dp2337
g103
g104
ssg85
g2326
sg78
(lp2338
S':'
asbag71
(g92
g73
NtRp2339
(dp2340
g76
(dp2341
sg85
g2326
sg78
(lp2342
g71
(g72
g73
NtRp2343
(dp2344
g76
(dp2345
g84
I3
ssg85
g2339
sg78
(lp2346
S''
asbasbasbag71
(g87
g73
NtRp2347
(dp2348
g76
(dp2349
sg85
g2112
sg78
(lp2350
g71
(g92
g73
NtRp2351
(dp2352
g76
(dp2353
g96
g97
ssg85
g2347
sg78
(lp2354
S'REMOTE_ADDR'
p2355
asbag71
(g92
g73
NtRp2356
(dp2357
g76
(dp2358
g103
g104
ssg85
g2347
sg78
(lp2359
S':'
asbag71
(g92
g73
NtRp2360
(dp2361
g76
(dp2362
sg85
g2347
sg78
(lp2363
g71
(g72
g73
NtRp2364
(dp2365
g76
(dp2366
g84
I3
ssg85
g2360
sg78
(lp2367
g203
asbasbasbag71
(g87
g73
NtRp2368
(dp2369
g76
(dp2370
sg85
g2112
sg78
(lp2371
g71
(g92
g73
NtRp2372
(dp2373
g76
(dp2374
g96
g97
ssg85
g2368
sg78
(lp2375
S'REMOTE_PORT'
p2376
asbag71
(g92
g73
NtRp2377
(dp2378
g76
(dp2379
g103
g104
ssg85
g2368
sg78
(lp2380
S':'
asbag71
(g92
g73
NtRp2381
(dp2382
g76
(dp2383
sg85
g2368
sg78
(lp2384
g71
(g72
g73
NtRp2385
(dp2386
g76
(dp2387
g84
I3
ssg85
g2381
sg78
(lp2388
g950
asbasbasbag71
(g87
g73
NtRp2389
(dp2390
g76
(dp2391
sg85
g2112
sg78
(lp2392
g71
(g92
g73
NtRp2393
(dp2394
g76
(dp2395
g96
g97
ssg85
g2389
sg78
(lp2396
S'REQUEST_METHOD'
p2397
asbag71
(g92
g73
NtRp2398
(dp2399
g76
(dp2400
g103
g104
ssg85
g2389
sg78
(lp2401
S':'
asbag71
(g92
g73
NtRp2402
(dp2403
g76
(dp2404
sg85
g2389
sg78
(lp2405
g71
(g72
g73
NtRp2406
(dp2407
g76
(dp2408
g84
I3
ssg85
g2402
sg78
(lp2409
g972
asbasbasbag71
(g87
g73
NtRp2410
(dp2411
g76
(dp2412
sg85
g2112
sg78
(lp2413
g71
(g92
g73
NtRp2414
(dp2415
g76
(dp2416
g96
g97
ssg85
g2410
sg78
(lp2417
S'REQUEST_URI'
p2418
asbag71
(g92
g73
NtRp2419
(dp2420
g76
(dp2421
g103
g104
ssg85
g2410
sg78
(lp2422
S':'
asbag71
(g92
g73
NtRp2423
(dp2424
g76
(dp2425
sg85
g2410
sg78
(lp2426
g71
(g72
g73
NtRp2427
(dp2428
g76
(dp2429
g84
I3
ssg85
g2423
sg78
(lp2430
g886
asbasbasbag71
(g87
g73
NtRp2431
(dp2432
g76
(dp2433
sg85
g2112
sg78
(lp2434
g71
(g92
g73
NtRp2435
(dp2436
g76
(dp2437
g96
g97
ssg85
g2431
sg78
(lp2438
S'SCRIPT_NAME'
p2439
asbag71
(g92
g73
NtRp2440
(dp2441
g76
(dp2442
g103
g104
ssg85
g2431
sg78
(lp2443
S':'
asbag71
(g92
g73
NtRp2444
(dp2445
g76
(dp2446
sg85
g2431
sg78
(lp2447
g71
(g72
g73
NtRp2448
(dp2449
g76
(dp2450
g84
I3
ssg85
g2444
sg78
(lp2451
S''
asbasbasbag71
(g87
g73
NtRp2452
(dp2453
g76
(dp2454
sg85
g2112
sg78
(lp2455
g71
(g92
g73
NtRp2456
(dp2457
g76
(dp2458
g96
g97
ssg85
g2452
sg78
(lp2459
S'SERVER_NAME'
p2460
asbag71
(g92
g73
NtRp2461
(dp2462
g76
(dp2463
g103
g104
ssg85
g2452
sg78
(lp2464
S':'
asbag71
(g92
g73
NtRp2465
(dp2466
g76
(dp2467
sg85
g2452
sg78
(lp2468
g71
(g72
g73
NtRp2469
(dp2470
g76
(dp2471
g84
I3
ssg85
g2465
sg78
(lp2472
g1036
asbasbasbag71
(g87
g73
NtRp2473
(dp2474
g76
(dp2475
sg85
g2112
sg78
(lp2476
g71
(g92
g73
NtRp2477
(dp2478
g76
(dp2479
g96
g97
ssg85
g2473
sg78
(lp2480
S'SERVER_PORT'
p2481
asbag71
(g92
g73
NtRp2482
(dp2483
g76
(dp2484
g103
g104
ssg85
g2473
sg78
(lp2485
S':'
asbag71
(g92
g73
NtRp2486
(dp2487
g76
(dp2488
sg85
g2473
sg78
(lp2489
g71
(g72
g73
NtRp2490
(dp2491
g76
(dp2492
g84
I3
ssg85
g2486
sg78
(lp2493
g1058
asbasbasbag71
(g87
g73
NtRp2494
(dp2495
g76
(dp2496
sg85
g2112
sg78
(lp2497
g71
(g92
g73
NtRp2498
(dp2499
g76
(dp2500
g96
g97
ssg85
g2494
sg78
(lp2501
S'SERVER_PROTOCOL'
p2502
asbag71
(g92
g73
NtRp2503
(dp2504
g76
(dp2505
g103
g104
ssg85
g2494
sg78
(lp2506
S':'
asbag71
(g92
g73
NtRp2507
(dp2508
g76
(dp2509
sg85
g2494
sg78
(lp2510
g71
(g72
g73
NtRp2511
(dp2512
g76
(dp2513
g84
I3
ssg85
g2507
sg78
(lp2514
g1080
asbasbasbag71
(g87
g73
NtRp2515
(dp2516
g76
(dp2517
sg85
g2112
sg78
(lp2518
g71
(g92
g73
NtRp2519
(dp2520
g76
(dp2521
g96
g97
ssg85
g2515
sg78
(lp2522
S'SERVER_SOFTWARE'
p2523
asbag71
(g92
g73
NtRp2524
(dp2525
g76
(dp2526
g103
g104
ssg85
g2515
sg78
(lp2527
S':'
asbag71
(g92
g73
NtRp2528
(dp2529
g76
(dp2530
sg85
g2515
sg78
(lp2531
g71
(g72
g73
NtRp2532
(dp2533
g76
(dp2534
g84
I3
ssg85
g2528
sg78
(lp2535
g1102
asbasbasbag71
(g87
g73
NtRp2536
(dp2537
g76
(dp2538
sg85
g2112
sg78
(lp2539
g71
(g92
g73
NtRp2540
(dp2541
g76
(dp2542
g96
g97
ssg85
g2536
sg78
(lp2543
S'WEB2PY_ORIGINAL_URI'
p2544
asbag71
(g92
g73
NtRp2545
(dp2546
g76
(dp2547
g103
g104
ssg85
g2536
sg78
(lp2548
S':'
asbag71
(g92
g73
NtRp2549
(dp2550
g76
(dp2551
sg85
g2536
sg78
(lp2552
g71
(g72
g73
NtRp2553
(dp2554
g76
(dp2555
g84
I3
ssg85
g2549
sg78
(lp2556
g886
asbasbasbag71
(g87
g73
NtRp2557
(dp2558
g76
(dp2559
sg85
g2112
sg78
(lp2560
g71
(g92
g73
NtRp2561
(dp2562
g76
(dp2563
g96
g97
ssg85
g2557
sg78
(lp2564
S'wsgi.errors'
p2565
asbag71
(g92
g73
NtRp2566
(dp2567
g76
(dp2568
g103
g104
ssg85
g2557
sg78
(lp2569
S':'
asbag71
(g92
g73
NtRp2570
(dp2571
g76
(dp2572
sg85
g2557
sg78
(lp2573
g71
(g72
g73
NtRp2574
(dp2575
g76
(dp2576
g84
I3
ssg85
g2570
sg78
(lp2577
S"<open file '<stderr>', mode 'w' at 0x7f43fec2c270>"
p2578
asbasbasbag71
(g87
g73
NtRp2579
(dp2580
g76
(dp2581
sg85
g2112
sg78
(lp2582
g71
(g92
g73
NtRp2583
(dp2584
g76
(dp2585
g96
g97
ssg85
g2579
sg78
(lp2586
S'wsgi.file_wrapper'
p2587
asbag71
(g92
g73
NtRp2588
(dp2589
g76
(dp2590
g103
g104
ssg85
g2579
sg78
(lp2591
S':'
asbag71
(g92
g73
NtRp2592
(dp2593
g76
(dp2594
sg85
g2579
sg78
(lp2595
g71
(g72
g73
NtRp2596
(dp2597
g76
(dp2598
g84
I3
ssg85
g2592
sg78
(lp2599
S'<class wsgiref.util.FileWrapper at 0x3341f58>'
p2600
asbasbasbag71
(g87
g73
NtRp2601
(dp2602
g76
(dp2603
sg85
g2112
sg78
(lp2604
g71
(g92
g73
NtRp2605
(dp2606
g76
(dp2607
g96
g97
ssg85
g2601
sg78
(lp2608
S'wsgi.input'
p2609
asbag71
(g92
g73
NtRp2610
(dp2611
g76
(dp2612
g103
g104
ssg85
g2601
sg78
(lp2613
S':'
asbag71
(g92
g73
NtRp2614
(dp2615
g76
(dp2616
sg85
g2601
sg78
(lp2617
g71
(g72
g73
NtRp2618
(dp2619
g76
(dp2620
g84
I3
ssg85
g2614
sg78
(lp2621
S'<cStringIO.StringO object at 0x7f43e94d9ed8>'
p2622
asbasbasbag71
(g87
g73
NtRp2623
(dp2624
g76
(dp2625
sg85
g2112
sg78
(lp2626
g71
(g92
g73
NtRp2627
(dp2628
g76
(dp2629
g96
g97
ssg85
g2623
sg78
(lp2630
S'wsgi.multiprocess'
p2631
asbag71
(g92
g73
NtRp2632
(dp2633
g76
(dp2634
g103
g104
ssg85
g2623
sg78
(lp2635
S':'
asbag71
(g92
g73
NtRp2636
(dp2637
g76
(dp2638
sg85
g2623
sg78
(lp2639
g71
(g72
g73
NtRp2640
(dp2641
g76
(dp2642
g84
I3
ssg85
g2636
sg78
(lp2643
g49
asbasbasbag71
(g87
g73
NtRp2644
(dp2645
g76
(dp2646
sg85
g2112
sg78
(lp2647
g71
(g92
g73
NtRp2648
(dp2649
g76
(dp2650
g96
g97
ssg85
g2644
sg78
(lp2651
S'wsgi.multithread'
p2652
asbag71
(g92
g73
NtRp2653
(dp2654
g76
(dp2655
g103
g104
ssg85
g2644
sg78
(lp2656
S':'
asbag71
(g92
g73
NtRp2657
(dp2658
g76
(dp2659
sg85
g2644
sg78
(lp2660
g71
(g72
g73
NtRp2661
(dp2662
g76
(dp2663
g84
I3
ssg85
g2657
sg78
(lp2664
g1363
asbasbasbag71
(g87
g73
NtRp2665
(dp2666
g76
(dp2667
sg85
g2112
sg78
(lp2668
g71
(g92
g73
NtRp2669
(dp2670
g76
(dp2671
g96
g97
ssg85
g2665
sg78
(lp2672
S'wsgi.run_once'
p2673
asbag71
(g92
g73
NtRp2674
(dp2675
g76
(dp2676
g103
g104
ssg85
g2665
sg78
(lp2677
S':'
asbag71
(g92
g73
NtRp2678
(dp2679
g76
(dp2680
sg85
g2665
sg78
(lp2681
g71
(g72
g73
NtRp2682
(dp2683
g76
(dp2684
g84
I3
ssg85
g2678
sg78
(lp2685
g49
asbasbasbag71
(g87
g73
NtRp2686
(dp2687
g76
(dp2688
sg85
g2112
sg78
(lp2689
g71
(g92
g73
NtRp2690
(dp2691
g76
(dp2692
g96
g97
ssg85
g2686
sg78
(lp2693
S'wsgi.url_scheme'
p2694
asbag71
(g92
g73
NtRp2695
(dp2696
g76
(dp2697
g103
g104
ssg85
g2686
sg78
(lp2698
S':'
asbag71
(g92
g73
NtRp2699
(dp2700
g76
(dp2701
sg85
g2686
sg78
(lp2702
g71
(g72
g73
NtRp2703
(dp2704
g76
(dp2705
g84
I3
ssg85
g2699
sg78
(lp2706
g1406
asbasbasbag71
(g87
g73
NtRp2707
(dp2708
g76
(dp2709
sg85
g2112
sg78
(lp2710
g71
(g92
g73
NtRp2711
(dp2712
g76
(dp2713
g96
g97
ssg85
g2707
sg78
(lp2714
S'wsgi.version'
p2715
asbag71
(g92
g73
NtRp2716
(dp2717
g76
(dp2718
g103
g104
ssg85
g2707
sg78
(lp2719
S':'
asbag71
(g92
g73
NtRp2720
(dp2721
g76
(dp2722
sg85
g2707
sg78
(lp2723
g71
(g72
g73
NtRp2724
(dp2725
g76
(dp2726
g84
I3
ssg85
g2720
sg78
(lp2727
S'1'
asbasbasbasbasbasbasbasbasbasbasbasbasbsS'frames'
p2728
(lp2729
(dp2730
S'file'
p2731
S'/home/goshawk/web2py/gluon/restricted.py'
p2732
sS'dump'
p2733
(dp2734
S'environment'
p2735
S"{'A': <class 'gluon.html.A'>, 'Auth': <class 'gluon.tools.Auth'>, 'B': <class 'gluon.html.B'>, 'BEAUTIFY': <class 'gluon.html.BEAUTIFY'>, 'BODY': <class 'gluon.html.BODY'>, 'BR': <class 'gluon.html.BR'>, 'BUTTON': <class 'gluon.html.BUTTON'>, 'CAT': <class 'gluon.html.CAT'>, 'CENTER': <class 'gluon.html.CENTER'>, 'CLEANUP': <class 'gluon.validators.CLEANUP'>, ...}"
p2736
sS'ccode'
p2737
S'<code object <module> at 0x7f43d4d976b0, file "/.../web2py/applications/milo/models/db.py", line 12>'
p2738
ssS'lnum'
p2739
I205
sS'lines'
p2740
(dp2741
I200
S'    try:'
p2742
sI201
S'        if type(code) == types.CodeType:'
p2743
sI202
S'            ccode = code'
p2744
sI203
S'        else:'
p2745
sI204
S'            ccode = compile2(code,layer)'
p2746
sI205
S'        exec ccode in environment'
p2747
sI206
S'    except HTTP:'
p2748
sI207
S'        raise'
p2749
sI208
S'    except RestrictedError:'
p2750
sI209
S'        # do not encapsulate (obfuscate) the original RestrictedError'
p2751
ssS'call'
p2752
S'(code="# -*- coding: utf-8 -*-\\n\\n#######################...t)),\\n        Field(\'times\', \'integer\')\\n        )\\n", environment={\'A\': <class \'gluon.html.A\'>, \'Auth\': <class \'gluon.tools.Auth\'>, \'B\': <class \'gluon.html.B\'>, \'BEAUTIFY\': <class \'gluon.html.BEAUTIFY\'>, \'BODY\': <class \'gluon.html.BODY\'>, \'BR\': <class \'gluon.html.BR\'>, \'BUTTON\': <class \'gluon.html.BUTTON\'>, \'CAT\': <class \'gluon.html.CAT\'>, \'CENTER\': <class \'gluon.html.CENTER\'>, \'CLEANUP\': <class \'gluon.validators.CLEANUP\'>, ...}, layer=\'/home/goshawk/web2py/applications/milo/models/db.py\')'
p2753
sS'func'
p2754
S'restricted'
p2755
sa(dp2756
g2731
S'/home/goshawk/web2py/applications/milo/models/db.py'
p2757
sg2733
(dp2758
S'imdb'
p2759
S"<module 'imdb' from '/usr/local/lib/python2.7/dist-packages/imdb/__init__.pyc'>"
p2760
sS'imdb_connection_str'
p2761
S"'postgres://imdb:imdbsecret@localhost/imdb'"
p2762
sS'imdb.IMDb'
p2763
S'<function IMDb>'
p2764
sS'im'
p2765
S'undefined'
p2766
sS'uri'
p2767
g2766
ssg2739
I86
sg2740
(dp2768
I81
S''
sI82
S'import imdb'
p2769
sI83
S''
sI84
S"imdb_connection_str = 'postgres://imdb:imdbsecret@localhost/imdb'"
p2770
sI85
S''
sI86
S"im = imdb.IMDb('sql', uri=imdb_connection_str)"
p2771
sI87
S''
sI88
S''
sI89
S"db.define_table('users',"
p2772
sI90
S"        Field('name'),"
p2773
ssg2752
S'()'
p2774
sg2754
S'<module>'
p2775
sa(dp2776
g2731
S'/usr/local/lib/python2.7/dist-packages/imdb/__init__.py'
p2777
sg2733
(dp2778
S'keywords'
p2779
S"{'uri': 'postgres://imdb:imdbsecret@localhost/imdb'}"
p2780
sS'arguments'
p2781
S'()'
p2782
sS'IMDbSqlAccessSystem'
p2783
S'<class imdb.parser.sql.IMDbSqlAccessSystem>'
p2784
ssg2739
I199
sg2740
(dp2785
I194
S"    elif accessSystem in ('sql', 'db', 'database'):"
p2786
sI195
S'        try:'
p2787
sI196
S'            from parser.sql import IMDbSqlAccessSystem'
p2788
sI197
S'        except ImportError:'
p2789
sI198
S"            raise IMDbError('the sql access system is not installed')"
p2790
sI199
S'        return IMDbSqlAccessSystem(*arguments, **keywords)'
p2791
sI200
S'    else:'
p2792
sI201
S'        raise IMDbError(\'unknown kind of data access system: "%s"\' \\'
p2793
sI202
S'                            % accessSystem)'
p2794
sI203
S''
ssg2752
S"(accessSystem='sql', *arguments=(), **keywords={'uri': 'postgres://imdb:imdbsecret@localhost/imdb'})"
p2795
sg2754
S'IMDb'
p2796
sa(dp2797
g2731
S'/usr/local/lib/python2.7/dist-packages/imdb/parser/sql/__init__.py'
p2798
sg2733
(dp2799
S'self'
p2800
S'<imdb.parser.sql.IMDbSqlAccessSystem instance>'
p2801
sS'uri'
p2802
S"'postgres://imdb:imdbsecret@localhost/imdb'"
p2803
sS'setConnection'
p2804
S'<function setConnection>'
p2805
sS'DB_TABLES'
p2806
S"[<TableAdapter(table=Table('name', MetaData(Engin...able=<name>), schema=None)) [id=139929641462224]>, <TableAdapter(table=Table('char_name', MetaData(...<char_name>), schema=None)) [id=139929641478032]>, <TableAdapter(table=Table('company_name', MetaDa...mpany_name>), schema=None)) [id=139929641493520]>, <TableAdapter(table=Table('kind_type', MetaData(...<kind_type>), schema=None)) [id=139929641513104]>, <TableAdapter(table=Table('title', MetaData(Engi...ble=<title>), schema=None)) [id=139929641514640]>, <TableAdapter(table=Table('company_type', MetaDa...mpany_type>), schema=None)) [id=139929641531728]>, <TableAdapter(table=Table('aka_name', MetaData(E...=<aka_name>), schema=None)) [id=139929641533264]>, <TableAdapter(table=Table('aka_title', MetaData(...<aka_title>), schema=None)) [id=139929641553168]>, <TableAdapter(table=Table('role_type', MetaData(...lable=False), schema=None)) [id=139929641570256]>, <TableAdapter(table=Table('cast_info', MetaData(...lable=False), schema=None)) [id=139929642096144]>, <TableAdapter(table=Table('comp_cast_type', Meta...lable=False), schema=None)) [id=139929642111632]>, <TableAdapter(table=Table('complete_cast', MetaD...lable=False), schema=None)) [id=139929642113168]>, <TableAdapter(table=Table('info_type', MetaData(...lable=False), schema=None)) [id=139929642131792]>, <TableAdapter(table=Table('link_type', MetaData(...lable=False), schema=None)) [id=139929642133328]>, <TableAdapter(table=Table('keyword', MetaData(En...e=<keyword>), schema=None)) [id=139929642134864]>, <TableAdapter(table=Table('movie_keyword', MetaD...lable=False), schema=None)) [id=139929642149072]>, <TableAdapter(table=Table('movie_link', MetaData...lable=False), schema=None)) [id=139929642150928]>, <TableAdapter(table=Table('movie_info', MetaData...movie_info>), schema=None)) [id=139929642173648]>, <TableAdapter(table=Table('movie_info_idx', Meta...e_info_idx>), schema=None)) [id=139929642176144]>, <TableAdapter(table=Table('movie_companies', Met..._companies>), schema=None)) [id=139929642190992]>, ...]"
p2807
sS'self._connection'
p2808
g2766
ssg2739
I595
sg2740
(dp2809
I590
S'        else:'
p2810
sI591
S"            raise IMDbError('unable to use any ORM in %s' % str(useORM))"
p2811
sI592
S'        # Set the connection to the database.'
p2812
sI593
S"        self._sql_logger.debug('connecting to %s', uri)"
p2813
sI594
S'        try:'
p2814
sI595
S'            self._connection = setConnection(uri, DB_TABLES)'
p2815
sI596
S'        except AssertionError, e:'
p2816
sI597
S'            raise IMDbDataAccessError( \\'
p2817
sI598
S"                    'unable to connect to the database server; ' + \\"
p2818
sI599
S'                    \'complete message: "%s"\' % str(e))'
p2819
ssg2752
S"(self=<imdb.parser.sql.IMDbSqlAccessSystem instance>, uri='postgres://imdb:imdbsecret@localhost/imdb', adultSearch=1, useORM=('sqlobject', 'sqlalchemy'), *arguments=(), **keywords={})"
p2820
sg2754
g26
sa(dp2821
g2731
S'/usr/local/lib/python2.7/dist-packages/imdb/parser/sql/alchemyadapter.py'
p2822
sg2733
(dp2823
S'engine'
p2824
S'Engine(postgres://imdb:imdbsecret@localhost/imdb)'
p2825
sS'eng_conn'
p2826
g2766
sS'engine.connect'
p2827
S'<bound method Engine.connect of Engine(postgres://imdb:imdbsecret@localhost/imdb)>'
p2828
ssg2739
I486
sg2740
(dp2829
I481
S'        # Try to work-around a possible bug of the ibm_db DB2 driver.'
p2830
sI482
S"        params['convert_unicode'] = True"
p2831
sI483
S'    # XXX: is this the best way to connect?'
p2832
sI484
S'    engine = create_engine(uri, **params)'
p2833
sI485
S'    metadata.bind = engine'
p2834
sI486
S'    eng_conn = engine.connect()'
p2835
sI487
S"    if uri.startswith('sqlite'):"
p2836
sI488
S'        major = sys.version_info[0]'
p2837
sI489
S'        minor = sys.version_info[1]'
p2838
sI490
S'        if major > 2 or (major == 2 and minor > 5):'
p2839
ssg2752
S"(uri='postgres://imdb:imdbsecret@localhost/imdb', tables=[<TableAdapter(table=Table('name', MetaData(Engin...able=<name>), schema=None)) [id=139929641462224]>, <TableAdapter(table=Table('char_name', MetaData(...<char_name>), schema=None)) [id=139929641478032]>, <TableAdapter(table=Table('company_name', MetaDa...mpany_name>), schema=None)) [id=139929641493520]>, <TableAdapter(table=Table('kind_type', MetaData(...<kind_type>), schema=None)) [id=139929641513104]>, <TableAdapter(table=Table('title', MetaData(Engi...ble=<title>), schema=None)) [id=139929641514640]>, <TableAdapter(table=Table('company_type', MetaDa...mpany_type>), schema=None)) [id=139929641531728]>, <TableAdapter(table=Table('aka_name', MetaData(E...=<aka_name>), schema=None)) [id=139929641533264]>, <TableAdapter(table=Table('aka_title', MetaData(...<aka_title>), schema=None)) [id=139929641553168]>, <TableAdapter(table=Table('role_type', MetaData(...lable=False), schema=None)) [id=139929641570256]>, <TableAdapter(table=Table('cast_info', MetaData(...lable=False), schema=None)) [id=139929642096144]>, <TableAdapter(table=Table('comp_cast_type', Meta...lable=False), schema=None)) [id=139929642111632]>, <TableAdapter(table=Table('complete_cast', MetaD...lable=False), schema=None)) [id=139929642113168]>, <TableAdapter(table=Table('info_type', MetaData(...lable=False), schema=None)) [id=139929642131792]>, <TableAdapter(table=Table('link_type', MetaData(...lable=False), schema=None)) [id=139929642133328]>, <TableAdapter(table=Table('keyword', MetaData(En...e=<keyword>), schema=None)) [id=139929642134864]>, <TableAdapter(table=Table('movie_keyword', MetaD...lable=False), schema=None)) [id=139929642149072]>, <TableAdapter(table=Table('movie_link', MetaData...lable=False), schema=None)) [id=139929642150928]>, <TableAdapter(table=Table('movie_info', MetaData...movie_info>), schema=None)) [id=139929642173648]>, <TableAdapter(table=Table('movie_info_idx', Meta...e_info_idx>), schema=None)) [id=139929642176144]>, <TableAdapter(table=Table('movie_companies', Met..._companies>), schema=None)) [id=139929642190992]>, ...], encoding='utf8', debug=False)"
p2840
sg2754
S'setConnection'
p2841
sa(dp2842
g2731
S'/usr/local/lib/python2.7/dist-packages/SQLAlchemy-0.7.0-py2.7-linux-x86_64.egg/sqlalchemy/engine/base.py'
p2843
sg2733
(dp2844
S'self'
p2845
S'Engine(postgres://imdb:imdbsecret@localhost/imdb)'
p2846
sS'self._connection_cls'
p2847
S"<class 'sqlalchemy.engine.base.Connection'>"
p2848
sS'kwargs'
p2849
S'{}'
p2850
ssg2739
I2080
sg2740
(dp2851
I2080
S'        return self._connection_cls(self, **kwargs)'
p2852
sI2081
S''
sI2082
S'    def contextual_connect(self, close_with_result=False, **kwargs):'
p2853
sI2083
S'        """Return a :class:`.Connection` object which may be part of some ongoing context.'
p2854
sI2084
S''
sI2075
S'        returning it back to the :class:`.Pool` after the :meth:`.Connection.close`'
p2855
sI2076
S'        method is called.'
p2856
sI2077
S''
sI2078
S'        """'
p2857
sI2079
S''
ssg2752
S'(self=Engine(postgres://imdb:imdbsecret@localhost/imdb), **kwargs={})'
p2858
sg2754
S'connect'
p2859
sa(dp2860
g2731
S'/usr/local/lib/python2.7/dist-packages/SQLAlchemy-0.7.0-py2.7-linux-x86_64.egg/sqlalchemy/engine/base.py'
p2861
sg2733
(dp2862
S'engine'
p2863
S'Engine(postgres://imdb:imdbsecret@localhost/imdb)'
p2864
sS'engine.raw_connection'
p2865
S'<bound method Engine.raw_connection of Engine(postgres://imdb:imdbsecret@localhost/imdb)>'
p2866
sS'self'
p2867
S'<sqlalchemy.engine.base.Connection object>'
p2868
sS'self.__connection'
p2869
g2766
sS'connection'
p2870
S'None'
p2871
ssg2739
I844
sg2740
(dp2872
I839
S'        :meth:`.Engine.contextual_connect` methods.'
p2873
sI840
S''
sI841
S'        """'
p2874
sI842
S'        self.engine = engine'
p2875
sI843
S'        self.dialect = engine.dialect'
p2876
sI844
S'        self.__connection = connection or engine.raw_connection()'
p2877
sI845
S'        self.__transaction = None'
p2878
sI846
S'        self.should_close_with_result = close_with_result'
p2879
sI847
S'        self.__savepoint_seq = 0'
p2880
sI848
S'        self.__branch = _branch'
p2881
ssg2752
S'(self=<sqlalchemy.engine.base.Connection object>, engine=Engine(postgres://imdb:imdbsecret@localhost/imdb), connection=None, close_with_result=False, _branch=False, _execution_options=None)'
p2882
sg2754
g26
sa(dp2883
g2731
S'/usr/local/lib/python2.7/dist-packages/SQLAlchemy-0.7.0-py2.7-linux-x86_64.egg/sqlalchemy/engine/base.py'
p2884
sg2733
(dp2885
S'self'
p2886
S'Engine(postgres://imdb:imdbsecret@localhost/imdb)'
p2887
sS'self.pool.unique_connection'
p2888
S'<bound method QueuePool.unique_connection of <sqlalchemy.pool.QueuePool object>>'
p2889
sS'self.pool'
p2890
S'<sqlalchemy.pool.QueuePool object>'
p2891
ssg2739
I2143
sg2740
(dp2892
I2144
S''
sI2145
S''
sI2146
S'# This reconstructor is necessary so that pickles with the C extension or'
p2893
sI2147
S'# without use the same Binary format.'
p2894
sI2138
S'        return self.run_callable(self.dialect.has_table, table_name, schema)'
p2895
sI2139
S''
sI2140
S'    def raw_connection(self):'
p2896
sI2141
S'        """Return a DB-API connection."""'
p2897
sI2142
S''
sI2143
S'        return self.pool.unique_connection()'
p2898
ssg2752
S'(self=Engine(postgres://imdb:imdbsecret@localhost/imdb))'
p2899
sg2754
S'raw_connection'
p2900
sa(dp2901
g2731
S'/usr/local/lib/python2.7/dist-packages/SQLAlchemy-0.7.0-py2.7-linux-x86_64.egg/sqlalchemy/pool.py'
p2902
sg2733
(dp2903
S'self'
p2904
S'<sqlalchemy.pool.QueuePool object>'
p2905
sS').checkout'
p2906
g2766
sS'global _ConnectionFairy'
p2907
S"<class 'sqlalchemy.pool._ConnectionFairy'>"
p2908
ssg2739
I169
sg2740
(dp2909
I164
S'        This method is different from :meth:`.Pool.connect` only if the'
p2910
sI165
S'        ``use_threadlocal`` flag has been set to ``True``.'
p2911
sI166
S''
sI167
S'        """'
p2912
sI168
S''
sI169
S'        return _ConnectionFairy(self).checkout()'
p2913
sI170
S''
sI171
S'    def _create_connection(self):'
p2914
sI172
S'        """Called by subclasses to create a new ConnectionRecord."""'
p2915
sI173
S''
ssg2752
S'(self=<sqlalchemy.pool.QueuePool object>)'
p2916
sg2754
S'unique_connection'
p2917
sa(dp2918
g2731
S'/usr/local/lib/python2.7/dist-packages/SQLAlchemy-0.7.0-py2.7-linux-x86_64.egg/sqlalchemy/pool.py'
p2919
sg2733
(dp2920
S'rec'
p2921
g2766
sS'self'
p2922
S'<sqlalchemy.pool._ConnectionFairy object>'
p2923
sS'pool'
p2924
S'<sqlalchemy.pool.QueuePool object>'
p2925
sS'self._connection_record'
p2926
S'None'
p2927
sS'pool._do_get'
p2928
S'<bound method QueuePool._do_get of <sqlalchemy.pool.QueuePool object>>'
p2929
ssg2739
I370
sg2740
(dp2930
I365
S'    def __init__(self, pool):'
p2931
sI366
S'        self._pool = pool'
p2932
sI367
S'        self.__counter = 0'
p2933
sI368
S'        self._echo = _echo = pool._should_log_debug()'
p2934
sI369
S'        try:'
p2935
sI370
S'            rec = self._connection_record = pool._do_get()'
p2936
sI371
S'            conn = self.connection = self._connection_record.get_connection()'
p2937
sI372
S'            rec.fairy = weakref.ref('
p2938
sI373
S'                            self,'
p2939
sI374
S'                            lambda ref:_finalize_fairy(conn, rec, pool, ref, _echo)'
p2940
ssg2752
S'(self=<sqlalchemy.pool._ConnectionFairy object>, pool=<sqlalchemy.pool.QueuePool object>)'
p2941
sg2754
g26
sa(dp2942
g2731
S'/usr/local/lib/python2.7/dist-packages/SQLAlchemy-0.7.0-py2.7-linux-x86_64.egg/sqlalchemy/pool.py'
p2943
sg2733
(dp2944
S'self'
p2945
S'<sqlalchemy.pool.QueuePool object>'
p2946
sS'self._create_connection'
p2947
S'<bound method QueuePool._create_connection of <sqlalchemy.pool.QueuePool object>>'
p2948
sS'con'
p2949
g2766
ssg2739
I696
sg2740
(dp2950
I691
S'                if self._overflow_lock is not None:'
p2951
sI692
S'                    self._overflow_lock.release()'
p2952
sI693
S'                return self._do_get()'
p2953
sI694
S''
sI695
S'            try:'
p2954
sI696
S'                con = self._create_connection()'
p2955
sI697
S'                self._overflow += 1'
p2956
sI698
S'            finally:'
p2957
sI699
S'                if self._overflow_lock is not None:'
p2958
sI700
S'                    self._overflow_lock.release()'
p2959
ssg2752
S'(self=<sqlalchemy.pool.QueuePool object>)'
p2960
sg2754
S'_do_get'
p2961
sa(dp2962
g2731
S'/usr/local/lib/python2.7/dist-packages/SQLAlchemy-0.7.0-py2.7-linux-x86_64.egg/sqlalchemy/pool.py'
p2963
sg2733
(dp2964
S'self'
p2965
S'<sqlalchemy.pool.QueuePool object>'
p2966
sS'global _ConnectionRecord'
p2967
S"<class 'sqlalchemy.pool._ConnectionRecord'>"
p2968
ssg2739
I174
sg2740
(dp2969
I169
S'        return _ConnectionFairy(self).checkout()'
p2970
sI170
S''
sI171
S'    def _create_connection(self):'
p2971
sI172
S'        """Called by subclasses to create a new ConnectionRecord."""'
p2972
sI173
S''
sI174
S'        return _ConnectionRecord(self)'
p2973
sI175
S''
sI176
S'    def recreate(self):'
p2974
sI177
S'        """Return a new :class:`.Pool`, of the same class as this one'
p2975
sI178
S'        and configured with identical creation arguments.'
p2976
ssg2752
S'(self=<sqlalchemy.pool.QueuePool object>)'
p2977
sg2754
S'_create_connection'
p2978
sa(dp2979
g2731
S'/usr/local/lib/python2.7/dist-packages/SQLAlchemy-0.7.0-py2.7-linux-x86_64.egg/sqlalchemy/pool.py'
p2980
sg2733
(dp2981
S'self'
p2982
S'<sqlalchemy.pool._ConnectionRecord object>'
p2983
sS'self.connection'
p2984
g2766
sS'self.__connect'
p2985
g2766
ssg2739
I255
sg2740
(dp2986
I256
S'        self.info = {}'
p2987
sI257
S''
sI258
S'        pool.dispatch.first_connect.exec_once(self.connection, self)'
p2988
sI259
S'        pool.dispatch.connect(self.connection, self)'
p2989
sI250
S'class _ConnectionRecord(object):'
p2990
sI251
S'    finalize_callback = None'
p2991
sI252
S''
sI253
S'    def __init__(self, pool):'
p2992
sI254
S'        self.__pool = pool'
p2993
sI255
S'        self.connection = self.__connect()'
p2994
ssg2752
S'(self=<sqlalchemy.pool._ConnectionRecord object>, pool=<sqlalchemy.pool.QueuePool object>)'
p2995
sg2754
g26
sa(dp2996
g2731
S'/usr/local/lib/python2.7/dist-packages/SQLAlchemy-0.7.0-py2.7-linux-x86_64.egg/sqlalchemy/pool.py'
p2997
sg2733
(dp2998
S'connection'
p2999
g2766
sS'self.__pool'
p3000
g2766
sS'self'
p3001
S'<sqlalchemy.pool._ConnectionRecord object>'
p3002
ssg2739
I315
sg2740
(dp3003
I310
S'                        self.connection, e)'
p3004
sI311
S''
sI312
S'    def __connect(self):'
p3005
sI313
S'        try:'
p3006
sI314
S'            self.starttime = time.time()'
p3007
sI315
S'            connection = self.__pool._creator()'
p3008
sI316
S'            self.__pool.logger.debug("Created new connection %r", connection)'
p3009
sI317
S'            return connection'
p3010
sI318
S'        except Exception, e:'
p3011
sI319
S'            self.__pool.logger.debug("Error on connect(): %s", e)'
p3012
ssg2752
S'(self=<sqlalchemy.pool._ConnectionRecord object>)'
p3013
sg2754
S'__connect'
p3014
sa(dp3015
g2731
S'/usr/local/lib/python2.7/dist-packages/SQLAlchemy-0.7.0-py2.7-linux-x86_64.egg/sqlalchemy/engine/strategies.py'
p3016
sg2733
(dp3017
S'dialect'
p3018
S'<sqlalchemy.dialects.postgresql.psycopg2.PGDialect_psycopg2 object>'
p3019
sS'cparams'
p3020
S"{'database': 'imdb', 'host': 'localhost', 'password': 'imdbsecret', 'user': 'imdb'}"
p3021
sS'cargs'
p3022
S'[]'
p3023
sS'dialect.connect'
p3024
S'<bound method PGDialect_psycopg2.connect of <sql...s.postgresql.psycopg2.PGDialect_psycopg2 object>>'
p3025
ssg2739
I80
sg2740
(dp3026
I75
S'        # look for existing pool or create'
p3027
sI76
S"        pool = kwargs.pop('pool', None)"
p3028
sI77
S'        if pool is None:'
p3029
sI78
S'            def connect():'
p3030
sI79
S'                try:'
p3031
sI80
S'                    return dialect.connect(*cargs, **cparams)'
p3032
sI81
S'                except Exception, e:'
p3033
sI82
S'                    # Py3K'
p3034
sI83
S'                    #raise exc.DBAPIError.instance(None, None,'
p3035
sI84
S'                    #                   e, dialect.dbapi.Error) from e'
p3036
ssg2752
S'()'
p3037
sg2754
g2859
sa(dp3038
g2731
S'/usr/local/lib/python2.7/dist-packages/SQLAlchemy-0.7.0-py2.7-linux-x86_64.egg/sqlalchemy/engine/default.py'
p3039
sg2733
(dp3040
S'self.dbapi.connect'
p3041
S'<function connect>'
p3042
sS'self'
p3043
S'<sqlalchemy.dialects.postgresql.psycopg2.PGDialect_psycopg2 object>'
p3044
sS'cparams'
p3045
S"{'database': 'imdb', 'host': 'localhost', 'password': 'imdbsecret', 'user': 'imdb'}"
p3046
sS'self.dbapi'
p3047
S"<module 'psycopg2' from '/usr/lib/python2.7/dist-packages/psycopg2/__init__.pyc'>"
p3048
sS'cargs'
p3049
S'()'
p3050
ssg2739
I275
sg2740
(dp3051
I270
S'                "Identifier \'%s\' exceeds maximum length of %d characters" %'
p3052
sI271
S'                (ident, self.max_identifier_length)'
p3053
sI272
S'            )'
p3054
sI273
S''
sI274
S'    def connect(self, *cargs, **cparams):'
p3055
sI275
S'        return self.dbapi.connect(*cargs, **cparams)'
p3056
sI276
S''
sI277
S'    def create_connect_args(self, url):'
p3057
sI278
S'        opts = url.translate_connect_args()'
p3058
sI279
S'        opts.update(url.query)'
p3059
ssg2752
S"(self=<sqlalchemy.dialects.postgresql.psycopg2.PGDialect_psycopg2 object>, *cargs=(), **cparams={'database': 'imdb', 'host': 'localhost', 'password': 'imdbsecret', 'user': 'imdb'})"
p3060
sg2754
g2859
sa(dp3061
g2731
S'/usr/lib/python2.7/dist-packages/psycopg2/__init__.py'
p3062
sg2733
(dp3063
S'async'
p3064
g49
sS'connection_factory'
p3065
S'None'
p3066
ssg2739
I179
sg2740
(dp3067
I174
S''
sI175
S'        if not dsn:'
p3068
sI176
S"            raise InterfaceError('missing dsn and no parameters')"
p3069
sI177
S''
sI178
S'    return _connect(dsn,'
p3070
sI179
S'        connection_factory=connection_factory, async=async)'
p3071
sI180
S''
sI181
S''
sI182
S"__all__ = filter(lambda k: not k.startswith('_'), locals().keys())"
p3072
sI183
S''
ssg2752
S"(dsn='dbname=imdb user=imdb password=imdbsecret host=localhost', database='imdb', user='imdb', password='imdbsecret', host='localhost', port=None, connection_factory=None, async=False, **kwargs={})"
p3073
sg2754
g2859
sasS'pyver'
p3074
S'Python 2.7.3: /usr/bin/python'
p3075
sS'session'
p3076
g71
(g72
g73
NtRp3077
(dp3078
g76
(dp3079
sg78
(lp3080
g71
(g80
g73
NtRp3081
(dp3082
g76
(dp3083
g84
I5
ssg85
Nsg78
(lp3084
sbasbsS'etype'
p3085
S"<class 'sqlalchemy.exc.OperationalError'>"
p3086
sS'date'
p3087
S'Sun Jul 15 02:00:22 2012'
p3088
sS'response'
p3089
g71
(g72
g73
NtRp3090
(dp3091
g76
(dp3092
sg78
(lp3093
g71
(g80
g73
NtRp3094
(dp3095
g76
(dp3096
g84
I5
ssg85
Nsg78
(lp3097
g71
(g87
g73
NtRp3098
(dp3099
g76
(dp3100
sg85
g3094
sg78
(lp3101
g71
(g92
g73
NtRp3102
(dp3103
g76
(dp3104
g96
g97
ssg85
g3098
sg78
(lp3105
g168
asbag71
(g92
g73
NtRp3106
(dp3107
g76
(dp3108
g103
g104
ssg85
g3098
sg78
(lp3109
S':'
asbag71
(g92
g73
NtRp3110
(dp3111
g76
(dp3112
sg85
g3098
sg78
(lp3113
g71
(g72
g73
NtRp3114
(dp3115
g76
(dp3116
g84
I5
ssg85
g3110
sg78
(lp3117
S'<cStringIO.StringO object at 0x7f43e446f7d8>'
p3118
asbasbasbag71
(g87
g73
NtRp3119
(dp3120
g76
(dp3121
sg85
g3094
sg78
(lp3122
g71
(g92
g73
NtRp3123
(dp3124
g76
(dp3125
g96
g97
ssg85
g3119
sg78
(lp3126
g234
asbag71
(g92
g73
NtRp3127
(dp3128
g76
(dp3129
g103
g104
ssg85
g3119
sg78
(lp3130
S':'
asbag71
(g92
g73
NtRp3131
(dp3132
g76
(dp3133
sg85
g3119
sg78
(lp3134
g71
(g72
g73
NtRp3135
(dp3136
g76
(dp3137
g84
I5
ssg85
g3131
sg78
(lp3138
g71
(g80
g73
NtRp3139
(dp3140
g76
(dp3141
g84
I4
ssg85
Nsg78
(lp3142
g71
(g87
g73
NtRp3143
(dp3144
g76
(dp3145
sg85
g3139
sg78
(lp3146
g71
(g92
g73
NtRp3147
(dp3148
g76
(dp3149
g96
g97
ssg85
g3143
sg78
(lp3150
S'session_id_milo'
p3151
asbag71
(g92
g73
NtRp3152
(dp3153
g76
(dp3154
g103
g104
ssg85
g3143
sg78
(lp3155
S':'
asbag71
(g92
g73
NtRp3156
(dp3157
g76
(dp3158
sg85
g3143
sg78
(lp3159
g71
(g72
g73
NtRp3160
(dp3161
g76
(dp3162
g84
I4
ssg85
g3156
sg78
(lp3163
g71
(g80
g73
NtRp3164
(dp3165
g76
(dp3166
g84
I3
ssg85
Nsg78
(lp3167
g71
(g87
g73
NtRp3168
(dp3169
g76
(dp3170
sg85
g3164
sg78
(lp3171
g71
(g92
g73
NtRp3172
(dp3173
g76
(dp3174
g96
g97
ssg85
g3168
sg78
(lp3175
g284
asbag71
(g92
g73
NtRp3176
(dp3177
g76
(dp3178
g103
g104
ssg85
g3168
sg78
(lp3179
S':'
asbag71
(g92
g73
NtRp3180
(dp3181
g76
(dp3182
sg85
g3168
sg78
(lp3183
g71
(g72
g73
NtRp3184
(dp3185
g76
(dp3186
g84
I3
ssg85
g3180
sg78
(lp3187
S''
asbasbasbag71
(g87
g73
NtRp3188
(dp3189
g76
(dp3190
sg85
g3164
sg78
(lp3191
g71
(g92
g73
NtRp3192
(dp3193
g76
(dp3194
g96
g97
ssg85
g3188
sg78
(lp3195
g305
asbag71
(g92
g73
NtRp3196
(dp3197
g76
(dp3198
g103
g104
ssg85
g3188
sg78
(lp3199
S':'
asbag71
(g92
g73
NtRp3200
(dp3201
g76
(dp3202
sg85
g3188
sg78
(lp3203
g71
(g72
g73
NtRp3204
(dp3205
g76
(dp3206
g84
I3
ssg85
g3200
sg78
(lp3207
S''
asbasbasbag71
(g87
g73
NtRp3208
(dp3209
g76
(dp3210
sg85
g3164
sg78
(lp3211
g71
(g92
g73
NtRp3212
(dp3213
g76
(dp3214
g96
g97
ssg85
g3208
sg78
(lp3215
g326
asbag71
(g92
g73
NtRp3216
(dp3217
g76
(dp3218
g103
g104
ssg85
g3208
sg78
(lp3219
S':'
asbag71
(g92
g73
NtRp3220
(dp3221
g76
(dp3222
sg85
g3208
sg78
(lp3223
g71
(g72
g73
NtRp3224
(dp3225
g76
(dp3226
g84
I3
ssg85
g3220
sg78
(lp3227
S''
asbasbasbag71
(g87
g73
NtRp3228
(dp3229
g76
(dp3230
sg85
g3164
sg78
(lp3231
g71
(g92
g73
NtRp3232
(dp3233
g76
(dp3234
g96
g97
ssg85
g3228
sg78
(lp3235
g347
asbag71
(g92
g73
NtRp3236
(dp3237
g76
(dp3238
g103
g104
ssg85
g3228
sg78
(lp3239
S':'
asbag71
(g92
g73
NtRp3240
(dp3241
g76
(dp3242
sg85
g3228
sg78
(lp3243
g71
(g72
g73
NtRp3244
(dp3245
g76
(dp3246
g84
I3
ssg85
g3240
sg78
(lp3247
S''
asbasbasbag71
(g87
g73
NtRp3248
(dp3249
g76
(dp3250
sg85
g3164
sg78
(lp3251
g71
(g92
g73
NtRp3252
(dp3253
g76
(dp3254
g96
g97
ssg85
g3248
sg78
(lp3255
g368
asbag71
(g92
g73
NtRp3256
(dp3257
g76
(dp3258
g103
g104
ssg85
g3248
sg78
(lp3259
S':'
asbag71
(g92
g73
NtRp3260
(dp3261
g76
(dp3262
sg85
g3248
sg78
(lp3263
g71
(g72
g73
NtRp3264
(dp3265
g76
(dp3266
g84
I3
ssg85
g3260
sg78
(lp3267
S''
asbasbasbag71
(g87
g73
NtRp3268
(dp3269
g76
(dp3270
sg85
g3164
sg78
(lp3271
g71
(g92
g73
NtRp3272
(dp3273
g76
(dp3274
g96
g97
ssg85
g3268
sg78
(lp3275
g389
asbag71
(g92
g73
NtRp3276
(dp3277
g76
(dp3278
g103
g104
ssg85
g3268
sg78
(lp3279
S':'
asbag71
(g92
g73
NtRp3280
(dp3281
g76
(dp3282
sg85
g3268
sg78
(lp3283
g71
(g72
g73
NtRp3284
(dp3285
g76
(dp3286
g84
I3
ssg85
g3280
sg78
(lp3287
S'/'
asbasbasbag71
(g87
g73
NtRp3288
(dp3289
g76
(dp3290
sg85
g3164
sg78
(lp3291
g71
(g92
g73
NtRp3292
(dp3293
g76
(dp3294
g96
g97
ssg85
g3288
sg78
(lp3295
g410
asbag71
(g92
g73
NtRp3296
(dp3297
g76
(dp3298
g103
g104
ssg85
g3288
sg78
(lp3299
S':'
asbag71
(g92
g73
NtRp3300
(dp3301
g76
(dp3302
sg85
g3288
sg78
(lp3303
g71
(g72
g73
NtRp3304
(dp3305
g76
(dp3306
g84
I3
ssg85
g3300
sg78
(lp3307
S''
asbasbasbag71
(g87
g73
NtRp3308
(dp3309
g76
(dp3310
sg85
g3164
sg78
(lp3311
g71
(g92
g73
NtRp3312
(dp3313
g76
(dp3314
g96
g97
ssg85
g3308
sg78
(lp3315
g431
asbag71
(g92
g73
NtRp3316
(dp3317
g76
(dp3318
g103
g104
ssg85
g3308
sg78
(lp3319
S':'
asbag71
(g92
g73
NtRp3320
(dp3321
g76
(dp3322
sg85
g3308
sg78
(lp3323
g71
(g72
g73
NtRp3324
(dp3325
g76
(dp3326
g84
I3
ssg85
g3320
sg78
(lp3327
S''
asbasbasbasbasbasbasbasbasbasbasbag71
(g87
g73
NtRp3328
(dp3329
g76
(dp3330
sg85
g3094
sg78
(lp3331
g71
(g92
g73
NtRp3332
(dp3333
g76
(dp3334
g96
g97
ssg85
g3328
sg78
(lp3335
S'delimiters'
p3336
asbag71
(g92
g73
NtRp3337
(dp3338
g76
(dp3339
g103
g104
ssg85
g3328
sg78
(lp3340
S':'
asbag71
(g92
g73
NtRp3341
(dp3342
g76
(dp3343
sg85
g3328
sg78
(lp3344
g71
(g72
g73
NtRp3345
(dp3346
g76
(dp3347
g84
I5
ssg85
g3341
sg78
(lp3348
g71
(g80
g73
NtRp3349
(dp3350
g76
(dp3351
g84
I4
ssg85
Nsg78
(lp3352
g71
(g87
g73
NtRp3353
(dp3354
g76
(dp3355
sg85
g3349
sg78
(lp3356
g71
(g92
g73
NtRp3357
(dp3358
g76
(dp3359
sg85
g3353
sg78
(lp3360
g71
(g72
g73
NtRp3361
(dp3362
g76
(dp3363
g84
I4
ssg85
g3357
sg78
(lp3364
S'{{'
p3365
asbasbasbag71
(g87
g73
NtRp3366
(dp3367
g76
(dp3368
sg85
g3349
sg78
(lp3369
g71
(g92
g73
NtRp3370
(dp3371
g76
(dp3372
sg85
g3366
sg78
(lp3373
g71
(g72
g73
NtRp3374
(dp3375
g76
(dp3376
g84
I4
ssg85
g3370
sg78
(lp3377
S'}}'
p3378
asbasbasbasbasbasbasbag71
(g87
g73
NtRp3379
(dp3380
g76
(dp3381
sg85
g3094
sg78
(lp3382
g71
(g92
g73
NtRp3383
(dp3384
g76
(dp3385
g96
g97
ssg85
g3379
sg78
(lp3386
S'files'
p3387
asbag71
(g92
g73
NtRp3388
(dp3389
g76
(dp3390
g103
g104
ssg85
g3379
sg78
(lp3391
S':'
asbag71
(g92
g73
NtRp3392
(dp3393
g76
(dp3394
sg85
g3379
sg78
(lp3395
g71
(g72
g73
NtRp3396
(dp3397
g76
(dp3398
g84
I5
ssg85
g3392
sg78
(lp3399
g71
(g80
g73
NtRp3400
(dp3401
g76
(dp3402
g84
I4
ssg85
Nsg78
(lp3403
sbasbasbasbag71
(g87
g73
NtRp3404
(dp3405
g76
(dp3406
sg85
g3094
sg78
(lp3407
g71
(g92
g73
NtRp3408
(dp3409
g76
(dp3410
g96
g97
ssg85
g3404
sg78
(lp3411
S'flash'
p3412
asbag71
(g92
g73
NtRp3413
(dp3414
g76
(dp3415
g103
g104
ssg85
g3404
sg78
(lp3416
S':'
asbag71
(g92
g73
NtRp3417
(dp3418
g76
(dp3419
sg85
g3404
sg78
(lp3420
g71
(g72
g73
NtRp3421
(dp3422
g76
(dp3423
g84
I5
ssg85
g3417
sg78
(lp3424
S''
asbasbasbag71
(g87
g73
NtRp3425
(dp3426
g76
(dp3427
sg85
g3094
sg78
(lp3428
g71
(g92
g73
NtRp3429
(dp3430
g76
(dp3431
g96
g97
ssg85
g3425
sg78
(lp3432
S'generic_patterns'
p3433
asbag71
(g92
g73
NtRp3434
(dp3435
g76
(dp3436
g103
g104
ssg85
g3425
sg78
(lp3437
S':'
asbag71
(g92
g73
NtRp3438
(dp3439
g76
(dp3440
sg85
g3425
sg78
(lp3441
g71
(g72
g73
NtRp3442
(dp3443
g76
(dp3444
g84
I5
ssg85
g3438
sg78
(lp3445
g71
(g80
g73
NtRp3446
(dp3447
g76
(dp3448
g84
I4
ssg85
Nsg78
(lp3449
g71
(g87
g73
NtRp3450
(dp3451
g76
(dp3452
sg85
g3446
sg78
(lp3453
g71
(g92
g73
NtRp3454
(dp3455
g76
(dp3456
sg85
g3450
sg78
(lp3457
g71
(g72
g73
NtRp3458
(dp3459
g76
(dp3460
g84
I4
ssg85
g3454
sg78
(lp3461
S'*'
asbasbasbasbasbasbasbag71
(g87
g73
NtRp3462
(dp3463
g76
(dp3464
sg85
g3094
sg78
(lp3465
g71
(g92
g73
NtRp3466
(dp3467
g76
(dp3468
g96
g97
ssg85
g3462
sg78
(lp3469
S'headers'
p3470
asbag71
(g92
g73
NtRp3471
(dp3472
g76
(dp3473
g103
g104
ssg85
g3462
sg78
(lp3474
S':'
asbag71
(g92
g73
NtRp3475
(dp3476
g76
(dp3477
sg85
g3462
sg78
(lp3478
g71
(g72
g73
NtRp3479
(dp3480
g76
(dp3481
g84
I5
ssg85
g3475
sg78
(lp3482
g71
(g80
g73
NtRp3483
(dp3484
g76
(dp3485
g84
I4
ssg85
Nsg78
(lp3486
g71
(g87
g73
NtRp3487
(dp3488
g76
(dp3489
sg85
g3483
sg78
(lp3490
g71
(g92
g73
NtRp3491
(dp3492
g76
(dp3493
g96
g97
ssg85
g3487
sg78
(lp3494
S'Cache-Control'
p3495
asbag71
(g92
g73
NtRp3496
(dp3497
g76
(dp3498
g103
g104
ssg85
g3487
sg78
(lp3499
S':'
asbag71
(g92
g73
NtRp3500
(dp3501
g76
(dp3502
sg85
g3487
sg78
(lp3503
g71
(g72
g73
NtRp3504
(dp3505
g76
(dp3506
g84
I4
ssg85
g3500
sg78
(lp3507
S'no-store, no-cache, must-revalidate, post-check=0, pre-check=0'
p3508
asbasbasbag71
(g87
g73
NtRp3509
(dp3510
g76
(dp3511
sg85
g3483
sg78
(lp3512
g71
(g92
g73
NtRp3513
(dp3514
g76
(dp3515
g96
g97
ssg85
g3509
sg78
(lp3516
S'Content-Type'
p3517
asbag71
(g92
g73
NtRp3518
(dp3519
g76
(dp3520
g103
g104
ssg85
g3509
sg78
(lp3521
S':'
asbag71
(g92
g73
NtRp3522
(dp3523
g76
(dp3524
sg85
g3509
sg78
(lp3525
g71
(g72
g73
NtRp3526
(dp3527
g76
(dp3528
g84
I4
ssg85
g3522
sg78
(lp3529
S'text/html; charset=utf-8'
p3530
asbasbasbag71
(g87
g73
NtRp3531
(dp3532
g76
(dp3533
sg85
g3483
sg78
(lp3534
g71
(g92
g73
NtRp3535
(dp3536
g76
(dp3537
g96
g97
ssg85
g3531
sg78
(lp3538
S'Expires'
p3539
asbag71
(g92
g73
NtRp3540
(dp3541
g76
(dp3542
g103
g104
ssg85
g3531
sg78
(lp3543
S':'
asbag71
(g92
g73
NtRp3544
(dp3545
g76
(dp3546
sg85
g3531
sg78
(lp3547
g71
(g72
g73
NtRp3548
(dp3549
g76
(dp3550
g84
I4
ssg85
g3544
sg78
(lp3551
S'Sun, 15 Jul 2012 00:00:22 GMT'
p3552
asbasbasbag71
(g87
g73
NtRp3553
(dp3554
g76
(dp3555
sg85
g3483
sg78
(lp3556
g71
(g92
g73
NtRp3557
(dp3558
g76
(dp3559
g96
g97
ssg85
g3553
sg78
(lp3560
S'Pragma'
p3561
asbag71
(g92
g73
NtRp3562
(dp3563
g76
(dp3564
g103
g104
ssg85
g3553
sg78
(lp3565
S':'
asbag71
(g92
g73
NtRp3566
(dp3567
g76
(dp3568
sg85
g3553
sg78
(lp3569
g71
(g72
g73
NtRp3570
(dp3571
g76
(dp3572
g84
I4
ssg85
g3566
sg78
(lp3573
S'no-cache'
p3574
asbasbasbag71
(g87
g73
NtRp3575
(dp3576
g76
(dp3577
sg85
g3483
sg78
(lp3578
g71
(g92
g73
NtRp3579
(dp3580
g76
(dp3581
g96
g97
ssg85
g3575
sg78
(lp3582
S'X-Powered-By'
p3583
asbag71
(g92
g73
NtRp3584
(dp3585
g76
(dp3586
g103
g104
ssg85
g3575
sg78
(lp3587
S':'
asbag71
(g92
g73
NtRp3588
(dp3589
g76
(dp3590
sg85
g3575
sg78
(lp3591
g71
(g72
g73
NtRp3592
(dp3593
g76
(dp3594
g84
I4
ssg85
g3588
sg78
(lp3595
S'web2py'
p3596
asbasbasbasbasbasbasbag71
(g87
g73
NtRp3597
(dp3598
g76
(dp3599
sg85
g3094
sg78
(lp3600
g71
(g92
g73
NtRp3601
(dp3602
g76
(dp3603
g96
g97
ssg85
g3597
sg78
(lp3604
S'menu'
p3605
asbag71
(g92
g73
NtRp3606
(dp3607
g76
(dp3608
g103
g104
ssg85
g3597
sg78
(lp3609
S':'
asbag71
(g92
g73
NtRp3610
(dp3611
g76
(dp3612
sg85
g3597
sg78
(lp3613
g71
(g72
g73
NtRp3614
(dp3615
g76
(dp3616
g84
I5
ssg85
g3610
sg78
(lp3617
g71
(g80
g73
NtRp3618
(dp3619
g76
(dp3620
g84
I4
ssg85
Nsg78
(lp3621
sbasbasbasbag71
(g87
g73
NtRp3622
(dp3623
g76
(dp3624
sg85
g3094
sg78
(lp3625
g71
(g92
g73
NtRp3626
(dp3627
g76
(dp3628
g96
g97
ssg85
g3622
sg78
(lp3629
S'meta'
p3630
asbag71
(g92
g73
NtRp3631
(dp3632
g76
(dp3633
g103
g104
ssg85
g3622
sg78
(lp3634
S':'
asbag71
(g92
g73
NtRp3635
(dp3636
g76
(dp3637
sg85
g3622
sg78
(lp3638
g71
(g72
g73
NtRp3639
(dp3640
g76
(dp3641
g84
I5
ssg85
g3635
sg78
(lp3642
g71
(g80
g73
NtRp3643
(dp3644
g76
(dp3645
g84
I4
ssg85
Nsg78
(lp3646
sbasbasbasbag71
(g87
g73
NtRp3647
(dp3648
g76
(dp3649
sg85
g3094
sg78
(lp3650
g71
(g92
g73
NtRp3651
(dp3652
g76
(dp3653
g96
g97
ssg85
g3647
sg78
(lp3654
S'postprocessing'
p3655
asbag71
(g92
g73
NtRp3656
(dp3657
g76
(dp3658
g103
g104
ssg85
g3647
sg78
(lp3659
S':'
asbag71
(g92
g73
NtRp3660
(dp3661
g76
(dp3662
sg85
g3647
sg78
(lp3663
g71
(g72
g73
NtRp3664
(dp3665
g76
(dp3666
g84
I5
ssg85
g3660
sg78
(lp3667
g71
(g80
g73
NtRp3668
(dp3669
g76
(dp3670
g84
I4
ssg85
Nsg78
(lp3671
sbasbasbasbag71
(g87
g73
NtRp3672
(dp3673
g76
(dp3674
sg85
g3094
sg78
(lp3675
g71
(g92
g73
NtRp3676
(dp3677
g76
(dp3678
g96
g97
ssg85
g3672
sg78
(lp3679
S'session_filename'
p3680
asbag71
(g92
g73
NtRp3681
(dp3682
g76
(dp3683
g103
g104
ssg85
g3672
sg78
(lp3684
S':'
asbag71
(g92
g73
NtRp3685
(dp3686
g76
(dp3687
sg85
g3672
sg78
(lp3688
g71
(g72
g73
NtRp3689
(dp3690
g76
(dp3691
g84
I5
ssg85
g3685
sg78
(lp3692
S'/home/goshawk/web2py/applications/milo/sessions/127.0.0.1-3a3ec259-0e08-4b28-b83a-0c3979852816'
p3693
asbasbasbag71
(g87
g73
NtRp3694
(dp3695
g76
(dp3696
sg85
g3094
sg78
(lp3697
g71
(g92
g73
NtRp3698
(dp3699
g76
(dp3700
g96
g97
ssg85
g3694
sg78
(lp3701
S'session_id'
p3702
asbag71
(g92
g73
NtRp3703
(dp3704
g76
(dp3705
g103
g104
ssg85
g3694
sg78
(lp3706
S':'
asbag71
(g92
g73
NtRp3707
(dp3708
g76
(dp3709
sg85
g3694
sg78
(lp3710
g71
(g72
g73
NtRp3711
(dp3712
g76
(dp3713
g84
I5
ssg85
g3707
sg78
(lp3714
S'127.0.0.1-3a3ec259-0e08-4b28-b83a-0c3979852816'
p3715
asbasbasbag71
(g87
g73
NtRp3716
(dp3717
g76
(dp3718
sg85
g3094
sg78
(lp3719
g71
(g92
g73
NtRp3720
(dp3721
g76
(dp3722
g96
g97
ssg85
g3716
sg78
(lp3723
S'session_id_name'
p3724
asbag71
(g92
g73
NtRp3725
(dp3726
g76
(dp3727
g103
g104
ssg85
g3716
sg78
(lp3728
S':'
asbag71
(g92
g73
NtRp3729
(dp3730
g76
(dp3731
sg85
g3716
sg78
(lp3732
g71
(g72
g73
NtRp3733
(dp3734
g76
(dp3735
g84
I5
ssg85
g3729
sg78
(lp3736
g3151
asbasbasbag71
(g87
g73
NtRp3737
(dp3738
g76
(dp3739
sg85
g3094
sg78
(lp3740
g71
(g92
g73
NtRp3741
(dp3742
g76
(dp3743
g96
g97
ssg85
g3737
sg78
(lp3744
S'session_new'
p3745
asbag71
(g92
g73
NtRp3746
(dp3747
g76
(dp3748
g103
g104
ssg85
g3737
sg78
(lp3749
S':'
asbag71
(g92
g73
NtRp3750
(dp3751
g76
(dp3752
sg85
g3737
sg78
(lp3753
g71
(g72
g73
NtRp3754
(dp3755
g76
(dp3756
g84
I5
ssg85
g3750
sg78
(lp3757
g1363
asbasbasbag71
(g87
g73
NtRp3758
(dp3759
g76
(dp3760
sg85
g3094
sg78
(lp3761
g71
(g92
g73
NtRp3762
(dp3763
g76
(dp3764
g96
g97
ssg85
g3758
sg78
(lp3765
S'status'
p3766
asbag71
(g92
g73
NtRp3767
(dp3768
g76
(dp3769
g103
g104
ssg85
g3758
sg78
(lp3770
S':'
asbag71
(g92
g73
NtRp3771
(dp3772
g76
(dp3773
sg85
g3758
sg78
(lp3774
g71
(g72
g73
NtRp3775
(dp3776
g76
(dp3777
g84
I5
ssg85
g3771
sg78
(lp3778
S'200'
p3779
asbasbasbag71
(g87
g73
NtRp3780
(dp3781
g76
(dp3782
sg85
g3094
sg78
(lp3783
g71
(g92
g73
NtRp3784
(dp3785
g76
(dp3786
g96
g97
ssg85
g3780
sg78
(lp3787
g2027
asbag71
(g92
g73
NtRp3788
(dp3789
g76
(dp3790
g103
g104
ssg85
g3780
sg78
(lp3791
S':'
asbag71
(g92
g73
NtRp3792
(dp3793
g76
(dp3794
sg85
g3780
sg78
(lp3795
g71
(g72
g73
NtRp3796
(dp3797
g76
(dp3798
g84
I5
ssg85
g3792
sg78
(lp3799
g2040
asbasbasbag71
(g87
g73
NtRp3800
(dp3801
g76
(dp3802
sg85
g3094
sg78
(lp3803
g71
(g92
g73
NtRp3804
(dp3805
g76
(dp3806
g96
g97
ssg85
g3800
sg78
(lp3807
S'view'
p3808
asbag71
(g92
g73
NtRp3809
(dp3810
g76
(dp3811
g103
g104
ssg85
g3800
sg78
(lp3812
S':'
asbag71
(g92
g73
NtRp3813
(dp3814
g76
(dp3815
sg85
g3800
sg78
(lp3816
g71
(g72
g73
NtRp3817
(dp3818
g76
(dp3819
g84
I5
ssg85
g3813
sg78
(lp3820
S'admin/index.html'
p3821
asbasbasbasbasbsS'locals'
p3822
(dp3823
S'database'
p3824
S"'imdb'"
p3825
sS'items'
p3826
S"[('dbname', 'imdb'), ('user', 'imdb'), ('password', 'imdbsecret'), ('host', 'localhost')]"
p3827
sS'k'
S"'host'"
p3828
sS'kwargs'
p3829
g2850
sS'connection_factory'
p3830
S'None'
p3831
sS'dsn'
p3832
S"'dbname=imdb user=imdb password=imdbsecret host=localhost'"
p3833
sS'host'
p3834
S"'localhost'"
p3835
sS'user'
p3836
S"'imdb'"
p3837
sS'v'
S"'localhost'"
p3838
sS'async'
p3839
g49
sS'password'
p3840
S"'imdbsecret'"
p3841
sS'port'
p3842
S'None'
p3843
sssS'traceback'
p3844
S'Traceback (most recent call last):\n  File "/home/goshawk/web2py/gluon/restricted.py", line 205, in restricted\n    exec ccode in environment\n  File "/home/goshawk/web2py/applications/milo/models/db.py", line 86, in <module>\n    im = imdb.IMDb(\'sql\', uri=imdb_connection_str)\n  File "/usr/local/lib/python2.7/dist-packages/imdb/__init__.py", line 199, in IMDb\n    return IMDbSqlAccessSystem(*arguments, **keywords)\n  File "/usr/local/lib/python2.7/dist-packages/imdb/parser/sql/__init__.py", line 595, in __init__\n    self._connection = setConnection(uri, DB_TABLES)\n  File "/usr/local/lib/python2.7/dist-packages/imdb/parser/sql/alchemyadapter.py", line 486, in setConnection\n    eng_conn = engine.connect()\n  File "/usr/local/lib/python2.7/dist-packages/SQLAlchemy-0.7.0-py2.7-linux-x86_64.egg/sqlalchemy/engine/base.py", line 2080, in connect\n    return self._connection_cls(self, **kwargs)\n  File "/usr/local/lib/python2.7/dist-packages/SQLAlchemy-0.7.0-py2.7-linux-x86_64.egg/sqlalchemy/engine/base.py", line 844, in __init__\n    self.__connection = connection or engine.raw_connection()\n  File "/usr/local/lib/python2.7/dist-packages/SQLAlchemy-0.7.0-py2.7-linux-x86_64.egg/sqlalchemy/engine/base.py", line 2143, in raw_connection\n    return self.pool.unique_connection()\n  File "/usr/local/lib/python2.7/dist-packages/SQLAlchemy-0.7.0-py2.7-linux-x86_64.egg/sqlalchemy/pool.py", line 169, in unique_connection\n    return _ConnectionFairy(self).checkout()\n  File "/usr/local/lib/python2.7/dist-packages/SQLAlchemy-0.7.0-py2.7-linux-x86_64.egg/sqlalchemy/pool.py", line 370, in __init__\n    rec = self._connection_record = pool._do_get()\n  File "/usr/local/lib/python2.7/dist-packages/SQLAlchemy-0.7.0-py2.7-linux-x86_64.egg/sqlalchemy/pool.py", line 696, in _do_get\n    con = self._create_connection()\n  File "/usr/local/lib/python2.7/dist-packages/SQLAlchemy-0.7.0-py2.7-linux-x86_64.egg/sqlalchemy/pool.py", line 174, in _create_connection\n    return _ConnectionRecord(self)\n  File "/usr/local/lib/python2.7/dist-packages/SQLAlchemy-0.7.0-py2.7-linux-x86_64.egg/sqlalchemy/pool.py", line 255, in __init__\n    self.connection = self.__connect()\n  File "/usr/local/lib/python2.7/dist-packages/SQLAlchemy-0.7.0-py2.7-linux-x86_64.egg/sqlalchemy/pool.py", line 315, in __connect\n    connection = self.__pool._creator()\n  File "/usr/local/lib/python2.7/dist-packages/SQLAlchemy-0.7.0-py2.7-linux-x86_64.egg/sqlalchemy/engine/strategies.py", line 80, in connect\n    return dialect.connect(*cargs, **cparams)\n  File "/usr/local/lib/python2.7/dist-packages/SQLAlchemy-0.7.0-py2.7-linux-x86_64.egg/sqlalchemy/engine/default.py", line 275, in connect\n    return self.dbapi.connect(*cargs, **cparams)\n  File "/usr/lib/python2.7/dist-packages/psycopg2/__init__.py", line 179, in connect\n    connection_factory=connection_factory, async=async)\nOperationalError: (OperationalError) FATAL:  remaining connection slots are reserved for non-replication superuser connections\n None None\n'
p3845
s.