(dp1
S'output'
p2
S"<type 'exceptions.OSError'> [Errno 2] No such file or directory: '/home/goshawk/web2py/applications/milo/modules/elaborated_models/icm.mat'"
p3
sS'layer'
p4
S'/home/goshawk/web2py/applications/milo/controllers/admin.py'
p5
sS'code'
p6
S'# coding: utf8\n# try something like\n\nimport matlab_wrapper\n\ndef index():\n    algorithms = matlab_wrapper.Whisperer.get_algnames()\n    matrices = matlab_wrapper.Whisperer.get_matrices_info()\n    return dict(message="hello from admin.py", algorithms=algorithms, matrices_info=matrices)\nresponse._vars=response._caller(index)\n'
p7
sS'snapshot'
p8
(dp9
S'exception'
p10
(dp11
S'__getslice__'
p12
S"<method-wrapper '__getslice__' of exceptions.OSError object>"
p13
sS'__str__'
p14
S"<method-wrapper '__str__' of exceptions.OSError object>"
p15
sS'__reduce__'
p16
S'<built-in method __reduce__ of exceptions.OSError object>'
p17
sS'__dict__'
p18
S'{}'
p19
sS'__sizeof__'
p20
S'<built-in method __sizeof__ of exceptions.OSError object>'
p21
sS'__init__'
p22
S"<method-wrapper '__init__' of exceptions.OSError object>"
p23
sS'__setattr__'
p24
S"<method-wrapper '__setattr__' of exceptions.OSError object>"
p25
sS'__reduce_ex__'
p26
S'<built-in method __reduce_ex__ of exceptions.OSError object>'
p27
sS'__new__'
p28
S'<built-in method __new__ of type object>'
p29
sS'errno'
p30
S'2'
sS'__format__'
p31
S'<built-in method __format__ of exceptions.OSError object>'
p32
sS'__class__'
p33
S"<type 'exceptions.OSError'>"
p34
sS'filename'
p35
S"'/home/goshawk/web2py/applications/milo/modules/elaborated_models/icm.mat'"
p36
sS'__doc__'
p37
S"'OS system call failed.'"
p38
sS'__getitem__'
p39
S"<method-wrapper '__getitem__' of exceptions.OSError object>"
p40
sS'__setstate__'
p41
S'<built-in method __setstate__ of exceptions.OSError object>'
p42
sS'__getattribute__'
p43
S"<method-wrapper '__getattribute__' of exceptions.OSError object>"
p44
sS'args'
p45
S"(2, 'No such file or directory')"
p46
sS'__subclasshook__'
p47
S'<built-in method __subclasshook__ of type object>'
p48
sS'__unicode__'
p49
S'<built-in method __unicode__ of exceptions.OSError object>'
p50
sS'strerror'
p51
S"'No such file or directory'"
p52
sS'__delattr__'
p53
S"<method-wrapper '__delattr__' of exceptions.OSError object>"
p54
sS'__repr__'
p55
S"<method-wrapper '__repr__' of exceptions.OSError object>"
p56
sS'__hash__'
p57
S"<method-wrapper '__hash__' of exceptions.OSError object>"
p58
ssS'evalue'
p59
S"[Errno 2] No such file or directory: '/home/goshawk/web2py/applications/milo/modules/elaborated_models/icm.mat'"
p60
sS'request'
p61
ccopy_reg
_reconstructor
p62
(cgluon.html
BEAUTIFY
p63
c__builtin__
object
p64
NtRp65
(dp66
S'attributes'
p67
(dp68
sS'components'
p69
(lp70
g62
(cgluon.html
TABLE
p71
g64
NtRp72
(dp73
g67
(dp74
S'level'
p75
I5
ssS'parent'
p76
Nsg69
(lp77
g62
(cgluon.html
TR
p78
g64
NtRp79
(dp80
g67
(dp81
sg76
g72
sg69
(lp82
g62
(cgluon.html
TD
p83
g64
NtRp84
(dp85
g67
(dp86
S'_style'
p87
S'font-weight:bold;vertical-align:top'
p88
ssg76
g79
sg69
(lp89
S'ajax'
p90
asbag62
(g83
g64
NtRp91
(dp92
g67
(dp93
S'_valign'
p94
S'top'
p95
ssg76
g79
sg69
(lp96
S':'
asbag62
(g83
g64
NtRp97
(dp98
g67
(dp99
sg76
g79
sg69
(lp100
g62
(g63
g64
NtRp101
(dp102
g67
(dp103
g75
I5
ssg76
g97
sg69
(lp104
S'False'
p105
asbasbasbag62
(g78
g64
NtRp106
(dp107
g67
(dp108
sg76
g72
sg69
(lp109
g62
(g83
g64
NtRp110
(dp111
g67
(dp112
g87
g88
ssg76
g106
sg69
(lp113
S'application'
p114
asbag62
(g83
g64
NtRp115
(dp116
g67
(dp117
g94
g95
ssg76
g106
sg69
(lp118
S':'
asbag62
(g83
g64
NtRp119
(dp120
g67
(dp121
sg76
g106
sg69
(lp122
g62
(g63
g64
NtRp123
(dp124
g67
(dp125
g75
I5
ssg76
g119
sg69
(lp126
S'milo'
p127
asbasbasbag62
(g78
g64
NtRp128
(dp129
g67
(dp130
sg76
g72
sg69
(lp131
g62
(g83
g64
NtRp132
(dp133
g67
(dp134
g87
g88
ssg76
g128
sg69
(lp135
g45
asbag62
(g83
g64
NtRp136
(dp137
g67
(dp138
g94
g95
ssg76
g128
sg69
(lp139
S':'
asbag62
(g83
g64
NtRp140
(dp141
g67
(dp142
sg76
g128
sg69
(lp143
g62
(g63
g64
NtRp144
(dp145
g67
(dp146
g75
I5
ssg76
g140
sg69
(lp147
g62
(g71
g64
NtRp148
(dp149
g67
(dp150
g75
I4
ssg76
Nsg69
(lp151
sbasbasbasbag62
(g78
g64
NtRp152
(dp153
g67
(dp154
sg76
g72
sg69
(lp155
g62
(g83
g64
NtRp156
(dp157
g67
(dp158
g87
g88
ssg76
g152
sg69
(lp159
S'body'
p160
asbag62
(g83
g64
NtRp161
(dp162
g67
(dp163
g94
g95
ssg76
g152
sg69
(lp164
S':'
asbag62
(g83
g64
NtRp165
(dp166
g67
(dp167
sg76
g152
sg69
(lp168
g62
(g63
g64
NtRp169
(dp170
g67
(dp171
g75
I5
ssg76
g165
sg69
(lp172
S'<cStringIO.StringO object at 0x194f650>'
p173
asbasbasbag62
(g78
g64
NtRp174
(dp175
g67
(dp176
sg76
g72
sg69
(lp177
g62
(g83
g64
NtRp178
(dp179
g67
(dp180
g87
g88
ssg76
g174
sg69
(lp181
S'client'
p182
asbag62
(g83
g64
NtRp183
(dp184
g67
(dp185
g94
g95
ssg76
g174
sg69
(lp186
S':'
asbag62
(g83
g64
NtRp187
(dp188
g67
(dp189
sg76
g174
sg69
(lp190
g62
(g63
g64
NtRp191
(dp192
g67
(dp193
g75
I5
ssg76
g187
sg69
(lp194
S'127.0.0.1'
p195
asbasbasbag62
(g78
g64
NtRp196
(dp197
g67
(dp198
sg76
g72
sg69
(lp199
g62
(g83
g64
NtRp200
(dp201
g67
(dp202
g87
g88
ssg76
g196
sg69
(lp203
S'controller'
p204
asbag62
(g83
g64
NtRp205
(dp206
g67
(dp207
g94
g95
ssg76
g196
sg69
(lp208
S':'
asbag62
(g83
g64
NtRp209
(dp210
g67
(dp211
sg76
g196
sg69
(lp212
g62
(g63
g64
NtRp213
(dp214
g67
(dp215
g75
I5
ssg76
g209
sg69
(lp216
S'admin'
p217
asbasbasbag62
(g78
g64
NtRp218
(dp219
g67
(dp220
sg76
g72
sg69
(lp221
g62
(g83
g64
NtRp222
(dp223
g67
(dp224
g87
g88
ssg76
g218
sg69
(lp225
S'cookies'
p226
asbag62
(g83
g64
NtRp227
(dp228
g67
(dp229
g94
g95
ssg76
g218
sg69
(lp230
S':'
asbag62
(g83
g64
NtRp231
(dp232
g67
(dp233
sg76
g218
sg69
(lp234
g62
(g63
g64
NtRp235
(dp236
g67
(dp237
g75
I5
ssg76
g231
sg69
(lp238
g62
(g71
g64
NtRp239
(dp240
g67
(dp241
g75
I4
ssg76
Nsg69
(lp242
g62
(g78
g64
NtRp243
(dp244
g67
(dp245
sg76
g239
sg69
(lp246
g62
(g83
g64
NtRp247
(dp248
g67
(dp249
g87
g88
ssg76
g243
sg69
(lp250
S'session_id_admin'
p251
asbag62
(g83
g64
NtRp252
(dp253
g67
(dp254
g94
g95
ssg76
g243
sg69
(lp255
S':'
asbag62
(g83
g64
NtRp256
(dp257
g67
(dp258
sg76
g243
sg69
(lp259
g62
(g63
g64
NtRp260
(dp261
g67
(dp262
g75
I4
ssg76
g256
sg69
(lp263
g62
(g71
g64
NtRp264
(dp265
g67
(dp266
g75
I3
ssg76
Nsg69
(lp267
g62
(g78
g64
NtRp268
(dp269
g67
(dp270
sg76
g264
sg69
(lp271
g62
(g83
g64
NtRp272
(dp273
g67
(dp274
g87
g88
ssg76
g268
sg69
(lp275
S'comment'
p276
asbag62
(g83
g64
NtRp277
(dp278
g67
(dp279
g94
g95
ssg76
g268
sg69
(lp280
S':'
asbag62
(g83
g64
NtRp281
(dp282
g67
(dp283
sg76
g268
sg69
(lp284
g62
(g63
g64
NtRp285
(dp286
g67
(dp287
g75
I3
ssg76
g281
sg69
(lp288
S''
asbasbasbag62
(g78
g64
NtRp289
(dp290
g67
(dp291
sg76
g264
sg69
(lp292
g62
(g83
g64
NtRp293
(dp294
g67
(dp295
g87
g88
ssg76
g289
sg69
(lp296
S'domain'
p297
asbag62
(g83
g64
NtRp298
(dp299
g67
(dp300
g94
g95
ssg76
g289
sg69
(lp301
S':'
asbag62
(g83
g64
NtRp302
(dp303
g67
(dp304
sg76
g289
sg69
(lp305
g62
(g63
g64
NtRp306
(dp307
g67
(dp308
g75
I3
ssg76
g302
sg69
(lp309
S''
asbasbasbag62
(g78
g64
NtRp310
(dp311
g67
(dp312
sg76
g264
sg69
(lp313
g62
(g83
g64
NtRp314
(dp315
g67
(dp316
g87
g88
ssg76
g310
sg69
(lp317
S'expires'
p318
asbag62
(g83
g64
NtRp319
(dp320
g67
(dp321
g94
g95
ssg76
g310
sg69
(lp322
S':'
asbag62
(g83
g64
NtRp323
(dp324
g67
(dp325
sg76
g310
sg69
(lp326
g62
(g63
g64
NtRp327
(dp328
g67
(dp329
g75
I3
ssg76
g323
sg69
(lp330
S''
asbasbasbag62
(g78
g64
NtRp331
(dp332
g67
(dp333
sg76
g264
sg69
(lp334
g62
(g83
g64
NtRp335
(dp336
g67
(dp337
g87
g88
ssg76
g331
sg69
(lp338
S'httponly'
p339
asbag62
(g83
g64
NtRp340
(dp341
g67
(dp342
g94
g95
ssg76
g331
sg69
(lp343
S':'
asbag62
(g83
g64
NtRp344
(dp345
g67
(dp346
sg76
g331
sg69
(lp347
g62
(g63
g64
NtRp348
(dp349
g67
(dp350
g75
I3
ssg76
g344
sg69
(lp351
S''
asbasbasbag62
(g78
g64
NtRp352
(dp353
g67
(dp354
sg76
g264
sg69
(lp355
g62
(g83
g64
NtRp356
(dp357
g67
(dp358
g87
g88
ssg76
g352
sg69
(lp359
S'max-age'
p360
asbag62
(g83
g64
NtRp361
(dp362
g67
(dp363
g94
g95
ssg76
g352
sg69
(lp364
S':'
asbag62
(g83
g64
NtRp365
(dp366
g67
(dp367
sg76
g352
sg69
(lp368
g62
(g63
g64
NtRp369
(dp370
g67
(dp371
g75
I3
ssg76
g365
sg69
(lp372
S''
asbasbasbag62
(g78
g64
NtRp373
(dp374
g67
(dp375
sg76
g264
sg69
(lp376
g62
(g83
g64
NtRp377
(dp378
g67
(dp379
g87
g88
ssg76
g373
sg69
(lp380
S'path'
p381
asbag62
(g83
g64
NtRp382
(dp383
g67
(dp384
g94
g95
ssg76
g373
sg69
(lp385
S':'
asbag62
(g83
g64
NtRp386
(dp387
g67
(dp388
sg76
g373
sg69
(lp389
g62
(g63
g64
NtRp390
(dp391
g67
(dp392
g75
I3
ssg76
g386
sg69
(lp393
S''
asbasbasbag62
(g78
g64
NtRp394
(dp395
g67
(dp396
sg76
g264
sg69
(lp397
g62
(g83
g64
NtRp398
(dp399
g67
(dp400
g87
g88
ssg76
g394
sg69
(lp401
S'secure'
p402
asbag62
(g83
g64
NtRp403
(dp404
g67
(dp405
g94
g95
ssg76
g394
sg69
(lp406
S':'
asbag62
(g83
g64
NtRp407
(dp408
g67
(dp409
sg76
g394
sg69
(lp410
g62
(g63
g64
NtRp411
(dp412
g67
(dp413
g75
I3
ssg76
g407
sg69
(lp414
S''
asbasbasbag62
(g78
g64
NtRp415
(dp416
g67
(dp417
sg76
g264
sg69
(lp418
g62
(g83
g64
NtRp419
(dp420
g67
(dp421
g87
g88
ssg76
g415
sg69
(lp422
S'version'
p423
asbag62
(g83
g64
NtRp424
(dp425
g67
(dp426
g94
g95
ssg76
g415
sg69
(lp427
S':'
asbag62
(g83
g64
NtRp428
(dp429
g67
(dp430
sg76
g415
sg69
(lp431
g62
(g63
g64
NtRp432
(dp433
g67
(dp434
g75
I3
ssg76
g428
sg69
(lp435
S''
asbasbasbasbasbasbasbag62
(g78
g64
NtRp436
(dp437
g67
(dp438
sg76
g239
sg69
(lp439
g62
(g83
g64
NtRp440
(dp441
g67
(dp442
g87
g88
ssg76
g436
sg69
(lp443
S'session_id_milo'
p444
asbag62
(g83
g64
NtRp445
(dp446
g67
(dp447
g94
g95
ssg76
g436
sg69
(lp448
S':'
asbag62
(g83
g64
NtRp449
(dp450
g67
(dp451
sg76
g436
sg69
(lp452
g62
(g63
g64
NtRp453
(dp454
g67
(dp455
g75
I4
ssg76
g449
sg69
(lp456
g62
(g71
g64
NtRp457
(dp458
g67
(dp459
g75
I3
ssg76
Nsg69
(lp460
g62
(g78
g64
NtRp461
(dp462
g67
(dp463
sg76
g457
sg69
(lp464
g62
(g83
g64
NtRp465
(dp466
g67
(dp467
g87
g88
ssg76
g461
sg69
(lp468
g276
asbag62
(g83
g64
NtRp469
(dp470
g67
(dp471
g94
g95
ssg76
g461
sg69
(lp472
S':'
asbag62
(g83
g64
NtRp473
(dp474
g67
(dp475
sg76
g461
sg69
(lp476
g62
(g63
g64
NtRp477
(dp478
g67
(dp479
g75
I3
ssg76
g473
sg69
(lp480
S''
asbasbasbag62
(g78
g64
NtRp481
(dp482
g67
(dp483
sg76
g457
sg69
(lp484
g62
(g83
g64
NtRp485
(dp486
g67
(dp487
g87
g88
ssg76
g481
sg69
(lp488
g297
asbag62
(g83
g64
NtRp489
(dp490
g67
(dp491
g94
g95
ssg76
g481
sg69
(lp492
S':'
asbag62
(g83
g64
NtRp493
(dp494
g67
(dp495
sg76
g481
sg69
(lp496
g62
(g63
g64
NtRp497
(dp498
g67
(dp499
g75
I3
ssg76
g493
sg69
(lp500
S''
asbasbasbag62
(g78
g64
NtRp501
(dp502
g67
(dp503
sg76
g457
sg69
(lp504
g62
(g83
g64
NtRp505
(dp506
g67
(dp507
g87
g88
ssg76
g501
sg69
(lp508
g318
asbag62
(g83
g64
NtRp509
(dp510
g67
(dp511
g94
g95
ssg76
g501
sg69
(lp512
S':'
asbag62
(g83
g64
NtRp513
(dp514
g67
(dp515
sg76
g501
sg69
(lp516
g62
(g63
g64
NtRp517
(dp518
g67
(dp519
g75
I3
ssg76
g513
sg69
(lp520
S''
asbasbasbag62
(g78
g64
NtRp521
(dp522
g67
(dp523
sg76
g457
sg69
(lp524
g62
(g83
g64
NtRp525
(dp526
g67
(dp527
g87
g88
ssg76
g521
sg69
(lp528
g339
asbag62
(g83
g64
NtRp529
(dp530
g67
(dp531
g94
g95
ssg76
g521
sg69
(lp532
S':'
asbag62
(g83
g64
NtRp533
(dp534
g67
(dp535
sg76
g521
sg69
(lp536
g62
(g63
g64
NtRp537
(dp538
g67
(dp539
g75
I3
ssg76
g533
sg69
(lp540
S''
asbasbasbag62
(g78
g64
NtRp541
(dp542
g67
(dp543
sg76
g457
sg69
(lp544
g62
(g83
g64
NtRp545
(dp546
g67
(dp547
g87
g88
ssg76
g541
sg69
(lp548
g360
asbag62
(g83
g64
NtRp549
(dp550
g67
(dp551
g94
g95
ssg76
g541
sg69
(lp552
S':'
asbag62
(g83
g64
NtRp553
(dp554
g67
(dp555
sg76
g541
sg69
(lp556
g62
(g63
g64
NtRp557
(dp558
g67
(dp559
g75
I3
ssg76
g553
sg69
(lp560
S''
asbasbasbag62
(g78
g64
NtRp561
(dp562
g67
(dp563
sg76
g457
sg69
(lp564
g62
(g83
g64
NtRp565
(dp566
g67
(dp567
g87
g88
ssg76
g561
sg69
(lp568
g381
asbag62
(g83
g64
NtRp569
(dp570
g67
(dp571
g94
g95
ssg76
g561
sg69
(lp572
S':'
asbag62
(g83
g64
NtRp573
(dp574
g67
(dp575
sg76
g561
sg69
(lp576
g62
(g63
g64
NtRp577
(dp578
g67
(dp579
g75
I3
ssg76
g573
sg69
(lp580
S''
asbasbasbag62
(g78
g64
NtRp581
(dp582
g67
(dp583
sg76
g457
sg69
(lp584
g62
(g83
g64
NtRp585
(dp586
g67
(dp587
g87
g88
ssg76
g581
sg69
(lp588
g402
asbag62
(g83
g64
NtRp589
(dp590
g67
(dp591
g94
g95
ssg76
g581
sg69
(lp592
S':'
asbag62
(g83
g64
NtRp593
(dp594
g67
(dp595
sg76
g581
sg69
(lp596
g62
(g63
g64
NtRp597
(dp598
g67
(dp599
g75
I3
ssg76
g593
sg69
(lp600
S''
asbasbasbag62
(g78
g64
NtRp601
(dp602
g67
(dp603
sg76
g457
sg69
(lp604
g62
(g83
g64
NtRp605
(dp606
g67
(dp607
g87
g88
ssg76
g601
sg69
(lp608
g423
asbag62
(g83
g64
NtRp609
(dp610
g67
(dp611
g94
g95
ssg76
g601
sg69
(lp612
S':'
asbag62
(g83
g64
NtRp613
(dp614
g67
(dp615
sg76
g601
sg69
(lp616
g62
(g63
g64
NtRp617
(dp618
g67
(dp619
g75
I3
ssg76
g613
sg69
(lp620
S''
asbasbasbasbasbasbasbasbasbasbasbag62
(g78
g64
NtRp621
(dp622
g67
(dp623
sg76
g72
sg69
(lp624
g62
(g83
g64
NtRp625
(dp626
g67
(dp627
g87
g88
ssg76
g621
sg69
(lp628
S'env'
p629
asbag62
(g83
g64
NtRp630
(dp631
g67
(dp632
g94
g95
ssg76
g621
sg69
(lp633
S':'
asbag62
(g83
g64
NtRp634
(dp635
g67
(dp636
sg76
g621
sg69
(lp637
g62
(g63
g64
NtRp638
(dp639
g67
(dp640
g75
I5
ssg76
g634
sg69
(lp641
g62
(g71
g64
NtRp642
(dp643
g67
(dp644
g75
I4
ssg76
Nsg69
(lp645
g62
(g78
g64
NtRp646
(dp647
g67
(dp648
sg76
g642
sg69
(lp649
g62
(g83
g64
NtRp650
(dp651
g67
(dp652
g87
g88
ssg76
g646
sg69
(lp653
S'app_folders'
p654
asbag62
(g83
g64
NtRp655
(dp656
g67
(dp657
g94
g95
ssg76
g646
sg69
(lp658
S':'
asbag62
(g83
g64
NtRp659
(dp660
g67
(dp661
sg76
g646
sg69
(lp662
g62
(g63
g64
NtRp663
(dp664
g67
(dp665
g75
I4
ssg76
g659
sg69
(lp666
S"set(['/home/goshawk/web2py/applications/milo/'])"
p667
asbasbasbag62
(g78
g64
NtRp668
(dp669
g67
(dp670
sg76
g642
sg69
(lp671
g62
(g83
g64
NtRp672
(dp673
g67
(dp674
g87
g88
ssg76
g668
sg69
(lp675
S'applications_parent'
p676
asbag62
(g83
g64
NtRp677
(dp678
g67
(dp679
g94
g95
ssg76
g668
sg69
(lp680
S':'
asbag62
(g83
g64
NtRp681
(dp682
g67
(dp683
sg76
g668
sg69
(lp684
g62
(g63
g64
NtRp685
(dp686
g67
(dp687
g75
I4
ssg76
g681
sg69
(lp688
S'/home/goshawk/web2py'
p689
asbasbasbag62
(g78
g64
NtRp690
(dp691
g67
(dp692
sg76
g642
sg69
(lp693
g62
(g83
g64
NtRp694
(dp695
g67
(dp696
g87
g88
ssg76
g690
sg69
(lp697
S'cmd_args'
p698
asbag62
(g83
g64
NtRp699
(dp700
g67
(dp701
g94
g95
ssg76
g690
sg69
(lp702
S':'
asbag62
(g83
g64
NtRp703
(dp704
g67
(dp705
sg76
g690
sg69
(lp706
g62
(g63
g64
NtRp707
(dp708
g67
(dp709
g75
I4
ssg76
g703
sg69
(lp710
g62
(g71
g64
NtRp711
(dp712
g67
(dp713
g75
I3
ssg76
Nsg69
(lp714
sbasbasbasbag62
(g78
g64
NtRp715
(dp716
g67
(dp717
sg76
g642
sg69
(lp718
g62
(g83
g64
NtRp719
(dp720
g67
(dp721
g87
g88
ssg76
g715
sg69
(lp722
S'cmd_options'
p723
asbag62
(g83
g64
NtRp724
(dp725
g67
(dp726
g94
g95
ssg76
g715
sg69
(lp727
S':'
asbag62
(g83
g64
NtRp728
(dp729
g67
(dp730
sg76
g715
sg69
(lp731
g62
(g63
g64
NtRp732
(dp733
g67
(dp734
g75
I4
ssg76
g728
sg69
(lp735
S"<Values at 0x18e90e0: {'verbose': False, 'ip': '127.0.0.1', 'shutdown_timeout': 5, 'taskbar': False, 'nocron': False, 'pid_filename': 'httpserver.pid', 'maxthreads': None, 'softcron': False, 'server_name': 'whisperer', 'bpython': False, 'nogui': False, 'port': 8000, 'extcron': False, 'debuglevel': 30, 'test': None, 'folder': '/home/goshawk/web2py', 'config': '', 'import_models': False, 'winservice': '', 'shell': None, 'run': '', 'log_filename': 'httpserver.log', 'args': [''], 'socket_timeout': 5, 'ssl_ca_certificate': None, 'scheduler': None, 'profiler_filename': None, 'ssl_private_key': '', 'password': 'admin', 'request_queue_size': 5, 'ssl_certificate': '', 'cronjob': False, 'numthreads': None, 'quiet': False, 'interfaces': None, 'minthreads': None, 'timeout': 10, 'plain': False, 'nobanner': False}>"
p736
asbasbasbag62
(g78
g64
NtRp737
(dp738
g67
(dp739
sg76
g642
sg69
(lp740
g62
(g83
g64
NtRp741
(dp742
g67
(dp743
g87
g88
ssg76
g737
sg69
(lp744
S'db_sessions'
p745
asbag62
(g83
g64
NtRp746
(dp747
g67
(dp748
g94
g95
ssg76
g737
sg69
(lp749
S':'
asbag62
(g83
g64
NtRp750
(dp751
g67
(dp752
sg76
g737
sg69
(lp753
g62
(g63
g64
NtRp754
(dp755
g67
(dp756
g75
I4
ssg76
g750
sg69
(lp757
S'set([])'
p758
asbasbasbag62
(g78
g64
NtRp759
(dp760
g67
(dp761
sg76
g642
sg69
(lp762
g62
(g83
g64
NtRp763
(dp764
g67
(dp765
g87
g88
ssg76
g759
sg69
(lp766
S'debugging'
p767
asbag62
(g83
g64
NtRp768
(dp769
g67
(dp770
g94
g95
ssg76
g759
sg69
(lp771
S':'
asbag62
(g83
g64
NtRp772
(dp773
g67
(dp774
sg76
g759
sg69
(lp775
g62
(g63
g64
NtRp776
(dp777
g67
(dp778
g75
I4
ssg76
g772
sg69
(lp779
g105
asbasbasbag62
(g78
g64
NtRp780
(dp781
g67
(dp782
sg76
g642
sg69
(lp783
g62
(g83
g64
NtRp784
(dp785
g67
(dp786
g87
g88
ssg76
g780
sg69
(lp787
S'gluon_parent'
p788
asbag62
(g83
g64
NtRp789
(dp790
g67
(dp791
g94
g95
ssg76
g780
sg69
(lp792
S':'
asbag62
(g83
g64
NtRp793
(dp794
g67
(dp795
sg76
g780
sg69
(lp796
g62
(g63
g64
NtRp797
(dp798
g67
(dp799
g75
I4
ssg76
g793
sg69
(lp800
S'/home/goshawk/web2py'
p801
asbasbasbag62
(g78
g64
NtRp802
(dp803
g67
(dp804
sg76
g642
sg69
(lp805
g62
(g83
g64
NtRp806
(dp807
g67
(dp808
g87
g88
ssg76
g802
sg69
(lp809
S'http_accept'
p810
asbag62
(g83
g64
NtRp811
(dp812
g67
(dp813
g94
g95
ssg76
g802
sg69
(lp814
S':'
asbag62
(g83
g64
NtRp815
(dp816
g67
(dp817
sg76
g802
sg69
(lp818
g62
(g63
g64
NtRp819
(dp820
g67
(dp821
g75
I4
ssg76
g815
sg69
(lp822
S'text/html,application/xhtml+xml,application/xml;q=0.9,*/*;q=0.8'
p823
asbasbasbag62
(g78
g64
NtRp824
(dp825
g67
(dp826
sg76
g642
sg69
(lp827
g62
(g83
g64
NtRp828
(dp829
g67
(dp830
g87
g88
ssg76
g824
sg69
(lp831
S'http_accept_charset'
p832
asbag62
(g83
g64
NtRp833
(dp834
g67
(dp835
g94
g95
ssg76
g824
sg69
(lp836
S':'
asbag62
(g83
g64
NtRp837
(dp838
g67
(dp839
sg76
g824
sg69
(lp840
g62
(g63
g64
NtRp841
(dp842
g67
(dp843
g75
I4
ssg76
g837
sg69
(lp844
S'ISO-8859-1,utf-8;q=0.7,*;q=0.3'
p845
asbasbasbag62
(g78
g64
NtRp846
(dp847
g67
(dp848
sg76
g642
sg69
(lp849
g62
(g83
g64
NtRp850
(dp851
g67
(dp852
g87
g88
ssg76
g846
sg69
(lp853
S'http_accept_encoding'
p854
asbag62
(g83
g64
NtRp855
(dp856
g67
(dp857
g94
g95
ssg76
g846
sg69
(lp858
S':'
asbag62
(g83
g64
NtRp859
(dp860
g67
(dp861
sg76
g846
sg69
(lp862
g62
(g63
g64
NtRp863
(dp864
g67
(dp865
g75
I4
ssg76
g859
sg69
(lp866
S'gzip,deflate,sdch'
p867
asbasbasbag62
(g78
g64
NtRp868
(dp869
g67
(dp870
sg76
g642
sg69
(lp871
g62
(g83
g64
NtRp872
(dp873
g67
(dp874
g87
g88
ssg76
g868
sg69
(lp875
S'http_accept_language'
p876
asbag62
(g83
g64
NtRp877
(dp878
g67
(dp879
g94
g95
ssg76
g868
sg69
(lp880
S':'
asbag62
(g83
g64
NtRp881
(dp882
g67
(dp883
sg76
g868
sg69
(lp884
g62
(g63
g64
NtRp885
(dp886
g67
(dp887
g75
I4
ssg76
g881
sg69
(lp888
S'en-US,en;q=0.8'
p889
asbasbasbag62
(g78
g64
NtRp890
(dp891
g67
(dp892
sg76
g642
sg69
(lp893
g62
(g83
g64
NtRp894
(dp895
g67
(dp896
g87
g88
ssg76
g890
sg69
(lp897
S'http_cache_control'
p898
asbag62
(g83
g64
NtRp899
(dp900
g67
(dp901
g94
g95
ssg76
g890
sg69
(lp902
S':'
asbag62
(g83
g64
NtRp903
(dp904
g67
(dp905
sg76
g890
sg69
(lp906
g62
(g63
g64
NtRp907
(dp908
g67
(dp909
g75
I4
ssg76
g903
sg69
(lp910
S'max-age=0'
p911
asbasbasbag62
(g78
g64
NtRp912
(dp913
g67
(dp914
sg76
g642
sg69
(lp915
g62
(g83
g64
NtRp916
(dp917
g67
(dp918
g87
g88
ssg76
g912
sg69
(lp919
S'http_connection'
p920
asbag62
(g83
g64
NtRp921
(dp922
g67
(dp923
g94
g95
ssg76
g912
sg69
(lp924
S':'
asbag62
(g83
g64
NtRp925
(dp926
g67
(dp927
sg76
g912
sg69
(lp928
g62
(g63
g64
NtRp929
(dp930
g67
(dp931
g75
I4
ssg76
g925
sg69
(lp932
S'keep-alive'
p933
asbasbasbag62
(g78
g64
NtRp934
(dp935
g67
(dp936
sg76
g642
sg69
(lp937
g62
(g83
g64
NtRp938
(dp939
g67
(dp940
g87
g88
ssg76
g934
sg69
(lp941
S'http_cookie'
p942
asbag62
(g83
g64
NtRp943
(dp944
g67
(dp945
g94
g95
ssg76
g934
sg69
(lp946
S':'
asbag62
(g83
g64
NtRp947
(dp948
g67
(dp949
sg76
g934
sg69
(lp950
g62
(g63
g64
NtRp951
(dp952
g67
(dp953
g75
I4
ssg76
g947
sg69
(lp954
S'session_id_milo=127.0.0.1-6ea54ce8-d4d4-42e2-9f2c-7c1a0acc789f; session_id_admin=127.0.0.1-15ce088f-ba26-4e86-8b5e-a24ec37269b4'
p955
asbasbasbag62
(g78
g64
NtRp956
(dp957
g67
(dp958
sg76
g642
sg69
(lp959
g62
(g83
g64
NtRp960
(dp961
g67
(dp962
g87
g88
ssg76
g956
sg69
(lp963
S'http_host'
p964
asbag62
(g83
g64
NtRp965
(dp966
g67
(dp967
g94
g95
ssg76
g956
sg69
(lp968
S':'
asbag62
(g83
g64
NtRp969
(dp970
g67
(dp971
sg76
g956
sg69
(lp972
g62
(g63
g64
NtRp973
(dp974
g67
(dp975
g75
I4
ssg76
g969
sg69
(lp976
S'localhost:8000'
p977
asbasbasbag62
(g78
g64
NtRp978
(dp979
g67
(dp980
sg76
g642
sg69
(lp981
g62
(g83
g64
NtRp982
(dp983
g67
(dp984
g87
g88
ssg76
g978
sg69
(lp985
S'http_referer'
p986
asbag62
(g83
g64
NtRp987
(dp988
g67
(dp989
g94
g95
ssg76
g978
sg69
(lp990
S':'
asbag62
(g83
g64
NtRp991
(dp992
g67
(dp993
sg76
g978
sg69
(lp994
g62
(g63
g64
NtRp995
(dp996
g67
(dp997
g75
I4
ssg76
g991
sg69
(lp998
S'http://localhost:8000/'
p999
asbasbasbag62
(g78
g64
NtRp1000
(dp1001
g67
(dp1002
sg76
g642
sg69
(lp1003
g62
(g83
g64
NtRp1004
(dp1005
g67
(dp1006
g87
g88
ssg76
g1000
sg69
(lp1007
S'http_user_agent'
p1008
asbag62
(g83
g64
NtRp1009
(dp1010
g67
(dp1011
g94
g95
ssg76
g1000
sg69
(lp1012
S':'
asbag62
(g83
g64
NtRp1013
(dp1014
g67
(dp1015
sg76
g1000
sg69
(lp1016
g62
(g63
g64
NtRp1017
(dp1018
g67
(dp1019
g75
I4
ssg76
g1013
sg69
(lp1020
S'Mozilla/5.0 (X11; Linux x86_64) AppleWebKit/535.19 (KHTML, like Gecko) Ubuntu/12.04 Chromium/18.0.1025.168 Chrome/18.0.1025.168 Safari/535.19'
p1021
asbasbasbag62
(g78
g64
NtRp1022
(dp1023
g67
(dp1024
sg76
g642
sg69
(lp1025
g62
(g83
g64
NtRp1026
(dp1027
g67
(dp1028
g87
g88
ssg76
g1022
sg69
(lp1029
S'is_jython'
p1030
asbag62
(g83
g64
NtRp1031
(dp1032
g67
(dp1033
g94
g95
ssg76
g1022
sg69
(lp1034
S':'
asbag62
(g83
g64
NtRp1035
(dp1036
g67
(dp1037
sg76
g1022
sg69
(lp1038
g62
(g63
g64
NtRp1039
(dp1040
g67
(dp1041
g75
I4
ssg76
g1035
sg69
(lp1042
g105
asbasbasbag62
(g78
g64
NtRp1043
(dp1044
g67
(dp1045
sg76
g642
sg69
(lp1046
g62
(g83
g64
NtRp1047
(dp1048
g67
(dp1049
g87
g88
ssg76
g1043
sg69
(lp1050
S'is_pypy'
p1051
asbag62
(g83
g64
NtRp1052
(dp1053
g67
(dp1054
g94
g95
ssg76
g1043
sg69
(lp1055
S':'
asbag62
(g83
g64
NtRp1056
(dp1057
g67
(dp1058
sg76
g1043
sg69
(lp1059
g62
(g63
g64
NtRp1060
(dp1061
g67
(dp1062
g75
I4
ssg76
g1056
sg69
(lp1063
g105
asbasbasbag62
(g78
g64
NtRp1064
(dp1065
g67
(dp1066
sg76
g642
sg69
(lp1067
g62
(g83
g64
NtRp1068
(dp1069
g67
(dp1070
g87
g88
ssg76
g1064
sg69
(lp1071
S'path_info'
p1072
asbag62
(g83
g64
NtRp1073
(dp1074
g67
(dp1075
g94
g95
ssg76
g1064
sg69
(lp1076
S':'
asbag62
(g83
g64
NtRp1077
(dp1078
g67
(dp1079
sg76
g1064
sg69
(lp1080
g62
(g63
g64
NtRp1081
(dp1082
g67
(dp1083
g75
I4
ssg76
g1077
sg69
(lp1084
S'/milo/admin/index'
p1085
asbasbasbag62
(g78
g64
NtRp1086
(dp1087
g67
(dp1088
sg76
g642
sg69
(lp1089
g62
(g83
g64
NtRp1090
(dp1091
g67
(dp1092
g87
g88
ssg76
g1086
sg69
(lp1093
S'query_string'
p1094
asbag62
(g83
g64
NtRp1095
(dp1096
g67
(dp1097
g94
g95
ssg76
g1086
sg69
(lp1098
S':'
asbag62
(g83
g64
NtRp1099
(dp1100
g67
(dp1101
sg76
g1086
sg69
(lp1102
g62
(g63
g64
NtRp1103
(dp1104
g67
(dp1105
g75
I4
ssg76
g1099
sg69
(lp1106
S''
asbasbasbag62
(g78
g64
NtRp1107
(dp1108
g67
(dp1109
sg76
g642
sg69
(lp1110
g62
(g83
g64
NtRp1111
(dp1112
g67
(dp1113
g87
g88
ssg76
g1107
sg69
(lp1114
S'remote_addr'
p1115
asbag62
(g83
g64
NtRp1116
(dp1117
g67
(dp1118
g94
g95
ssg76
g1107
sg69
(lp1119
S':'
asbag62
(g83
g64
NtRp1120
(dp1121
g67
(dp1122
sg76
g1107
sg69
(lp1123
g62
(g63
g64
NtRp1124
(dp1125
g67
(dp1126
g75
I4
ssg76
g1120
sg69
(lp1127
g195
asbasbasbag62
(g78
g64
NtRp1128
(dp1129
g67
(dp1130
sg76
g642
sg69
(lp1131
g62
(g83
g64
NtRp1132
(dp1133
g67
(dp1134
g87
g88
ssg76
g1128
sg69
(lp1135
S'remote_port'
p1136
asbag62
(g83
g64
NtRp1137
(dp1138
g67
(dp1139
g94
g95
ssg76
g1128
sg69
(lp1140
S':'
asbag62
(g83
g64
NtRp1141
(dp1142
g67
(dp1143
sg76
g1128
sg69
(lp1144
g62
(g63
g64
NtRp1145
(dp1146
g67
(dp1147
g75
I4
ssg76
g1141
sg69
(lp1148
S'36469'
p1149
asbasbasbag62
(g78
g64
NtRp1150
(dp1151
g67
(dp1152
sg76
g642
sg69
(lp1153
g62
(g83
g64
NtRp1154
(dp1155
g67
(dp1156
g87
g88
ssg76
g1150
sg69
(lp1157
S'request_method'
p1158
asbag62
(g83
g64
NtRp1159
(dp1160
g67
(dp1161
g94
g95
ssg76
g1150
sg69
(lp1162
S':'
asbag62
(g83
g64
NtRp1163
(dp1164
g67
(dp1165
sg76
g1150
sg69
(lp1166
g62
(g63
g64
NtRp1167
(dp1168
g67
(dp1169
g75
I4
ssg76
g1163
sg69
(lp1170
S'GET'
p1171
asbasbasbag62
(g78
g64
NtRp1172
(dp1173
g67
(dp1174
sg76
g642
sg69
(lp1175
g62
(g83
g64
NtRp1176
(dp1177
g67
(dp1178
g87
g88
ssg76
g1172
sg69
(lp1179
S'request_uri'
p1180
asbag62
(g83
g64
NtRp1181
(dp1182
g67
(dp1183
g94
g95
ssg76
g1172
sg69
(lp1184
S':'
asbag62
(g83
g64
NtRp1185
(dp1186
g67
(dp1187
sg76
g1172
sg69
(lp1188
g62
(g63
g64
NtRp1189
(dp1190
g67
(dp1191
g75
I4
ssg76
g1185
sg69
(lp1192
g1085
asbasbasbag62
(g78
g64
NtRp1193
(dp1194
g67
(dp1195
sg76
g642
sg69
(lp1196
g62
(g83
g64
NtRp1197
(dp1198
g67
(dp1199
g87
g88
ssg76
g1193
sg69
(lp1200
S'script_name'
p1201
asbag62
(g83
g64
NtRp1202
(dp1203
g67
(dp1204
g94
g95
ssg76
g1193
sg69
(lp1205
S':'
asbag62
(g83
g64
NtRp1206
(dp1207
g67
(dp1208
sg76
g1193
sg69
(lp1209
g62
(g63
g64
NtRp1210
(dp1211
g67
(dp1212
g75
I4
ssg76
g1206
sg69
(lp1213
S''
asbasbasbag62
(g78
g64
NtRp1214
(dp1215
g67
(dp1216
sg76
g642
sg69
(lp1217
g62
(g83
g64
NtRp1218
(dp1219
g67
(dp1220
g87
g88
ssg76
g1214
sg69
(lp1221
S'server_name'
p1222
asbag62
(g83
g64
NtRp1223
(dp1224
g67
(dp1225
g94
g95
ssg76
g1214
sg69
(lp1226
S':'
asbag62
(g83
g64
NtRp1227
(dp1228
g67
(dp1229
sg76
g1214
sg69
(lp1230
g62
(g63
g64
NtRp1231
(dp1232
g67
(dp1233
g75
I4
ssg76
g1227
sg69
(lp1234
S'whisperer'
p1235
asbasbasbag62
(g78
g64
NtRp1236
(dp1237
g67
(dp1238
sg76
g642
sg69
(lp1239
g62
(g83
g64
NtRp1240
(dp1241
g67
(dp1242
g87
g88
ssg76
g1236
sg69
(lp1243
S'server_port'
p1244
asbag62
(g83
g64
NtRp1245
(dp1246
g67
(dp1247
g94
g95
ssg76
g1236
sg69
(lp1248
S':'
asbag62
(g83
g64
NtRp1249
(dp1250
g67
(dp1251
sg76
g1236
sg69
(lp1252
g62
(g63
g64
NtRp1253
(dp1254
g67
(dp1255
g75
I4
ssg76
g1249
sg69
(lp1256
S'8000'
p1257
asbasbasbag62
(g78
g64
NtRp1258
(dp1259
g67
(dp1260
sg76
g642
sg69
(lp1261
g62
(g83
g64
NtRp1262
(dp1263
g67
(dp1264
g87
g88
ssg76
g1258
sg69
(lp1265
S'server_protocol'
p1266
asbag62
(g83
g64
NtRp1267
(dp1268
g67
(dp1269
g94
g95
ssg76
g1258
sg69
(lp1270
S':'
asbag62
(g83
g64
NtRp1271
(dp1272
g67
(dp1273
sg76
g1258
sg69
(lp1274
g62
(g63
g64
NtRp1275
(dp1276
g67
(dp1277
g75
I4
ssg76
g1271
sg69
(lp1278
S'HTTP/1.1'
p1279
asbasbasbag62
(g78
g64
NtRp1280
(dp1281
g67
(dp1282
sg76
g642
sg69
(lp1283
g62
(g83
g64
NtRp1284
(dp1285
g67
(dp1286
g87
g88
ssg76
g1280
sg69
(lp1287
S'server_software'
p1288
asbag62
(g83
g64
NtRp1289
(dp1290
g67
(dp1291
g94
g95
ssg76
g1280
sg69
(lp1292
S':'
asbag62
(g83
g64
NtRp1293
(dp1294
g67
(dp1295
sg76
g1280
sg69
(lp1296
g62
(g63
g64
NtRp1297
(dp1298
g67
(dp1299
g75
I4
ssg76
g1293
sg69
(lp1300
S'Rocket 1.2.4'
p1301
asbasbasbag62
(g78
g64
NtRp1302
(dp1303
g67
(dp1304
sg76
g642
sg69
(lp1305
g62
(g83
g64
NtRp1306
(dp1307
g67
(dp1308
g87
g88
ssg76
g1302
sg69
(lp1309
S'web2py_crontype'
p1310
asbag62
(g83
g64
NtRp1311
(dp1312
g67
(dp1313
g94
g95
ssg76
g1302
sg69
(lp1314
S':'
asbag62
(g83
g64
NtRp1315
(dp1316
g67
(dp1317
sg76
g1302
sg69
(lp1318
g62
(g63
g64
NtRp1319
(dp1320
g67
(dp1321
g75
I4
ssg76
g1315
sg69
(lp1322
S'hard'
p1323
asbasbasbag62
(g78
g64
NtRp1324
(dp1325
g67
(dp1326
sg76
g642
sg69
(lp1327
g62
(g83
g64
NtRp1328
(dp1329
g67
(dp1330
g87
g88
ssg76
g1324
sg69
(lp1331
S'web2py_original_uri'
p1332
asbag62
(g83
g64
NtRp1333
(dp1334
g67
(dp1335
g94
g95
ssg76
g1324
sg69
(lp1336
S':'
asbag62
(g83
g64
NtRp1337
(dp1338
g67
(dp1339
sg76
g1324
sg69
(lp1340
g62
(g63
g64
NtRp1341
(dp1342
g67
(dp1343
g75
I4
ssg76
g1337
sg69
(lp1344
g1085
asbasbasbag62
(g78
g64
NtRp1345
(dp1346
g67
(dp1347
sg76
g642
sg69
(lp1348
g62
(g83
g64
NtRp1349
(dp1350
g67
(dp1351
g87
g88
ssg76
g1345
sg69
(lp1352
S'web2py_path'
p1353
asbag62
(g83
g64
NtRp1354
(dp1355
g67
(dp1356
g94
g95
ssg76
g1345
sg69
(lp1357
S':'
asbag62
(g83
g64
NtRp1358
(dp1359
g67
(dp1360
sg76
g1345
sg69
(lp1361
g62
(g63
g64
NtRp1362
(dp1363
g67
(dp1364
g75
I4
ssg76
g1358
sg69
(lp1365
g689
asbasbasbag62
(g78
g64
NtRp1366
(dp1367
g67
(dp1368
sg76
g642
sg69
(lp1369
g62
(g83
g64
NtRp1370
(dp1371
g67
(dp1372
g87
g88
ssg76
g1366
sg69
(lp1373
S'web2py_version'
p1374
asbag62
(g83
g64
NtRp1375
(dp1376
g67
(dp1377
g94
g95
ssg76
g1366
sg69
(lp1378
S':'
asbag62
(g83
g64
NtRp1379
(dp1380
g67
(dp1381
sg76
g1366
sg69
(lp1382
g62
(g63
g64
NtRp1383
(dp1384
g67
(dp1385
g75
I4
ssg76
g1379
sg69
(lp1386
g62
(g71
g64
NtRp1387
(dp1388
g67
(dp1389
g75
I3
ssg76
Nsg69
(lp1390
g62
(g78
g64
NtRp1391
(dp1392
g67
(dp1393
sg76
g1387
sg69
(lp1394
g62
(g83
g64
NtRp1395
(dp1396
g67
(dp1397
sg76
g1391
sg69
(lp1398
g62
(g63
g64
NtRp1399
(dp1400
g67
(dp1401
g75
I3
ssg76
g1395
sg69
(lp1402
S'1'
asbasbasbag62
(g78
g64
NtRp1403
(dp1404
g67
(dp1405
sg76
g1387
sg69
(lp1406
g62
(g83
g64
NtRp1407
(dp1408
g67
(dp1409
sg76
g1403
sg69
(lp1410
g62
(g63
g64
NtRp1411
(dp1412
g67
(dp1413
g75
I3
ssg76
g1407
sg69
(lp1414
S'99'
p1415
asbasbasbag62
(g78
g64
NtRp1416
(dp1417
g67
(dp1418
sg76
g1387
sg69
(lp1419
g62
(g83
g64
NtRp1420
(dp1421
g67
(dp1422
sg76
g1416
sg69
(lp1423
g62
(g63
g64
NtRp1424
(dp1425
g67
(dp1426
g75
I3
ssg76
g1420
sg69
(lp1427
S'7'
asbasbasbag62
(g78
g64
NtRp1428
(dp1429
g67
(dp1430
sg76
g1387
sg69
(lp1431
g62
(g83
g64
NtRp1432
(dp1433
g67
(dp1434
sg76
g1428
sg69
(lp1435
g62
(g63
g64
NtRp1436
(dp1437
g67
(dp1438
g75
I3
ssg76
g1432
sg69
(lp1439
S'datetime.datetime(2012, 3, 4, 22, 12, 8)'
p1440
asbasbasbag62
(g78
g64
NtRp1441
(dp1442
g67
(dp1443
sg76
g1387
sg69
(lp1444
g62
(g83
g64
NtRp1445
(dp1446
g67
(dp1447
sg76
g1441
sg69
(lp1448
g62
(g63
g64
NtRp1449
(dp1450
g67
(dp1451
g75
I3
ssg76
g1445
sg69
(lp1452
S'stable'
p1453
asbasbasbasbasbasbasbag62
(g78
g64
NtRp1454
(dp1455
g67
(dp1456
sg76
g642
sg69
(lp1457
g62
(g83
g64
NtRp1458
(dp1459
g67
(dp1460
g87
g88
ssg76
g1454
sg69
(lp1461
S'wsgi_errors'
p1462
asbag62
(g83
g64
NtRp1463
(dp1464
g67
(dp1465
g94
g95
ssg76
g1454
sg69
(lp1466
S':'
asbag62
(g83
g64
NtRp1467
(dp1468
g67
(dp1469
sg76
g1454
sg69
(lp1470
g62
(g63
g64
NtRp1471
(dp1472
g67
(dp1473
g75
I4
ssg76
g1467
sg69
(lp1474
S"<open file '<stderr>', mode 'w' at 0x7fc7bb865270>"
p1475
asbasbasbag62
(g78
g64
NtRp1476
(dp1477
g67
(dp1478
sg76
g642
sg69
(lp1479
g62
(g83
g64
NtRp1480
(dp1481
g67
(dp1482
g87
g88
ssg76
g1476
sg69
(lp1483
S'wsgi_file_wrapper'
p1484
asbag62
(g83
g64
NtRp1485
(dp1486
g67
(dp1487
g94
g95
ssg76
g1476
sg69
(lp1488
S':'
asbag62
(g83
g64
NtRp1489
(dp1490
g67
(dp1491
sg76
g1476
sg69
(lp1492
g62
(g63
g64
NtRp1493
(dp1494
g67
(dp1495
g75
I4
ssg76
g1489
sg69
(lp1496
S'<class wsgiref.util.FileWrapper at 0x1815f58>'
p1497
asbasbasbag62
(g78
g64
NtRp1498
(dp1499
g67
(dp1500
sg76
g642
sg69
(lp1501
g62
(g83
g64
NtRp1502
(dp1503
g67
(dp1504
g87
g88
ssg76
g1498
sg69
(lp1505
S'wsgi_input'
p1506
asbag62
(g83
g64
NtRp1507
(dp1508
g67
(dp1509
g94
g95
ssg76
g1498
sg69
(lp1510
S':'
asbag62
(g83
g64
NtRp1511
(dp1512
g67
(dp1513
sg76
g1498
sg69
(lp1514
g62
(g63
g64
NtRp1515
(dp1516
g67
(dp1517
g75
I4
ssg76
g1511
sg69
(lp1518
S'<socket._fileobject object at 0x1949450>'
p1519
asbasbasbag62
(g78
g64
NtRp1520
(dp1521
g67
(dp1522
sg76
g642
sg69
(lp1523
g62
(g83
g64
NtRp1524
(dp1525
g67
(dp1526
g87
g88
ssg76
g1520
sg69
(lp1527
S'wsgi_multiprocess'
p1528
asbag62
(g83
g64
NtRp1529
(dp1530
g67
(dp1531
g94
g95
ssg76
g1520
sg69
(lp1532
S':'
asbag62
(g83
g64
NtRp1533
(dp1534
g67
(dp1535
sg76
g1520
sg69
(lp1536
g62
(g63
g64
NtRp1537
(dp1538
g67
(dp1539
g75
I4
ssg76
g1533
sg69
(lp1540
g105
asbasbasbag62
(g78
g64
NtRp1541
(dp1542
g67
(dp1543
sg76
g642
sg69
(lp1544
g62
(g83
g64
NtRp1545
(dp1546
g67
(dp1547
g87
g88
ssg76
g1541
sg69
(lp1548
S'wsgi_multithread'
p1549
asbag62
(g83
g64
NtRp1550
(dp1551
g67
(dp1552
g94
g95
ssg76
g1541
sg69
(lp1553
S':'
asbag62
(g83
g64
NtRp1554
(dp1555
g67
(dp1556
sg76
g1541
sg69
(lp1557
g62
(g63
g64
NtRp1558
(dp1559
g67
(dp1560
g75
I4
ssg76
g1554
sg69
(lp1561
S'True'
p1562
asbasbasbag62
(g78
g64
NtRp1563
(dp1564
g67
(dp1565
sg76
g642
sg69
(lp1566
g62
(g83
g64
NtRp1567
(dp1568
g67
(dp1569
g87
g88
ssg76
g1563
sg69
(lp1570
S'wsgi_run_once'
p1571
asbag62
(g83
g64
NtRp1572
(dp1573
g67
(dp1574
g94
g95
ssg76
g1563
sg69
(lp1575
S':'
asbag62
(g83
g64
NtRp1576
(dp1577
g67
(dp1578
sg76
g1563
sg69
(lp1579
g62
(g63
g64
NtRp1580
(dp1581
g67
(dp1582
g75
I4
ssg76
g1576
sg69
(lp1583
g105
asbasbasbag62
(g78
g64
NtRp1584
(dp1585
g67
(dp1586
sg76
g642
sg69
(lp1587
g62
(g83
g64
NtRp1588
(dp1589
g67
(dp1590
g87
g88
ssg76
g1584
sg69
(lp1591
S'wsgi_url_scheme'
p1592
asbag62
(g83
g64
NtRp1593
(dp1594
g67
(dp1595
g94
g95
ssg76
g1584
sg69
(lp1596
S':'
asbag62
(g83
g64
NtRp1597
(dp1598
g67
(dp1599
sg76
g1584
sg69
(lp1600
g62
(g63
g64
NtRp1601
(dp1602
g67
(dp1603
g75
I4
ssg76
g1597
sg69
(lp1604
S'http'
p1605
asbasbasbag62
(g78
g64
NtRp1606
(dp1607
g67
(dp1608
sg76
g642
sg69
(lp1609
g62
(g83
g64
NtRp1610
(dp1611
g67
(dp1612
g87
g88
ssg76
g1606
sg69
(lp1613
S'wsgi_version'
p1614
asbag62
(g83
g64
NtRp1615
(dp1616
g67
(dp1617
g94
g95
ssg76
g1606
sg69
(lp1618
S':'
asbag62
(g83
g64
NtRp1619
(dp1620
g67
(dp1621
sg76
g1606
sg69
(lp1622
g62
(g63
g64
NtRp1623
(dp1624
g67
(dp1625
g75
I4
ssg76
g1619
sg69
(lp1626
g62
(g71
g64
NtRp1627
(dp1628
g67
(dp1629
g75
I3
ssg76
Nsg69
(lp1630
g62
(g78
g64
NtRp1631
(dp1632
g67
(dp1633
sg76
g1627
sg69
(lp1634
g62
(g83
g64
NtRp1635
(dp1636
g67
(dp1637
sg76
g1631
sg69
(lp1638
g62
(g63
g64
NtRp1639
(dp1640
g67
(dp1641
g75
I3
ssg76
g1635
sg69
(lp1642
S'1'
asbasbasbag62
(g78
g64
NtRp1643
(dp1644
g67
(dp1645
sg76
g1627
sg69
(lp1646
g62
(g83
g64
NtRp1647
(dp1648
g67
(dp1649
sg76
g1643
sg69
(lp1650
g62
(g63
g64
NtRp1651
(dp1652
g67
(dp1653
g75
I3
ssg76
g1647
sg69
(lp1654
S'0'
asbasbasbasbasbasbasbasbasbasbasbag62
(g78
g64
NtRp1655
(dp1656
g67
(dp1657
sg76
g72
sg69
(lp1658
g62
(g83
g64
NtRp1659
(dp1660
g67
(dp1661
g87
g88
ssg76
g1655
sg69
(lp1662
S'extension'
p1663
asbag62
(g83
g64
NtRp1664
(dp1665
g67
(dp1666
g94
g95
ssg76
g1655
sg69
(lp1667
S':'
asbag62
(g83
g64
NtRp1668
(dp1669
g67
(dp1670
sg76
g1655
sg69
(lp1671
g62
(g63
g64
NtRp1672
(dp1673
g67
(dp1674
g75
I5
ssg76
g1668
sg69
(lp1675
S'html'
p1676
asbasbasbag62
(g78
g64
NtRp1677
(dp1678
g67
(dp1679
sg76
g72
sg69
(lp1680
g62
(g83
g64
NtRp1681
(dp1682
g67
(dp1683
g87
g88
ssg76
g1677
sg69
(lp1684
S'folder'
p1685
asbag62
(g83
g64
NtRp1686
(dp1687
g67
(dp1688
g94
g95
ssg76
g1677
sg69
(lp1689
S':'
asbag62
(g83
g64
NtRp1690
(dp1691
g67
(dp1692
sg76
g1677
sg69
(lp1693
g62
(g63
g64
NtRp1694
(dp1695
g67
(dp1696
g75
I5
ssg76
g1690
sg69
(lp1697
S'/home/goshawk/web2py/applications/milo/'
p1698
asbasbasbag62
(g78
g64
NtRp1699
(dp1700
g67
(dp1701
sg76
g72
sg69
(lp1702
g62
(g83
g64
NtRp1703
(dp1704
g67
(dp1705
g87
g88
ssg76
g1699
sg69
(lp1706
S'function'
p1707
asbag62
(g83
g64
NtRp1708
(dp1709
g67
(dp1710
g94
g95
ssg76
g1699
sg69
(lp1711
S':'
asbag62
(g83
g64
NtRp1712
(dp1713
g67
(dp1714
sg76
g1699
sg69
(lp1715
g62
(g63
g64
NtRp1716
(dp1717
g67
(dp1718
g75
I5
ssg76
g1712
sg69
(lp1719
S'index'
p1720
asbasbasbag62
(g78
g64
NtRp1721
(dp1722
g67
(dp1723
sg76
g72
sg69
(lp1724
g62
(g83
g64
NtRp1725
(dp1726
g67
(dp1727
g87
g88
ssg76
g1721
sg69
(lp1728
S'get_vars'
p1729
asbag62
(g83
g64
NtRp1730
(dp1731
g67
(dp1732
g94
g95
ssg76
g1721
sg69
(lp1733
S':'
asbag62
(g83
g64
NtRp1734
(dp1735
g67
(dp1736
sg76
g1721
sg69
(lp1737
g62
(g63
g64
NtRp1738
(dp1739
g67
(dp1740
g75
I5
ssg76
g1734
sg69
(lp1741
g62
(g71
g64
NtRp1742
(dp1743
g67
(dp1744
g75
I4
ssg76
Nsg69
(lp1745
sbasbasbasbag62
(g78
g64
NtRp1746
(dp1747
g67
(dp1748
sg76
g72
sg69
(lp1749
g62
(g83
g64
NtRp1750
(dp1751
g67
(dp1752
g87
g88
ssg76
g1746
sg69
(lp1753
S'global_settings'
p1754
asbag62
(g83
g64
NtRp1755
(dp1756
g67
(dp1757
g94
g95
ssg76
g1746
sg69
(lp1758
S':'
asbag62
(g83
g64
NtRp1759
(dp1760
g67
(dp1761
sg76
g1746
sg69
(lp1762
g62
(g63
g64
NtRp1763
(dp1764
g67
(dp1765
g75
I5
ssg76
g1759
sg69
(lp1766
g62
(g71
g64
NtRp1767
(dp1768
g67
(dp1769
g75
I4
ssg76
Nsg69
(lp1770
g62
(g78
g64
NtRp1771
(dp1772
g67
(dp1773
sg76
g1767
sg69
(lp1774
g62
(g83
g64
NtRp1775
(dp1776
g67
(dp1777
g87
g88
ssg76
g1771
sg69
(lp1778
g654
asbag62
(g83
g64
NtRp1779
(dp1780
g67
(dp1781
g94
g95
ssg76
g1771
sg69
(lp1782
S':'
asbag62
(g83
g64
NtRp1783
(dp1784
g67
(dp1785
sg76
g1771
sg69
(lp1786
g62
(g63
g64
NtRp1787
(dp1788
g67
(dp1789
g75
I4
ssg76
g1783
sg69
(lp1790
S"set(['/home/goshawk/web2py/applications/milo/'])"
p1791
asbasbasbag62
(g78
g64
NtRp1792
(dp1793
g67
(dp1794
sg76
g1767
sg69
(lp1795
g62
(g83
g64
NtRp1796
(dp1797
g67
(dp1798
g87
g88
ssg76
g1792
sg69
(lp1799
g676
asbag62
(g83
g64
NtRp1800
(dp1801
g67
(dp1802
g94
g95
ssg76
g1792
sg69
(lp1803
S':'
asbag62
(g83
g64
NtRp1804
(dp1805
g67
(dp1806
sg76
g1792
sg69
(lp1807
g62
(g63
g64
NtRp1808
(dp1809
g67
(dp1810
g75
I4
ssg76
g1804
sg69
(lp1811
g689
asbasbasbag62
(g78
g64
NtRp1812
(dp1813
g67
(dp1814
sg76
g1767
sg69
(lp1815
g62
(g83
g64
NtRp1816
(dp1817
g67
(dp1818
g87
g88
ssg76
g1812
sg69
(lp1819
g698
asbag62
(g83
g64
NtRp1820
(dp1821
g67
(dp1822
g94
g95
ssg76
g1812
sg69
(lp1823
S':'
asbag62
(g83
g64
NtRp1824
(dp1825
g67
(dp1826
sg76
g1812
sg69
(lp1827
g62
(g63
g64
NtRp1828
(dp1829
g67
(dp1830
g75
I4
ssg76
g1824
sg69
(lp1831
g62
(g71
g64
NtRp1832
(dp1833
g67
(dp1834
g75
I3
ssg76
Nsg69
(lp1835
sbasbasbasbag62
(g78
g64
NtRp1836
(dp1837
g67
(dp1838
sg76
g1767
sg69
(lp1839
g62
(g83
g64
NtRp1840
(dp1841
g67
(dp1842
g87
g88
ssg76
g1836
sg69
(lp1843
g723
asbag62
(g83
g64
NtRp1844
(dp1845
g67
(dp1846
g94
g95
ssg76
g1836
sg69
(lp1847
S':'
asbag62
(g83
g64
NtRp1848
(dp1849
g67
(dp1850
sg76
g1836
sg69
(lp1851
g62
(g63
g64
NtRp1852
(dp1853
g67
(dp1854
g75
I4
ssg76
g1848
sg69
(lp1855
S"<Values at 0x18e90e0: {'verbose': False, 'ip': '127.0.0.1', 'shutdown_timeout': 5, 'taskbar': False, 'nocron': False, 'pid_filename': 'httpserver.pid', 'maxthreads': None, 'softcron': False, 'server_name': 'whisperer', 'bpython': False, 'nogui': False, 'port': 8000, 'extcron': False, 'debuglevel': 30, 'test': None, 'folder': '/home/goshawk/web2py', 'config': '', 'import_models': False, 'winservice': '', 'shell': None, 'run': '', 'log_filename': 'httpserver.log', 'args': [''], 'socket_timeout': 5, 'ssl_ca_certificate': None, 'scheduler': None, 'profiler_filename': None, 'ssl_private_key': '', 'password': 'admin', 'request_queue_size': 5, 'ssl_certificate': '', 'cronjob': False, 'numthreads': None, 'quiet': False, 'interfaces': None, 'minthreads': None, 'timeout': 10, 'plain': False, 'nobanner': False}>"
p1856
asbasbasbag62
(g78
g64
NtRp1857
(dp1858
g67
(dp1859
sg76
g1767
sg69
(lp1860
g62
(g83
g64
NtRp1861
(dp1862
g67
(dp1863
g87
g88
ssg76
g1857
sg69
(lp1864
g745
asbag62
(g83
g64
NtRp1865
(dp1866
g67
(dp1867
g94
g95
ssg76
g1857
sg69
(lp1868
S':'
asbag62
(g83
g64
NtRp1869
(dp1870
g67
(dp1871
sg76
g1857
sg69
(lp1872
g62
(g63
g64
NtRp1873
(dp1874
g67
(dp1875
g75
I4
ssg76
g1869
sg69
(lp1876
S'set([])'
p1877
asbasbasbag62
(g78
g64
NtRp1878
(dp1879
g67
(dp1880
sg76
g1767
sg69
(lp1881
g62
(g83
g64
NtRp1882
(dp1883
g67
(dp1884
g87
g88
ssg76
g1878
sg69
(lp1885
g767
asbag62
(g83
g64
NtRp1886
(dp1887
g67
(dp1888
g94
g95
ssg76
g1878
sg69
(lp1889
S':'
asbag62
(g83
g64
NtRp1890
(dp1891
g67
(dp1892
sg76
g1878
sg69
(lp1893
g62
(g63
g64
NtRp1894
(dp1895
g67
(dp1896
g75
I4
ssg76
g1890
sg69
(lp1897
g105
asbasbasbag62
(g78
g64
NtRp1898
(dp1899
g67
(dp1900
sg76
g1767
sg69
(lp1901
g62
(g83
g64
NtRp1902
(dp1903
g67
(dp1904
g87
g88
ssg76
g1898
sg69
(lp1905
g788
asbag62
(g83
g64
NtRp1906
(dp1907
g67
(dp1908
g94
g95
ssg76
g1898
sg69
(lp1909
S':'
asbag62
(g83
g64
NtRp1910
(dp1911
g67
(dp1912
sg76
g1898
sg69
(lp1913
g62
(g63
g64
NtRp1914
(dp1915
g67
(dp1916
g75
I4
ssg76
g1910
sg69
(lp1917
g801
asbasbasbag62
(g78
g64
NtRp1918
(dp1919
g67
(dp1920
sg76
g1767
sg69
(lp1921
g62
(g83
g64
NtRp1922
(dp1923
g67
(dp1924
g87
g88
ssg76
g1918
sg69
(lp1925
g1030
asbag62
(g83
g64
NtRp1926
(dp1927
g67
(dp1928
g94
g95
ssg76
g1918
sg69
(lp1929
S':'
asbag62
(g83
g64
NtRp1930
(dp1931
g67
(dp1932
sg76
g1918
sg69
(lp1933
g62
(g63
g64
NtRp1934
(dp1935
g67
(dp1936
g75
I4
ssg76
g1930
sg69
(lp1937
g105
asbasbasbag62
(g78
g64
NtRp1938
(dp1939
g67
(dp1940
sg76
g1767
sg69
(lp1941
g62
(g83
g64
NtRp1942
(dp1943
g67
(dp1944
g87
g88
ssg76
g1938
sg69
(lp1945
g1051
asbag62
(g83
g64
NtRp1946
(dp1947
g67
(dp1948
g94
g95
ssg76
g1938
sg69
(lp1949
S':'
asbag62
(g83
g64
NtRp1950
(dp1951
g67
(dp1952
sg76
g1938
sg69
(lp1953
g62
(g63
g64
NtRp1954
(dp1955
g67
(dp1956
g75
I4
ssg76
g1950
sg69
(lp1957
g105
asbasbasbag62
(g78
g64
NtRp1958
(dp1959
g67
(dp1960
sg76
g1767
sg69
(lp1961
g62
(g83
g64
NtRp1962
(dp1963
g67
(dp1964
g87
g88
ssg76
g1958
sg69
(lp1965
g1310
asbag62
(g83
g64
NtRp1966
(dp1967
g67
(dp1968
g94
g95
ssg76
g1958
sg69
(lp1969
S':'
asbag62
(g83
g64
NtRp1970
(dp1971
g67
(dp1972
sg76
g1958
sg69
(lp1973
g62
(g63
g64
NtRp1974
(dp1975
g67
(dp1976
g75
I4
ssg76
g1970
sg69
(lp1977
g1323
asbasbasbag62
(g78
g64
NtRp1978
(dp1979
g67
(dp1980
sg76
g1767
sg69
(lp1981
g62
(g83
g64
NtRp1982
(dp1983
g67
(dp1984
g87
g88
ssg76
g1978
sg69
(lp1985
g1374
asbag62
(g83
g64
NtRp1986
(dp1987
g67
(dp1988
g94
g95
ssg76
g1978
sg69
(lp1989
S':'
asbag62
(g83
g64
NtRp1990
(dp1991
g67
(dp1992
sg76
g1978
sg69
(lp1993
g62
(g63
g64
NtRp1994
(dp1995
g67
(dp1996
g75
I4
ssg76
g1990
sg69
(lp1997
g62
(g71
g64
NtRp1998
(dp1999
g67
(dp2000
g75
I3
ssg76
Nsg69
(lp2001
g62
(g78
g64
NtRp2002
(dp2003
g67
(dp2004
sg76
g1998
sg69
(lp2005
g62
(g83
g64
NtRp2006
(dp2007
g67
(dp2008
sg76
g2002
sg69
(lp2009
g62
(g63
g64
NtRp2010
(dp2011
g67
(dp2012
g75
I3
ssg76
g2006
sg69
(lp2013
S'1'
asbasbasbag62
(g78
g64
NtRp2014
(dp2015
g67
(dp2016
sg76
g1998
sg69
(lp2017
g62
(g83
g64
NtRp2018
(dp2019
g67
(dp2020
sg76
g2014
sg69
(lp2021
g62
(g63
g64
NtRp2022
(dp2023
g67
(dp2024
g75
I3
ssg76
g2018
sg69
(lp2025
S'99'
p2026
asbasbasbag62
(g78
g64
NtRp2027
(dp2028
g67
(dp2029
sg76
g1998
sg69
(lp2030
g62
(g83
g64
NtRp2031
(dp2032
g67
(dp2033
sg76
g2027
sg69
(lp2034
g62
(g63
g64
NtRp2035
(dp2036
g67
(dp2037
g75
I3
ssg76
g2031
sg69
(lp2038
S'7'
asbasbasbag62
(g78
g64
NtRp2039
(dp2040
g67
(dp2041
sg76
g1998
sg69
(lp2042
g62
(g83
g64
NtRp2043
(dp2044
g67
(dp2045
sg76
g2039
sg69
(lp2046
g62
(g63
g64
NtRp2047
(dp2048
g67
(dp2049
g75
I3
ssg76
g2043
sg69
(lp2050
S'datetime.datetime(2012, 3, 4, 22, 12, 8)'
p2051
asbasbasbag62
(g78
g64
NtRp2052
(dp2053
g67
(dp2054
sg76
g1998
sg69
(lp2055
g62
(g83
g64
NtRp2056
(dp2057
g67
(dp2058
sg76
g2052
sg69
(lp2059
g62
(g63
g64
NtRp2060
(dp2061
g67
(dp2062
g75
I3
ssg76
g2056
sg69
(lp2063
g1453
asbasbasbasbasbasbasbasbasbasbasbag62
(g78
g64
NtRp2064
(dp2065
g67
(dp2066
sg76
g72
sg69
(lp2067
g62
(g83
g64
NtRp2068
(dp2069
g67
(dp2070
g87
g88
ssg76
g2064
sg69
(lp2071
S'is_https'
p2072
asbag62
(g83
g64
NtRp2073
(dp2074
g67
(dp2075
g94
g95
ssg76
g2064
sg69
(lp2076
S':'
asbag62
(g83
g64
NtRp2077
(dp2078
g67
(dp2079
sg76
g2064
sg69
(lp2080
g62
(g63
g64
NtRp2081
(dp2082
g67
(dp2083
g75
I5
ssg76
g2077
sg69
(lp2084
g105
asbasbasbag62
(g78
g64
NtRp2085
(dp2086
g67
(dp2087
sg76
g72
sg69
(lp2088
g62
(g83
g64
NtRp2089
(dp2090
g67
(dp2091
g87
g88
ssg76
g2085
sg69
(lp2092
S'is_local'
p2093
asbag62
(g83
g64
NtRp2094
(dp2095
g67
(dp2096
g94
g95
ssg76
g2085
sg69
(lp2097
S':'
asbag62
(g83
g64
NtRp2098
(dp2099
g67
(dp2100
sg76
g2085
sg69
(lp2101
g62
(g63
g64
NtRp2102
(dp2103
g67
(dp2104
g75
I5
ssg76
g2098
sg69
(lp2105
g1562
asbasbasbag62
(g78
g64
NtRp2106
(dp2107
g67
(dp2108
sg76
g72
sg69
(lp2109
g62
(g83
g64
NtRp2110
(dp2111
g67
(dp2112
g87
g88
ssg76
g2106
sg69
(lp2113
S'is_restful'
p2114
asbag62
(g83
g64
NtRp2115
(dp2116
g67
(dp2117
g94
g95
ssg76
g2106
sg69
(lp2118
S':'
asbag62
(g83
g64
NtRp2119
(dp2120
g67
(dp2121
sg76
g2106
sg69
(lp2122
g62
(g63
g64
NtRp2123
(dp2124
g67
(dp2125
g75
I5
ssg76
g2119
sg69
(lp2126
g105
asbasbasbag62
(g78
g64
NtRp2127
(dp2128
g67
(dp2129
sg76
g72
sg69
(lp2130
g62
(g83
g64
NtRp2131
(dp2132
g67
(dp2133
g87
g88
ssg76
g2127
sg69
(lp2134
S'now'
p2135
asbag62
(g83
g64
NtRp2136
(dp2137
g67
(dp2138
g94
g95
ssg76
g2127
sg69
(lp2139
S':'
asbag62
(g83
g64
NtRp2140
(dp2141
g67
(dp2142
sg76
g2127
sg69
(lp2143
g62
(g63
g64
NtRp2144
(dp2145
g67
(dp2146
g75
I5
ssg76
g2140
sg69
(lp2147
S'datetime.datetime(2012, 7, 15, 1, 9, 48, 739498)'
p2148
asbasbasbag62
(g78
g64
NtRp2149
(dp2150
g67
(dp2151
sg76
g72
sg69
(lp2152
g62
(g83
g64
NtRp2153
(dp2154
g67
(dp2155
g87
g88
ssg76
g2149
sg69
(lp2156
S'post_vars'
p2157
asbag62
(g83
g64
NtRp2158
(dp2159
g67
(dp2160
g94
g95
ssg76
g2149
sg69
(lp2161
S':'
asbag62
(g83
g64
NtRp2162
(dp2163
g67
(dp2164
sg76
g2149
sg69
(lp2165
g62
(g63
g64
NtRp2166
(dp2167
g67
(dp2168
g75
I5
ssg76
g2162
sg69
(lp2169
g62
(g71
g64
NtRp2170
(dp2171
g67
(dp2172
g75
I4
ssg76
Nsg69
(lp2173
sbasbasbasbag62
(g78
g64
NtRp2174
(dp2175
g67
(dp2176
sg76
g72
sg69
(lp2177
g62
(g83
g64
NtRp2178
(dp2179
g67
(dp2180
g87
g88
ssg76
g2174
sg69
(lp2181
S'url'
p2182
asbag62
(g83
g64
NtRp2183
(dp2184
g67
(dp2185
g94
g95
ssg76
g2174
sg69
(lp2186
S':'
asbag62
(g83
g64
NtRp2187
(dp2188
g67
(dp2189
sg76
g2174
sg69
(lp2190
g62
(g63
g64
NtRp2191
(dp2192
g67
(dp2193
g75
I5
ssg76
g2187
sg69
(lp2194
S'/milo/admin/index'
p2195
asbasbasbag62
(g78
g64
NtRp2196
(dp2197
g67
(dp2198
sg76
g72
sg69
(lp2199
g62
(g83
g64
NtRp2200
(dp2201
g67
(dp2202
g87
g88
ssg76
g2196
sg69
(lp2203
S'utcnow'
p2204
asbag62
(g83
g64
NtRp2205
(dp2206
g67
(dp2207
g94
g95
ssg76
g2196
sg69
(lp2208
S':'
asbag62
(g83
g64
NtRp2209
(dp2210
g67
(dp2211
sg76
g2196
sg69
(lp2212
g62
(g63
g64
NtRp2213
(dp2214
g67
(dp2215
g75
I5
ssg76
g2209
sg69
(lp2216
S'datetime.datetime(2012, 7, 14, 23, 9, 48, 739516)'
p2217
asbasbasbag62
(g78
g64
NtRp2218
(dp2219
g67
(dp2220
sg76
g72
sg69
(lp2221
g62
(g83
g64
NtRp2222
(dp2223
g67
(dp2224
g87
g88
ssg76
g2218
sg69
(lp2225
S'uuid'
p2226
asbag62
(g83
g64
NtRp2227
(dp2228
g67
(dp2229
g94
g95
ssg76
g2218
sg69
(lp2230
S':'
asbag62
(g83
g64
NtRp2231
(dp2232
g67
(dp2233
sg76
g2218
sg69
(lp2234
g62
(g63
g64
NtRp2235
(dp2236
g67
(dp2237
g75
I5
ssg76
g2231
sg69
(lp2238
S'milo/127.0.0.1.2012-07-15.01-09-48.e5b0852f-9ac8-485f-9484-d734db1fd37a'
p2239
asbasbasbag62
(g78
g64
NtRp2240
(dp2241
g67
(dp2242
sg76
g72
sg69
(lp2243
g62
(g83
g64
NtRp2244
(dp2245
g67
(dp2246
g87
g88
ssg76
g2240
sg69
(lp2247
S'vars'
p2248
asbag62
(g83
g64
NtRp2249
(dp2250
g67
(dp2251
g94
g95
ssg76
g2240
sg69
(lp2252
S':'
asbag62
(g83
g64
NtRp2253
(dp2254
g67
(dp2255
sg76
g2240
sg69
(lp2256
g62
(g63
g64
NtRp2257
(dp2258
g67
(dp2259
g75
I5
ssg76
g2253
sg69
(lp2260
g62
(g71
g64
NtRp2261
(dp2262
g67
(dp2263
g75
I4
ssg76
Nsg69
(lp2264
sbasbasbasbag62
(g78
g64
NtRp2265
(dp2266
g67
(dp2267
sg76
g72
sg69
(lp2268
g62
(g83
g64
NtRp2269
(dp2270
g67
(dp2271
g87
g88
ssg76
g2265
sg69
(lp2272
S'wsgi'
p2273
asbag62
(g83
g64
NtRp2274
(dp2275
g67
(dp2276
g94
g95
ssg76
g2265
sg69
(lp2277
S':'
asbag62
(g83
g64
NtRp2278
(dp2279
g67
(dp2280
sg76
g2265
sg69
(lp2281
g62
(g63
g64
NtRp2282
(dp2283
g67
(dp2284
g75
I5
ssg76
g2278
sg69
(lp2285
g62
(g71
g64
NtRp2286
(dp2287
g67
(dp2288
g75
I4
ssg76
Nsg69
(lp2289
g62
(g78
g64
NtRp2290
(dp2291
g67
(dp2292
sg76
g2286
sg69
(lp2293
g62
(g83
g64
NtRp2294
(dp2295
g67
(dp2296
g87
g88
ssg76
g2290
sg69
(lp2297
S'environ'
p2298
asbag62
(g83
g64
NtRp2299
(dp2300
g67
(dp2301
g94
g95
ssg76
g2290
sg69
(lp2302
S':'
asbag62
(g83
g64
NtRp2303
(dp2304
g67
(dp2305
sg76
g2290
sg69
(lp2306
g62
(g63
g64
NtRp2307
(dp2308
g67
(dp2309
g75
I4
ssg76
g2303
sg69
(lp2310
g62
(g71
g64
NtRp2311
(dp2312
g67
(dp2313
g75
I3
ssg76
Nsg69
(lp2314
g62
(g78
g64
NtRp2315
(dp2316
g67
(dp2317
sg76
g2311
sg69
(lp2318
g62
(g83
g64
NtRp2319
(dp2320
g67
(dp2321
g87
g88
ssg76
g2315
sg69
(lp2322
S'HTTP_ACCEPT'
p2323
asbag62
(g83
g64
NtRp2324
(dp2325
g67
(dp2326
g94
g95
ssg76
g2315
sg69
(lp2327
S':'
asbag62
(g83
g64
NtRp2328
(dp2329
g67
(dp2330
sg76
g2315
sg69
(lp2331
g62
(g63
g64
NtRp2332
(dp2333
g67
(dp2334
g75
I3
ssg76
g2328
sg69
(lp2335
g823
asbasbasbag62
(g78
g64
NtRp2336
(dp2337
g67
(dp2338
sg76
g2311
sg69
(lp2339
g62
(g83
g64
NtRp2340
(dp2341
g67
(dp2342
g87
g88
ssg76
g2336
sg69
(lp2343
S'HTTP_ACCEPT_CHARSET'
p2344
asbag62
(g83
g64
NtRp2345
(dp2346
g67
(dp2347
g94
g95
ssg76
g2336
sg69
(lp2348
S':'
asbag62
(g83
g64
NtRp2349
(dp2350
g67
(dp2351
sg76
g2336
sg69
(lp2352
g62
(g63
g64
NtRp2353
(dp2354
g67
(dp2355
g75
I3
ssg76
g2349
sg69
(lp2356
g845
asbasbasbag62
(g78
g64
NtRp2357
(dp2358
g67
(dp2359
sg76
g2311
sg69
(lp2360
g62
(g83
g64
NtRp2361
(dp2362
g67
(dp2363
g87
g88
ssg76
g2357
sg69
(lp2364
S'HTTP_ACCEPT_ENCODING'
p2365
asbag62
(g83
g64
NtRp2366
(dp2367
g67
(dp2368
g94
g95
ssg76
g2357
sg69
(lp2369
S':'
asbag62
(g83
g64
NtRp2370
(dp2371
g67
(dp2372
sg76
g2357
sg69
(lp2373
g62
(g63
g64
NtRp2374
(dp2375
g67
(dp2376
g75
I3
ssg76
g2370
sg69
(lp2377
g867
asbasbasbag62
(g78
g64
NtRp2378
(dp2379
g67
(dp2380
sg76
g2311
sg69
(lp2381
g62
(g83
g64
NtRp2382
(dp2383
g67
(dp2384
g87
g88
ssg76
g2378
sg69
(lp2385
S'HTTP_ACCEPT_LANGUAGE'
p2386
asbag62
(g83
g64
NtRp2387
(dp2388
g67
(dp2389
g94
g95
ssg76
g2378
sg69
(lp2390
S':'
asbag62
(g83
g64
NtRp2391
(dp2392
g67
(dp2393
sg76
g2378
sg69
(lp2394
g62
(g63
g64
NtRp2395
(dp2396
g67
(dp2397
g75
I3
ssg76
g2391
sg69
(lp2398
g889
asbasbasbag62
(g78
g64
NtRp2399
(dp2400
g67
(dp2401
sg76
g2311
sg69
(lp2402
g62
(g83
g64
NtRp2403
(dp2404
g67
(dp2405
g87
g88
ssg76
g2399
sg69
(lp2406
S'HTTP_CACHE_CONTROL'
p2407
asbag62
(g83
g64
NtRp2408
(dp2409
g67
(dp2410
g94
g95
ssg76
g2399
sg69
(lp2411
S':'
asbag62
(g83
g64
NtRp2412
(dp2413
g67
(dp2414
sg76
g2399
sg69
(lp2415
g62
(g63
g64
NtRp2416
(dp2417
g67
(dp2418
g75
I3
ssg76
g2412
sg69
(lp2419
g911
asbasbasbag62
(g78
g64
NtRp2420
(dp2421
g67
(dp2422
sg76
g2311
sg69
(lp2423
g62
(g83
g64
NtRp2424
(dp2425
g67
(dp2426
g87
g88
ssg76
g2420
sg69
(lp2427
S'HTTP_CONNECTION'
p2428
asbag62
(g83
g64
NtRp2429
(dp2430
g67
(dp2431
g94
g95
ssg76
g2420
sg69
(lp2432
S':'
asbag62
(g83
g64
NtRp2433
(dp2434
g67
(dp2435
sg76
g2420
sg69
(lp2436
g62
(g63
g64
NtRp2437
(dp2438
g67
(dp2439
g75
I3
ssg76
g2433
sg69
(lp2440
g933
asbasbasbag62
(g78
g64
NtRp2441
(dp2442
g67
(dp2443
sg76
g2311
sg69
(lp2444
g62
(g83
g64
NtRp2445
(dp2446
g67
(dp2447
g87
g88
ssg76
g2441
sg69
(lp2448
S'HTTP_COOKIE'
p2449
asbag62
(g83
g64
NtRp2450
(dp2451
g67
(dp2452
g94
g95
ssg76
g2441
sg69
(lp2453
S':'
asbag62
(g83
g64
NtRp2454
(dp2455
g67
(dp2456
sg76
g2441
sg69
(lp2457
g62
(g63
g64
NtRp2458
(dp2459
g67
(dp2460
g75
I3
ssg76
g2454
sg69
(lp2461
g955
asbasbasbag62
(g78
g64
NtRp2462
(dp2463
g67
(dp2464
sg76
g2311
sg69
(lp2465
g62
(g83
g64
NtRp2466
(dp2467
g67
(dp2468
g87
g88
ssg76
g2462
sg69
(lp2469
S'HTTP_HOST'
p2470
asbag62
(g83
g64
NtRp2471
(dp2472
g67
(dp2473
g94
g95
ssg76
g2462
sg69
(lp2474
S':'
asbag62
(g83
g64
NtRp2475
(dp2476
g67
(dp2477
sg76
g2462
sg69
(lp2478
g62
(g63
g64
NtRp2479
(dp2480
g67
(dp2481
g75
I3
ssg76
g2475
sg69
(lp2482
g977
asbasbasbag62
(g78
g64
NtRp2483
(dp2484
g67
(dp2485
sg76
g2311
sg69
(lp2486
g62
(g83
g64
NtRp2487
(dp2488
g67
(dp2489
g87
g88
ssg76
g2483
sg69
(lp2490
S'HTTP_REFERER'
p2491
asbag62
(g83
g64
NtRp2492
(dp2493
g67
(dp2494
g94
g95
ssg76
g2483
sg69
(lp2495
S':'
asbag62
(g83
g64
NtRp2496
(dp2497
g67
(dp2498
sg76
g2483
sg69
(lp2499
g62
(g63
g64
NtRp2500
(dp2501
g67
(dp2502
g75
I3
ssg76
g2496
sg69
(lp2503
g999
asbasbasbag62
(g78
g64
NtRp2504
(dp2505
g67
(dp2506
sg76
g2311
sg69
(lp2507
g62
(g83
g64
NtRp2508
(dp2509
g67
(dp2510
g87
g88
ssg76
g2504
sg69
(lp2511
S'HTTP_USER_AGENT'
p2512
asbag62
(g83
g64
NtRp2513
(dp2514
g67
(dp2515
g94
g95
ssg76
g2504
sg69
(lp2516
S':'
asbag62
(g83
g64
NtRp2517
(dp2518
g67
(dp2519
sg76
g2504
sg69
(lp2520
g62
(g63
g64
NtRp2521
(dp2522
g67
(dp2523
g75
I3
ssg76
g2517
sg69
(lp2524
g1021
asbasbasbag62
(g78
g64
NtRp2525
(dp2526
g67
(dp2527
sg76
g2311
sg69
(lp2528
g62
(g83
g64
NtRp2529
(dp2530
g67
(dp2531
g87
g88
ssg76
g2525
sg69
(lp2532
S'PATH_INFO'
p2533
asbag62
(g83
g64
NtRp2534
(dp2535
g67
(dp2536
g94
g95
ssg76
g2525
sg69
(lp2537
S':'
asbag62
(g83
g64
NtRp2538
(dp2539
g67
(dp2540
sg76
g2525
sg69
(lp2541
g62
(g63
g64
NtRp2542
(dp2543
g67
(dp2544
g75
I3
ssg76
g2538
sg69
(lp2545
g1085
asbasbasbag62
(g78
g64
NtRp2546
(dp2547
g67
(dp2548
sg76
g2311
sg69
(lp2549
g62
(g83
g64
NtRp2550
(dp2551
g67
(dp2552
g87
g88
ssg76
g2546
sg69
(lp2553
S'QUERY_STRING'
p2554
asbag62
(g83
g64
NtRp2555
(dp2556
g67
(dp2557
g94
g95
ssg76
g2546
sg69
(lp2558
S':'
asbag62
(g83
g64
NtRp2559
(dp2560
g67
(dp2561
sg76
g2546
sg69
(lp2562
g62
(g63
g64
NtRp2563
(dp2564
g67
(dp2565
g75
I3
ssg76
g2559
sg69
(lp2566
S''
asbasbasbag62
(g78
g64
NtRp2567
(dp2568
g67
(dp2569
sg76
g2311
sg69
(lp2570
g62
(g83
g64
NtRp2571
(dp2572
g67
(dp2573
g87
g88
ssg76
g2567
sg69
(lp2574
S'REMOTE_ADDR'
p2575
asbag62
(g83
g64
NtRp2576
(dp2577
g67
(dp2578
g94
g95
ssg76
g2567
sg69
(lp2579
S':'
asbag62
(g83
g64
NtRp2580
(dp2581
g67
(dp2582
sg76
g2567
sg69
(lp2583
g62
(g63
g64
NtRp2584
(dp2585
g67
(dp2586
g75
I3
ssg76
g2580
sg69
(lp2587
g195
asbasbasbag62
(g78
g64
NtRp2588
(dp2589
g67
(dp2590
sg76
g2311
sg69
(lp2591
g62
(g83
g64
NtRp2592
(dp2593
g67
(dp2594
g87
g88
ssg76
g2588
sg69
(lp2595
S'REMOTE_PORT'
p2596
asbag62
(g83
g64
NtRp2597
(dp2598
g67
(dp2599
g94
g95
ssg76
g2588
sg69
(lp2600
S':'
asbag62
(g83
g64
NtRp2601
(dp2602
g67
(dp2603
sg76
g2588
sg69
(lp2604
g62
(g63
g64
NtRp2605
(dp2606
g67
(dp2607
g75
I3
ssg76
g2601
sg69
(lp2608
g1149
asbasbasbag62
(g78
g64
NtRp2609
(dp2610
g67
(dp2611
sg76
g2311
sg69
(lp2612
g62
(g83
g64
NtRp2613
(dp2614
g67
(dp2615
g87
g88
ssg76
g2609
sg69
(lp2616
S'REQUEST_METHOD'
p2617
asbag62
(g83
g64
NtRp2618
(dp2619
g67
(dp2620
g94
g95
ssg76
g2609
sg69
(lp2621
S':'
asbag62
(g83
g64
NtRp2622
(dp2623
g67
(dp2624
sg76
g2609
sg69
(lp2625
g62
(g63
g64
NtRp2626
(dp2627
g67
(dp2628
g75
I3
ssg76
g2622
sg69
(lp2629
g1171
asbasbasbag62
(g78
g64
NtRp2630
(dp2631
g67
(dp2632
sg76
g2311
sg69
(lp2633
g62
(g83
g64
NtRp2634
(dp2635
g67
(dp2636
g87
g88
ssg76
g2630
sg69
(lp2637
S'REQUEST_URI'
p2638
asbag62
(g83
g64
NtRp2639
(dp2640
g67
(dp2641
g94
g95
ssg76
g2630
sg69
(lp2642
S':'
asbag62
(g83
g64
NtRp2643
(dp2644
g67
(dp2645
sg76
g2630
sg69
(lp2646
g62
(g63
g64
NtRp2647
(dp2648
g67
(dp2649
g75
I3
ssg76
g2643
sg69
(lp2650
g1085
asbasbasbag62
(g78
g64
NtRp2651
(dp2652
g67
(dp2653
sg76
g2311
sg69
(lp2654
g62
(g83
g64
NtRp2655
(dp2656
g67
(dp2657
g87
g88
ssg76
g2651
sg69
(lp2658
S'SCRIPT_NAME'
p2659
asbag62
(g83
g64
NtRp2660
(dp2661
g67
(dp2662
g94
g95
ssg76
g2651
sg69
(lp2663
S':'
asbag62
(g83
g64
NtRp2664
(dp2665
g67
(dp2666
sg76
g2651
sg69
(lp2667
g62
(g63
g64
NtRp2668
(dp2669
g67
(dp2670
g75
I3
ssg76
g2664
sg69
(lp2671
S''
asbasbasbag62
(g78
g64
NtRp2672
(dp2673
g67
(dp2674
sg76
g2311
sg69
(lp2675
g62
(g83
g64
NtRp2676
(dp2677
g67
(dp2678
g87
g88
ssg76
g2672
sg69
(lp2679
S'SERVER_NAME'
p2680
asbag62
(g83
g64
NtRp2681
(dp2682
g67
(dp2683
g94
g95
ssg76
g2672
sg69
(lp2684
S':'
asbag62
(g83
g64
NtRp2685
(dp2686
g67
(dp2687
sg76
g2672
sg69
(lp2688
g62
(g63
g64
NtRp2689
(dp2690
g67
(dp2691
g75
I3
ssg76
g2685
sg69
(lp2692
g1235
asbasbasbag62
(g78
g64
NtRp2693
(dp2694
g67
(dp2695
sg76
g2311
sg69
(lp2696
g62
(g83
g64
NtRp2697
(dp2698
g67
(dp2699
g87
g88
ssg76
g2693
sg69
(lp2700
S'SERVER_PORT'
p2701
asbag62
(g83
g64
NtRp2702
(dp2703
g67
(dp2704
g94
g95
ssg76
g2693
sg69
(lp2705
S':'
asbag62
(g83
g64
NtRp2706
(dp2707
g67
(dp2708
sg76
g2693
sg69
(lp2709
g62
(g63
g64
NtRp2710
(dp2711
g67
(dp2712
g75
I3
ssg76
g2706
sg69
(lp2713
g1257
asbasbasbag62
(g78
g64
NtRp2714
(dp2715
g67
(dp2716
sg76
g2311
sg69
(lp2717
g62
(g83
g64
NtRp2718
(dp2719
g67
(dp2720
g87
g88
ssg76
g2714
sg69
(lp2721
S'SERVER_PROTOCOL'
p2722
asbag62
(g83
g64
NtRp2723
(dp2724
g67
(dp2725
g94
g95
ssg76
g2714
sg69
(lp2726
S':'
asbag62
(g83
g64
NtRp2727
(dp2728
g67
(dp2729
sg76
g2714
sg69
(lp2730
g62
(g63
g64
NtRp2731
(dp2732
g67
(dp2733
g75
I3
ssg76
g2727
sg69
(lp2734
g1279
asbasbasbag62
(g78
g64
NtRp2735
(dp2736
g67
(dp2737
sg76
g2311
sg69
(lp2738
g62
(g83
g64
NtRp2739
(dp2740
g67
(dp2741
g87
g88
ssg76
g2735
sg69
(lp2742
S'SERVER_SOFTWARE'
p2743
asbag62
(g83
g64
NtRp2744
(dp2745
g67
(dp2746
g94
g95
ssg76
g2735
sg69
(lp2747
S':'
asbag62
(g83
g64
NtRp2748
(dp2749
g67
(dp2750
sg76
g2735
sg69
(lp2751
g62
(g63
g64
NtRp2752
(dp2753
g67
(dp2754
g75
I3
ssg76
g2748
sg69
(lp2755
g1301
asbasbasbag62
(g78
g64
NtRp2756
(dp2757
g67
(dp2758
sg76
g2311
sg69
(lp2759
g62
(g83
g64
NtRp2760
(dp2761
g67
(dp2762
g87
g88
ssg76
g2756
sg69
(lp2763
S'WEB2PY_ORIGINAL_URI'
p2764
asbag62
(g83
g64
NtRp2765
(dp2766
g67
(dp2767
g94
g95
ssg76
g2756
sg69
(lp2768
S':'
asbag62
(g83
g64
NtRp2769
(dp2770
g67
(dp2771
sg76
g2756
sg69
(lp2772
g62
(g63
g64
NtRp2773
(dp2774
g67
(dp2775
g75
I3
ssg76
g2769
sg69
(lp2776
g1085
asbasbasbag62
(g78
g64
NtRp2777
(dp2778
g67
(dp2779
sg76
g2311
sg69
(lp2780
g62
(g83
g64
NtRp2781
(dp2782
g67
(dp2783
g87
g88
ssg76
g2777
sg69
(lp2784
S'wsgi.errors'
p2785
asbag62
(g83
g64
NtRp2786
(dp2787
g67
(dp2788
g94
g95
ssg76
g2777
sg69
(lp2789
S':'
asbag62
(g83
g64
NtRp2790
(dp2791
g67
(dp2792
sg76
g2777
sg69
(lp2793
g62
(g63
g64
NtRp2794
(dp2795
g67
(dp2796
g75
I3
ssg76
g2790
sg69
(lp2797
S"<open file '<stderr>', mode 'w' at 0x7fc7bb865270>"
p2798
asbasbasbag62
(g78
g64
NtRp2799
(dp2800
g67
(dp2801
sg76
g2311
sg69
(lp2802
g62
(g83
g64
NtRp2803
(dp2804
g67
(dp2805
g87
g88
ssg76
g2799
sg69
(lp2806
S'wsgi.file_wrapper'
p2807
asbag62
(g83
g64
NtRp2808
(dp2809
g67
(dp2810
g94
g95
ssg76
g2799
sg69
(lp2811
S':'
asbag62
(g83
g64
NtRp2812
(dp2813
g67
(dp2814
sg76
g2799
sg69
(lp2815
g62
(g63
g64
NtRp2816
(dp2817
g67
(dp2818
g75
I3
ssg76
g2812
sg69
(lp2819
S'<class wsgiref.util.FileWrapper at 0x1815f58>'
p2820
asbasbasbag62
(g78
g64
NtRp2821
(dp2822
g67
(dp2823
sg76
g2311
sg69
(lp2824
g62
(g83
g64
NtRp2825
(dp2826
g67
(dp2827
g87
g88
ssg76
g2821
sg69
(lp2828
S'wsgi.input'
p2829
asbag62
(g83
g64
NtRp2830
(dp2831
g67
(dp2832
g94
g95
ssg76
g2821
sg69
(lp2833
S':'
asbag62
(g83
g64
NtRp2834
(dp2835
g67
(dp2836
sg76
g2821
sg69
(lp2837
g62
(g63
g64
NtRp2838
(dp2839
g67
(dp2840
g75
I3
ssg76
g2834
sg69
(lp2841
S'<cStringIO.StringO object at 0x194f650>'
p2842
asbasbasbag62
(g78
g64
NtRp2843
(dp2844
g67
(dp2845
sg76
g2311
sg69
(lp2846
g62
(g83
g64
NtRp2847
(dp2848
g67
(dp2849
g87
g88
ssg76
g2843
sg69
(lp2850
S'wsgi.multiprocess'
p2851
asbag62
(g83
g64
NtRp2852
(dp2853
g67
(dp2854
g94
g95
ssg76
g2843
sg69
(lp2855
S':'
asbag62
(g83
g64
NtRp2856
(dp2857
g67
(dp2858
sg76
g2843
sg69
(lp2859
g62
(g63
g64
NtRp2860
(dp2861
g67
(dp2862
g75
I3
ssg76
g2856
sg69
(lp2863
g105
asbasbasbag62
(g78
g64
NtRp2864
(dp2865
g67
(dp2866
sg76
g2311
sg69
(lp2867
g62
(g83
g64
NtRp2868
(dp2869
g67
(dp2870
g87
g88
ssg76
g2864
sg69
(lp2871
S'wsgi.multithread'
p2872
asbag62
(g83
g64
NtRp2873
(dp2874
g67
(dp2875
g94
g95
ssg76
g2864
sg69
(lp2876
S':'
asbag62
(g83
g64
NtRp2877
(dp2878
g67
(dp2879
sg76
g2864
sg69
(lp2880
g62
(g63
g64
NtRp2881
(dp2882
g67
(dp2883
g75
I3
ssg76
g2877
sg69
(lp2884
g1562
asbasbasbag62
(g78
g64
NtRp2885
(dp2886
g67
(dp2887
sg76
g2311
sg69
(lp2888
g62
(g83
g64
NtRp2889
(dp2890
g67
(dp2891
g87
g88
ssg76
g2885
sg69
(lp2892
S'wsgi.run_once'
p2893
asbag62
(g83
g64
NtRp2894
(dp2895
g67
(dp2896
g94
g95
ssg76
g2885
sg69
(lp2897
S':'
asbag62
(g83
g64
NtRp2898
(dp2899
g67
(dp2900
sg76
g2885
sg69
(lp2901
g62
(g63
g64
NtRp2902
(dp2903
g67
(dp2904
g75
I3
ssg76
g2898
sg69
(lp2905
g105
asbasbasbag62
(g78
g64
NtRp2906
(dp2907
g67
(dp2908
sg76
g2311
sg69
(lp2909
g62
(g83
g64
NtRp2910
(dp2911
g67
(dp2912
g87
g88
ssg76
g2906
sg69
(lp2913
S'wsgi.url_scheme'
p2914
asbag62
(g83
g64
NtRp2915
(dp2916
g67
(dp2917
g94
g95
ssg76
g2906
sg69
(lp2918
S':'
asbag62
(g83
g64
NtRp2919
(dp2920
g67
(dp2921
sg76
g2906
sg69
(lp2922
g62
(g63
g64
NtRp2923
(dp2924
g67
(dp2925
g75
I3
ssg76
g2919
sg69
(lp2926
g1605
asbasbasbag62
(g78
g64
NtRp2927
(dp2928
g67
(dp2929
sg76
g2311
sg69
(lp2930
g62
(g83
g64
NtRp2931
(dp2932
g67
(dp2933
g87
g88
ssg76
g2927
sg69
(lp2934
S'wsgi.version'
p2935
asbag62
(g83
g64
NtRp2936
(dp2937
g67
(dp2938
g94
g95
ssg76
g2927
sg69
(lp2939
S':'
asbag62
(g83
g64
NtRp2940
(dp2941
g67
(dp2942
sg76
g2927
sg69
(lp2943
g62
(g63
g64
NtRp2944
(dp2945
g67
(dp2946
g75
I3
ssg76
g2940
sg69
(lp2947
S'1'
asbasbasbasbasbasbasbasbasbasbasbasbasbsS'frames'
p2948
(lp2949
(dp2950
S'file'
p2951
S'/home/goshawk/web2py/gluon/restricted.py'
p2952
sS'dump'
p2953
(dp2954
S'environment'
p2955
S"{'A': <class 'gluon.html.A'>, 'Auth': <class 'gluon.tools.Auth'>, 'B': <class 'gluon.html.B'>, 'BEAUTIFY': <class 'gluon.html.BEAUTIFY'>, 'BODY': <class 'gluon.html.BODY'>, 'BR': <class 'gluon.html.BR'>, 'BUTTON': <class 'gluon.html.BUTTON'>, 'CAT': <class 'gluon.html.CAT'>, 'CENTER': <class 'gluon.html.CENTER'>, 'CLEANUP': <class 'gluon.validators.CLEANUP'>, ...}"
p2956
sS'ccode'
p2957
S'<code object <module> at 0x7fc7a4bf7030, file "/.../applications/milo/controllers/admin.py", line 4>'
p2958
ssS'lnum'
p2959
I205
sS'lines'
p2960
(dp2961
I200
S'    try:'
p2962
sI201
S'        if type(code) == types.CodeType:'
p2963
sI202
S'            ccode = code'
p2964
sI203
S'        else:'
p2965
sI204
S'            ccode = compile2(code,layer)'
p2966
sI205
S'        exec ccode in environment'
p2967
sI206
S'    except HTTP:'
p2968
sI207
S'        raise'
p2969
sI208
S'    except RestrictedError:'
p2970
sI209
S'        # do not encapsulate (obfuscate) the original RestrictedError'
p2971
ssS'call'
p2972
S"(code='# coding: utf8\\n# try something like\\n\\nimport matl...matrices)\\nresponse._vars=response._caller(index)\\n', environment={'A': <class 'gluon.html.A'>, 'Auth': <class 'gluon.tools.Auth'>, 'B': <class 'gluon.html.B'>, 'BEAUTIFY': <class 'gluon.html.BEAUTIFY'>, 'BODY': <class 'gluon.html.BODY'>, 'BR': <class 'gluon.html.BR'>, 'BUTTON': <class 'gluon.html.BUTTON'>, 'CAT': <class 'gluon.html.CAT'>, 'CENTER': <class 'gluon.html.CENTER'>, 'CLEANUP': <class 'gluon.validators.CLEANUP'>, ...}, layer='/home/goshawk/web2py/applications/milo/controllers/admin.py')"
p2973
sS'func'
p2974
S'restricted'
p2975
sa(dp2976
g2951
S'/home/goshawk/web2py/applications/milo/controllers/admin.py'
p2977
sg2953
(dp2978
sg2959
I10
sg2960
(dp2979
I1
S'# coding: utf8'
p2980
sI2
S'# try something like'
p2981
sI3
S''
sI4
S'import matlab_wrapper'
p2982
sI5
S''
sI6
S'def index():'
p2983
sI7
S'    algorithms = matlab_wrapper.Whisperer.get_algnames()'
p2984
sI8
S'    matrices = matlab_wrapper.Whisperer.get_matrices_info()'
p2985
sI9
S'    return dict(message="hello from admin.py", algorithms=algorithms, matrices_info=matrices)'
p2986
ssg2972
S'()'
p2987
sg2974
S'<module>'
p2988
sa(dp2989
g2951
S'/home/goshawk/web2py/gluon/globals.py'
p2990
sg2953
(dp2991
S'self'
p2992
S'undefined'
p2993
sS'f'
S'<function index>'
p2994
ssg2959
I173
sg2960
(dp2995
I168
S'        self.menu = []             # used by the default view layout'
p2996
sI169
S'        self.files = []            # used by web2py_ajax.html'
p2997
sI170
S'        self.generic_patterns = [] # patterns to allow generic views'
p2998
sI171
S"        self.delimiters = ('{{','}}')"
p2999
sI172
S'        self._vars = None'
p3000
sI173
S'        self._caller = lambda f: f()'
p3001
sI174
S'        self._view_environment = None'
p3002
sI175
S'        self._custom_commit = None'
p3003
sI176
S'        self._custom_rollback = None'
p3004
sI177
S''
ssg2972
S'(f=<function index>)'
p3005
sg2974
S'<lambda>'
p3006
sa(dp3007
g2951
S'/home/goshawk/web2py/applications/milo/controllers/admin.py'
p3008
sg2953
(dp3009
S'matlab_wrapper.Whisperer.get_matrices_info'
p3010
S"<bound method type.get_matrices_info of <class '...ications.milo.modules.matlab_wrapper.Whisperer'>>"
p3011
sS'matrices'
p3012
g2993
sS'global matlab_wrapper'
p3013
S"<module 'applications.milo.modules.matlab_wrappe...om 'applications/milo/modules/matlab_wrapper.py'>"
p3014
sS'matlab_wrapper.Whisperer'
p3015
S"<class 'applications.milo.modules.matlab_wrapper.Whisperer'>"
p3016
ssg2959
I8
sg2960
(dp3017
I1
S'# coding: utf8'
p3018
sI2
S'# try something like'
p3019
sI3
S''
sI4
S'import matlab_wrapper'
p3020
sI5
S''
sI6
S'def index():'
p3021
sI7
S'    algorithms = matlab_wrapper.Whisperer.get_algnames()'
p3022
sI8
S'    matrices = matlab_wrapper.Whisperer.get_matrices_info()'
p3023
sI9
S'    return dict(message="hello from admin.py", algorithms=algorithms, matrices_info=matrices)'
p3024
ssg2972
S'()'
p3025
sg2974
S'index'
p3026
sa(dp3027
g2951
S'/home/goshawk/web2py/applications/milo/modules/matlab_wrapper.py'
p3028
sg2953
(dp3029
S'datetime.datetime.fromtimestamp'
p3030
S'<built-in method fromtimestamp of type object>'
p3031
sS'cls.savepath'
p3032
S"'/home/goshawk/web2py/applications/milo/modules/elaborated_models'"
p3033
sS'global datetime'
p3034
S"<module 'datetime' from '/usr/lib/python2.7/lib-dynload/datetime.so'>"
p3035
sS'global os'
p3036
S"<module 'os' from '/usr/lib/python2.7/os.pyc'>"
p3037
sS'datetime.datetime'
p3038
S"<type 'datetime.datetime'>"
p3039
sS'os.path.join'
p3040
S'<function join>'
p3041
sS'cls'
p3042
S"<class 'applications.milo.modules.matlab_wrapper.Whisperer'>"
p3043
sS'matrices'
p3044
S"{'urm': datetime.datetime(2012, 7, 10, 4, 47, 57, 199956)}"
p3045
sS'os.path'
p3046
S"<module 'posixpath' from '/usr/lib/python2.7/posixpath.pyc'>"
p3047
sS'os.path.getmtime'
p3048
S'<function getmtime>'
p3049
ssg2959
I241
sg2960
(dp3050
I236
S''
sI237
S'    @classmethod'
p3051
sI238
S'    def get_matrices_info(cls):'
p3052
sI239
S'        matrices = dict()'
p3053
sI240
S"        matrices['urm'] = datetime.datetime.fromtimestamp(os.path.getmtime(os.path.join(cls.savepath, 'urm.mat')))"
p3054
sI241
S"        matrices['icm'] = datetime.datetime.fromtimestamp(os.path.getmtime(os.path.join(cls.savepath, 'icm.mat')))"
p3055
sI242
S"        matrices['titles'] = datetime.datetime.fromtimestamp(os.path.getmtime(os.path.join(cls.savepath, 'titles.mat')))"
p3056
sI243
S"        matrices['features'] = datetime.datetime.fromtimestamp(os.path.getmtime(os.path.join(cls.savepath, 'features.mat')))"
p3057
sI244
S'        return matrices'
p3058
sI245
S''
ssg2972
S"(cls=<class 'applications.milo.modules.matlab_wrapper.Whisperer'>)"
p3059
sg2974
S'get_matrices_info'
p3060
sa(dp3061
g2951
S'/usr/lib/python2.7/genericpath.py'
p3062
sg2953
(dp3063
S').st_mtime'
p3064
g2993
sS'global os'
p3065
S"<module 'os' from '/usr/lib/python2.7/os.pyc'>"
p3066
sS'os.stat'
p3067
S'<built-in function stat>'
p3068
sS'filename'
p3069
S"'/home/goshawk/web2py/applications/milo/modules/elaborated_models/icm.mat'"
p3070
ssg2959
I54
sg2960
(dp3071
I49
S'    return os.stat(filename).st_size'
p3072
sI50
S''
sI51
S''
sI52
S'def getmtime(filename):'
p3073
sI53
S'    """Return the last modification time of a file, reported by os.stat()."""'
p3074
sI54
S'    return os.stat(filename).st_mtime'
p3075
sI55
S''
sI56
S''
sI57
S'def getatime(filename):'
p3076
sI58
S'    """Return the last access time of a file, reported by os.stat()."""'
p3077
ssg2972
S"(filename='/home/goshawk/web2py/applications/milo/modules/elaborated_models/icm.mat')"
p3078
sg2974
S'getmtime'
p3079
sasS'pyver'
p3080
S'Python 2.7.3: /usr/bin/python'
p3081
sS'session'
p3082
g62
(g63
g64
NtRp3083
(dp3084
g67
(dp3085
sg69
(lp3086
g62
(g71
g64
NtRp3087
(dp3088
g67
(dp3089
g75
I5
ssg76
Nsg69
(lp3090
sbasbsS'etype'
p3091
S"<type 'exceptions.OSError'>"
p3092
sS'date'
p3093
S'Sun Jul 15 01:09:50 2012'
p3094
sS'response'
p3095
g62
(g63
g64
NtRp3096
(dp3097
g67
(dp3098
sg69
(lp3099
g62
(g71
g64
NtRp3100
(dp3101
g67
(dp3102
g75
I5
ssg76
Nsg69
(lp3103
g62
(g78
g64
NtRp3104
(dp3105
g67
(dp3106
sg76
g3100
sg69
(lp3107
g62
(g83
g64
NtRp3108
(dp3109
g67
(dp3110
g87
g88
ssg76
g3104
sg69
(lp3111
g160
asbag62
(g83
g64
NtRp3112
(dp3113
g67
(dp3114
g94
g95
ssg76
g3104
sg69
(lp3115
S':'
asbag62
(g83
g64
NtRp3116
(dp3117
g67
(dp3118
sg76
g3104
sg69
(lp3119
g62
(g63
g64
NtRp3120
(dp3121
g67
(dp3122
g75
I5
ssg76
g3116
sg69
(lp3123
S'<cStringIO.StringO object at 0x194f1f0>'
p3124
asbasbasbag62
(g78
g64
NtRp3125
(dp3126
g67
(dp3127
sg76
g3100
sg69
(lp3128
g62
(g83
g64
NtRp3129
(dp3130
g67
(dp3131
g87
g88
ssg76
g3125
sg69
(lp3132
g226
asbag62
(g83
g64
NtRp3133
(dp3134
g67
(dp3135
g94
g95
ssg76
g3125
sg69
(lp3136
S':'
asbag62
(g83
g64
NtRp3137
(dp3138
g67
(dp3139
sg76
g3125
sg69
(lp3140
g62
(g63
g64
NtRp3141
(dp3142
g67
(dp3143
g75
I5
ssg76
g3137
sg69
(lp3144
g62
(g71
g64
NtRp3145
(dp3146
g67
(dp3147
g75
I4
ssg76
Nsg69
(lp3148
g62
(g78
g64
NtRp3149
(dp3150
g67
(dp3151
sg76
g3145
sg69
(lp3152
g62
(g83
g64
NtRp3153
(dp3154
g67
(dp3155
g87
g88
ssg76
g3149
sg69
(lp3156
S'session_id_milo'
p3157
asbag62
(g83
g64
NtRp3158
(dp3159
g67
(dp3160
g94
g95
ssg76
g3149
sg69
(lp3161
S':'
asbag62
(g83
g64
NtRp3162
(dp3163
g67
(dp3164
sg76
g3149
sg69
(lp3165
g62
(g63
g64
NtRp3166
(dp3167
g67
(dp3168
g75
I4
ssg76
g3162
sg69
(lp3169
g62
(g71
g64
NtRp3170
(dp3171
g67
(dp3172
g75
I3
ssg76
Nsg69
(lp3173
g62
(g78
g64
NtRp3174
(dp3175
g67
(dp3176
sg76
g3170
sg69
(lp3177
g62
(g83
g64
NtRp3178
(dp3179
g67
(dp3180
g87
g88
ssg76
g3174
sg69
(lp3181
g276
asbag62
(g83
g64
NtRp3182
(dp3183
g67
(dp3184
g94
g95
ssg76
g3174
sg69
(lp3185
S':'
asbag62
(g83
g64
NtRp3186
(dp3187
g67
(dp3188
sg76
g3174
sg69
(lp3189
g62
(g63
g64
NtRp3190
(dp3191
g67
(dp3192
g75
I3
ssg76
g3186
sg69
(lp3193
S''
asbasbasbag62
(g78
g64
NtRp3194
(dp3195
g67
(dp3196
sg76
g3170
sg69
(lp3197
g62
(g83
g64
NtRp3198
(dp3199
g67
(dp3200
g87
g88
ssg76
g3194
sg69
(lp3201
g297
asbag62
(g83
g64
NtRp3202
(dp3203
g67
(dp3204
g94
g95
ssg76
g3194
sg69
(lp3205
S':'
asbag62
(g83
g64
NtRp3206
(dp3207
g67
(dp3208
sg76
g3194
sg69
(lp3209
g62
(g63
g64
NtRp3210
(dp3211
g67
(dp3212
g75
I3
ssg76
g3206
sg69
(lp3213
S''
asbasbasbag62
(g78
g64
NtRp3214
(dp3215
g67
(dp3216
sg76
g3170
sg69
(lp3217
g62
(g83
g64
NtRp3218
(dp3219
g67
(dp3220
g87
g88
ssg76
g3214
sg69
(lp3221
g318
asbag62
(g83
g64
NtRp3222
(dp3223
g67
(dp3224
g94
g95
ssg76
g3214
sg69
(lp3225
S':'
asbag62
(g83
g64
NtRp3226
(dp3227
g67
(dp3228
sg76
g3214
sg69
(lp3229
g62
(g63
g64
NtRp3230
(dp3231
g67
(dp3232
g75
I3
ssg76
g3226
sg69
(lp3233
S''
asbasbasbag62
(g78
g64
NtRp3234
(dp3235
g67
(dp3236
sg76
g3170
sg69
(lp3237
g62
(g83
g64
NtRp3238
(dp3239
g67
(dp3240
g87
g88
ssg76
g3234
sg69
(lp3241
g339
asbag62
(g83
g64
NtRp3242
(dp3243
g67
(dp3244
g94
g95
ssg76
g3234
sg69
(lp3245
S':'
asbag62
(g83
g64
NtRp3246
(dp3247
g67
(dp3248
sg76
g3234
sg69
(lp3249
g62
(g63
g64
NtRp3250
(dp3251
g67
(dp3252
g75
I3
ssg76
g3246
sg69
(lp3253
S''
asbasbasbag62
(g78
g64
NtRp3254
(dp3255
g67
(dp3256
sg76
g3170
sg69
(lp3257
g62
(g83
g64
NtRp3258
(dp3259
g67
(dp3260
g87
g88
ssg76
g3254
sg69
(lp3261
g360
asbag62
(g83
g64
NtRp3262
(dp3263
g67
(dp3264
g94
g95
ssg76
g3254
sg69
(lp3265
S':'
asbag62
(g83
g64
NtRp3266
(dp3267
g67
(dp3268
sg76
g3254
sg69
(lp3269
g62
(g63
g64
NtRp3270
(dp3271
g67
(dp3272
g75
I3
ssg76
g3266
sg69
(lp3273
S''
asbasbasbag62
(g78
g64
NtRp3274
(dp3275
g67
(dp3276
sg76
g3170
sg69
(lp3277
g62
(g83
g64
NtRp3278
(dp3279
g67
(dp3280
g87
g88
ssg76
g3274
sg69
(lp3281
g381
asbag62
(g83
g64
NtRp3282
(dp3283
g67
(dp3284
g94
g95
ssg76
g3274
sg69
(lp3285
S':'
asbag62
(g83
g64
NtRp3286
(dp3287
g67
(dp3288
sg76
g3274
sg69
(lp3289
g62
(g63
g64
NtRp3290
(dp3291
g67
(dp3292
g75
I3
ssg76
g3286
sg69
(lp3293
S'/'
asbasbasbag62
(g78
g64
NtRp3294
(dp3295
g67
(dp3296
sg76
g3170
sg69
(lp3297
g62
(g83
g64
NtRp3298
(dp3299
g67
(dp3300
g87
g88
ssg76
g3294
sg69
(lp3301
g402
asbag62
(g83
g64
NtRp3302
(dp3303
g67
(dp3304
g94
g95
ssg76
g3294
sg69
(lp3305
S':'
asbag62
(g83
g64
NtRp3306
(dp3307
g67
(dp3308
sg76
g3294
sg69
(lp3309
g62
(g63
g64
NtRp3310
(dp3311
g67
(dp3312
g75
I3
ssg76
g3306
sg69
(lp3313
S''
asbasbasbag62
(g78
g64
NtRp3314
(dp3315
g67
(dp3316
sg76
g3170
sg69
(lp3317
g62
(g83
g64
NtRp3318
(dp3319
g67
(dp3320
g87
g88
ssg76
g3314
sg69
(lp3321
g423
asbag62
(g83
g64
NtRp3322
(dp3323
g67
(dp3324
g94
g95
ssg76
g3314
sg69
(lp3325
S':'
asbag62
(g83
g64
NtRp3326
(dp3327
g67
(dp3328
sg76
g3314
sg69
(lp3329
g62
(g63
g64
NtRp3330
(dp3331
g67
(dp3332
g75
I3
ssg76
g3326
sg69
(lp3333
S''
asbasbasbasbasbasbasbasbasbasbasbag62
(g78
g64
NtRp3334
(dp3335
g67
(dp3336
sg76
g3100
sg69
(lp3337
g62
(g83
g64
NtRp3338
(dp3339
g67
(dp3340
g87
g88
ssg76
g3334
sg69
(lp3341
S'delimiters'
p3342
asbag62
(g83
g64
NtRp3343
(dp3344
g67
(dp3345
g94
g95
ssg76
g3334
sg69
(lp3346
S':'
asbag62
(g83
g64
NtRp3347
(dp3348
g67
(dp3349
sg76
g3334
sg69
(lp3350
g62
(g63
g64
NtRp3351
(dp3352
g67
(dp3353
g75
I5
ssg76
g3347
sg69
(lp3354
g62
(g71
g64
NtRp3355
(dp3356
g67
(dp3357
g75
I4
ssg76
Nsg69
(lp3358
g62
(g78
g64
NtRp3359
(dp3360
g67
(dp3361
sg76
g3355
sg69
(lp3362
g62
(g83
g64
NtRp3363
(dp3364
g67
(dp3365
sg76
g3359
sg69
(lp3366
g62
(g63
g64
NtRp3367
(dp3368
g67
(dp3369
g75
I4
ssg76
g3363
sg69
(lp3370
S'{{'
p3371
asbasbasbag62
(g78
g64
NtRp3372
(dp3373
g67
(dp3374
sg76
g3355
sg69
(lp3375
g62
(g83
g64
NtRp3376
(dp3377
g67
(dp3378
sg76
g3372
sg69
(lp3379
g62
(g63
g64
NtRp3380
(dp3381
g67
(dp3382
g75
I4
ssg76
g3376
sg69
(lp3383
S'}}'
p3384
asbasbasbasbasbasbasbag62
(g78
g64
NtRp3385
(dp3386
g67
(dp3387
sg76
g3100
sg69
(lp3388
g62
(g83
g64
NtRp3389
(dp3390
g67
(dp3391
g87
g88
ssg76
g3385
sg69
(lp3392
S'files'
p3393
asbag62
(g83
g64
NtRp3394
(dp3395
g67
(dp3396
g94
g95
ssg76
g3385
sg69
(lp3397
S':'
asbag62
(g83
g64
NtRp3398
(dp3399
g67
(dp3400
sg76
g3385
sg69
(lp3401
g62
(g63
g64
NtRp3402
(dp3403
g67
(dp3404
g75
I5
ssg76
g3398
sg69
(lp3405
g62
(g71
g64
NtRp3406
(dp3407
g67
(dp3408
g75
I4
ssg76
Nsg69
(lp3409
sbasbasbasbag62
(g78
g64
NtRp3410
(dp3411
g67
(dp3412
sg76
g3100
sg69
(lp3413
g62
(g83
g64
NtRp3414
(dp3415
g67
(dp3416
g87
g88
ssg76
g3410
sg69
(lp3417
S'flash'
p3418
asbag62
(g83
g64
NtRp3419
(dp3420
g67
(dp3421
g94
g95
ssg76
g3410
sg69
(lp3422
S':'
asbag62
(g83
g64
NtRp3423
(dp3424
g67
(dp3425
sg76
g3410
sg69
(lp3426
g62
(g63
g64
NtRp3427
(dp3428
g67
(dp3429
g75
I5
ssg76
g3423
sg69
(lp3430
S''
asbasbasbag62
(g78
g64
NtRp3431
(dp3432
g67
(dp3433
sg76
g3100
sg69
(lp3434
g62
(g83
g64
NtRp3435
(dp3436
g67
(dp3437
g87
g88
ssg76
g3431
sg69
(lp3438
S'generic_patterns'
p3439
asbag62
(g83
g64
NtRp3440
(dp3441
g67
(dp3442
g94
g95
ssg76
g3431
sg69
(lp3443
S':'
asbag62
(g83
g64
NtRp3444
(dp3445
g67
(dp3446
sg76
g3431
sg69
(lp3447
g62
(g63
g64
NtRp3448
(dp3449
g67
(dp3450
g75
I5
ssg76
g3444
sg69
(lp3451
g62
(g71
g64
NtRp3452
(dp3453
g67
(dp3454
g75
I4
ssg76
Nsg69
(lp3455
g62
(g78
g64
NtRp3456
(dp3457
g67
(dp3458
sg76
g3452
sg69
(lp3459
g62
(g83
g64
NtRp3460
(dp3461
g67
(dp3462
sg76
g3456
sg69
(lp3463
g62
(g63
g64
NtRp3464
(dp3465
g67
(dp3466
g75
I4
ssg76
g3460
sg69
(lp3467
S'*'
asbasbasbasbasbasbasbag62
(g78
g64
NtRp3468
(dp3469
g67
(dp3470
sg76
g3100
sg69
(lp3471
g62
(g83
g64
NtRp3472
(dp3473
g67
(dp3474
g87
g88
ssg76
g3468
sg69
(lp3475
S'headers'
p3476
asbag62
(g83
g64
NtRp3477
(dp3478
g67
(dp3479
g94
g95
ssg76
g3468
sg69
(lp3480
S':'
asbag62
(g83
g64
NtRp3481
(dp3482
g67
(dp3483
sg76
g3468
sg69
(lp3484
g62
(g63
g64
NtRp3485
(dp3486
g67
(dp3487
g75
I5
ssg76
g3481
sg69
(lp3488
g62
(g71
g64
NtRp3489
(dp3490
g67
(dp3491
g75
I4
ssg76
Nsg69
(lp3492
g62
(g78
g64
NtRp3493
(dp3494
g67
(dp3495
sg76
g3489
sg69
(lp3496
g62
(g83
g64
NtRp3497
(dp3498
g67
(dp3499
g87
g88
ssg76
g3493
sg69
(lp3500
S'Cache-Control'
p3501
asbag62
(g83
g64
NtRp3502
(dp3503
g67
(dp3504
g94
g95
ssg76
g3493
sg69
(lp3505
S':'
asbag62
(g83
g64
NtRp3506
(dp3507
g67
(dp3508
sg76
g3493
sg69
(lp3509
g62
(g63
g64
NtRp3510
(dp3511
g67
(dp3512
g75
I4
ssg76
g3506
sg69
(lp3513
S'no-store, no-cache, must-revalidate, post-check=0, pre-check=0'
p3514
asbasbasbag62
(g78
g64
NtRp3515
(dp3516
g67
(dp3517
sg76
g3489
sg69
(lp3518
g62
(g83
g64
NtRp3519
(dp3520
g67
(dp3521
g87
g88
ssg76
g3515
sg69
(lp3522
S'Content-Type'
p3523
asbag62
(g83
g64
NtRp3524
(dp3525
g67
(dp3526
g94
g95
ssg76
g3515
sg69
(lp3527
S':'
asbag62
(g83
g64
NtRp3528
(dp3529
g67
(dp3530
sg76
g3515
sg69
(lp3531
g62
(g63
g64
NtRp3532
(dp3533
g67
(dp3534
g75
I4
ssg76
g3528
sg69
(lp3535
S'text/html; charset=utf-8'
p3536
asbasbasbag62
(g78
g64
NtRp3537
(dp3538
g67
(dp3539
sg76
g3489
sg69
(lp3540
g62
(g83
g64
NtRp3541
(dp3542
g67
(dp3543
g87
g88
ssg76
g3537
sg69
(lp3544
S'Expires'
p3545
asbag62
(g83
g64
NtRp3546
(dp3547
g67
(dp3548
g94
g95
ssg76
g3537
sg69
(lp3549
S':'
asbag62
(g83
g64
NtRp3550
(dp3551
g67
(dp3552
sg76
g3537
sg69
(lp3553
g62
(g63
g64
NtRp3554
(dp3555
g67
(dp3556
g75
I4
ssg76
g3550
sg69
(lp3557
S'Sat, 14 Jul 2012 23:09:48 GMT'
p3558
asbasbasbag62
(g78
g64
NtRp3559
(dp3560
g67
(dp3561
sg76
g3489
sg69
(lp3562
g62
(g83
g64
NtRp3563
(dp3564
g67
(dp3565
g87
g88
ssg76
g3559
sg69
(lp3566
S'Pragma'
p3567
asbag62
(g83
g64
NtRp3568
(dp3569
g67
(dp3570
g94
g95
ssg76
g3559
sg69
(lp3571
S':'
asbag62
(g83
g64
NtRp3572
(dp3573
g67
(dp3574
sg76
g3559
sg69
(lp3575
g62
(g63
g64
NtRp3576
(dp3577
g67
(dp3578
g75
I4
ssg76
g3572
sg69
(lp3579
S'no-cache'
p3580
asbasbasbag62
(g78
g64
NtRp3581
(dp3582
g67
(dp3583
sg76
g3489
sg69
(lp3584
g62
(g83
g64
NtRp3585
(dp3586
g67
(dp3587
g87
g88
ssg76
g3581
sg69
(lp3588
S'X-Powered-By'
p3589
asbag62
(g83
g64
NtRp3590
(dp3591
g67
(dp3592
g94
g95
ssg76
g3581
sg69
(lp3593
S':'
asbag62
(g83
g64
NtRp3594
(dp3595
g67
(dp3596
sg76
g3581
sg69
(lp3597
g62
(g63
g64
NtRp3598
(dp3599
g67
(dp3600
g75
I4
ssg76
g3594
sg69
(lp3601
S'web2py'
p3602
asbasbasbasbasbasbasbag62
(g78
g64
NtRp3603
(dp3604
g67
(dp3605
sg76
g3100
sg69
(lp3606
g62
(g83
g64
NtRp3607
(dp3608
g67
(dp3609
g87
g88
ssg76
g3603
sg69
(lp3610
S'menu'
p3611
asbag62
(g83
g64
NtRp3612
(dp3613
g67
(dp3614
g94
g95
ssg76
g3603
sg69
(lp3615
S':'
asbag62
(g83
g64
NtRp3616
(dp3617
g67
(dp3618
sg76
g3603
sg69
(lp3619
g62
(g63
g64
NtRp3620
(dp3621
g67
(dp3622
g75
I5
ssg76
g3616
sg69
(lp3623
g62
(g71
g64
NtRp3624
(dp3625
g67
(dp3626
g75
I4
ssg76
Nsg69
(lp3627
g62
(g78
g64
NtRp3628
(dp3629
g67
(dp3630
sg76
g3624
sg69
(lp3631
g62
(g83
g64
NtRp3632
(dp3633
g67
(dp3634
sg76
g3628
sg69
(lp3635
g62
(g63
g64
NtRp3636
(dp3637
g67
(dp3638
g75
I4
ssg76
g3632
sg69
(lp3639
g62
(g71
g64
NtRp3640
(dp3641
g67
(dp3642
g75
I3
ssg76
Nsg69
(lp3643
g62
(g78
g64
NtRp3644
(dp3645
g67
(dp3646
sg76
g3640
sg69
(lp3647
g62
(g83
g64
NtRp3648
(dp3649
g67
(dp3650
sg76
g3644
sg69
(lp3651
g62
(g63
g64
NtRp3652
(dp3653
g67
(dp3654
g75
I3
ssg76
g3648
sg69
(lp3655
cgluon.languages
lazyT_unpickle
p3656
(S't\x04\x00\x00\x00Home'
tRp3657
asbasbasbag62
(g78
g64
NtRp3658
(dp3659
g67
(dp3660
sg76
g3640
sg69
(lp3661
g62
(g83
g64
NtRp3662
(dp3663
g67
(dp3664
sg76
g3658
sg69
(lp3665
g62
(g63
g64
NtRp3666
(dp3667
g67
(dp3668
g75
I3
ssg76
g3662
sg69
(lp3669
g105
asbasbasbag62
(g78
g64
NtRp3670
(dp3671
g67
(dp3672
sg76
g3640
sg69
(lp3673
g62
(g83
g64
NtRp3674
(dp3675
g67
(dp3676
sg76
g3670
sg69
(lp3677
g62
(g63
g64
NtRp3678
(dp3679
g67
(dp3680
g75
I3
ssg76
g3674
sg69
(lp3681
S'/milo/default/index'
p3682
asbasbasbag62
(g78
g64
NtRp3683
(dp3684
g67
(dp3685
sg76
g3640
sg69
(lp3686
g62
(g83
g64
NtRp3687
(dp3688
g67
(dp3689
sg76
g3683
sg69
(lp3690
g62
(g63
g64
NtRp3691
(dp3692
g67
(dp3693
g75
I3
ssg76
g3687
sg69
(lp3694
g62
(g71
g64
NtRp3695
(dp3696
g67
(dp3697
g75
I2
ssg76
Nsg69
(lp3698
sbasbasbasbasbasbasbasbag62
(g78
g64
NtRp3699
(dp3700
g67
(dp3701
sg76
g3624
sg69
(lp3702
g62
(g83
g64
NtRp3703
(dp3704
g67
(dp3705
sg76
g3699
sg69
(lp3706
g62
(g63
g64
NtRp3707
(dp3708
g67
(dp3709
g75
I4
ssg76
g3703
sg69
(lp3710
g62
(g71
g64
NtRp3711
(dp3712
g67
(dp3713
g75
I3
ssg76
Nsg69
(lp3714
g62
(g78
g64
NtRp3715
(dp3716
g67
(dp3717
sg76
g3711
sg69
(lp3718
g62
(g83
g64
NtRp3719
(dp3720
g67
(dp3721
sg76
g3715
sg69
(lp3722
g62
(g63
g64
NtRp3723
(dp3724
g67
(dp3725
g75
I3
ssg76
g3719
sg69
(lp3726
g3656
(S't\x05\x00\x00\x00Admin'
tRp3727
asbasbasbag62
(g78
g64
NtRp3728
(dp3729
g67
(dp3730
sg76
g3711
sg69
(lp3731
g62
(g83
g64
NtRp3732
(dp3733
g67
(dp3734
sg76
g3728
sg69
(lp3735
g62
(g63
g64
NtRp3736
(dp3737
g67
(dp3738
g75
I3
ssg76
g3732
sg69
(lp3739
g105
asbasbasbag62
(g78
g64
NtRp3740
(dp3741
g67
(dp3742
sg76
g3711
sg69
(lp3743
g62
(g83
g64
NtRp3744
(dp3745
g67
(dp3746
sg76
g3740
sg69
(lp3747
g62
(g63
g64
NtRp3748
(dp3749
g67
(dp3750
g75
I3
ssg76
g3744
sg69
(lp3751
S'/milo/admin/index'
p3752
asbasbasbag62
(g78
g64
NtRp3753
(dp3754
g67
(dp3755
sg76
g3711
sg69
(lp3756
g62
(g83
g64
NtRp3757
(dp3758
g67
(dp3759
sg76
g3753
sg69
(lp3760
g62
(g63
g64
NtRp3761
(dp3762
g67
(dp3763
g75
I3
ssg76
g3757
sg69
(lp3764
g62
(g71
g64
NtRp3765
(dp3766
g67
(dp3767
g75
I2
ssg76
Nsg69
(lp3768
sbasbasbasbasbasbasbasbag62
(g78
g64
NtRp3769
(dp3770
g67
(dp3771
sg76
g3624
sg69
(lp3772
g62
(g83
g64
NtRp3773
(dp3774
g67
(dp3775
sg76
g3769
sg69
(lp3776
g62
(g63
g64
NtRp3777
(dp3778
g67
(dp3779
g75
I4
ssg76
g3773
sg69
(lp3780
g62
(g71
g64
NtRp3781
(dp3782
g67
(dp3783
g75
I3
ssg76
Nsg69
(lp3784
g62
(g78
g64
NtRp3785
(dp3786
g67
(dp3787
sg76
g3781
sg69
(lp3788
g62
(g83
g64
NtRp3789
(dp3790
g67
(dp3791
sg76
g3785
sg69
(lp3792
g62
(g63
g64
NtRp3793
(dp3794
g67
(dp3795
g75
I3
ssg76
g3789
sg69
(lp3796
g62
(cgluon.html
SPAN
p3797
g64
NtRp3798
(dp3799
g67
(dp3800
g87
S'color:yellow'
p3801
ssg76
Nsg69
(lp3802
g3602
asbasbasbasbag62
(g78
g64
NtRp3803
(dp3804
g67
(dp3805
sg76
g3781
sg69
(lp3806
g62
(g83
g64
NtRp3807
(dp3808
g67
(dp3809
sg76
g3803
sg69
(lp3810
g62
(g63
g64
NtRp3811
(dp3812
g67
(dp3813
g75
I3
ssg76
g3807
sg69
(lp3814
g105
asbasbasbag62
(g78
g64
NtRp3815
(dp3816
g67
(dp3817
sg76
g3781
sg69
(lp3818
g62
(g83
g64
NtRp3819
(dp3820
g67
(dp3821
sg76
g3815
sg69
(lp3822
g62
(g63
g64
NtRp3823
(dp3824
g67
(dp3825
g75
I3
ssg76
g3819
sg69
(lp3826
S'None'
p3827
asbasbasbag62
(g78
g64
NtRp3828
(dp3829
g67
(dp3830
sg76
g3781
sg69
(lp3831
g62
(g83
g64
NtRp3832
(dp3833
g67
(dp3834
sg76
g3828
sg69
(lp3835
g62
(g63
g64
NtRp3836
(dp3837
g67
(dp3838
g75
I3
ssg76
g3832
sg69
(lp3839
g62
(g71
g64
NtRp3840
(dp3841
g67
(dp3842
g75
I2
ssg76
Nsg69
(lp3843
g62
(g78
g64
NtRp3844
(dp3845
g67
(dp3846
sg76
g3840
sg69
(lp3847
g62
(g83
g64
NtRp3848
(dp3849
g67
(dp3850
sg76
g3844
sg69
(lp3851
g62
(g63
g64
NtRp3852
(dp3853
g67
(dp3854
g75
I2
ssg76
g3848
sg69
(lp3855
g62
(g71
g64
NtRp3856
(dp3857
g67
(dp3858
g75
I1
ssg76
Nsg69
(lp3859
g62
(g78
g64
NtRp3860
(dp3861
g67
(dp3862
sg76
g3856
sg69
(lp3863
g62
(g83
g64
NtRp3864
(dp3865
g67
(dp3866
sg76
g3860
sg69
(lp3867
g62
(g63
g64
NtRp3868
(dp3869
g67
(dp3870
g75
I1
ssg76
g3864
sg69
(lp3871
g3656
(S's\x08\x00\x00\x00My Sites'
tRp3872
asbasbasbag62
(g78
g64
NtRp3873
(dp3874
g67
(dp3875
sg76
g3856
sg69
(lp3876
g62
(g83
g64
NtRp3877
(dp3878
g67
(dp3879
sg76
g3873
sg69
(lp3880
g62
(g63
g64
NtRp3881
(dp3882
g67
(dp3883
g75
I1
ssg76
g3877
sg69
(lp3884
I00
asbasbasbag62
(g78
g64
NtRp3885
(dp3886
g67
(dp3887
sg76
g3856
sg69
(lp3888
g62
(g83
g64
NtRp3889
(dp3890
g67
(dp3891
sg76
g3885
sg69
(lp3892
g62
(g63
g64
NtRp3893
(dp3894
g67
(dp3895
g75
I1
ssg76
g3889
sg69
(lp3896
S'/admin/default/site'
p3897
asbasbasbasbasbasbasbag62
(g78
g64
NtRp3898
(dp3899
g67
(dp3900
sg76
g3840
sg69
(lp3901
g62
(g83
g64
NtRp3902
(dp3903
g67
(dp3904
sg76
g3898
sg69
(lp3905
g62
(g63
g64
NtRp3906
(dp3907
g67
(dp3908
g75
I2
ssg76
g3902
sg69
(lp3909
g62
(g71
g64
NtRp3910
(dp3911
g67
(dp3912
g75
I1
ssg76
Nsg69
(lp3913
g62
(g78
g64
NtRp3914
(dp3915
g67
(dp3916
sg76
g3910
sg69
(lp3917
g62
(g83
g64
NtRp3918
(dp3919
g67
(dp3920
sg76
g3914
sg69
(lp3921
g62
(g63
g64
NtRp3922
(dp3923
g67
(dp3924
g75
I1
ssg76
g3918
sg69
(lp3925
g3656
(S's\x08\x00\x00\x00This App'
tRp3926
asbasbasbag62
(g78
g64
NtRp3927
(dp3928
g67
(dp3929
sg76
g3910
sg69
(lp3930
g62
(g83
g64
NtRp3931
(dp3932
g67
(dp3933
sg76
g3927
sg69
(lp3934
g62
(g63
g64
NtRp3935
(dp3936
g67
(dp3937
g75
I1
ssg76
g3931
sg69
(lp3938
I00
asbasbasbag62
(g78
g64
NtRp3939
(dp3940
g67
(dp3941
sg76
g3910
sg69
(lp3942
g62
(g83
g64
NtRp3943
(dp3944
g67
(dp3945
sg76
g3939
sg69
(lp3946
g62
(g63
g64
NtRp3947
(dp3948
g67
(dp3949
g75
I1
ssg76
g3943
sg69
(lp3950
S'/admin/default/design/milo'
p3951
asbasbasbag62
(g78
g64
NtRp3952
(dp3953
g67
(dp3954
sg76
g3910
sg69
(lp3955
g62
(g83
g64
NtRp3956
(dp3957
g67
(dp3958
sg76
g3952
sg69
(lp3959
g62
(g63
g64
NtRp3960
(dp3961
g67
(dp3962
g75
I1
ssg76
g3956
sg69
(lp3963
(lp3964
(g3656
(S't\n\x00\x00\x00Controller'
tRp3965
I00
S'/admin/default/edit/milo/controllers/admin.py'
tp3966
a(g3656
(S't\x04\x00\x00\x00View'
tRp3967
I00
S'/admin/default/edit/milo/views/admin/index.html'
tp3968
a(g3656
(S't\x06\x00\x00\x00Layout'
tRp3969
I00
S'/admin/default/edit/milo/views/layout.html'
tp3970
a(g3656
(S't\n\x00\x00\x00Stylesheet'
tRp3971
I00
S'/admin/default/edit/milo/static/css/web2py.css'
tp3972
a(g3656
(S's\x08\x00\x00\x00DB Model'
tRp3973
I00
S'/admin/default/edit/milo/models/db.py'
tp3974
a(g3656
(S's\n\x00\x00\x00Menu Model'
tRp3975
I00
S'/admin/default/edit/milo/models/menu.py'
tp3976
a(g3656
(S't\x08\x00\x00\x00Database'
tRp3977
I00
S'/milo/appadmin/index'
tp3978
a(g3656
(S't\x06\x00\x00\x00Errors'
tRp3979
I00
S'/admin/default/errors/milo'
tp3980
a(g3656
(S't\x05\x00\x00\x00About'
tRp3981
I00
S'/admin/default/about/milo'
tp3982
aasbasbasbasbasbasbasbag62
(g78
g64
NtRp3983
(dp3984
g67
(dp3985
sg76
g3840
sg69
(lp3986
g62
(g83
g64
NtRp3987
(dp3988
g67
(dp3989
sg76
g3983
sg69
(lp3990
g62
(g63
g64
NtRp3991
(dp3992
g67
(dp3993
g75
I2
ssg76
g3987
sg69
(lp3994
g62
(g71
g64
NtRp3995
(dp3996
g67
(dp3997
g75
I1
ssg76
Nsg69
(lp3998
g62
(g78
g64
NtRp3999
(dp4000
g67
(dp4001
sg76
g3995
sg69
(lp4002
g62
(g83
g64
NtRp4003
(dp4004
g67
(dp4005
sg76
g3999
sg69
(lp4006
g62
(g63
g64
NtRp4007
(dp4008
g67
(dp4009
g75
I1
ssg76
g4003
sg69
(lp4010
S'web2py.com'
p4011
asbasbasbag62
(g78
g64
NtRp4012
(dp4013
g67
(dp4014
sg76
g3995
sg69
(lp4015
g62
(g83
g64
NtRp4016
(dp4017
g67
(dp4018
sg76
g4012
sg69
(lp4019
g62
(g63
g64
NtRp4020
(dp4021
g67
(dp4022
g75
I1
ssg76
g4016
sg69
(lp4023
I00
asbasbasbag62
(g78
g64
NtRp4024
(dp4025
g67
(dp4026
sg76
g3995
sg69
(lp4027
g62
(g83
g64
NtRp4028
(dp4029
g67
(dp4030
sg76
g4024
sg69
(lp4031
g62
(g63
g64
NtRp4032
(dp4033
g67
(dp4034
g75
I1
ssg76
g4028
sg69
(lp4035
S'http://www.web2py.com'
p4036
asbasbasbag62
(g78
g64
NtRp4037
(dp4038
g67
(dp4039
sg76
g3995
sg69
(lp4040
g62
(g83
g64
NtRp4041
(dp4042
g67
(dp4043
sg76
g4037
sg69
(lp4044
g62
(g63
g64
NtRp4045
(dp4046
g67
(dp4047
g75
I1
ssg76
g4041
sg69
(lp4048
(lp4049
(g3656
(S't\x08\x00\x00\x00Download'
tRp4050
I00
S'http://www.web2py.com/examples/default/download'
p4051
tp4052
a(g3656
(S't\x07\x00\x00\x00Support'
tRp4053
I00
S'http://www.web2py.com/examples/default/support'
p4054
tp4055
a(g3656
(S't\x04\x00\x00\x00Demo'
tRp4056
I00
S'http://web2py.com/demo_admin'
p4057
tp4058
a(g3656
(S's\x0e\x00\x00\x00Quick Examples'
tRp4059
I00
S'http://web2py.com/examples/default/examples'
p4060
tp4061
a(g3656
(S't\x03\x00\x00\x00FAQ'
tRp4062
I00
S'http://web2py.com/AlterEgo'
p4063
tp4064
a(g3656
(S't\x06\x00\x00\x00Videos'
tRp4065
I00
S'http://www.web2py.com/examples/default/videos/'
p4066
tp4067
a(g3656
(S's\x11\x00\x00\x00Free Applications'
tRp4068
I00
S'http://web2py.com/appliances'
p4069
tp4070
a(g3656
(S't\x07\x00\x00\x00Plugins'
tRp4071
I00
S'http://web2py.com/plugins'
p4072
tp4073
a(g3656
(S't\x07\x00\x00\x00Layouts'
tRp4074
I00
S'http://web2py.com/layouts'
p4075
tp4076
a(g3656
(S't\x07\x00\x00\x00Recipes'
tRp4077
I00
S'http://web2pyslices.com/'
p4078
tp4079
a(g3656
(S't\x08\x00\x00\x00Semantic'
tRp4080
I00
S'http://web2py.com/semantic'
p4081
tp4082
aasbasbasbasbasbasbasbag62
(g78
g64
NtRp4083
(dp4084
g67
(dp4085
sg76
g3840
sg69
(lp4086
g62
(g83
g64
NtRp4087
(dp4088
g67
(dp4089
sg76
g4083
sg69
(lp4090
g62
(g63
g64
NtRp4091
(dp4092
g67
(dp4093
g75
I2
ssg76
g4087
sg69
(lp4094
g62
(g71
g64
NtRp4095
(dp4096
g67
(dp4097
g75
I1
ssg76
Nsg69
(lp4098
g62
(g78
g64
NtRp4099
(dp4100
g67
(dp4101
sg76
g4095
sg69
(lp4102
g62
(g83
g64
NtRp4103
(dp4104
g67
(dp4105
sg76
g4099
sg69
(lp4106
g62
(g63
g64
NtRp4107
(dp4108
g67
(dp4109
g75
I1
ssg76
g4103
sg69
(lp4110
g3656
(S't\r\x00\x00\x00Documentation'
tRp4111
asbasbasbag62
(g78
g64
NtRp4112
(dp4113
g67
(dp4114
sg76
g4095
sg69
(lp4115
g62
(g83
g64
NtRp4116
(dp4117
g67
(dp4118
sg76
g4112
sg69
(lp4119
g62
(g63
g64
NtRp4120
(dp4121
g67
(dp4122
g75
I1
ssg76
g4116
sg69
(lp4123
I00
asbasbasbag62
(g78
g64
NtRp4124
(dp4125
g67
(dp4126
sg76
g4095
sg69
(lp4127
g62
(g83
g64
NtRp4128
(dp4129
g67
(dp4130
sg76
g4124
sg69
(lp4131
g62
(g63
g64
NtRp4132
(dp4133
g67
(dp4134
g75
I1
ssg76
g4128
sg69
(lp4135
S'http://www.web2py.com/book'
p4136
asbasbasbag62
(g78
g64
NtRp4137
(dp4138
g67
(dp4139
sg76
g4095
sg69
(lp4140
g62
(g83
g64
NtRp4141
(dp4142
g67
(dp4143
sg76
g4137
sg69
(lp4144
g62
(g63
g64
NtRp4145
(dp4146
g67
(dp4147
g75
I1
ssg76
g4141
sg69
(lp4148
(lp4149
(g3656
(S't\x07\x00\x00\x00Preface'
tRp4150
I00
S'http://www.web2py.com/book/default/chapter/00'
p4151
tp4152
a(g3656
(S't\x0c\x00\x00\x00Introduction'
tRp4153
I00
S'http://www.web2py.com/book/default/chapter/01'
p4154
tp4155
a(g3656
(S't\x06\x00\x00\x00Python'
tRp4156
I00
S'http://www.web2py.com/book/default/chapter/02'
p4157
tp4158
a(g3656
(S't\x08\x00\x00\x00Overview'
tRp4159
I00
S'http://www.web2py.com/book/default/chapter/03'
p4160
tp4161
a(g3656
(S's\x08\x00\x00\x00The Core'
tRp4162
I00
S'http://www.web2py.com/book/default/chapter/04'
p4163
tp4164
a(g3656
(S's\t\x00\x00\x00The Views'
tRp4165
I00
S'http://www.web2py.com/book/default/chapter/05'
p4166
tp4167
a(g3656
(S't\x08\x00\x00\x00Database'
tRp4168
I00
S'http://www.web2py.com/book/default/chapter/06'
p4169
tp4170
a(g3656
(S's\x14\x00\x00\x00Forms and Validators'
tRp4171
I00
S'http://www.web2py.com/book/default/chapter/07'
p4172
tp4173
a(g3656
(S's\r\x00\x00\x00Email and SMS'
tRp4174
I00
S'http://www.web2py.com/book/default/chapter/08'
p4175
tp4176
a(g3656
(S's\x0e\x00\x00\x00Access Control'
tRp4177
I00
S'http://www.web2py.com/book/default/chapter/09'
p4178
tp4179
a(g3656
(S't\x08\x00\x00\x00Services'
tRp4180
I00
S'http://www.web2py.com/book/default/chapter/10'
p4181
tp4182
a(g3656
(S's\x0c\x00\x00\x00Ajax Recipes'
tRp4183
I00
S'http://www.web2py.com/book/default/chapter/11'
p4184
tp4185
a(g3656
(S's\x16\x00\x00\x00Components and Plugins'
tRp4186
I00
S'http://www.web2py.com/book/default/chapter/12'
p4187
tp4188
a(g3656
(S's\x12\x00\x00\x00Deployment Recipes'
tRp4189
I00
S'http://www.web2py.com/book/default/chapter/13'
p4190
tp4191
a(g3656
(S's\r\x00\x00\x00Other Recipes'
tRp4192
I00
S'http://www.web2py.com/book/default/chapter/14'
p4193
tp4194
a(g3656
(S's\r\x00\x00\x00Buy this book'
tRp4195
I00
S'http://stores.lulu.com/web2py'
p4196
tp4197
aasbasbasbasbasbasbasbag62
(g78
g64
NtRp4198
(dp4199
g67
(dp4200
sg76
g3840
sg69
(lp4201
g62
(g83
g64
NtRp4202
(dp4203
g67
(dp4204
sg76
g4198
sg69
(lp4205
g62
(g63
g64
NtRp4206
(dp4207
g67
(dp4208
g75
I2
ssg76
g4202
sg69
(lp4209
g62
(g71
g64
NtRp4210
(dp4211
g67
(dp4212
g75
I1
ssg76
Nsg69
(lp4213
g62
(g78
g64
NtRp4214
(dp4215
g67
(dp4216
sg76
g4210
sg69
(lp4217
g62
(g83
g64
NtRp4218
(dp4219
g67
(dp4220
sg76
g4214
sg69
(lp4221
g62
(g63
g64
NtRp4222
(dp4223
g67
(dp4224
g75
I1
ssg76
g4218
sg69
(lp4225
g3656
(S't\t\x00\x00\x00Community'
tRp4226
asbasbasbag62
(g78
g64
NtRp4227
(dp4228
g67
(dp4229
sg76
g4210
sg69
(lp4230
g62
(g83
g64
NtRp4231
(dp4232
g67
(dp4233
sg76
g4227
sg69
(lp4234
g62
(g63
g64
NtRp4235
(dp4236
g67
(dp4237
g75
I1
ssg76
g4231
sg69
(lp4238
I00
asbasbasbag62
(g78
g64
NtRp4239
(dp4240
g67
(dp4241
sg76
g4210
sg69
(lp4242
g62
(g83
g64
NtRp4243
(dp4244
g67
(dp4245
sg76
g4239
sg69
(lp4246
g62
(g63
g64
NtRp4247
(dp4248
g67
(dp4249
g75
I1
ssg76
g4243
sg69
(lp4250
Nasbasbasbag62
(g78
g64
NtRp4251
(dp4252
g67
(dp4253
sg76
g4210
sg69
(lp4254
g62
(g83
g64
NtRp4255
(dp4256
g67
(dp4257
sg76
g4251
sg69
(lp4258
g62
(g63
g64
NtRp4259
(dp4260
g67
(dp4261
g75
I1
ssg76
g4255
sg69
(lp4262
(lp4263
(g3656
(S't\x06\x00\x00\x00Groups'
tRp4264
I00
S'http://www.web2py.com/examples/default/usergroups'
p4265
tp4266
a(g3656
(S't\x07\x00\x00\x00Twitter'
tRp4267
I00
S'http://twitter.com/web2py'
p4268
tp4269
a(g3656
(S's\t\x00\x00\x00Live Chat'
tRp4270
I00
S'http://webchat.freenode.net/?channels=web2py'
p4271
tp4272
aasbasbasbasbasbasbasbag62
(g78
g64
NtRp4273
(dp4274
g67
(dp4275
sg76
g3840
sg69
(lp4276
g62
(g83
g64
NtRp4277
(dp4278
g67
(dp4279
sg76
g4273
sg69
(lp4280
g62
(g63
g64
NtRp4281
(dp4282
g67
(dp4283
g75
I2
ssg76
g4277
sg69
(lp4284
g62
(g71
g64
NtRp4285
(dp4286
g67
(dp4287
g75
I1
ssg76
Nsg69
(lp4288
g62
(g78
g64
NtRp4289
(dp4290
g67
(dp4291
sg76
g4285
sg69
(lp4292
g62
(g83
g64
NtRp4293
(dp4294
g67
(dp4295
sg76
g4289
sg69
(lp4296
g62
(g63
g64
NtRp4297
(dp4298
g67
(dp4299
g75
I1
ssg76
g4293
sg69
(lp4300
g3656
(S't\x07\x00\x00\x00Plugins'
tRp4301
asbasbasbag62
(g78
g64
NtRp4302
(dp4303
g67
(dp4304
sg76
g4285
sg69
(lp4305
g62
(g83
g64
NtRp4306
(dp4307
g67
(dp4308
sg76
g4302
sg69
(lp4309
g62
(g63
g64
NtRp4310
(dp4311
g67
(dp4312
g75
I1
ssg76
g4306
sg69
(lp4313
I00
asbasbasbag62
(g78
g64
NtRp4314
(dp4315
g67
(dp4316
sg76
g4285
sg69
(lp4317
g62
(g83
g64
NtRp4318
(dp4319
g67
(dp4320
sg76
g4314
sg69
(lp4321
g62
(g63
g64
NtRp4322
(dp4323
g67
(dp4324
g75
I1
ssg76
g4318
sg69
(lp4325
Nasbasbasbag62
(g78
g64
NtRp4326
(dp4327
g67
(dp4328
sg76
g4285
sg69
(lp4329
g62
(g83
g64
NtRp4330
(dp4331
g67
(dp4332
sg76
g4326
sg69
(lp4333
g62
(g63
g64
NtRp4334
(dp4335
g67
(dp4336
g75
I1
ssg76
g4330
sg69
(lp4337
(lp4338
(S'plugin_wiki'
p4339
I00
S'http://web2py.com/examples/default/download'
p4340
tp4341
a(g3656
(S's\r\x00\x00\x00Other Plugins'
tRp4342
I00
g4072
tp4343
a(g3656
(S's\x0e\x00\x00\x00Layout Plugins'
tRp4344
I00
g4075
tp4345
aasbasbasbasbasbasbasbasbasbasbasbasbasbasbasbasbasbasbasbag62
(g78
g64
NtRp4346
(dp4347
g67
(dp4348
sg76
g3100
sg69
(lp4349
g62
(g83
g64
NtRp4350
(dp4351
g67
(dp4352
g87
g88
ssg76
g4346
sg69
(lp4353
S'meta'
p4354
asbag62
(g83
g64
NtRp4355
(dp4356
g67
(dp4357
g94
g95
ssg76
g4346
sg69
(lp4358
S':'
asbag62
(g83
g64
NtRp4359
(dp4360
g67
(dp4361
sg76
g4346
sg69
(lp4362
g62
(g63
g64
NtRp4363
(dp4364
g67
(dp4365
g75
I5
ssg76
g4359
sg69
(lp4366
g62
(g71
g64
NtRp4367
(dp4368
g67
(dp4369
g75
I4
ssg76
Nsg69
(lp4370
g62
(g78
g64
NtRp4371
(dp4372
g67
(dp4373
sg76
g4367
sg69
(lp4374
g62
(g83
g64
NtRp4375
(dp4376
g67
(dp4377
g87
g88
ssg76
g4371
sg69
(lp4378
S'author'
p4379
asbag62
(g83
g64
NtRp4380
(dp4381
g67
(dp4382
g94
g95
ssg76
g4371
sg69
(lp4383
S':'
asbag62
(g83
g64
NtRp4384
(dp4385
g67
(dp4386
sg76
g4371
sg69
(lp4387
g62
(g63
g64
NtRp4388
(dp4389
g67
(dp4390
g75
I4
ssg76
g4384
sg69
(lp4391
S'Vincenzo Ampolo <vincenzo.ampolo@gmail.com>'
p4392
asbasbasbag62
(g78
g64
NtRp4393
(dp4394
g67
(dp4395
sg76
g4367
sg69
(lp4396
g62
(g83
g64
NtRp4397
(dp4398
g67
(dp4399
g87
g88
ssg76
g4393
sg69
(lp4400
S'copyright'
p4401
asbag62
(g83
g64
NtRp4402
(dp4403
g67
(dp4404
g94
g95
ssg76
g4393
sg69
(lp4405
S':'
asbag62
(g83
g64
NtRp4406
(dp4407
g67
(dp4408
sg76
g4393
sg69
(lp4409
g62
(g63
g64
NtRp4410
(dp4411
g67
(dp4412
g75
I4
ssg76
g4406
sg69
(lp4413
S'Copyright 2012'
p4414
asbasbasbag62
(g78
g64
NtRp4415
(dp4416
g67
(dp4417
sg76
g4367
sg69
(lp4418
g62
(g83
g64
NtRp4419
(dp4420
g67
(dp4421
g87
g88
ssg76
g4415
sg69
(lp4422
S'description'
p4423
asbag62
(g83
g64
NtRp4424
(dp4425
g67
(dp4426
g94
g95
ssg76
g4415
sg69
(lp4427
S':'
asbag62
(g83
g64
NtRp4428
(dp4429
g67
(dp4430
sg76
g4415
sg69
(lp4431
g62
(g63
g64
NtRp4432
(dp4433
g67
(dp4434
g75
I4
ssg76
g4428
sg69
(lp4435
S'Milo recommendation system'
p4436
asbasbasbag62
(g78
g64
NtRp4437
(dp4438
g67
(dp4439
sg76
g4367
sg69
(lp4440
g62
(g83
g64
NtRp4441
(dp4442
g67
(dp4443
g87
g88
ssg76
g4437
sg69
(lp4444
S'generator'
p4445
asbag62
(g83
g64
NtRp4446
(dp4447
g67
(dp4448
g94
g95
ssg76
g4437
sg69
(lp4449
S':'
asbag62
(g83
g64
NtRp4450
(dp4451
g67
(dp4452
sg76
g4437
sg69
(lp4453
g62
(g63
g64
NtRp4454
(dp4455
g67
(dp4456
g75
I4
ssg76
g4450
sg69
(lp4457
S'Web2py Web Framework'
p4458
asbasbasbag62
(g78
g64
NtRp4459
(dp4460
g67
(dp4461
sg76
g4367
sg69
(lp4462
g62
(g83
g64
NtRp4463
(dp4464
g67
(dp4465
g87
g88
ssg76
g4459
sg69
(lp4466
S'keywords'
p4467
asbag62
(g83
g64
NtRp4468
(dp4469
g67
(dp4470
g94
g95
ssg76
g4459
sg69
(lp4471
S':'
asbag62
(g83
g64
NtRp4472
(dp4473
g67
(dp4474
sg76
g4459
sg69
(lp4475
g62
(g63
g64
NtRp4476
(dp4477
g67
(dp4478
g75
I4
ssg76
g4472
sg69
(lp4479
S'web2py, python, framework'
p4480
asbasbasbasbasbasbasbag62
(g78
g64
NtRp4481
(dp4482
g67
(dp4483
sg76
g3100
sg69
(lp4484
g62
(g83
g64
NtRp4485
(dp4486
g67
(dp4487
g87
g88
ssg76
g4481
sg69
(lp4488
S'postprocessing'
p4489
asbag62
(g83
g64
NtRp4490
(dp4491
g67
(dp4492
g94
g95
ssg76
g4481
sg69
(lp4493
S':'
asbag62
(g83
g64
NtRp4494
(dp4495
g67
(dp4496
sg76
g4481
sg69
(lp4497
g62
(g63
g64
NtRp4498
(dp4499
g67
(dp4500
g75
I5
ssg76
g4494
sg69
(lp4501
g62
(g71
g64
NtRp4502
(dp4503
g67
(dp4504
g75
I4
ssg76
Nsg69
(lp4505
sbasbasbasbag62
(g78
g64
NtRp4506
(dp4507
g67
(dp4508
sg76
g3100
sg69
(lp4509
g62
(g83
g64
NtRp4510
(dp4511
g67
(dp4512
g87
g88
ssg76
g4506
sg69
(lp4513
S'session_file'
p4514
asbag62
(g83
g64
NtRp4515
(dp4516
g67
(dp4517
g94
g95
ssg76
g4506
sg69
(lp4518
S':'
asbag62
(g83
g64
NtRp4519
(dp4520
g67
(dp4521
sg76
g4506
sg69
(lp4522
g62
(g63
g64
NtRp4523
(dp4524
g67
(dp4525
g75
I5
ssg76
g4519
sg69
(lp4526
S"<open file '/home/goshawk/web2py/applications/milo/sessions/127.0.0.1-6ea54ce8-d4d4-42e2-9f2c-7c1a0acc789f', mode 'rb+' at 0x18e6540>"
p4527
asbasbasbag62
(g78
g64
NtRp4528
(dp4529
g67
(dp4530
sg76
g3100
sg69
(lp4531
g62
(g83
g64
NtRp4532
(dp4533
g67
(dp4534
g87
g88
ssg76
g4528
sg69
(lp4535
S'session_filename'
p4536
asbag62
(g83
g64
NtRp4537
(dp4538
g67
(dp4539
g94
g95
ssg76
g4528
sg69
(lp4540
S':'
asbag62
(g83
g64
NtRp4541
(dp4542
g67
(dp4543
sg76
g4528
sg69
(lp4544
g62
(g63
g64
NtRp4545
(dp4546
g67
(dp4547
g75
I5
ssg76
g4541
sg69
(lp4548
S'/home/goshawk/web2py/applications/milo/sessions/127.0.0.1-6ea54ce8-d4d4-42e2-9f2c-7c1a0acc789f'
p4549
asbasbasbag62
(g78
g64
NtRp4550
(dp4551
g67
(dp4552
sg76
g3100
sg69
(lp4553
g62
(g83
g64
NtRp4554
(dp4555
g67
(dp4556
g87
g88
ssg76
g4550
sg69
(lp4557
S'session_id'
p4558
asbag62
(g83
g64
NtRp4559
(dp4560
g67
(dp4561
g94
g95
ssg76
g4550
sg69
(lp4562
S':'
asbag62
(g83
g64
NtRp4563
(dp4564
g67
(dp4565
sg76
g4550
sg69
(lp4566
g62
(g63
g64
NtRp4567
(dp4568
g67
(dp4569
g75
I5
ssg76
g4563
sg69
(lp4570
S'127.0.0.1-6ea54ce8-d4d4-42e2-9f2c-7c1a0acc789f'
p4571
asbasbasbag62
(g78
g64
NtRp4572
(dp4573
g67
(dp4574
sg76
g3100
sg69
(lp4575
g62
(g83
g64
NtRp4576
(dp4577
g67
(dp4578
g87
g88
ssg76
g4572
sg69
(lp4579
S'session_id_name'
p4580
asbag62
(g83
g64
NtRp4581
(dp4582
g67
(dp4583
g94
g95
ssg76
g4572
sg69
(lp4584
S':'
asbag62
(g83
g64
NtRp4585
(dp4586
g67
(dp4587
sg76
g4572
sg69
(lp4588
g62
(g63
g64
NtRp4589
(dp4590
g67
(dp4591
g75
I5
ssg76
g4585
sg69
(lp4592
g3157
asbasbasbag62
(g78
g64
NtRp4593
(dp4594
g67
(dp4595
sg76
g3100
sg69
(lp4596
g62
(g83
g64
NtRp4597
(dp4598
g67
(dp4599
g87
g88
ssg76
g4593
sg69
(lp4600
S'session_locked'
p4601
asbag62
(g83
g64
NtRp4602
(dp4603
g67
(dp4604
g94
g95
ssg76
g4593
sg69
(lp4605
S':'
asbag62
(g83
g64
NtRp4606
(dp4607
g67
(dp4608
sg76
g4593
sg69
(lp4609
g62
(g63
g64
NtRp4610
(dp4611
g67
(dp4612
g75
I5
ssg76
g4606
sg69
(lp4613
g1562
asbasbasbag62
(g78
g64
NtRp4614
(dp4615
g67
(dp4616
sg76
g3100
sg69
(lp4617
g62
(g83
g64
NtRp4618
(dp4619
g67
(dp4620
g87
g88
ssg76
g4614
sg69
(lp4621
S'session_new'
p4622
asbag62
(g83
g64
NtRp4623
(dp4624
g67
(dp4625
g94
g95
ssg76
g4614
sg69
(lp4626
S':'
asbag62
(g83
g64
NtRp4627
(dp4628
g67
(dp4629
sg76
g4614
sg69
(lp4630
g62
(g63
g64
NtRp4631
(dp4632
g67
(dp4633
g75
I5
ssg76
g4627
sg69
(lp4634
g105
asbasbasbag62
(g78
g64
NtRp4635
(dp4636
g67
(dp4637
sg76
g3100
sg69
(lp4638
g62
(g83
g64
NtRp4639
(dp4640
g67
(dp4641
g87
g88
ssg76
g4635
sg69
(lp4642
S'status'
p4643
asbag62
(g83
g64
NtRp4644
(dp4645
g67
(dp4646
g94
g95
ssg76
g4635
sg69
(lp4647
S':'
asbag62
(g83
g64
NtRp4648
(dp4649
g67
(dp4650
sg76
g4635
sg69
(lp4651
g62
(g63
g64
NtRp4652
(dp4653
g67
(dp4654
g75
I5
ssg76
g4648
sg69
(lp4655
S'200'
p4656
asbasbasbag62
(g78
g64
NtRp4657
(dp4658
g67
(dp4659
sg76
g3100
sg69
(lp4660
g62
(g83
g64
NtRp4661
(dp4662
g67
(dp4663
g87
g88
ssg76
g4657
sg69
(lp4664
S'title'
p4665
asbag62
(g83
g64
NtRp4666
(dp4667
g67
(dp4668
g94
g95
ssg76
g4657
sg69
(lp4669
S':'
asbag62
(g83
g64
NtRp4670
(dp4671
g67
(dp4672
sg76
g4657
sg69
(lp4673
g62
(g63
g64
NtRp4674
(dp4675
g67
(dp4676
g75
I5
ssg76
g4670
sg69
(lp4677
S'Milo'
p4678
asbasbasbag62
(g78
g64
NtRp4679
(dp4680
g67
(dp4681
sg76
g3100
sg69
(lp4682
g62
(g83
g64
NtRp4683
(dp4684
g67
(dp4685
g87
g88
ssg76
g4679
sg69
(lp4686
g2226
asbag62
(g83
g64
NtRp4687
(dp4688
g67
(dp4689
g94
g95
ssg76
g4679
sg69
(lp4690
S':'
asbag62
(g83
g64
NtRp4691
(dp4692
g67
(dp4693
sg76
g4679
sg69
(lp4694
g62
(g63
g64
NtRp4695
(dp4696
g67
(dp4697
g75
I5
ssg76
g4691
sg69
(lp4698
g2239
asbasbasbag62
(g78
g64
NtRp4699
(dp4700
g67
(dp4701
sg76
g3100
sg69
(lp4702
g62
(g83
g64
NtRp4703
(dp4704
g67
(dp4705
g87
g88
ssg76
g4699
sg69
(lp4706
S'view'
p4707
asbag62
(g83
g64
NtRp4708
(dp4709
g67
(dp4710
g94
g95
ssg76
g4699
sg69
(lp4711
S':'
asbag62
(g83
g64
NtRp4712
(dp4713
g67
(dp4714
sg76
g4699
sg69
(lp4715
g62
(g63
g64
NtRp4716
(dp4717
g67
(dp4718
g75
I5
ssg76
g4712
sg69
(lp4719
S'admin/index.html'
p4720
asbasbasbasbasbsS'locals'
p4721
(dp4722
g35
S"'/home/goshawk/web2py/applications/milo/modules/elaborated_models/icm.mat'"
p4723
sssS'traceback'
p4724
S'Traceback (most recent call last):\n  File "/home/goshawk/web2py/gluon/restricted.py", line 205, in restricted\n    exec ccode in environment\n  File "/home/goshawk/web2py/applications/milo/controllers/admin.py", line 10, in <module>\n  File "/home/goshawk/web2py/gluon/globals.py", line 173, in <lambda>\n    self._caller = lambda f: f()\n  File "/home/goshawk/web2py/applications/milo/controllers/admin.py", line 8, in index\n    matrices = matlab_wrapper.Whisperer.get_matrices_info()\n  File "applications/milo/modules/matlab_wrapper.py", line 241, in get_matrices_info\n    matrices[\'icm\'] = datetime.datetime.fromtimestamp(os.path.getmtime(os.path.join(cls.savepath, \'icm.mat\')))\n  File "/usr/lib/python2.7/genericpath.py", line 54, in getmtime\n    return os.stat(filename).st_mtime\nOSError: [Errno 2] No such file or directory: \'/home/goshawk/web2py/applications/milo/modules/elaborated_models/icm.mat\'\n'
p4725
s.