(dp1
S'output'
p2
S'<class \'psycopg2.IntegrityError\'> could not create unique index "iuser_imovie"\nDETAIL:  Key (iuser, imovie)=(1773, 1112) is duplicated.\n'
p3
sS'layer'
p4
S'/home/goshawk/web2py/applications/milo/models/db.py'
p5
sS'code'
p6
S"# -*- coding: utf-8 -*-\n\n#########################################################################\n## This scaffolding model makes your app work on Google App Engine too\n## File is released under public domain and you can use without limitations\n#########################################################################\n\n## if SSL/HTTPS is properly configured and you want all HTTP requests to\n## be redirected to HTTPS, uncomment the line below:\n# request.requires_https()\n\nif not request.env.web2py_runtime_gae:\n    ## if NOT running on Google App Engine use SQLite or other DB\n    db = DAL('postgres://milo:milosecret@localhost/milo-reloaded')\nelse:\n    ## connect to Google BigTable (optional 'google:datastore://namespace')\n    db = DAL('google:datastore')\n    ## store sessions and tickets there\n    session.connect(request, response, db = db)\n    ## or store session in Memcache, Redis, etc.\n    ## from gluon.contrib.memdb import MEMDB\n    ## from google.appengine.api.memcache import Client\n    ## session.connect(request, response, db = MEMDB(Client()))\n\n## by default give a view/generic.extension to all actions from localhost\n## none otherwise. a pattern can be 'controller/function.extension'\nresponse.generic_patterns = ['*'] if request.is_local else []\n## (optional) optimize handling of static files\n# response.optimize_css = 'concat,minify,inline'\n# response.optimize_js = 'concat,minify,inline'\n\n#########################################################################\n## Here is sample code if you need for\n## - email capabilities\n## - authentication (registration, login, logout, ... )\n## - authorization (role based authorization)\n## - services (xml, csv, json, xmlrpc, jsonrpc, amf, rss)\n## - old style crud actions\n## (more options discussed in gluon/tools.py)\n#########################################################################\n\nfrom gluon.tools import Auth, Crud, Service, PluginManager, prettydate\nauth = Auth(db, hmac_key=Auth.get_or_create_key())\ncrud, service, plugins = Crud(db), Service(), PluginManager()\n\n## create all tables needed by auth if not custom tables\nauth.define_tables()\n\n## configure email\nmail=auth.settings.mailer\nmail.settings.server = 'logging' or 'smtp.gmail.com:587'\nmail.settings.sender = 'you@gmail.com'\nmail.settings.login = 'username:password'\n\n## configure auth policy\nauth.settings.registration_requires_verification = False\nauth.settings.registration_requires_approval = False\nauth.settings.reset_password_requires_verification = True\n\n## if you need to use OpenID, Facebook, MySpace, Twitter, Linkedin, etc.\n## register with janrain.com, write your domain:api_key in private/janrain.key\nfrom gluon.contrib.login_methods.rpx_account import use_janrain\nuse_janrain(auth,filename='private/janrain.key')\n\n#########################################################################\n## Define your tables below (or better in another model file) for example\n##\n## >>> db.define_table('mytable',Field('myfield','string'))\n##\n## Fields can be 'string','text','password','integer','double','boolean'\n##       'date','time','datetime','blob','upload', 'reference TABLENAME'\n## There is an implicit 'id integer autoincrement' field\n## Consult manual for more options, validators, etc.\n##\n## More API examples for controllers:\n##\n## >>> db.mytable.insert(myfield='value')\n## >>> rows=db(db.mytable.myfield=='value').select(db.mytable.ALL)\n## >>> for row in rows: print row.id, row.myfield\n#########################################################################\n\nimport imdb\n\nimdb_connection_str = 'postgres://imdb:imdbsecret@localhost/imdb'\n\nim = imdb.IMDb('sql', uri=imdb_connection_str)\n\n\ndb.define_table('users',\n        Field('name'),\n        Field('email'),\n        Field('imdb_id', 'integer')\n        )\n\ndb.define_table('movies',\n        Field('imdb_id', 'integer')\n        )\n\ndb.define_table('ratings',\n        Field('iuser', db.users, requires = IS_IN_DB(db,'users.id',db.users._format)),\n        Field('imovie', db.movies, requires = IS_IN_DB(db,'movies.id',db.movies._format)),\n        Field('rating', 'double')\n        )\n\n#run only once\ndb.executesql('CREATE UNIQUE INDEX iuser_imovie ON ratings (iuser,imovie);')\n\n\ndb.define_table('features',\n        Field('name'),\n        Field('type')\n        )\n\ndb.define_table('movies_features',\n        Field('movie', db.movies, requires = IS_IN_DB(db,'movies.id',db.movies._format)),\n        Field('feature', db.features, requires = IS_IN_DB(db,'features.id',db.features._format)),\n        Field('times', 'integer')\n        )\n"
p7
sS'snapshot'
p8
(dp9
S'exception'
p10
(dp11
S'__module__'
p12
S"'psycopg2'"
p13
sS'__getslice__'
p14
S"<method-wrapper '__getslice__' of IntegrityError object>"
p15
sS'__str__'
p16
S"<method-wrapper '__str__' of IntegrityError object>"
p17
sS'__reduce__'
p18
S'<built-in method __reduce__ of IntegrityError object>'
p19
sS'__dict__'
p20
S'{\'cursor\': <cursor object at 0x7f13a438f430; closed: 0>, \'pgcode\': \'23505\', \'pgerror\': \'ERROR:  could not create unique index "iuser_imo... Key (iuser, imovie)=(1773, 1112) is duplicated.\\n\'}'
p21
sS'__sizeof__'
p22
S'<built-in method __sizeof__ of IntegrityError object>'
p23
sS'__weakref__'
p24
S'None'
p25
sS'__init__'
p26
S"<method-wrapper '__init__' of IntegrityError object>"
p27
sS'__setattr__'
p28
S"<method-wrapper '__setattr__' of IntegrityError object>"
p29
sS'__reduce_ex__'
p30
S'<built-in method __reduce_ex__ of IntegrityError object>'
p31
sS'__new__'
p32
S'<built-in method __new__ of type object>'
p33
sS'__format__'
p34
S'<built-in method __format__ of IntegrityError object>'
p35
sS'__class__'
p36
S"<class 'psycopg2.IntegrityError'>"
p37
sS'pgerror'
p38
S'\'ERROR:  could not create unique index "iuser_imo... Key (iuser, imovie)=(1773, 1112) is duplicated.\\n\''
p39
sS'__doc__'
p40
S"'Error related to database integrity.'"
p41
sS'__getitem__'
p42
S"<method-wrapper '__getitem__' of IntegrityError object>"
p43
sS'__setstate__'
p44
S'<built-in method __setstate__ of IntegrityError object>'
p45
sS'__getattribute__'
p46
S"<method-wrapper '__getattribute__' of IntegrityError object>"
p47
sS'args'
p48
S'(\'could not create unique index "iuser_imovie"\\nDET... Key (iuser, imovie)=(1773, 1112) is duplicated.\\n\',)'
p49
sS'__subclasshook__'
p50
S'<built-in method __subclasshook__ of type object>'
p51
sS'pgcode'
p52
S"'23505'"
p53
sS'__unicode__'
p54
S'<built-in method __unicode__ of IntegrityError object>'
p55
sS'cursor'
p56
S'<cursor object at 0x7f13a438f430; closed: 0>'
p57
sS'__delattr__'
p58
S"<method-wrapper '__delattr__' of IntegrityError object>"
p59
sS'__repr__'
p60
S"<method-wrapper '__repr__' of IntegrityError object>"
p61
sS'__hash__'
p62
S"<method-wrapper '__hash__' of IntegrityError object>"
p63
ssS'evalue'
p64
S'could not create unique index "iuser_imovie"\nDETAIL:  Key (iuser, imovie)=(1773, 1112) is duplicated.\n'
p65
sS'request'
p66
ccopy_reg
_reconstructor
p67
(cgluon.html
BEAUTIFY
p68
c__builtin__
object
p69
NtRp70
(dp71
S'attributes'
p72
(dp73
sS'components'
p74
(lp75
g67
(cgluon.html
TABLE
p76
g69
NtRp77
(dp78
g72
(dp79
S'level'
p80
I5
ssS'parent'
p81
Nsg74
(lp82
g67
(cgluon.html
TR
p83
g69
NtRp84
(dp85
g72
(dp86
sg81
g77
sg74
(lp87
g67
(cgluon.html
TD
p88
g69
NtRp89
(dp90
g72
(dp91
S'_style'
p92
S'font-weight:bold;vertical-align:top'
p93
ssg81
g84
sg74
(lp94
S'ajax'
p95
asbag67
(g88
g69
NtRp96
(dp97
g72
(dp98
S'_valign'
p99
S'top'
p100
ssg81
g84
sg74
(lp101
S':'
asbag67
(g88
g69
NtRp102
(dp103
g72
(dp104
sg81
g84
sg74
(lp105
g67
(g68
g69
NtRp106
(dp107
g72
(dp108
g80
I5
ssg81
g102
sg74
(lp109
S'False'
p110
asbasbasbag67
(g83
g69
NtRp111
(dp112
g72
(dp113
sg81
g77
sg74
(lp114
g67
(g88
g69
NtRp115
(dp116
g72
(dp117
g92
g93
ssg81
g111
sg74
(lp118
S'application'
p119
asbag67
(g88
g69
NtRp120
(dp121
g72
(dp122
g99
g100
ssg81
g111
sg74
(lp123
S':'
asbag67
(g88
g69
NtRp124
(dp125
g72
(dp126
sg81
g111
sg74
(lp127
g67
(g68
g69
NtRp128
(dp129
g72
(dp130
g80
I5
ssg81
g124
sg74
(lp131
S'milo'
p132
asbasbasbag67
(g83
g69
NtRp133
(dp134
g72
(dp135
sg81
g77
sg74
(lp136
g67
(g88
g69
NtRp137
(dp138
g72
(dp139
g92
g93
ssg81
g133
sg74
(lp140
g48
asbag67
(g88
g69
NtRp141
(dp142
g72
(dp143
g99
g100
ssg81
g133
sg74
(lp144
S':'
asbag67
(g88
g69
NtRp145
(dp146
g72
(dp147
sg81
g133
sg74
(lp148
g67
(g68
g69
NtRp149
(dp150
g72
(dp151
g80
I5
ssg81
g145
sg74
(lp152
g67
(g76
g69
NtRp153
(dp154
g72
(dp155
g80
I4
ssg81
Nsg74
(lp156
g67
(g83
g69
NtRp157
(dp158
g72
(dp159
sg81
g153
sg74
(lp160
g67
(g88
g69
NtRp161
(dp162
g72
(dp163
sg81
g157
sg74
(lp164
g67
(g68
g69
NtRp165
(dp166
g72
(dp167
g80
I4
ssg81
g161
sg74
(lp168
S'db'
p169
asbasbasbasbasbasbasbag67
(g83
g69
NtRp170
(dp171
g72
(dp172
sg81
g77
sg74
(lp173
g67
(g88
g69
NtRp174
(dp175
g72
(dp176
g92
g93
ssg81
g170
sg74
(lp177
S'body'
p178
asbag67
(g88
g69
NtRp179
(dp180
g72
(dp181
g99
g100
ssg81
g170
sg74
(lp182
S':'
asbag67
(g88
g69
NtRp183
(dp184
g72
(dp185
sg81
g170
sg74
(lp186
g67
(g68
g69
NtRp187
(dp188
g72
(dp189
g80
I5
ssg81
g183
sg74
(lp190
S"<open file '<fdopen>', mode 'w+b' at 0x13948a0>"
p191
asbasbasbag67
(g83
g69
NtRp192
(dp193
g72
(dp194
sg81
g77
sg74
(lp195
g67
(g88
g69
NtRp196
(dp197
g72
(dp198
g92
g93
ssg81
g192
sg74
(lp199
S'client'
p200
asbag67
(g88
g69
NtRp201
(dp202
g72
(dp203
g99
g100
ssg81
g192
sg74
(lp204
S':'
asbag67
(g88
g69
NtRp205
(dp206
g72
(dp207
sg81
g192
sg74
(lp208
g67
(g68
g69
NtRp209
(dp210
g72
(dp211
g80
I5
ssg81
g205
sg74
(lp212
S'127.0.0.1'
p213
asbasbasbag67
(g83
g69
NtRp214
(dp215
g72
(dp216
sg81
g77
sg74
(lp217
g67
(g88
g69
NtRp218
(dp219
g72
(dp220
g92
g93
ssg81
g214
sg74
(lp221
S'controller'
p222
asbag67
(g88
g69
NtRp223
(dp224
g72
(dp225
g99
g100
ssg81
g214
sg74
(lp226
S':'
asbag67
(g88
g69
NtRp227
(dp228
g72
(dp229
sg81
g214
sg74
(lp230
g67
(g68
g69
NtRp231
(dp232
g72
(dp233
g80
I5
ssg81
g227
sg74
(lp234
S'appadmin'
p235
asbasbasbag67
(g83
g69
NtRp236
(dp237
g72
(dp238
sg81
g77
sg74
(lp239
g67
(g88
g69
NtRp240
(dp241
g72
(dp242
g92
g93
ssg81
g236
sg74
(lp243
S'cookies'
p244
asbag67
(g88
g69
NtRp245
(dp246
g72
(dp247
g99
g100
ssg81
g236
sg74
(lp248
S':'
asbag67
(g88
g69
NtRp249
(dp250
g72
(dp251
sg81
g236
sg74
(lp252
g67
(g68
g69
NtRp253
(dp254
g72
(dp255
g80
I5
ssg81
g249
sg74
(lp256
g67
(g76
g69
NtRp257
(dp258
g72
(dp259
g80
I4
ssg81
Nsg74
(lp260
g67
(g83
g69
NtRp261
(dp262
g72
(dp263
sg81
g257
sg74
(lp264
g67
(g88
g69
NtRp265
(dp266
g72
(dp267
g92
g93
ssg81
g261
sg74
(lp268
S'session_id_admin'
p269
asbag67
(g88
g69
NtRp270
(dp271
g72
(dp272
g99
g100
ssg81
g261
sg74
(lp273
S':'
asbag67
(g88
g69
NtRp274
(dp275
g72
(dp276
sg81
g261
sg74
(lp277
g67
(g68
g69
NtRp278
(dp279
g72
(dp280
g80
I4
ssg81
g274
sg74
(lp281
g67
(g76
g69
NtRp282
(dp283
g72
(dp284
g80
I3
ssg81
Nsg74
(lp285
g67
(g83
g69
NtRp286
(dp287
g72
(dp288
sg81
g282
sg74
(lp289
g67
(g88
g69
NtRp290
(dp291
g72
(dp292
g92
g93
ssg81
g286
sg74
(lp293
S'comment'
p294
asbag67
(g88
g69
NtRp295
(dp296
g72
(dp297
g99
g100
ssg81
g286
sg74
(lp298
S':'
asbag67
(g88
g69
NtRp299
(dp300
g72
(dp301
sg81
g286
sg74
(lp302
g67
(g68
g69
NtRp303
(dp304
g72
(dp305
g80
I3
ssg81
g299
sg74
(lp306
S''
asbasbasbag67
(g83
g69
NtRp307
(dp308
g72
(dp309
sg81
g282
sg74
(lp310
g67
(g88
g69
NtRp311
(dp312
g72
(dp313
g92
g93
ssg81
g307
sg74
(lp314
S'domain'
p315
asbag67
(g88
g69
NtRp316
(dp317
g72
(dp318
g99
g100
ssg81
g307
sg74
(lp319
S':'
asbag67
(g88
g69
NtRp320
(dp321
g72
(dp322
sg81
g307
sg74
(lp323
g67
(g68
g69
NtRp324
(dp325
g72
(dp326
g80
I3
ssg81
g320
sg74
(lp327
S''
asbasbasbag67
(g83
g69
NtRp328
(dp329
g72
(dp330
sg81
g282
sg74
(lp331
g67
(g88
g69
NtRp332
(dp333
g72
(dp334
g92
g93
ssg81
g328
sg74
(lp335
S'expires'
p336
asbag67
(g88
g69
NtRp337
(dp338
g72
(dp339
g99
g100
ssg81
g328
sg74
(lp340
S':'
asbag67
(g88
g69
NtRp341
(dp342
g72
(dp343
sg81
g328
sg74
(lp344
g67
(g68
g69
NtRp345
(dp346
g72
(dp347
g80
I3
ssg81
g341
sg74
(lp348
S''
asbasbasbag67
(g83
g69
NtRp349
(dp350
g72
(dp351
sg81
g282
sg74
(lp352
g67
(g88
g69
NtRp353
(dp354
g72
(dp355
g92
g93
ssg81
g349
sg74
(lp356
S'httponly'
p357
asbag67
(g88
g69
NtRp358
(dp359
g72
(dp360
g99
g100
ssg81
g349
sg74
(lp361
S':'
asbag67
(g88
g69
NtRp362
(dp363
g72
(dp364
sg81
g349
sg74
(lp365
g67
(g68
g69
NtRp366
(dp367
g72
(dp368
g80
I3
ssg81
g362
sg74
(lp369
S''
asbasbasbag67
(g83
g69
NtRp370
(dp371
g72
(dp372
sg81
g282
sg74
(lp373
g67
(g88
g69
NtRp374
(dp375
g72
(dp376
g92
g93
ssg81
g370
sg74
(lp377
S'max-age'
p378
asbag67
(g88
g69
NtRp379
(dp380
g72
(dp381
g99
g100
ssg81
g370
sg74
(lp382
S':'
asbag67
(g88
g69
NtRp383
(dp384
g72
(dp385
sg81
g370
sg74
(lp386
g67
(g68
g69
NtRp387
(dp388
g72
(dp389
g80
I3
ssg81
g383
sg74
(lp390
S''
asbasbasbag67
(g83
g69
NtRp391
(dp392
g72
(dp393
sg81
g282
sg74
(lp394
g67
(g88
g69
NtRp395
(dp396
g72
(dp397
g92
g93
ssg81
g391
sg74
(lp398
S'path'
p399
asbag67
(g88
g69
NtRp400
(dp401
g72
(dp402
g99
g100
ssg81
g391
sg74
(lp403
S':'
asbag67
(g88
g69
NtRp404
(dp405
g72
(dp406
sg81
g391
sg74
(lp407
g67
(g68
g69
NtRp408
(dp409
g72
(dp410
g80
I3
ssg81
g404
sg74
(lp411
S''
asbasbasbag67
(g83
g69
NtRp412
(dp413
g72
(dp414
sg81
g282
sg74
(lp415
g67
(g88
g69
NtRp416
(dp417
g72
(dp418
g92
g93
ssg81
g412
sg74
(lp419
S'secure'
p420
asbag67
(g88
g69
NtRp421
(dp422
g72
(dp423
g99
g100
ssg81
g412
sg74
(lp424
S':'
asbag67
(g88
g69
NtRp425
(dp426
g72
(dp427
sg81
g412
sg74
(lp428
g67
(g68
g69
NtRp429
(dp430
g72
(dp431
g80
I3
ssg81
g425
sg74
(lp432
S''
asbasbasbag67
(g83
g69
NtRp433
(dp434
g72
(dp435
sg81
g282
sg74
(lp436
g67
(g88
g69
NtRp437
(dp438
g72
(dp439
g92
g93
ssg81
g433
sg74
(lp440
S'version'
p441
asbag67
(g88
g69
NtRp442
(dp443
g72
(dp444
g99
g100
ssg81
g433
sg74
(lp445
S':'
asbag67
(g88
g69
NtRp446
(dp447
g72
(dp448
sg81
g433
sg74
(lp449
g67
(g68
g69
NtRp450
(dp451
g72
(dp452
g80
I3
ssg81
g446
sg74
(lp453
S''
asbasbasbasbasbasbasbag67
(g83
g69
NtRp454
(dp455
g72
(dp456
sg81
g257
sg74
(lp457
g67
(g88
g69
NtRp458
(dp459
g72
(dp460
g92
g93
ssg81
g454
sg74
(lp461
S'session_id_milo'
p462
asbag67
(g88
g69
NtRp463
(dp464
g72
(dp465
g99
g100
ssg81
g454
sg74
(lp466
S':'
asbag67
(g88
g69
NtRp467
(dp468
g72
(dp469
sg81
g454
sg74
(lp470
g67
(g68
g69
NtRp471
(dp472
g72
(dp473
g80
I4
ssg81
g467
sg74
(lp474
g67
(g76
g69
NtRp475
(dp476
g72
(dp477
g80
I3
ssg81
Nsg74
(lp478
g67
(g83
g69
NtRp479
(dp480
g72
(dp481
sg81
g475
sg74
(lp482
g67
(g88
g69
NtRp483
(dp484
g72
(dp485
g92
g93
ssg81
g479
sg74
(lp486
g294
asbag67
(g88
g69
NtRp487
(dp488
g72
(dp489
g99
g100
ssg81
g479
sg74
(lp490
S':'
asbag67
(g88
g69
NtRp491
(dp492
g72
(dp493
sg81
g479
sg74
(lp494
g67
(g68
g69
NtRp495
(dp496
g72
(dp497
g80
I3
ssg81
g491
sg74
(lp498
S''
asbasbasbag67
(g83
g69
NtRp499
(dp500
g72
(dp501
sg81
g475
sg74
(lp502
g67
(g88
g69
NtRp503
(dp504
g72
(dp505
g92
g93
ssg81
g499
sg74
(lp506
g315
asbag67
(g88
g69
NtRp507
(dp508
g72
(dp509
g99
g100
ssg81
g499
sg74
(lp510
S':'
asbag67
(g88
g69
NtRp511
(dp512
g72
(dp513
sg81
g499
sg74
(lp514
g67
(g68
g69
NtRp515
(dp516
g72
(dp517
g80
I3
ssg81
g511
sg74
(lp518
S''
asbasbasbag67
(g83
g69
NtRp519
(dp520
g72
(dp521
sg81
g475
sg74
(lp522
g67
(g88
g69
NtRp523
(dp524
g72
(dp525
g92
g93
ssg81
g519
sg74
(lp526
g336
asbag67
(g88
g69
NtRp527
(dp528
g72
(dp529
g99
g100
ssg81
g519
sg74
(lp530
S':'
asbag67
(g88
g69
NtRp531
(dp532
g72
(dp533
sg81
g519
sg74
(lp534
g67
(g68
g69
NtRp535
(dp536
g72
(dp537
g80
I3
ssg81
g531
sg74
(lp538
S''
asbasbasbag67
(g83
g69
NtRp539
(dp540
g72
(dp541
sg81
g475
sg74
(lp542
g67
(g88
g69
NtRp543
(dp544
g72
(dp545
g92
g93
ssg81
g539
sg74
(lp546
g357
asbag67
(g88
g69
NtRp547
(dp548
g72
(dp549
g99
g100
ssg81
g539
sg74
(lp550
S':'
asbag67
(g88
g69
NtRp551
(dp552
g72
(dp553
sg81
g539
sg74
(lp554
g67
(g68
g69
NtRp555
(dp556
g72
(dp557
g80
I3
ssg81
g551
sg74
(lp558
S''
asbasbasbag67
(g83
g69
NtRp559
(dp560
g72
(dp561
sg81
g475
sg74
(lp562
g67
(g88
g69
NtRp563
(dp564
g72
(dp565
g92
g93
ssg81
g559
sg74
(lp566
g378
asbag67
(g88
g69
NtRp567
(dp568
g72
(dp569
g99
g100
ssg81
g559
sg74
(lp570
S':'
asbag67
(g88
g69
NtRp571
(dp572
g72
(dp573
sg81
g559
sg74
(lp574
g67
(g68
g69
NtRp575
(dp576
g72
(dp577
g80
I3
ssg81
g571
sg74
(lp578
S''
asbasbasbag67
(g83
g69
NtRp579
(dp580
g72
(dp581
sg81
g475
sg74
(lp582
g67
(g88
g69
NtRp583
(dp584
g72
(dp585
g92
g93
ssg81
g579
sg74
(lp586
g399
asbag67
(g88
g69
NtRp587
(dp588
g72
(dp589
g99
g100
ssg81
g579
sg74
(lp590
S':'
asbag67
(g88
g69
NtRp591
(dp592
g72
(dp593
sg81
g579
sg74
(lp594
g67
(g68
g69
NtRp595
(dp596
g72
(dp597
g80
I3
ssg81
g591
sg74
(lp598
S''
asbasbasbag67
(g83
g69
NtRp599
(dp600
g72
(dp601
sg81
g475
sg74
(lp602
g67
(g88
g69
NtRp603
(dp604
g72
(dp605
g92
g93
ssg81
g599
sg74
(lp606
g420
asbag67
(g88
g69
NtRp607
(dp608
g72
(dp609
g99
g100
ssg81
g599
sg74
(lp610
S':'
asbag67
(g88
g69
NtRp611
(dp612
g72
(dp613
sg81
g599
sg74
(lp614
g67
(g68
g69
NtRp615
(dp616
g72
(dp617
g80
I3
ssg81
g611
sg74
(lp618
S''
asbasbasbag67
(g83
g69
NtRp619
(dp620
g72
(dp621
sg81
g475
sg74
(lp622
g67
(g88
g69
NtRp623
(dp624
g72
(dp625
g92
g93
ssg81
g619
sg74
(lp626
g441
asbag67
(g88
g69
NtRp627
(dp628
g72
(dp629
g99
g100
ssg81
g619
sg74
(lp630
S':'
asbag67
(g88
g69
NtRp631
(dp632
g72
(dp633
sg81
g619
sg74
(lp634
g67
(g68
g69
NtRp635
(dp636
g72
(dp637
g80
I3
ssg81
g631
sg74
(lp638
S''
asbasbasbasbasbasbasbasbasbasbasbag67
(g83
g69
NtRp639
(dp640
g72
(dp641
sg81
g77
sg74
(lp642
g67
(g88
g69
NtRp643
(dp644
g72
(dp645
g92
g93
ssg81
g639
sg74
(lp646
S'env'
p647
asbag67
(g88
g69
NtRp648
(dp649
g72
(dp650
g99
g100
ssg81
g639
sg74
(lp651
S':'
asbag67
(g88
g69
NtRp652
(dp653
g72
(dp654
sg81
g639
sg74
(lp655
g67
(g68
g69
NtRp656
(dp657
g72
(dp658
g80
I5
ssg81
g652
sg74
(lp659
g67
(g76
g69
NtRp660
(dp661
g72
(dp662
g80
I4
ssg81
Nsg74
(lp663
g67
(g83
g69
NtRp664
(dp665
g72
(dp666
sg81
g660
sg74
(lp667
g67
(g88
g69
NtRp668
(dp669
g72
(dp670
g92
g93
ssg81
g664
sg74
(lp671
S'app_folders'
p672
asbag67
(g88
g69
NtRp673
(dp674
g72
(dp675
g99
g100
ssg81
g664
sg74
(lp676
S':'
asbag67
(g88
g69
NtRp677
(dp678
g72
(dp679
sg81
g664
sg74
(lp680
g67
(g68
g69
NtRp681
(dp682
g72
(dp683
g80
I4
ssg81
g677
sg74
(lp684
S"set(['/home/goshawk/web2py/applications/milo/', '/home/goshawk/web2py/applications/admin/'])"
p685
asbasbasbag67
(g83
g69
NtRp686
(dp687
g72
(dp688
sg81
g660
sg74
(lp689
g67
(g88
g69
NtRp690
(dp691
g72
(dp692
g92
g93
ssg81
g686
sg74
(lp693
S'applications_parent'
p694
asbag67
(g88
g69
NtRp695
(dp696
g72
(dp697
g99
g100
ssg81
g686
sg74
(lp698
S':'
asbag67
(g88
g69
NtRp699
(dp700
g72
(dp701
sg81
g686
sg74
(lp702
g67
(g68
g69
NtRp703
(dp704
g72
(dp705
g80
I4
ssg81
g699
sg74
(lp706
S'/home/goshawk/web2py'
p707
asbasbasbag67
(g83
g69
NtRp708
(dp709
g72
(dp710
sg81
g660
sg74
(lp711
g67
(g88
g69
NtRp712
(dp713
g72
(dp714
g92
g93
ssg81
g708
sg74
(lp715
S'cmd_args'
p716
asbag67
(g88
g69
NtRp717
(dp718
g72
(dp719
g99
g100
ssg81
g708
sg74
(lp720
S':'
asbag67
(g88
g69
NtRp721
(dp722
g72
(dp723
sg81
g708
sg74
(lp724
g67
(g68
g69
NtRp725
(dp726
g72
(dp727
g80
I4
ssg81
g721
sg74
(lp728
g67
(g76
g69
NtRp729
(dp730
g72
(dp731
g80
I3
ssg81
Nsg74
(lp732
sbasbasbasbag67
(g83
g69
NtRp733
(dp734
g72
(dp735
sg81
g660
sg74
(lp736
g67
(g88
g69
NtRp737
(dp738
g72
(dp739
g92
g93
ssg81
g733
sg74
(lp740
S'cmd_options'
p741
asbag67
(g88
g69
NtRp742
(dp743
g72
(dp744
g99
g100
ssg81
g733
sg74
(lp745
S':'
asbag67
(g88
g69
NtRp746
(dp747
g72
(dp748
sg81
g733
sg74
(lp749
g67
(g68
g69
NtRp750
(dp751
g72
(dp752
g80
I4
ssg81
g746
sg74
(lp753
S"<Values at 0x14d30e0: {'verbose': False, 'ip': '127.0.0.1', 'shutdown_timeout': 5, 'taskbar': False, 'nocron': False, 'pid_filename': 'httpserver.pid', 'maxthreads': None, 'softcron': False, 'server_name': 'whisperer', 'bpython': False, 'nogui': False, 'port': 8000, 'extcron': False, 'debuglevel': 30, 'test': None, 'folder': '/home/goshawk/web2py', 'config': '', 'import_models': False, 'winservice': '', 'shell': None, 'run': '', 'log_filename': 'httpserver.log', 'args': [''], 'socket_timeout': 5, 'ssl_ca_certificate': None, 'scheduler': None, 'profiler_filename': None, 'ssl_private_key': '', 'password': 'admin', 'request_queue_size': 5, 'ssl_certificate': '', 'cronjob': False, 'numthreads': None, 'quiet': False, 'interfaces': None, 'minthreads': None, 'timeout': 10, 'plain': False, 'nobanner': False}>"
p754
asbasbasbag67
(g83
g69
NtRp755
(dp756
g72
(dp757
sg81
g660
sg74
(lp758
g67
(g88
g69
NtRp759
(dp760
g72
(dp761
g92
g93
ssg81
g755
sg74
(lp762
S'content_length'
p763
asbag67
(g88
g69
NtRp764
(dp765
g72
(dp766
g99
g100
ssg81
g755
sg74
(lp767
S':'
asbag67
(g88
g69
NtRp768
(dp769
g72
(dp770
sg81
g755
sg74
(lp771
g67
(g68
g69
NtRp772
(dp773
g72
(dp774
g80
I4
ssg81
g768
sg74
(lp775
S'301'
p776
asbasbasbag67
(g83
g69
NtRp777
(dp778
g72
(dp779
sg81
g660
sg74
(lp780
g67
(g88
g69
NtRp781
(dp782
g72
(dp783
g92
g93
ssg81
g777
sg74
(lp784
S'content_type'
p785
asbag67
(g88
g69
NtRp786
(dp787
g72
(dp788
g99
g100
ssg81
g777
sg74
(lp789
S':'
asbag67
(g88
g69
NtRp790
(dp791
g72
(dp792
sg81
g777
sg74
(lp793
g67
(g68
g69
NtRp794
(dp795
g72
(dp796
g80
I4
ssg81
g790
sg74
(lp797
S'multipart/form-data; boundary=----WebKitFormBoundarycBcVhw9XHYRyBxOZ'
p798
asbasbasbag67
(g83
g69
NtRp799
(dp800
g72
(dp801
sg81
g660
sg74
(lp802
g67
(g88
g69
NtRp803
(dp804
g72
(dp805
g92
g93
ssg81
g799
sg74
(lp806
S'db_sessions'
p807
asbag67
(g88
g69
NtRp808
(dp809
g72
(dp810
g99
g100
ssg81
g799
sg74
(lp811
S':'
asbag67
(g88
g69
NtRp812
(dp813
g72
(dp814
sg81
g799
sg74
(lp815
g67
(g68
g69
NtRp816
(dp817
g72
(dp818
g80
I4
ssg81
g812
sg74
(lp819
S'set([])'
p820
asbasbasbag67
(g83
g69
NtRp821
(dp822
g72
(dp823
sg81
g660
sg74
(lp824
g67
(g88
g69
NtRp825
(dp826
g72
(dp827
g92
g93
ssg81
g821
sg74
(lp828
S'debugging'
p829
asbag67
(g88
g69
NtRp830
(dp831
g72
(dp832
g99
g100
ssg81
g821
sg74
(lp833
S':'
asbag67
(g88
g69
NtRp834
(dp835
g72
(dp836
sg81
g821
sg74
(lp837
g67
(g68
g69
NtRp838
(dp839
g72
(dp840
g80
I4
ssg81
g834
sg74
(lp841
g110
asbasbasbag67
(g83
g69
NtRp842
(dp843
g72
(dp844
sg81
g660
sg74
(lp845
g67
(g88
g69
NtRp846
(dp847
g72
(dp848
g92
g93
ssg81
g842
sg74
(lp849
S'gluon_parent'
p850
asbag67
(g88
g69
NtRp851
(dp852
g72
(dp853
g99
g100
ssg81
g842
sg74
(lp854
S':'
asbag67
(g88
g69
NtRp855
(dp856
g72
(dp857
sg81
g842
sg74
(lp858
g67
(g68
g69
NtRp859
(dp860
g72
(dp861
g80
I4
ssg81
g855
sg74
(lp862
S'/home/goshawk/web2py'
p863
asbasbasbag67
(g83
g69
NtRp864
(dp865
g72
(dp866
sg81
g660
sg74
(lp867
g67
(g88
g69
NtRp868
(dp869
g72
(dp870
g92
g93
ssg81
g864
sg74
(lp871
S'http_accept'
p872
asbag67
(g88
g69
NtRp873
(dp874
g72
(dp875
g99
g100
ssg81
g864
sg74
(lp876
S':'
asbag67
(g88
g69
NtRp877
(dp878
g72
(dp879
sg81
g864
sg74
(lp880
g67
(g68
g69
NtRp881
(dp882
g72
(dp883
g80
I4
ssg81
g877
sg74
(lp884
S'text/html,application/xhtml+xml,application/xml;q=0.9,*/*;q=0.8'
p885
asbasbasbag67
(g83
g69
NtRp886
(dp887
g72
(dp888
sg81
g660
sg74
(lp889
g67
(g88
g69
NtRp890
(dp891
g72
(dp892
g92
g93
ssg81
g886
sg74
(lp893
S'http_accept_charset'
p894
asbag67
(g88
g69
NtRp895
(dp896
g72
(dp897
g99
g100
ssg81
g886
sg74
(lp898
S':'
asbag67
(g88
g69
NtRp899
(dp900
g72
(dp901
sg81
g886
sg74
(lp902
g67
(g68
g69
NtRp903
(dp904
g72
(dp905
g80
I4
ssg81
g899
sg74
(lp906
S'ISO-8859-1,utf-8;q=0.7,*;q=0.3'
p907
asbasbasbag67
(g83
g69
NtRp908
(dp909
g72
(dp910
sg81
g660
sg74
(lp911
g67
(g88
g69
NtRp912
(dp913
g72
(dp914
g92
g93
ssg81
g908
sg74
(lp915
S'http_accept_encoding'
p916
asbag67
(g88
g69
NtRp917
(dp918
g72
(dp919
g99
g100
ssg81
g908
sg74
(lp920
S':'
asbag67
(g88
g69
NtRp921
(dp922
g72
(dp923
sg81
g908
sg74
(lp924
g67
(g68
g69
NtRp925
(dp926
g72
(dp927
g80
I4
ssg81
g921
sg74
(lp928
S'gzip,deflate,sdch'
p929
asbasbasbag67
(g83
g69
NtRp930
(dp931
g72
(dp932
sg81
g660
sg74
(lp933
g67
(g88
g69
NtRp934
(dp935
g72
(dp936
g92
g93
ssg81
g930
sg74
(lp937
S'http_accept_language'
p938
asbag67
(g88
g69
NtRp939
(dp940
g72
(dp941
g99
g100
ssg81
g930
sg74
(lp942
S':'
asbag67
(g88
g69
NtRp943
(dp944
g72
(dp945
sg81
g930
sg74
(lp946
g67
(g68
g69
NtRp947
(dp948
g72
(dp949
g80
I4
ssg81
g943
sg74
(lp950
S'en-US,en;q=0.8'
p951
asbasbasbag67
(g83
g69
NtRp952
(dp953
g72
(dp954
sg81
g660
sg74
(lp955
g67
(g88
g69
NtRp956
(dp957
g72
(dp958
g92
g93
ssg81
g952
sg74
(lp959
S'http_cache_control'
p960
asbag67
(g88
g69
NtRp961
(dp962
g72
(dp963
g99
g100
ssg81
g952
sg74
(lp964
S':'
asbag67
(g88
g69
NtRp965
(dp966
g72
(dp967
sg81
g952
sg74
(lp968
g67
(g68
g69
NtRp969
(dp970
g72
(dp971
g80
I4
ssg81
g965
sg74
(lp972
S'max-age=0'
p973
asbasbasbag67
(g83
g69
NtRp974
(dp975
g72
(dp976
sg81
g660
sg74
(lp977
g67
(g88
g69
NtRp978
(dp979
g72
(dp980
g92
g93
ssg81
g974
sg74
(lp981
S'http_connection'
p982
asbag67
(g88
g69
NtRp983
(dp984
g72
(dp985
g99
g100
ssg81
g974
sg74
(lp986
S':'
asbag67
(g88
g69
NtRp987
(dp988
g72
(dp989
sg81
g974
sg74
(lp990
g67
(g68
g69
NtRp991
(dp992
g72
(dp993
g80
I4
ssg81
g987
sg74
(lp994
S'keep-alive'
p995
asbasbasbag67
(g83
g69
NtRp996
(dp997
g72
(dp998
sg81
g660
sg74
(lp999
g67
(g88
g69
NtRp1000
(dp1001
g72
(dp1002
g92
g93
ssg81
g996
sg74
(lp1003
S'http_content_length'
p1004
asbag67
(g88
g69
NtRp1005
(dp1006
g72
(dp1007
g99
g100
ssg81
g996
sg74
(lp1008
S':'
asbag67
(g88
g69
NtRp1009
(dp1010
g72
(dp1011
sg81
g996
sg74
(lp1012
g67
(g68
g69
NtRp1013
(dp1014
g72
(dp1015
g80
I4
ssg81
g1009
sg74
(lp1016
g776
asbasbasbag67
(g83
g69
NtRp1017
(dp1018
g72
(dp1019
sg81
g660
sg74
(lp1020
g67
(g88
g69
NtRp1021
(dp1022
g72
(dp1023
g92
g93
ssg81
g1017
sg74
(lp1024
S'http_content_type'
p1025
asbag67
(g88
g69
NtRp1026
(dp1027
g72
(dp1028
g99
g100
ssg81
g1017
sg74
(lp1029
S':'
asbag67
(g88
g69
NtRp1030
(dp1031
g72
(dp1032
sg81
g1017
sg74
(lp1033
g67
(g68
g69
NtRp1034
(dp1035
g72
(dp1036
g80
I4
ssg81
g1030
sg74
(lp1037
g798
asbasbasbag67
(g83
g69
NtRp1038
(dp1039
g72
(dp1040
sg81
g660
sg74
(lp1041
g67
(g88
g69
NtRp1042
(dp1043
g72
(dp1044
g92
g93
ssg81
g1038
sg74
(lp1045
S'http_cookie'
p1046
asbag67
(g88
g69
NtRp1047
(dp1048
g72
(dp1049
g99
g100
ssg81
g1038
sg74
(lp1050
S':'
asbag67
(g88
g69
NtRp1051
(dp1052
g72
(dp1053
sg81
g1038
sg74
(lp1054
g67
(g68
g69
NtRp1055
(dp1056
g72
(dp1057
g80
I4
ssg81
g1051
sg74
(lp1058
S'session_id_milo=127.0.0.1-19614cfd-e191-4bce-bf28-2da4d735c3fb; session_id_admin=127.0.0.1-d48f224c-3229-4026-85e5-6400c20fa8bb'
p1059
asbasbasbag67
(g83
g69
NtRp1060
(dp1061
g72
(dp1062
sg81
g660
sg74
(lp1063
g67
(g88
g69
NtRp1064
(dp1065
g72
(dp1066
g92
g93
ssg81
g1060
sg74
(lp1067
S'http_host'
p1068
asbag67
(g88
g69
NtRp1069
(dp1070
g72
(dp1071
g99
g100
ssg81
g1060
sg74
(lp1072
S':'
asbag67
(g88
g69
NtRp1073
(dp1074
g72
(dp1075
sg81
g1060
sg74
(lp1076
g67
(g68
g69
NtRp1077
(dp1078
g72
(dp1079
g80
I4
ssg81
g1073
sg74
(lp1080
S'localhost:8000'
p1081
asbasbasbag67
(g83
g69
NtRp1082
(dp1083
g72
(dp1084
sg81
g660
sg74
(lp1085
g67
(g88
g69
NtRp1086
(dp1087
g72
(dp1088
g92
g93
ssg81
g1082
sg74
(lp1089
S'http_origin'
p1090
asbag67
(g88
g69
NtRp1091
(dp1092
g72
(dp1093
g99
g100
ssg81
g1082
sg74
(lp1094
S':'
asbag67
(g88
g69
NtRp1095
(dp1096
g72
(dp1097
sg81
g1082
sg74
(lp1098
g67
(g68
g69
NtRp1099
(dp1100
g72
(dp1101
g80
I4
ssg81
g1095
sg74
(lp1102
S'http://localhost:8000'
p1103
asbasbasbag67
(g83
g69
NtRp1104
(dp1105
g72
(dp1106
sg81
g660
sg74
(lp1107
g67
(g88
g69
NtRp1108
(dp1109
g72
(dp1110
g92
g93
ssg81
g1104
sg74
(lp1111
S'http_referer'
p1112
asbag67
(g88
g69
NtRp1113
(dp1114
g72
(dp1115
g99
g100
ssg81
g1104
sg74
(lp1116
S':'
asbag67
(g88
g69
NtRp1117
(dp1118
g72
(dp1119
sg81
g1104
sg74
(lp1120
g67
(g68
g69
NtRp1121
(dp1122
g72
(dp1123
g80
I4
ssg81
g1117
sg74
(lp1124
S'http://localhost:8000/milo/appadmin/select/db'
p1125
asbasbasbag67
(g83
g69
NtRp1126
(dp1127
g72
(dp1128
sg81
g660
sg74
(lp1129
g67
(g88
g69
NtRp1130
(dp1131
g72
(dp1132
g92
g93
ssg81
g1126
sg74
(lp1133
S'http_user_agent'
p1134
asbag67
(g88
g69
NtRp1135
(dp1136
g72
(dp1137
g99
g100
ssg81
g1126
sg74
(lp1138
S':'
asbag67
(g88
g69
NtRp1139
(dp1140
g72
(dp1141
sg81
g1126
sg74
(lp1142
g67
(g68
g69
NtRp1143
(dp1144
g72
(dp1145
g80
I4
ssg81
g1139
sg74
(lp1146
S'Mozilla/5.0 (X11; Linux x86_64) AppleWebKit/535.19 (KHTML, like Gecko) Ubuntu/12.04 Chromium/18.0.1025.168 Chrome/18.0.1025.168 Safari/535.19'
p1147
asbasbasbag67
(g83
g69
NtRp1148
(dp1149
g72
(dp1150
sg81
g660
sg74
(lp1151
g67
(g88
g69
NtRp1152
(dp1153
g72
(dp1154
g92
g93
ssg81
g1148
sg74
(lp1155
S'is_jython'
p1156
asbag67
(g88
g69
NtRp1157
(dp1158
g72
(dp1159
g99
g100
ssg81
g1148
sg74
(lp1160
S':'
asbag67
(g88
g69
NtRp1161
(dp1162
g72
(dp1163
sg81
g1148
sg74
(lp1164
g67
(g68
g69
NtRp1165
(dp1166
g72
(dp1167
g80
I4
ssg81
g1161
sg74
(lp1168
g110
asbasbasbag67
(g83
g69
NtRp1169
(dp1170
g72
(dp1171
sg81
g660
sg74
(lp1172
g67
(g88
g69
NtRp1173
(dp1174
g72
(dp1175
g92
g93
ssg81
g1169
sg74
(lp1176
S'is_pypy'
p1177
asbag67
(g88
g69
NtRp1178
(dp1179
g72
(dp1180
g99
g100
ssg81
g1169
sg74
(lp1181
S':'
asbag67
(g88
g69
NtRp1182
(dp1183
g72
(dp1184
sg81
g1169
sg74
(lp1185
g67
(g68
g69
NtRp1186
(dp1187
g72
(dp1188
g80
I4
ssg81
g1182
sg74
(lp1189
g110
asbasbasbag67
(g83
g69
NtRp1190
(dp1191
g72
(dp1192
sg81
g660
sg74
(lp1193
g67
(g88
g69
NtRp1194
(dp1195
g72
(dp1196
g92
g93
ssg81
g1190
sg74
(lp1197
S'path_info'
p1198
asbag67
(g88
g69
NtRp1199
(dp1200
g72
(dp1201
g99
g100
ssg81
g1190
sg74
(lp1202
S':'
asbag67
(g88
g69
NtRp1203
(dp1204
g72
(dp1205
sg81
g1190
sg74
(lp1206
g67
(g68
g69
NtRp1207
(dp1208
g72
(dp1209
g80
I4
ssg81
g1203
sg74
(lp1210
S'/milo/appadmin/select/db'
p1211
asbasbasbag67
(g83
g69
NtRp1212
(dp1213
g72
(dp1214
sg81
g660
sg74
(lp1215
g67
(g88
g69
NtRp1216
(dp1217
g72
(dp1218
g92
g93
ssg81
g1212
sg74
(lp1219
S'query_string'
p1220
asbag67
(g88
g69
NtRp1221
(dp1222
g72
(dp1223
g99
g100
ssg81
g1212
sg74
(lp1224
S':'
asbag67
(g88
g69
NtRp1225
(dp1226
g72
(dp1227
sg81
g1212
sg74
(lp1228
g67
(g68
g69
NtRp1229
(dp1230
g72
(dp1231
g80
I4
ssg81
g1225
sg74
(lp1232
S''
asbasbasbag67
(g83
g69
NtRp1233
(dp1234
g72
(dp1235
sg81
g660
sg74
(lp1236
g67
(g88
g69
NtRp1237
(dp1238
g72
(dp1239
g92
g93
ssg81
g1233
sg74
(lp1240
S'remote_addr'
p1241
asbag67
(g88
g69
NtRp1242
(dp1243
g72
(dp1244
g99
g100
ssg81
g1233
sg74
(lp1245
S':'
asbag67
(g88
g69
NtRp1246
(dp1247
g72
(dp1248
sg81
g1233
sg74
(lp1249
g67
(g68
g69
NtRp1250
(dp1251
g72
(dp1252
g80
I4
ssg81
g1246
sg74
(lp1253
g213
asbasbasbag67
(g83
g69
NtRp1254
(dp1255
g72
(dp1256
sg81
g660
sg74
(lp1257
g67
(g88
g69
NtRp1258
(dp1259
g72
(dp1260
g92
g93
ssg81
g1254
sg74
(lp1261
S'remote_port'
p1262
asbag67
(g88
g69
NtRp1263
(dp1264
g72
(dp1265
g99
g100
ssg81
g1254
sg74
(lp1266
S':'
asbag67
(g88
g69
NtRp1267
(dp1268
g72
(dp1269
sg81
g1254
sg74
(lp1270
g67
(g68
g69
NtRp1271
(dp1272
g72
(dp1273
g80
I4
ssg81
g1267
sg74
(lp1274
S'35843'
p1275
asbasbasbag67
(g83
g69
NtRp1276
(dp1277
g72
(dp1278
sg81
g660
sg74
(lp1279
g67
(g88
g69
NtRp1280
(dp1281
g72
(dp1282
g92
g93
ssg81
g1276
sg74
(lp1283
S'request_method'
p1284
asbag67
(g88
g69
NtRp1285
(dp1286
g72
(dp1287
g99
g100
ssg81
g1276
sg74
(lp1288
S':'
asbag67
(g88
g69
NtRp1289
(dp1290
g72
(dp1291
sg81
g1276
sg74
(lp1292
g67
(g68
g69
NtRp1293
(dp1294
g72
(dp1295
g80
I4
ssg81
g1289
sg74
(lp1296
S'POST'
p1297
asbasbasbag67
(g83
g69
NtRp1298
(dp1299
g72
(dp1300
sg81
g660
sg74
(lp1301
g67
(g88
g69
NtRp1302
(dp1303
g72
(dp1304
g92
g93
ssg81
g1298
sg74
(lp1305
S'request_uri'
p1306
asbag67
(g88
g69
NtRp1307
(dp1308
g72
(dp1309
g99
g100
ssg81
g1298
sg74
(lp1310
S':'
asbag67
(g88
g69
NtRp1311
(dp1312
g72
(dp1313
sg81
g1298
sg74
(lp1314
g67
(g68
g69
NtRp1315
(dp1316
g72
(dp1317
g80
I4
ssg81
g1311
sg74
(lp1318
g1211
asbasbasbag67
(g83
g69
NtRp1319
(dp1320
g72
(dp1321
sg81
g660
sg74
(lp1322
g67
(g88
g69
NtRp1323
(dp1324
g72
(dp1325
g92
g93
ssg81
g1319
sg74
(lp1326
S'script_name'
p1327
asbag67
(g88
g69
NtRp1328
(dp1329
g72
(dp1330
g99
g100
ssg81
g1319
sg74
(lp1331
S':'
asbag67
(g88
g69
NtRp1332
(dp1333
g72
(dp1334
sg81
g1319
sg74
(lp1335
g67
(g68
g69
NtRp1336
(dp1337
g72
(dp1338
g80
I4
ssg81
g1332
sg74
(lp1339
S''
asbasbasbag67
(g83
g69
NtRp1340
(dp1341
g72
(dp1342
sg81
g660
sg74
(lp1343
g67
(g88
g69
NtRp1344
(dp1345
g72
(dp1346
g92
g93
ssg81
g1340
sg74
(lp1347
S'server_name'
p1348
asbag67
(g88
g69
NtRp1349
(dp1350
g72
(dp1351
g99
g100
ssg81
g1340
sg74
(lp1352
S':'
asbag67
(g88
g69
NtRp1353
(dp1354
g72
(dp1355
sg81
g1340
sg74
(lp1356
g67
(g68
g69
NtRp1357
(dp1358
g72
(dp1359
g80
I4
ssg81
g1353
sg74
(lp1360
S'whisperer'
p1361
asbasbasbag67
(g83
g69
NtRp1362
(dp1363
g72
(dp1364
sg81
g660
sg74
(lp1365
g67
(g88
g69
NtRp1366
(dp1367
g72
(dp1368
g92
g93
ssg81
g1362
sg74
(lp1369
S'server_port'
p1370
asbag67
(g88
g69
NtRp1371
(dp1372
g72
(dp1373
g99
g100
ssg81
g1362
sg74
(lp1374
S':'
asbag67
(g88
g69
NtRp1375
(dp1376
g72
(dp1377
sg81
g1362
sg74
(lp1378
g67
(g68
g69
NtRp1379
(dp1380
g72
(dp1381
g80
I4
ssg81
g1375
sg74
(lp1382
S'8000'
p1383
asbasbasbag67
(g83
g69
NtRp1384
(dp1385
g72
(dp1386
sg81
g660
sg74
(lp1387
g67
(g88
g69
NtRp1388
(dp1389
g72
(dp1390
g92
g93
ssg81
g1384
sg74
(lp1391
S'server_protocol'
p1392
asbag67
(g88
g69
NtRp1393
(dp1394
g72
(dp1395
g99
g100
ssg81
g1384
sg74
(lp1396
S':'
asbag67
(g88
g69
NtRp1397
(dp1398
g72
(dp1399
sg81
g1384
sg74
(lp1400
g67
(g68
g69
NtRp1401
(dp1402
g72
(dp1403
g80
I4
ssg81
g1397
sg74
(lp1404
S'HTTP/1.1'
p1405
asbasbasbag67
(g83
g69
NtRp1406
(dp1407
g72
(dp1408
sg81
g660
sg74
(lp1409
g67
(g88
g69
NtRp1410
(dp1411
g72
(dp1412
g92
g93
ssg81
g1406
sg74
(lp1413
S'server_software'
p1414
asbag67
(g88
g69
NtRp1415
(dp1416
g72
(dp1417
g99
g100
ssg81
g1406
sg74
(lp1418
S':'
asbag67
(g88
g69
NtRp1419
(dp1420
g72
(dp1421
sg81
g1406
sg74
(lp1422
g67
(g68
g69
NtRp1423
(dp1424
g72
(dp1425
g80
I4
ssg81
g1419
sg74
(lp1426
S'Rocket 1.2.4'
p1427
asbasbasbag67
(g83
g69
NtRp1428
(dp1429
g72
(dp1430
sg81
g660
sg74
(lp1431
g67
(g88
g69
NtRp1432
(dp1433
g72
(dp1434
g92
g93
ssg81
g1428
sg74
(lp1435
S'web2py_crontype'
p1436
asbag67
(g88
g69
NtRp1437
(dp1438
g72
(dp1439
g99
g100
ssg81
g1428
sg74
(lp1440
S':'
asbag67
(g88
g69
NtRp1441
(dp1442
g72
(dp1443
sg81
g1428
sg74
(lp1444
g67
(g68
g69
NtRp1445
(dp1446
g72
(dp1447
g80
I4
ssg81
g1441
sg74
(lp1448
S'hard'
p1449
asbasbasbag67
(g83
g69
NtRp1450
(dp1451
g72
(dp1452
sg81
g660
sg74
(lp1453
g67
(g88
g69
NtRp1454
(dp1455
g72
(dp1456
g92
g93
ssg81
g1450
sg74
(lp1457
S'web2py_original_uri'
p1458
asbag67
(g88
g69
NtRp1459
(dp1460
g72
(dp1461
g99
g100
ssg81
g1450
sg74
(lp1462
S':'
asbag67
(g88
g69
NtRp1463
(dp1464
g72
(dp1465
sg81
g1450
sg74
(lp1466
g67
(g68
g69
NtRp1467
(dp1468
g72
(dp1469
g80
I4
ssg81
g1463
sg74
(lp1470
g1211
asbasbasbag67
(g83
g69
NtRp1471
(dp1472
g72
(dp1473
sg81
g660
sg74
(lp1474
g67
(g88
g69
NtRp1475
(dp1476
g72
(dp1477
g92
g93
ssg81
g1471
sg74
(lp1478
S'web2py_path'
p1479
asbag67
(g88
g69
NtRp1480
(dp1481
g72
(dp1482
g99
g100
ssg81
g1471
sg74
(lp1483
S':'
asbag67
(g88
g69
NtRp1484
(dp1485
g72
(dp1486
sg81
g1471
sg74
(lp1487
g67
(g68
g69
NtRp1488
(dp1489
g72
(dp1490
g80
I4
ssg81
g1484
sg74
(lp1491
g707
asbasbasbag67
(g83
g69
NtRp1492
(dp1493
g72
(dp1494
sg81
g660
sg74
(lp1495
g67
(g88
g69
NtRp1496
(dp1497
g72
(dp1498
g92
g93
ssg81
g1492
sg74
(lp1499
S'web2py_version'
p1500
asbag67
(g88
g69
NtRp1501
(dp1502
g72
(dp1503
g99
g100
ssg81
g1492
sg74
(lp1504
S':'
asbag67
(g88
g69
NtRp1505
(dp1506
g72
(dp1507
sg81
g1492
sg74
(lp1508
g67
(g68
g69
NtRp1509
(dp1510
g72
(dp1511
g80
I4
ssg81
g1505
sg74
(lp1512
g67
(g76
g69
NtRp1513
(dp1514
g72
(dp1515
g80
I3
ssg81
Nsg74
(lp1516
g67
(g83
g69
NtRp1517
(dp1518
g72
(dp1519
sg81
g1513
sg74
(lp1520
g67
(g88
g69
NtRp1521
(dp1522
g72
(dp1523
sg81
g1517
sg74
(lp1524
g67
(g68
g69
NtRp1525
(dp1526
g72
(dp1527
g80
I3
ssg81
g1521
sg74
(lp1528
S'1'
asbasbasbag67
(g83
g69
NtRp1529
(dp1530
g72
(dp1531
sg81
g1513
sg74
(lp1532
g67
(g88
g69
NtRp1533
(dp1534
g72
(dp1535
sg81
g1529
sg74
(lp1536
g67
(g68
g69
NtRp1537
(dp1538
g72
(dp1539
g80
I3
ssg81
g1533
sg74
(lp1540
S'99'
p1541
asbasbasbag67
(g83
g69
NtRp1542
(dp1543
g72
(dp1544
sg81
g1513
sg74
(lp1545
g67
(g88
g69
NtRp1546
(dp1547
g72
(dp1548
sg81
g1542
sg74
(lp1549
g67
(g68
g69
NtRp1550
(dp1551
g72
(dp1552
g80
I3
ssg81
g1546
sg74
(lp1553
S'7'
asbasbasbag67
(g83
g69
NtRp1554
(dp1555
g72
(dp1556
sg81
g1513
sg74
(lp1557
g67
(g88
g69
NtRp1558
(dp1559
g72
(dp1560
sg81
g1554
sg74
(lp1561
g67
(g68
g69
NtRp1562
(dp1563
g72
(dp1564
g80
I3
ssg81
g1558
sg74
(lp1565
S'datetime.datetime(2012, 3, 4, 22, 12, 8)'
p1566
asbasbasbag67
(g83
g69
NtRp1567
(dp1568
g72
(dp1569
sg81
g1513
sg74
(lp1570
g67
(g88
g69
NtRp1571
(dp1572
g72
(dp1573
sg81
g1567
sg74
(lp1574
g67
(g68
g69
NtRp1575
(dp1576
g72
(dp1577
g80
I3
ssg81
g1571
sg74
(lp1578
S'stable'
p1579
asbasbasbasbasbasbasbag67
(g83
g69
NtRp1580
(dp1581
g72
(dp1582
sg81
g660
sg74
(lp1583
g67
(g88
g69
NtRp1584
(dp1585
g72
(dp1586
g92
g93
ssg81
g1580
sg74
(lp1587
S'wsgi_errors'
p1588
asbag67
(g88
g69
NtRp1589
(dp1590
g72
(dp1591
g99
g100
ssg81
g1580
sg74
(lp1592
S':'
asbag67
(g88
g69
NtRp1593
(dp1594
g72
(dp1595
sg81
g1580
sg74
(lp1596
g67
(g68
g69
NtRp1597
(dp1598
g72
(dp1599
g80
I4
ssg81
g1593
sg74
(lp1600
S"<open file '<stderr>', mode 'w' at 0x7f13cb382270>"
p1601
asbasbasbag67
(g83
g69
NtRp1602
(dp1603
g72
(dp1604
sg81
g660
sg74
(lp1605
g67
(g88
g69
NtRp1606
(dp1607
g72
(dp1608
g92
g93
ssg81
g1602
sg74
(lp1609
S'wsgi_file_wrapper'
p1610
asbag67
(g88
g69
NtRp1611
(dp1612
g72
(dp1613
g99
g100
ssg81
g1602
sg74
(lp1614
S':'
asbag67
(g88
g69
NtRp1615
(dp1616
g72
(dp1617
sg81
g1602
sg74
(lp1618
g67
(g68
g69
NtRp1619
(dp1620
g72
(dp1621
g80
I4
ssg81
g1615
sg74
(lp1622
S'<class wsgiref.util.FileWrapper at 0x13fff58>'
p1623
asbasbasbag67
(g83
g69
NtRp1624
(dp1625
g72
(dp1626
sg81
g660
sg74
(lp1627
g67
(g88
g69
NtRp1628
(dp1629
g72
(dp1630
g92
g93
ssg81
g1624
sg74
(lp1631
S'wsgi_input'
p1632
asbag67
(g88
g69
NtRp1633
(dp1634
g72
(dp1635
g99
g100
ssg81
g1624
sg74
(lp1636
S':'
asbag67
(g88
g69
NtRp1637
(dp1638
g72
(dp1639
sg81
g1624
sg74
(lp1640
g67
(g68
g69
NtRp1641
(dp1642
g72
(dp1643
g80
I4
ssg81
g1637
sg74
(lp1644
S'<socket._fileobject object at 0x7f13ac3cb6d0>'
p1645
asbasbasbag67
(g83
g69
NtRp1646
(dp1647
g72
(dp1648
sg81
g660
sg74
(lp1649
g67
(g88
g69
NtRp1650
(dp1651
g72
(dp1652
g92
g93
ssg81
g1646
sg74
(lp1653
S'wsgi_multiprocess'
p1654
asbag67
(g88
g69
NtRp1655
(dp1656
g72
(dp1657
g99
g100
ssg81
g1646
sg74
(lp1658
S':'
asbag67
(g88
g69
NtRp1659
(dp1660
g72
(dp1661
sg81
g1646
sg74
(lp1662
g67
(g68
g69
NtRp1663
(dp1664
g72
(dp1665
g80
I4
ssg81
g1659
sg74
(lp1666
g110
asbasbasbag67
(g83
g69
NtRp1667
(dp1668
g72
(dp1669
sg81
g660
sg74
(lp1670
g67
(g88
g69
NtRp1671
(dp1672
g72
(dp1673
g92
g93
ssg81
g1667
sg74
(lp1674
S'wsgi_multithread'
p1675
asbag67
(g88
g69
NtRp1676
(dp1677
g72
(dp1678
g99
g100
ssg81
g1667
sg74
(lp1679
S':'
asbag67
(g88
g69
NtRp1680
(dp1681
g72
(dp1682
sg81
g1667
sg74
(lp1683
g67
(g68
g69
NtRp1684
(dp1685
g72
(dp1686
g80
I4
ssg81
g1680
sg74
(lp1687
S'True'
p1688
asbasbasbag67
(g83
g69
NtRp1689
(dp1690
g72
(dp1691
sg81
g660
sg74
(lp1692
g67
(g88
g69
NtRp1693
(dp1694
g72
(dp1695
g92
g93
ssg81
g1689
sg74
(lp1696
S'wsgi_run_once'
p1697
asbag67
(g88
g69
NtRp1698
(dp1699
g72
(dp1700
g99
g100
ssg81
g1689
sg74
(lp1701
S':'
asbag67
(g88
g69
NtRp1702
(dp1703
g72
(dp1704
sg81
g1689
sg74
(lp1705
g67
(g68
g69
NtRp1706
(dp1707
g72
(dp1708
g80
I4
ssg81
g1702
sg74
(lp1709
g110
asbasbasbag67
(g83
g69
NtRp1710
(dp1711
g72
(dp1712
sg81
g660
sg74
(lp1713
g67
(g88
g69
NtRp1714
(dp1715
g72
(dp1716
g92
g93
ssg81
g1710
sg74
(lp1717
S'wsgi_url_scheme'
p1718
asbag67
(g88
g69
NtRp1719
(dp1720
g72
(dp1721
g99
g100
ssg81
g1710
sg74
(lp1722
S':'
asbag67
(g88
g69
NtRp1723
(dp1724
g72
(dp1725
sg81
g1710
sg74
(lp1726
g67
(g68
g69
NtRp1727
(dp1728
g72
(dp1729
g80
I4
ssg81
g1723
sg74
(lp1730
S'http'
p1731
asbasbasbag67
(g83
g69
NtRp1732
(dp1733
g72
(dp1734
sg81
g660
sg74
(lp1735
g67
(g88
g69
NtRp1736
(dp1737
g72
(dp1738
g92
g93
ssg81
g1732
sg74
(lp1739
S'wsgi_version'
p1740
asbag67
(g88
g69
NtRp1741
(dp1742
g72
(dp1743
g99
g100
ssg81
g1732
sg74
(lp1744
S':'
asbag67
(g88
g69
NtRp1745
(dp1746
g72
(dp1747
sg81
g1732
sg74
(lp1748
g67
(g68
g69
NtRp1749
(dp1750
g72
(dp1751
g80
I4
ssg81
g1745
sg74
(lp1752
g67
(g76
g69
NtRp1753
(dp1754
g72
(dp1755
g80
I3
ssg81
Nsg74
(lp1756
g67
(g83
g69
NtRp1757
(dp1758
g72
(dp1759
sg81
g1753
sg74
(lp1760
g67
(g88
g69
NtRp1761
(dp1762
g72
(dp1763
sg81
g1757
sg74
(lp1764
g67
(g68
g69
NtRp1765
(dp1766
g72
(dp1767
g80
I3
ssg81
g1761
sg74
(lp1768
S'1'
asbasbasbag67
(g83
g69
NtRp1769
(dp1770
g72
(dp1771
sg81
g1753
sg74
(lp1772
g67
(g88
g69
NtRp1773
(dp1774
g72
(dp1775
sg81
g1769
sg74
(lp1776
g67
(g68
g69
NtRp1777
(dp1778
g72
(dp1779
g80
I3
ssg81
g1773
sg74
(lp1780
S'0'
asbasbasbasbasbasbasbasbasbasbasbag67
(g83
g69
NtRp1781
(dp1782
g72
(dp1783
sg81
g77
sg74
(lp1784
g67
(g88
g69
NtRp1785
(dp1786
g72
(dp1787
g92
g93
ssg81
g1781
sg74
(lp1788
S'extension'
p1789
asbag67
(g88
g69
NtRp1790
(dp1791
g72
(dp1792
g99
g100
ssg81
g1781
sg74
(lp1793
S':'
asbag67
(g88
g69
NtRp1794
(dp1795
g72
(dp1796
sg81
g1781
sg74
(lp1797
g67
(g68
g69
NtRp1798
(dp1799
g72
(dp1800
g80
I5
ssg81
g1794
sg74
(lp1801
S'html'
p1802
asbasbasbag67
(g83
g69
NtRp1803
(dp1804
g72
(dp1805
sg81
g77
sg74
(lp1806
g67
(g88
g69
NtRp1807
(dp1808
g72
(dp1809
g92
g93
ssg81
g1803
sg74
(lp1810
S'folder'
p1811
asbag67
(g88
g69
NtRp1812
(dp1813
g72
(dp1814
g99
g100
ssg81
g1803
sg74
(lp1815
S':'
asbag67
(g88
g69
NtRp1816
(dp1817
g72
(dp1818
sg81
g1803
sg74
(lp1819
g67
(g68
g69
NtRp1820
(dp1821
g72
(dp1822
g80
I5
ssg81
g1816
sg74
(lp1823
S'/home/goshawk/web2py/applications/milo/'
p1824
asbasbasbag67
(g83
g69
NtRp1825
(dp1826
g72
(dp1827
sg81
g77
sg74
(lp1828
g67
(g88
g69
NtRp1829
(dp1830
g72
(dp1831
g92
g93
ssg81
g1825
sg74
(lp1832
S'function'
p1833
asbag67
(g88
g69
NtRp1834
(dp1835
g72
(dp1836
g99
g100
ssg81
g1825
sg74
(lp1837
S':'
asbag67
(g88
g69
NtRp1838
(dp1839
g72
(dp1840
sg81
g1825
sg74
(lp1841
g67
(g68
g69
NtRp1842
(dp1843
g72
(dp1844
g80
I5
ssg81
g1838
sg74
(lp1845
S'select'
p1846
asbasbasbag67
(g83
g69
NtRp1847
(dp1848
g72
(dp1849
sg81
g77
sg74
(lp1850
g67
(g88
g69
NtRp1851
(dp1852
g72
(dp1853
g92
g93
ssg81
g1847
sg74
(lp1854
S'get_vars'
p1855
asbag67
(g88
g69
NtRp1856
(dp1857
g72
(dp1858
g99
g100
ssg81
g1847
sg74
(lp1859
S':'
asbag67
(g88
g69
NtRp1860
(dp1861
g72
(dp1862
sg81
g1847
sg74
(lp1863
g67
(g68
g69
NtRp1864
(dp1865
g72
(dp1866
g80
I5
ssg81
g1860
sg74
(lp1867
g67
(g76
g69
NtRp1868
(dp1869
g72
(dp1870
g80
I4
ssg81
Nsg74
(lp1871
sbasbasbasbag67
(g83
g69
NtRp1872
(dp1873
g72
(dp1874
sg81
g77
sg74
(lp1875
g67
(g88
g69
NtRp1876
(dp1877
g72
(dp1878
g92
g93
ssg81
g1872
sg74
(lp1879
S'global_settings'
p1880
asbag67
(g88
g69
NtRp1881
(dp1882
g72
(dp1883
g99
g100
ssg81
g1872
sg74
(lp1884
S':'
asbag67
(g88
g69
NtRp1885
(dp1886
g72
(dp1887
sg81
g1872
sg74
(lp1888
g67
(g68
g69
NtRp1889
(dp1890
g72
(dp1891
g80
I5
ssg81
g1885
sg74
(lp1892
g67
(g76
g69
NtRp1893
(dp1894
g72
(dp1895
g80
I4
ssg81
Nsg74
(lp1896
g67
(g83
g69
NtRp1897
(dp1898
g72
(dp1899
sg81
g1893
sg74
(lp1900
g67
(g88
g69
NtRp1901
(dp1902
g72
(dp1903
g92
g93
ssg81
g1897
sg74
(lp1904
g672
asbag67
(g88
g69
NtRp1905
(dp1906
g72
(dp1907
g99
g100
ssg81
g1897
sg74
(lp1908
S':'
asbag67
(g88
g69
NtRp1909
(dp1910
g72
(dp1911
sg81
g1897
sg74
(lp1912
g67
(g68
g69
NtRp1913
(dp1914
g72
(dp1915
g80
I4
ssg81
g1909
sg74
(lp1916
S"set(['/home/goshawk/web2py/applications/milo/', '/home/goshawk/web2py/applications/admin/'])"
p1917
asbasbasbag67
(g83
g69
NtRp1918
(dp1919
g72
(dp1920
sg81
g1893
sg74
(lp1921
g67
(g88
g69
NtRp1922
(dp1923
g72
(dp1924
g92
g93
ssg81
g1918
sg74
(lp1925
g694
asbag67
(g88
g69
NtRp1926
(dp1927
g72
(dp1928
g99
g100
ssg81
g1918
sg74
(lp1929
S':'
asbag67
(g88
g69
NtRp1930
(dp1931
g72
(dp1932
sg81
g1918
sg74
(lp1933
g67
(g68
g69
NtRp1934
(dp1935
g72
(dp1936
g80
I4
ssg81
g1930
sg74
(lp1937
g707
asbasbasbag67
(g83
g69
NtRp1938
(dp1939
g72
(dp1940
sg81
g1893
sg74
(lp1941
g67
(g88
g69
NtRp1942
(dp1943
g72
(dp1944
g92
g93
ssg81
g1938
sg74
(lp1945
g716
asbag67
(g88
g69
NtRp1946
(dp1947
g72
(dp1948
g99
g100
ssg81
g1938
sg74
(lp1949
S':'
asbag67
(g88
g69
NtRp1950
(dp1951
g72
(dp1952
sg81
g1938
sg74
(lp1953
g67
(g68
g69
NtRp1954
(dp1955
g72
(dp1956
g80
I4
ssg81
g1950
sg74
(lp1957
g67
(g76
g69
NtRp1958
(dp1959
g72
(dp1960
g80
I3
ssg81
Nsg74
(lp1961
sbasbasbasbag67
(g83
g69
NtRp1962
(dp1963
g72
(dp1964
sg81
g1893
sg74
(lp1965
g67
(g88
g69
NtRp1966
(dp1967
g72
(dp1968
g92
g93
ssg81
g1962
sg74
(lp1969
g741
asbag67
(g88
g69
NtRp1970
(dp1971
g72
(dp1972
g99
g100
ssg81
g1962
sg74
(lp1973
S':'
asbag67
(g88
g69
NtRp1974
(dp1975
g72
(dp1976
sg81
g1962
sg74
(lp1977
g67
(g68
g69
NtRp1978
(dp1979
g72
(dp1980
g80
I4
ssg81
g1974
sg74
(lp1981
S"<Values at 0x14d30e0: {'verbose': False, 'ip': '127.0.0.1', 'shutdown_timeout': 5, 'taskbar': False, 'nocron': False, 'pid_filename': 'httpserver.pid', 'maxthreads': None, 'softcron': False, 'server_name': 'whisperer', 'bpython': False, 'nogui': False, 'port': 8000, 'extcron': False, 'debuglevel': 30, 'test': None, 'folder': '/home/goshawk/web2py', 'config': '', 'import_models': False, 'winservice': '', 'shell': None, 'run': '', 'log_filename': 'httpserver.log', 'args': [''], 'socket_timeout': 5, 'ssl_ca_certificate': None, 'scheduler': None, 'profiler_filename': None, 'ssl_private_key': '', 'password': 'admin', 'request_queue_size': 5, 'ssl_certificate': '', 'cronjob': False, 'numthreads': None, 'quiet': False, 'interfaces': None, 'minthreads': None, 'timeout': 10, 'plain': False, 'nobanner': False}>"
p1982
asbasbasbag67
(g83
g69
NtRp1983
(dp1984
g72
(dp1985
sg81
g1893
sg74
(lp1986
g67
(g88
g69
NtRp1987
(dp1988
g72
(dp1989
g92
g93
ssg81
g1983
sg74
(lp1990
g807
asbag67
(g88
g69
NtRp1991
(dp1992
g72
(dp1993
g99
g100
ssg81
g1983
sg74
(lp1994
S':'
asbag67
(g88
g69
NtRp1995
(dp1996
g72
(dp1997
sg81
g1983
sg74
(lp1998
g67
(g68
g69
NtRp1999
(dp2000
g72
(dp2001
g80
I4
ssg81
g1995
sg74
(lp2002
S'set([])'
p2003
asbasbasbag67
(g83
g69
NtRp2004
(dp2005
g72
(dp2006
sg81
g1893
sg74
(lp2007
g67
(g88
g69
NtRp2008
(dp2009
g72
(dp2010
g92
g93
ssg81
g2004
sg74
(lp2011
g829
asbag67
(g88
g69
NtRp2012
(dp2013
g72
(dp2014
g99
g100
ssg81
g2004
sg74
(lp2015
S':'
asbag67
(g88
g69
NtRp2016
(dp2017
g72
(dp2018
sg81
g2004
sg74
(lp2019
g67
(g68
g69
NtRp2020
(dp2021
g72
(dp2022
g80
I4
ssg81
g2016
sg74
(lp2023
g110
asbasbasbag67
(g83
g69
NtRp2024
(dp2025
g72
(dp2026
sg81
g1893
sg74
(lp2027
g67
(g88
g69
NtRp2028
(dp2029
g72
(dp2030
g92
g93
ssg81
g2024
sg74
(lp2031
g850
asbag67
(g88
g69
NtRp2032
(dp2033
g72
(dp2034
g99
g100
ssg81
g2024
sg74
(lp2035
S':'
asbag67
(g88
g69
NtRp2036
(dp2037
g72
(dp2038
sg81
g2024
sg74
(lp2039
g67
(g68
g69
NtRp2040
(dp2041
g72
(dp2042
g80
I4
ssg81
g2036
sg74
(lp2043
g863
asbasbasbag67
(g83
g69
NtRp2044
(dp2045
g72
(dp2046
sg81
g1893
sg74
(lp2047
g67
(g88
g69
NtRp2048
(dp2049
g72
(dp2050
g92
g93
ssg81
g2044
sg74
(lp2051
g1156
asbag67
(g88
g69
NtRp2052
(dp2053
g72
(dp2054
g99
g100
ssg81
g2044
sg74
(lp2055
S':'
asbag67
(g88
g69
NtRp2056
(dp2057
g72
(dp2058
sg81
g2044
sg74
(lp2059
g67
(g68
g69
NtRp2060
(dp2061
g72
(dp2062
g80
I4
ssg81
g2056
sg74
(lp2063
g110
asbasbasbag67
(g83
g69
NtRp2064
(dp2065
g72
(dp2066
sg81
g1893
sg74
(lp2067
g67
(g88
g69
NtRp2068
(dp2069
g72
(dp2070
g92
g93
ssg81
g2064
sg74
(lp2071
g1177
asbag67
(g88
g69
NtRp2072
(dp2073
g72
(dp2074
g99
g100
ssg81
g2064
sg74
(lp2075
S':'
asbag67
(g88
g69
NtRp2076
(dp2077
g72
(dp2078
sg81
g2064
sg74
(lp2079
g67
(g68
g69
NtRp2080
(dp2081
g72
(dp2082
g80
I4
ssg81
g2076
sg74
(lp2083
g110
asbasbasbag67
(g83
g69
NtRp2084
(dp2085
g72
(dp2086
sg81
g1893
sg74
(lp2087
g67
(g88
g69
NtRp2088
(dp2089
g72
(dp2090
g92
g93
ssg81
g2084
sg74
(lp2091
g1436
asbag67
(g88
g69
NtRp2092
(dp2093
g72
(dp2094
g99
g100
ssg81
g2084
sg74
(lp2095
S':'
asbag67
(g88
g69
NtRp2096
(dp2097
g72
(dp2098
sg81
g2084
sg74
(lp2099
g67
(g68
g69
NtRp2100
(dp2101
g72
(dp2102
g80
I4
ssg81
g2096
sg74
(lp2103
g1449
asbasbasbag67
(g83
g69
NtRp2104
(dp2105
g72
(dp2106
sg81
g1893
sg74
(lp2107
g67
(g88
g69
NtRp2108
(dp2109
g72
(dp2110
g92
g93
ssg81
g2104
sg74
(lp2111
g1500
asbag67
(g88
g69
NtRp2112
(dp2113
g72
(dp2114
g99
g100
ssg81
g2104
sg74
(lp2115
S':'
asbag67
(g88
g69
NtRp2116
(dp2117
g72
(dp2118
sg81
g2104
sg74
(lp2119
g67
(g68
g69
NtRp2120
(dp2121
g72
(dp2122
g80
I4
ssg81
g2116
sg74
(lp2123
g67
(g76
g69
NtRp2124
(dp2125
g72
(dp2126
g80
I3
ssg81
Nsg74
(lp2127
g67
(g83
g69
NtRp2128
(dp2129
g72
(dp2130
sg81
g2124
sg74
(lp2131
g67
(g88
g69
NtRp2132
(dp2133
g72
(dp2134
sg81
g2128
sg74
(lp2135
g67
(g68
g69
NtRp2136
(dp2137
g72
(dp2138
g80
I3
ssg81
g2132
sg74
(lp2139
S'1'
asbasbasbag67
(g83
g69
NtRp2140
(dp2141
g72
(dp2142
sg81
g2124
sg74
(lp2143
g67
(g88
g69
NtRp2144
(dp2145
g72
(dp2146
sg81
g2140
sg74
(lp2147
g67
(g68
g69
NtRp2148
(dp2149
g72
(dp2150
g80
I3
ssg81
g2144
sg74
(lp2151
S'99'
p2152
asbasbasbag67
(g83
g69
NtRp2153
(dp2154
g72
(dp2155
sg81
g2124
sg74
(lp2156
g67
(g88
g69
NtRp2157
(dp2158
g72
(dp2159
sg81
g2153
sg74
(lp2160
g67
(g68
g69
NtRp2161
(dp2162
g72
(dp2163
g80
I3
ssg81
g2157
sg74
(lp2164
S'7'
asbasbasbag67
(g83
g69
NtRp2165
(dp2166
g72
(dp2167
sg81
g2124
sg74
(lp2168
g67
(g88
g69
NtRp2169
(dp2170
g72
(dp2171
sg81
g2165
sg74
(lp2172
g67
(g68
g69
NtRp2173
(dp2174
g72
(dp2175
g80
I3
ssg81
g2169
sg74
(lp2176
S'datetime.datetime(2012, 3, 4, 22, 12, 8)'
p2177
asbasbasbag67
(g83
g69
NtRp2178
(dp2179
g72
(dp2180
sg81
g2124
sg74
(lp2181
g67
(g88
g69
NtRp2182
(dp2183
g72
(dp2184
sg81
g2178
sg74
(lp2185
g67
(g68
g69
NtRp2186
(dp2187
g72
(dp2188
g80
I3
ssg81
g2182
sg74
(lp2189
g1579
asbasbasbasbasbasbasbasbasbasbasbag67
(g83
g69
NtRp2190
(dp2191
g72
(dp2192
sg81
g77
sg74
(lp2193
g67
(g88
g69
NtRp2194
(dp2195
g72
(dp2196
g92
g93
ssg81
g2190
sg74
(lp2197
S'is_https'
p2198
asbag67
(g88
g69
NtRp2199
(dp2200
g72
(dp2201
g99
g100
ssg81
g2190
sg74
(lp2202
S':'
asbag67
(g88
g69
NtRp2203
(dp2204
g72
(dp2205
sg81
g2190
sg74
(lp2206
g67
(g68
g69
NtRp2207
(dp2208
g72
(dp2209
g80
I5
ssg81
g2203
sg74
(lp2210
g110
asbasbasbag67
(g83
g69
NtRp2211
(dp2212
g72
(dp2213
sg81
g77
sg74
(lp2214
g67
(g88
g69
NtRp2215
(dp2216
g72
(dp2217
g92
g93
ssg81
g2211
sg74
(lp2218
S'is_local'
p2219
asbag67
(g88
g69
NtRp2220
(dp2221
g72
(dp2222
g99
g100
ssg81
g2211
sg74
(lp2223
S':'
asbag67
(g88
g69
NtRp2224
(dp2225
g72
(dp2226
sg81
g2211
sg74
(lp2227
g67
(g68
g69
NtRp2228
(dp2229
g72
(dp2230
g80
I5
ssg81
g2224
sg74
(lp2231
g1688
asbasbasbag67
(g83
g69
NtRp2232
(dp2233
g72
(dp2234
sg81
g77
sg74
(lp2235
g67
(g88
g69
NtRp2236
(dp2237
g72
(dp2238
g92
g93
ssg81
g2232
sg74
(lp2239
S'is_restful'
p2240
asbag67
(g88
g69
NtRp2241
(dp2242
g72
(dp2243
g99
g100
ssg81
g2232
sg74
(lp2244
S':'
asbag67
(g88
g69
NtRp2245
(dp2246
g72
(dp2247
sg81
g2232
sg74
(lp2248
g67
(g68
g69
NtRp2249
(dp2250
g72
(dp2251
g80
I5
ssg81
g2245
sg74
(lp2252
g110
asbasbasbag67
(g83
g69
NtRp2253
(dp2254
g72
(dp2255
sg81
g77
sg74
(lp2256
g67
(g88
g69
NtRp2257
(dp2258
g72
(dp2259
g92
g93
ssg81
g2253
sg74
(lp2260
S'now'
p2261
asbag67
(g88
g69
NtRp2262
(dp2263
g72
(dp2264
g99
g100
ssg81
g2253
sg74
(lp2265
S':'
asbag67
(g88
g69
NtRp2266
(dp2267
g72
(dp2268
sg81
g2253
sg74
(lp2269
g67
(g68
g69
NtRp2270
(dp2271
g72
(dp2272
g80
I5
ssg81
g2266
sg74
(lp2273
S'datetime.datetime(2012, 7, 9, 2, 44, 58, 71243)'
p2274
asbasbasbag67
(g83
g69
NtRp2275
(dp2276
g72
(dp2277
sg81
g77
sg74
(lp2278
g67
(g88
g69
NtRp2279
(dp2280
g72
(dp2281
g92
g93
ssg81
g2275
sg74
(lp2282
S'post_vars'
p2283
asbag67
(g88
g69
NtRp2284
(dp2285
g72
(dp2286
g99
g100
ssg81
g2275
sg74
(lp2287
S':'
asbag67
(g88
g69
NtRp2288
(dp2289
g72
(dp2290
sg81
g2275
sg74
(lp2291
g67
(g68
g69
NtRp2292
(dp2293
g72
(dp2294
g80
I5
ssg81
g2288
sg74
(lp2295
g67
(g76
g69
NtRp2296
(dp2297
g72
(dp2298
g80
I4
ssg81
Nsg74
(lp2299
g67
(g83
g69
NtRp2300
(dp2301
g72
(dp2302
sg81
g2296
sg74
(lp2303
g67
(g88
g69
NtRp2304
(dp2305
g72
(dp2306
g92
g93
ssg81
g2300
sg74
(lp2307
S'query'
p2308
asbag67
(g88
g69
NtRp2309
(dp2310
g72
(dp2311
g99
g100
ssg81
g2300
sg74
(lp2312
S':'
asbag67
(g88
g69
NtRp2313
(dp2314
g72
(dp2315
sg81
g2300
sg74
(lp2316
g67
(g68
g69
NtRp2317
(dp2318
g72
(dp2319
g80
I4
ssg81
g2313
sg74
(lp2320
S'(db.ratings.id>0)&(db.ratings.iuser==4)&(db.ratings.imovie==4505)'
p2321
asbasbasbag67
(g83
g69
NtRp2322
(dp2323
g72
(dp2324
sg81
g2296
sg74
(lp2325
g67
(g88
g69
NtRp2326
(dp2327
g72
(dp2328
g92
g93
ssg81
g2322
sg74
(lp2329
S'update_fields'
p2330
asbag67
(g88
g69
NtRp2331
(dp2332
g72
(dp2333
g99
g100
ssg81
g2322
sg74
(lp2334
S':'
asbag67
(g88
g69
NtRp2335
(dp2336
g72
(dp2337
sg81
g2322
sg74
(lp2338
g67
(g68
g69
NtRp2339
(dp2340
g72
(dp2341
g80
I4
ssg81
g2335
sg74
(lp2342
S''
asbasbasbasbasbasbasbag67
(g83
g69
NtRp2343
(dp2344
g72
(dp2345
sg81
g77
sg74
(lp2346
g67
(g88
g69
NtRp2347
(dp2348
g72
(dp2349
g92
g93
ssg81
g2343
sg74
(lp2350
S'raw_args'
p2351
asbag67
(g88
g69
NtRp2352
(dp2353
g72
(dp2354
g99
g100
ssg81
g2343
sg74
(lp2355
S':'
asbag67
(g88
g69
NtRp2356
(dp2357
g72
(dp2358
sg81
g2343
sg74
(lp2359
g67
(g68
g69
NtRp2360
(dp2361
g72
(dp2362
g80
I5
ssg81
g2356
sg74
(lp2363
g169
asbasbasbag67
(g83
g69
NtRp2364
(dp2365
g72
(dp2366
sg81
g77
sg74
(lp2367
g67
(g88
g69
NtRp2368
(dp2369
g72
(dp2370
g92
g93
ssg81
g2364
sg74
(lp2371
S'url'
p2372
asbag67
(g88
g69
NtRp2373
(dp2374
g72
(dp2375
g99
g100
ssg81
g2364
sg74
(lp2376
S':'
asbag67
(g88
g69
NtRp2377
(dp2378
g72
(dp2379
sg81
g2364
sg74
(lp2380
g67
(g68
g69
NtRp2381
(dp2382
g72
(dp2383
g80
I5
ssg81
g2377
sg74
(lp2384
S'/milo/appadmin/select/db'
p2385
asbasbasbag67
(g83
g69
NtRp2386
(dp2387
g72
(dp2388
sg81
g77
sg74
(lp2389
g67
(g88
g69
NtRp2390
(dp2391
g72
(dp2392
g92
g93
ssg81
g2386
sg74
(lp2393
S'utcnow'
p2394
asbag67
(g88
g69
NtRp2395
(dp2396
g72
(dp2397
g99
g100
ssg81
g2386
sg74
(lp2398
S':'
asbag67
(g88
g69
NtRp2399
(dp2400
g72
(dp2401
sg81
g2386
sg74
(lp2402
g67
(g68
g69
NtRp2403
(dp2404
g72
(dp2405
g80
I5
ssg81
g2399
sg74
(lp2406
S'datetime.datetime(2012, 7, 9, 0, 44, 58, 71266)'
p2407
asbasbasbag67
(g83
g69
NtRp2408
(dp2409
g72
(dp2410
sg81
g77
sg74
(lp2411
g67
(g88
g69
NtRp2412
(dp2413
g72
(dp2414
g92
g93
ssg81
g2408
sg74
(lp2415
S'uuid'
p2416
asbag67
(g88
g69
NtRp2417
(dp2418
g72
(dp2419
g99
g100
ssg81
g2408
sg74
(lp2420
S':'
asbag67
(g88
g69
NtRp2421
(dp2422
g72
(dp2423
sg81
g2408
sg74
(lp2424
g67
(g68
g69
NtRp2425
(dp2426
g72
(dp2427
g80
I5
ssg81
g2421
sg74
(lp2428
S'milo/127.0.0.1.2012-07-09.02-44-58.1167cffd-93ce-4ed2-b1a4-9ce6fb77786b'
p2429
asbasbasbag67
(g83
g69
NtRp2430
(dp2431
g72
(dp2432
sg81
g77
sg74
(lp2433
g67
(g88
g69
NtRp2434
(dp2435
g72
(dp2436
g92
g93
ssg81
g2430
sg74
(lp2437
S'vars'
p2438
asbag67
(g88
g69
NtRp2439
(dp2440
g72
(dp2441
g99
g100
ssg81
g2430
sg74
(lp2442
S':'
asbag67
(g88
g69
NtRp2443
(dp2444
g72
(dp2445
sg81
g2430
sg74
(lp2446
g67
(g68
g69
NtRp2447
(dp2448
g72
(dp2449
g80
I5
ssg81
g2443
sg74
(lp2450
g67
(g76
g69
NtRp2451
(dp2452
g72
(dp2453
g80
I4
ssg81
Nsg74
(lp2454
g67
(g83
g69
NtRp2455
(dp2456
g72
(dp2457
sg81
g2451
sg74
(lp2458
g67
(g88
g69
NtRp2459
(dp2460
g72
(dp2461
g92
g93
ssg81
g2455
sg74
(lp2462
g2308
asbag67
(g88
g69
NtRp2463
(dp2464
g72
(dp2465
g99
g100
ssg81
g2455
sg74
(lp2466
S':'
asbag67
(g88
g69
NtRp2467
(dp2468
g72
(dp2469
sg81
g2455
sg74
(lp2470
g67
(g68
g69
NtRp2471
(dp2472
g72
(dp2473
g80
I4
ssg81
g2467
sg74
(lp2474
g2321
asbasbasbag67
(g83
g69
NtRp2475
(dp2476
g72
(dp2477
sg81
g2451
sg74
(lp2478
g67
(g88
g69
NtRp2479
(dp2480
g72
(dp2481
g92
g93
ssg81
g2475
sg74
(lp2482
g2330
asbag67
(g88
g69
NtRp2483
(dp2484
g72
(dp2485
g99
g100
ssg81
g2475
sg74
(lp2486
S':'
asbag67
(g88
g69
NtRp2487
(dp2488
g72
(dp2489
sg81
g2475
sg74
(lp2490
g67
(g68
g69
NtRp2491
(dp2492
g72
(dp2493
g80
I4
ssg81
g2487
sg74
(lp2494
S''
asbasbasbasbasbasbasbag67
(g83
g69
NtRp2495
(dp2496
g72
(dp2497
sg81
g77
sg74
(lp2498
g67
(g88
g69
NtRp2499
(dp2500
g72
(dp2501
g92
g93
ssg81
g2495
sg74
(lp2502
S'wsgi'
p2503
asbag67
(g88
g69
NtRp2504
(dp2505
g72
(dp2506
g99
g100
ssg81
g2495
sg74
(lp2507
S':'
asbag67
(g88
g69
NtRp2508
(dp2509
g72
(dp2510
sg81
g2495
sg74
(lp2511
g67
(g68
g69
NtRp2512
(dp2513
g72
(dp2514
g80
I5
ssg81
g2508
sg74
(lp2515
g67
(g76
g69
NtRp2516
(dp2517
g72
(dp2518
g80
I4
ssg81
Nsg74
(lp2519
g67
(g83
g69
NtRp2520
(dp2521
g72
(dp2522
sg81
g2516
sg74
(lp2523
g67
(g88
g69
NtRp2524
(dp2525
g72
(dp2526
g92
g93
ssg81
g2520
sg74
(lp2527
S'environ'
p2528
asbag67
(g88
g69
NtRp2529
(dp2530
g72
(dp2531
g99
g100
ssg81
g2520
sg74
(lp2532
S':'
asbag67
(g88
g69
NtRp2533
(dp2534
g72
(dp2535
sg81
g2520
sg74
(lp2536
g67
(g68
g69
NtRp2537
(dp2538
g72
(dp2539
g80
I4
ssg81
g2533
sg74
(lp2540
g67
(g76
g69
NtRp2541
(dp2542
g72
(dp2543
g80
I3
ssg81
Nsg74
(lp2544
g67
(g83
g69
NtRp2545
(dp2546
g72
(dp2547
sg81
g2541
sg74
(lp2548
g67
(g88
g69
NtRp2549
(dp2550
g72
(dp2551
g92
g93
ssg81
g2545
sg74
(lp2552
S'CONTENT_LENGTH'
p2553
asbag67
(g88
g69
NtRp2554
(dp2555
g72
(dp2556
g99
g100
ssg81
g2545
sg74
(lp2557
S':'
asbag67
(g88
g69
NtRp2558
(dp2559
g72
(dp2560
sg81
g2545
sg74
(lp2561
g67
(g68
g69
NtRp2562
(dp2563
g72
(dp2564
g80
I3
ssg81
g2558
sg74
(lp2565
g776
asbasbasbag67
(g83
g69
NtRp2566
(dp2567
g72
(dp2568
sg81
g2541
sg74
(lp2569
g67
(g88
g69
NtRp2570
(dp2571
g72
(dp2572
g92
g93
ssg81
g2566
sg74
(lp2573
S'CONTENT_TYPE'
p2574
asbag67
(g88
g69
NtRp2575
(dp2576
g72
(dp2577
g99
g100
ssg81
g2566
sg74
(lp2578
S':'
asbag67
(g88
g69
NtRp2579
(dp2580
g72
(dp2581
sg81
g2566
sg74
(lp2582
g67
(g68
g69
NtRp2583
(dp2584
g72
(dp2585
g80
I3
ssg81
g2579
sg74
(lp2586
g798
asbasbasbag67
(g83
g69
NtRp2587
(dp2588
g72
(dp2589
sg81
g2541
sg74
(lp2590
g67
(g88
g69
NtRp2591
(dp2592
g72
(dp2593
g92
g93
ssg81
g2587
sg74
(lp2594
S'HTTP_ACCEPT'
p2595
asbag67
(g88
g69
NtRp2596
(dp2597
g72
(dp2598
g99
g100
ssg81
g2587
sg74
(lp2599
S':'
asbag67
(g88
g69
NtRp2600
(dp2601
g72
(dp2602
sg81
g2587
sg74
(lp2603
g67
(g68
g69
NtRp2604
(dp2605
g72
(dp2606
g80
I3
ssg81
g2600
sg74
(lp2607
g885
asbasbasbag67
(g83
g69
NtRp2608
(dp2609
g72
(dp2610
sg81
g2541
sg74
(lp2611
g67
(g88
g69
NtRp2612
(dp2613
g72
(dp2614
g92
g93
ssg81
g2608
sg74
(lp2615
S'HTTP_ACCEPT_CHARSET'
p2616
asbag67
(g88
g69
NtRp2617
(dp2618
g72
(dp2619
g99
g100
ssg81
g2608
sg74
(lp2620
S':'
asbag67
(g88
g69
NtRp2621
(dp2622
g72
(dp2623
sg81
g2608
sg74
(lp2624
g67
(g68
g69
NtRp2625
(dp2626
g72
(dp2627
g80
I3
ssg81
g2621
sg74
(lp2628
g907
asbasbasbag67
(g83
g69
NtRp2629
(dp2630
g72
(dp2631
sg81
g2541
sg74
(lp2632
g67
(g88
g69
NtRp2633
(dp2634
g72
(dp2635
g92
g93
ssg81
g2629
sg74
(lp2636
S'HTTP_ACCEPT_ENCODING'
p2637
asbag67
(g88
g69
NtRp2638
(dp2639
g72
(dp2640
g99
g100
ssg81
g2629
sg74
(lp2641
S':'
asbag67
(g88
g69
NtRp2642
(dp2643
g72
(dp2644
sg81
g2629
sg74
(lp2645
g67
(g68
g69
NtRp2646
(dp2647
g72
(dp2648
g80
I3
ssg81
g2642
sg74
(lp2649
g929
asbasbasbag67
(g83
g69
NtRp2650
(dp2651
g72
(dp2652
sg81
g2541
sg74
(lp2653
g67
(g88
g69
NtRp2654
(dp2655
g72
(dp2656
g92
g93
ssg81
g2650
sg74
(lp2657
S'HTTP_ACCEPT_LANGUAGE'
p2658
asbag67
(g88
g69
NtRp2659
(dp2660
g72
(dp2661
g99
g100
ssg81
g2650
sg74
(lp2662
S':'
asbag67
(g88
g69
NtRp2663
(dp2664
g72
(dp2665
sg81
g2650
sg74
(lp2666
g67
(g68
g69
NtRp2667
(dp2668
g72
(dp2669
g80
I3
ssg81
g2663
sg74
(lp2670
g951
asbasbasbag67
(g83
g69
NtRp2671
(dp2672
g72
(dp2673
sg81
g2541
sg74
(lp2674
g67
(g88
g69
NtRp2675
(dp2676
g72
(dp2677
g92
g93
ssg81
g2671
sg74
(lp2678
S'HTTP_CACHE_CONTROL'
p2679
asbag67
(g88
g69
NtRp2680
(dp2681
g72
(dp2682
g99
g100
ssg81
g2671
sg74
(lp2683
S':'
asbag67
(g88
g69
NtRp2684
(dp2685
g72
(dp2686
sg81
g2671
sg74
(lp2687
g67
(g68
g69
NtRp2688
(dp2689
g72
(dp2690
g80
I3
ssg81
g2684
sg74
(lp2691
g973
asbasbasbag67
(g83
g69
NtRp2692
(dp2693
g72
(dp2694
sg81
g2541
sg74
(lp2695
g67
(g88
g69
NtRp2696
(dp2697
g72
(dp2698
g92
g93
ssg81
g2692
sg74
(lp2699
S'HTTP_CONNECTION'
p2700
asbag67
(g88
g69
NtRp2701
(dp2702
g72
(dp2703
g99
g100
ssg81
g2692
sg74
(lp2704
S':'
asbag67
(g88
g69
NtRp2705
(dp2706
g72
(dp2707
sg81
g2692
sg74
(lp2708
g67
(g68
g69
NtRp2709
(dp2710
g72
(dp2711
g80
I3
ssg81
g2705
sg74
(lp2712
g995
asbasbasbag67
(g83
g69
NtRp2713
(dp2714
g72
(dp2715
sg81
g2541
sg74
(lp2716
g67
(g88
g69
NtRp2717
(dp2718
g72
(dp2719
g92
g93
ssg81
g2713
sg74
(lp2720
S'HTTP_CONTENT_LENGTH'
p2721
asbag67
(g88
g69
NtRp2722
(dp2723
g72
(dp2724
g99
g100
ssg81
g2713
sg74
(lp2725
S':'
asbag67
(g88
g69
NtRp2726
(dp2727
g72
(dp2728
sg81
g2713
sg74
(lp2729
g67
(g68
g69
NtRp2730
(dp2731
g72
(dp2732
g80
I3
ssg81
g2726
sg74
(lp2733
g776
asbasbasbag67
(g83
g69
NtRp2734
(dp2735
g72
(dp2736
sg81
g2541
sg74
(lp2737
g67
(g88
g69
NtRp2738
(dp2739
g72
(dp2740
g92
g93
ssg81
g2734
sg74
(lp2741
S'HTTP_CONTENT_TYPE'
p2742
asbag67
(g88
g69
NtRp2743
(dp2744
g72
(dp2745
g99
g100
ssg81
g2734
sg74
(lp2746
S':'
asbag67
(g88
g69
NtRp2747
(dp2748
g72
(dp2749
sg81
g2734
sg74
(lp2750
g67
(g68
g69
NtRp2751
(dp2752
g72
(dp2753
g80
I3
ssg81
g2747
sg74
(lp2754
g798
asbasbasbag67
(g83
g69
NtRp2755
(dp2756
g72
(dp2757
sg81
g2541
sg74
(lp2758
g67
(g88
g69
NtRp2759
(dp2760
g72
(dp2761
g92
g93
ssg81
g2755
sg74
(lp2762
S'HTTP_COOKIE'
p2763
asbag67
(g88
g69
NtRp2764
(dp2765
g72
(dp2766
g99
g100
ssg81
g2755
sg74
(lp2767
S':'
asbag67
(g88
g69
NtRp2768
(dp2769
g72
(dp2770
sg81
g2755
sg74
(lp2771
g67
(g68
g69
NtRp2772
(dp2773
g72
(dp2774
g80
I3
ssg81
g2768
sg74
(lp2775
g1059
asbasbasbag67
(g83
g69
NtRp2776
(dp2777
g72
(dp2778
sg81
g2541
sg74
(lp2779
g67
(g88
g69
NtRp2780
(dp2781
g72
(dp2782
g92
g93
ssg81
g2776
sg74
(lp2783
S'HTTP_HOST'
p2784
asbag67
(g88
g69
NtRp2785
(dp2786
g72
(dp2787
g99
g100
ssg81
g2776
sg74
(lp2788
S':'
asbag67
(g88
g69
NtRp2789
(dp2790
g72
(dp2791
sg81
g2776
sg74
(lp2792
g67
(g68
g69
NtRp2793
(dp2794
g72
(dp2795
g80
I3
ssg81
g2789
sg74
(lp2796
g1081
asbasbasbag67
(g83
g69
NtRp2797
(dp2798
g72
(dp2799
sg81
g2541
sg74
(lp2800
g67
(g88
g69
NtRp2801
(dp2802
g72
(dp2803
g92
g93
ssg81
g2797
sg74
(lp2804
S'HTTP_ORIGIN'
p2805
asbag67
(g88
g69
NtRp2806
(dp2807
g72
(dp2808
g99
g100
ssg81
g2797
sg74
(lp2809
S':'
asbag67
(g88
g69
NtRp2810
(dp2811
g72
(dp2812
sg81
g2797
sg74
(lp2813
g67
(g68
g69
NtRp2814
(dp2815
g72
(dp2816
g80
I3
ssg81
g2810
sg74
(lp2817
g1103
asbasbasbag67
(g83
g69
NtRp2818
(dp2819
g72
(dp2820
sg81
g2541
sg74
(lp2821
g67
(g88
g69
NtRp2822
(dp2823
g72
(dp2824
g92
g93
ssg81
g2818
sg74
(lp2825
S'HTTP_REFERER'
p2826
asbag67
(g88
g69
NtRp2827
(dp2828
g72
(dp2829
g99
g100
ssg81
g2818
sg74
(lp2830
S':'
asbag67
(g88
g69
NtRp2831
(dp2832
g72
(dp2833
sg81
g2818
sg74
(lp2834
g67
(g68
g69
NtRp2835
(dp2836
g72
(dp2837
g80
I3
ssg81
g2831
sg74
(lp2838
g1125
asbasbasbag67
(g83
g69
NtRp2839
(dp2840
g72
(dp2841
sg81
g2541
sg74
(lp2842
g67
(g88
g69
NtRp2843
(dp2844
g72
(dp2845
g92
g93
ssg81
g2839
sg74
(lp2846
S'HTTP_USER_AGENT'
p2847
asbag67
(g88
g69
NtRp2848
(dp2849
g72
(dp2850
g99
g100
ssg81
g2839
sg74
(lp2851
S':'
asbag67
(g88
g69
NtRp2852
(dp2853
g72
(dp2854
sg81
g2839
sg74
(lp2855
g67
(g68
g69
NtRp2856
(dp2857
g72
(dp2858
g80
I3
ssg81
g2852
sg74
(lp2859
g1147
asbasbasbag67
(g83
g69
NtRp2860
(dp2861
g72
(dp2862
sg81
g2541
sg74
(lp2863
g67
(g88
g69
NtRp2864
(dp2865
g72
(dp2866
g92
g93
ssg81
g2860
sg74
(lp2867
S'PATH_INFO'
p2868
asbag67
(g88
g69
NtRp2869
(dp2870
g72
(dp2871
g99
g100
ssg81
g2860
sg74
(lp2872
S':'
asbag67
(g88
g69
NtRp2873
(dp2874
g72
(dp2875
sg81
g2860
sg74
(lp2876
g67
(g68
g69
NtRp2877
(dp2878
g72
(dp2879
g80
I3
ssg81
g2873
sg74
(lp2880
g1211
asbasbasbag67
(g83
g69
NtRp2881
(dp2882
g72
(dp2883
sg81
g2541
sg74
(lp2884
g67
(g88
g69
NtRp2885
(dp2886
g72
(dp2887
g92
g93
ssg81
g2881
sg74
(lp2888
S'QUERY_STRING'
p2889
asbag67
(g88
g69
NtRp2890
(dp2891
g72
(dp2892
g99
g100
ssg81
g2881
sg74
(lp2893
S':'
asbag67
(g88
g69
NtRp2894
(dp2895
g72
(dp2896
sg81
g2881
sg74
(lp2897
g67
(g68
g69
NtRp2898
(dp2899
g72
(dp2900
g80
I3
ssg81
g2894
sg74
(lp2901
S''
asbasbasbag67
(g83
g69
NtRp2902
(dp2903
g72
(dp2904
sg81
g2541
sg74
(lp2905
g67
(g88
g69
NtRp2906
(dp2907
g72
(dp2908
g92
g93
ssg81
g2902
sg74
(lp2909
S'REMOTE_ADDR'
p2910
asbag67
(g88
g69
NtRp2911
(dp2912
g72
(dp2913
g99
g100
ssg81
g2902
sg74
(lp2914
S':'
asbag67
(g88
g69
NtRp2915
(dp2916
g72
(dp2917
sg81
g2902
sg74
(lp2918
g67
(g68
g69
NtRp2919
(dp2920
g72
(dp2921
g80
I3
ssg81
g2915
sg74
(lp2922
g213
asbasbasbag67
(g83
g69
NtRp2923
(dp2924
g72
(dp2925
sg81
g2541
sg74
(lp2926
g67
(g88
g69
NtRp2927
(dp2928
g72
(dp2929
g92
g93
ssg81
g2923
sg74
(lp2930
S'REMOTE_PORT'
p2931
asbag67
(g88
g69
NtRp2932
(dp2933
g72
(dp2934
g99
g100
ssg81
g2923
sg74
(lp2935
S':'
asbag67
(g88
g69
NtRp2936
(dp2937
g72
(dp2938
sg81
g2923
sg74
(lp2939
g67
(g68
g69
NtRp2940
(dp2941
g72
(dp2942
g80
I3
ssg81
g2936
sg74
(lp2943
g1275
asbasbasbag67
(g83
g69
NtRp2944
(dp2945
g72
(dp2946
sg81
g2541
sg74
(lp2947
g67
(g88
g69
NtRp2948
(dp2949
g72
(dp2950
g92
g93
ssg81
g2944
sg74
(lp2951
S'REQUEST_METHOD'
p2952
asbag67
(g88
g69
NtRp2953
(dp2954
g72
(dp2955
g99
g100
ssg81
g2944
sg74
(lp2956
S':'
asbag67
(g88
g69
NtRp2957
(dp2958
g72
(dp2959
sg81
g2944
sg74
(lp2960
g67
(g68
g69
NtRp2961
(dp2962
g72
(dp2963
g80
I3
ssg81
g2957
sg74
(lp2964
g1297
asbasbasbag67
(g83
g69
NtRp2965
(dp2966
g72
(dp2967
sg81
g2541
sg74
(lp2968
g67
(g88
g69
NtRp2969
(dp2970
g72
(dp2971
g92
g93
ssg81
g2965
sg74
(lp2972
S'REQUEST_URI'
p2973
asbag67
(g88
g69
NtRp2974
(dp2975
g72
(dp2976
g99
g100
ssg81
g2965
sg74
(lp2977
S':'
asbag67
(g88
g69
NtRp2978
(dp2979
g72
(dp2980
sg81
g2965
sg74
(lp2981
g67
(g68
g69
NtRp2982
(dp2983
g72
(dp2984
g80
I3
ssg81
g2978
sg74
(lp2985
g1211
asbasbasbag67
(g83
g69
NtRp2986
(dp2987
g72
(dp2988
sg81
g2541
sg74
(lp2989
g67
(g88
g69
NtRp2990
(dp2991
g72
(dp2992
g92
g93
ssg81
g2986
sg74
(lp2993
S'SCRIPT_NAME'
p2994
asbag67
(g88
g69
NtRp2995
(dp2996
g72
(dp2997
g99
g100
ssg81
g2986
sg74
(lp2998
S':'
asbag67
(g88
g69
NtRp2999
(dp3000
g72
(dp3001
sg81
g2986
sg74
(lp3002
g67
(g68
g69
NtRp3003
(dp3004
g72
(dp3005
g80
I3
ssg81
g2999
sg74
(lp3006
S''
asbasbasbag67
(g83
g69
NtRp3007
(dp3008
g72
(dp3009
sg81
g2541
sg74
(lp3010
g67
(g88
g69
NtRp3011
(dp3012
g72
(dp3013
g92
g93
ssg81
g3007
sg74
(lp3014
S'SERVER_NAME'
p3015
asbag67
(g88
g69
NtRp3016
(dp3017
g72
(dp3018
g99
g100
ssg81
g3007
sg74
(lp3019
S':'
asbag67
(g88
g69
NtRp3020
(dp3021
g72
(dp3022
sg81
g3007
sg74
(lp3023
g67
(g68
g69
NtRp3024
(dp3025
g72
(dp3026
g80
I3
ssg81
g3020
sg74
(lp3027
g1361
asbasbasbag67
(g83
g69
NtRp3028
(dp3029
g72
(dp3030
sg81
g2541
sg74
(lp3031
g67
(g88
g69
NtRp3032
(dp3033
g72
(dp3034
g92
g93
ssg81
g3028
sg74
(lp3035
S'SERVER_PORT'
p3036
asbag67
(g88
g69
NtRp3037
(dp3038
g72
(dp3039
g99
g100
ssg81
g3028
sg74
(lp3040
S':'
asbag67
(g88
g69
NtRp3041
(dp3042
g72
(dp3043
sg81
g3028
sg74
(lp3044
g67
(g68
g69
NtRp3045
(dp3046
g72
(dp3047
g80
I3
ssg81
g3041
sg74
(lp3048
g1383
asbasbasbag67
(g83
g69
NtRp3049
(dp3050
g72
(dp3051
sg81
g2541
sg74
(lp3052
g67
(g88
g69
NtRp3053
(dp3054
g72
(dp3055
g92
g93
ssg81
g3049
sg74
(lp3056
S'SERVER_PROTOCOL'
p3057
asbag67
(g88
g69
NtRp3058
(dp3059
g72
(dp3060
g99
g100
ssg81
g3049
sg74
(lp3061
S':'
asbag67
(g88
g69
NtRp3062
(dp3063
g72
(dp3064
sg81
g3049
sg74
(lp3065
g67
(g68
g69
NtRp3066
(dp3067
g72
(dp3068
g80
I3
ssg81
g3062
sg74
(lp3069
g1405
asbasbasbag67
(g83
g69
NtRp3070
(dp3071
g72
(dp3072
sg81
g2541
sg74
(lp3073
g67
(g88
g69
NtRp3074
(dp3075
g72
(dp3076
g92
g93
ssg81
g3070
sg74
(lp3077
S'SERVER_SOFTWARE'
p3078
asbag67
(g88
g69
NtRp3079
(dp3080
g72
(dp3081
g99
g100
ssg81
g3070
sg74
(lp3082
S':'
asbag67
(g88
g69
NtRp3083
(dp3084
g72
(dp3085
sg81
g3070
sg74
(lp3086
g67
(g68
g69
NtRp3087
(dp3088
g72
(dp3089
g80
I3
ssg81
g3083
sg74
(lp3090
g1427
asbasbasbag67
(g83
g69
NtRp3091
(dp3092
g72
(dp3093
sg81
g2541
sg74
(lp3094
g67
(g88
g69
NtRp3095
(dp3096
g72
(dp3097
g92
g93
ssg81
g3091
sg74
(lp3098
S'WEB2PY_ORIGINAL_URI'
p3099
asbag67
(g88
g69
NtRp3100
(dp3101
g72
(dp3102
g99
g100
ssg81
g3091
sg74
(lp3103
S':'
asbag67
(g88
g69
NtRp3104
(dp3105
g72
(dp3106
sg81
g3091
sg74
(lp3107
g67
(g68
g69
NtRp3108
(dp3109
g72
(dp3110
g80
I3
ssg81
g3104
sg74
(lp3111
g1211
asbasbasbag67
(g83
g69
NtRp3112
(dp3113
g72
(dp3114
sg81
g2541
sg74
(lp3115
g67
(g88
g69
NtRp3116
(dp3117
g72
(dp3118
g92
g93
ssg81
g3112
sg74
(lp3119
S'wsgi.errors'
p3120
asbag67
(g88
g69
NtRp3121
(dp3122
g72
(dp3123
g99
g100
ssg81
g3112
sg74
(lp3124
S':'
asbag67
(g88
g69
NtRp3125
(dp3126
g72
(dp3127
sg81
g3112
sg74
(lp3128
g67
(g68
g69
NtRp3129
(dp3130
g72
(dp3131
g80
I3
ssg81
g3125
sg74
(lp3132
S"<open file '<stderr>', mode 'w' at 0x7f13cb382270>"
p3133
asbasbasbag67
(g83
g69
NtRp3134
(dp3135
g72
(dp3136
sg81
g2541
sg74
(lp3137
g67
(g88
g69
NtRp3138
(dp3139
g72
(dp3140
g92
g93
ssg81
g3134
sg74
(lp3141
S'wsgi.file_wrapper'
p3142
asbag67
(g88
g69
NtRp3143
(dp3144
g72
(dp3145
g99
g100
ssg81
g3134
sg74
(lp3146
S':'
asbag67
(g88
g69
NtRp3147
(dp3148
g72
(dp3149
sg81
g3134
sg74
(lp3150
g67
(g68
g69
NtRp3151
(dp3152
g72
(dp3153
g80
I3
ssg81
g3147
sg74
(lp3154
S'<class wsgiref.util.FileWrapper at 0x13fff58>'
p3155
asbasbasbag67
(g83
g69
NtRp3156
(dp3157
g72
(dp3158
sg81
g2541
sg74
(lp3159
g67
(g88
g69
NtRp3160
(dp3161
g72
(dp3162
g92
g93
ssg81
g3156
sg74
(lp3163
S'wsgi.input'
p3164
asbag67
(g88
g69
NtRp3165
(dp3166
g72
(dp3167
g99
g100
ssg81
g3156
sg74
(lp3168
S':'
asbag67
(g88
g69
NtRp3169
(dp3170
g72
(dp3171
sg81
g3156
sg74
(lp3172
g67
(g68
g69
NtRp3173
(dp3174
g72
(dp3175
g80
I3
ssg81
g3169
sg74
(lp3176
S"<open file '<fdopen>', mode 'w+b' at 0x13948a0>"
p3177
asbasbasbag67
(g83
g69
NtRp3178
(dp3179
g72
(dp3180
sg81
g2541
sg74
(lp3181
g67
(g88
g69
NtRp3182
(dp3183
g72
(dp3184
g92
g93
ssg81
g3178
sg74
(lp3185
S'wsgi.multiprocess'
p3186
asbag67
(g88
g69
NtRp3187
(dp3188
g72
(dp3189
g99
g100
ssg81
g3178
sg74
(lp3190
S':'
asbag67
(g88
g69
NtRp3191
(dp3192
g72
(dp3193
sg81
g3178
sg74
(lp3194
g67
(g68
g69
NtRp3195
(dp3196
g72
(dp3197
g80
I3
ssg81
g3191
sg74
(lp3198
g110
asbasbasbag67
(g83
g69
NtRp3199
(dp3200
g72
(dp3201
sg81
g2541
sg74
(lp3202
g67
(g88
g69
NtRp3203
(dp3204
g72
(dp3205
g92
g93
ssg81
g3199
sg74
(lp3206
S'wsgi.multithread'
p3207
asbag67
(g88
g69
NtRp3208
(dp3209
g72
(dp3210
g99
g100
ssg81
g3199
sg74
(lp3211
S':'
asbag67
(g88
g69
NtRp3212
(dp3213
g72
(dp3214
sg81
g3199
sg74
(lp3215
g67
(g68
g69
NtRp3216
(dp3217
g72
(dp3218
g80
I3
ssg81
g3212
sg74
(lp3219
g1688
asbasbasbag67
(g83
g69
NtRp3220
(dp3221
g72
(dp3222
sg81
g2541
sg74
(lp3223
g67
(g88
g69
NtRp3224
(dp3225
g72
(dp3226
g92
g93
ssg81
g3220
sg74
(lp3227
S'wsgi.run_once'
p3228
asbag67
(g88
g69
NtRp3229
(dp3230
g72
(dp3231
g99
g100
ssg81
g3220
sg74
(lp3232
S':'
asbag67
(g88
g69
NtRp3233
(dp3234
g72
(dp3235
sg81
g3220
sg74
(lp3236
g67
(g68
g69
NtRp3237
(dp3238
g72
(dp3239
g80
I3
ssg81
g3233
sg74
(lp3240
g110
asbasbasbag67
(g83
g69
NtRp3241
(dp3242
g72
(dp3243
sg81
g2541
sg74
(lp3244
g67
(g88
g69
NtRp3245
(dp3246
g72
(dp3247
g92
g93
ssg81
g3241
sg74
(lp3248
S'wsgi.url_scheme'
p3249
asbag67
(g88
g69
NtRp3250
(dp3251
g72
(dp3252
g99
g100
ssg81
g3241
sg74
(lp3253
S':'
asbag67
(g88
g69
NtRp3254
(dp3255
g72
(dp3256
sg81
g3241
sg74
(lp3257
g67
(g68
g69
NtRp3258
(dp3259
g72
(dp3260
g80
I3
ssg81
g3254
sg74
(lp3261
g1731
asbasbasbag67
(g83
g69
NtRp3262
(dp3263
g72
(dp3264
sg81
g2541
sg74
(lp3265
g67
(g88
g69
NtRp3266
(dp3267
g72
(dp3268
g92
g93
ssg81
g3262
sg74
(lp3269
S'wsgi.version'
p3270
asbag67
(g88
g69
NtRp3271
(dp3272
g72
(dp3273
g99
g100
ssg81
g3262
sg74
(lp3274
S':'
asbag67
(g88
g69
NtRp3275
(dp3276
g72
(dp3277
sg81
g3262
sg74
(lp3278
g67
(g68
g69
NtRp3279
(dp3280
g72
(dp3281
g80
I3
ssg81
g3275
sg74
(lp3282
S'1'
asbasbasbasbasbasbasbasbasbasbasbasbasbsS'frames'
p3283
(lp3284
(dp3285
S'file'
p3286
S'/home/goshawk/web2py/gluon/restricted.py'
p3287
sS'dump'
p3288
(dp3289
S'environment'
p3290
S"{'A': <class 'gluon.html.A'>, 'Auth': <class 'gluon.tools.Auth'>, 'B': <class 'gluon.html.B'>, 'BEAUTIFY': <class 'gluon.html.BEAUTIFY'>, 'BODY': <class 'gluon.html.BODY'>, 'BR': <class 'gluon.html.BR'>, 'BUTTON': <class 'gluon.html.BUTTON'>, 'CAT': <class 'gluon.html.CAT'>, 'CENTER': <class 'gluon.html.CENTER'>, 'CLEANUP': <class 'gluon.validators.CLEANUP'>, ...}"
p3291
sS'ccode'
p3292
S'<code object <module> at 0x7f13ac3cb930, file "/.../web2py/applications/milo/models/db.py", line 12>'
p3293
ssS'lnum'
p3294
I205
sS'lines'
p3295
(dp3296
I200
S'    try:'
p3297
sI201
S'        if type(code) == types.CodeType:'
p3298
sI202
S'            ccode = code'
p3299
sI203
S'        else:'
p3300
sI204
S'            ccode = compile2(code,layer)'
p3301
sI205
S'        exec ccode in environment'
p3302
sI206
S'    except HTTP:'
p3303
sI207
S'        raise'
p3304
sI208
S'    except RestrictedError:'
p3305
sI209
S'        # do not encapsulate (obfuscate) the original RestrictedError'
p3306
ssS'call'
p3307
S'(code="# -*- coding: utf-8 -*-\\n\\n#######################...t)),\\n        Field(\'times\', \'integer\')\\n        )\\n", environment={\'A\': <class \'gluon.html.A\'>, \'Auth\': <class \'gluon.tools.Auth\'>, \'B\': <class \'gluon.html.B\'>, \'BEAUTIFY\': <class \'gluon.html.BEAUTIFY\'>, \'BODY\': <class \'gluon.html.BODY\'>, \'BR\': <class \'gluon.html.BR\'>, \'BUTTON\': <class \'gluon.html.BUTTON\'>, \'CAT\': <class \'gluon.html.CAT\'>, \'CENTER\': <class \'gluon.html.CENTER\'>, \'CLEANUP\': <class \'gluon.validators.CLEANUP\'>, ...}, layer=\'/home/goshawk/web2py/applications/milo/models/db.py\')'
p3308
sS'func'
p3309
S'restricted'
p3310
sa(dp3311
g3286
S'/home/goshawk/web2py/applications/milo/models/db.py'
p3312
sg3288
(dp3313
S'db.executesql'
p3314
S"<bound method DAL.executesql of <DAL {'auth_even...: <gluon.dal.Field object at 0x7f138c4b1350>}>}>>"
p3315
sS'db'
p3316
S"<DAL {'auth_event': <Table {'origin': <gluon.dal...': <gluon.dal.Field object at 0x7f138c4b1350>}>}>"
p3317
ssg3294
I106
sg3295
(dp3318
I101
S"        Field('imovie', db.movies, requires = IS_IN_DB(db,'movies.id',db.movies._format)),"
p3319
sI102
S"        Field('rating', 'double')"
p3320
sI103
S'        )'
p3321
sI104
S''
sI105
S'#run only once'
p3322
sI106
S"db.executesql('CREATE UNIQUE INDEX iuser_imovie ON ratings (iuser,imovie);')"
p3323
sI107
S''
sI108
S''
sI109
S"db.define_table('features',"
p3324
sI110
S"        Field('name'),"
p3325
ssg3307
S'()'
p3326
sg3309
S'<module>'
p3327
sa(dp3328
g3286
S'/home/goshawk/web2py/gluon/dal.py'
p3329
sg3288
(dp3330
S'query'
p3331
S"'CREATE UNIQUE INDEX iuser_imovie ON ratings (iuser,imovie);'"
p3332
sS'self'
p3333
S"<DAL {'auth_event': <Table {'origin': <gluon.dal...': <gluon.dal.Field object at 0x7f138c4b1350>}>}>"
p3334
sS'self._adapter'
p3335
S'<gluon.dal.PostgreSQLAdapter object>'
p3336
sS'self._adapter.execute'
p3337
S'<bound method PostgreSQLAdapter.execute of <gluon.dal.PostgreSQLAdapter object>>'
p3338
ssg3294
I6394
sg3295
(dp3339
I6389
S'        --bmeredyk'
p3340
sI6390
S'        """'
p3341
sI6391
S'        if placeholders:'
p3342
sI6392
S'            self._adapter.execute(query, placeholders)'
p3343
sI6393
S'        else:'
p3344
sI6394
S'            self._adapter.execute(query)'
p3345
sI6395
S'        if as_dict:'
p3346
sI6396
S"            if not hasattr(self._adapter.cursor,'description'):"
p3347
sI6397
S'                raise RuntimeError, "database does not support executesql(...,as_dict=True)"'
p3348
sI6398
S'            # Non-DAL legacy db query, converts cursor results to dict.'
p3349
ssg3307
S"(self=<DAL {'auth_event': <Table {'origin': <gluon.dal...': <gluon.dal.Field object at 0x7f138c4b1350>}>}>, query='CREATE UNIQUE INDEX iuser_imovie ON ratings (iuser,imovie);', placeholders=None, as_dict=False)"
p3350
sg3309
S'executesql'
p3351
sa(dp3352
g3286
S'/home/goshawk/web2py/gluon/dal.py'
p3353
sg3288
(dp3354
S'a'
S"('CREATE UNIQUE INDEX iuser_imovie ON ratings (iuser,imovie);',)"
p3355
sS'self'
p3356
S'<gluon.dal.PostgreSQLAdapter object>'
p3357
sS'b'
S'{}'
p3358
sS'self.log_execute'
p3359
S'<bound method PostgreSQLAdapter.log_execute of <gluon.dal.PostgreSQLAdapter object>>'
p3360
ssg3294
I1392
sg3295
(dp3361
I1387
S'        self.db._timings.append((a[0],time.time()-t0))'
p3362
sI1388
S'        del self.db._timings[:-TIMINGSSIZE]'
p3363
sI1389
S'        return ret'
p3364
sI1390
S''
sI1391
S'    def execute(self, *a, **b):'
p3365
sI1392
S'        return self.log_execute(*a, **b)'
p3366
sI1393
S''
sI1394
S'    def represent(self, obj, fieldtype):'
p3367
sI1395
S'        if isinstance(obj, CALLABLETYPES):'
p3368
sI1396
S'            obj = obj()'
p3369
ssg3307
S"(self=<gluon.dal.PostgreSQLAdapter object>, *a=('CREATE UNIQUE INDEX iuser_imovie ON ratings (iuser,imovie);',), **b={})"
p3370
sg3309
S'execute'
p3371
sa(dp3372
g3286
S'/home/goshawk/web2py/gluon/dal.py'
p3373
sg3288
(dp3374
S'a'
S"('CREATE UNIQUE INDEX iuser_imovie ON ratings (iuser,imovie);',)"
p3375
sS'b'
g3358
sS'self'
p3376
S'<gluon.dal.PostgreSQLAdapter object>'
p3377
sS'ret'
p3378
S'undefined'
p3379
sS'self.cursor'
p3380
S'<cursor object at 0x7f13a438f430; closed: 0>'
p3381
sS'self.cursor.execute'
p3382
S'<built-in method execute of psycopg2._psycopg.cursor object>'
p3383
ssg3294
I1386
sg3295
(dp3384
I1381
S'        self.execute(query)'
p3385
sI1382
S''
sI1383
S'    def log_execute(self, *a, **b):'
p3386
sI1384
S'        self.db._lastsql = a[0]'
p3387
sI1385
S'        t0 = time.time()'
p3388
sI1386
S'        ret = self.cursor.execute(*a, **b)'
p3389
sI1387
S'        self.db._timings.append((a[0],time.time()-t0))'
p3390
sI1388
S'        del self.db._timings[:-TIMINGSSIZE]'
p3391
sI1389
S'        return ret'
p3392
sI1390
S''
ssg3307
S"(self=<gluon.dal.PostgreSQLAdapter object>, *a=('CREATE UNIQUE INDEX iuser_imovie ON ratings (iuser,imovie);',), **b={})"
p3393
sg3309
S'log_execute'
p3394
sasS'pyver'
p3395
S'Python 2.7.3: /usr/bin/python'
p3396
sS'session'
p3397
g67
(g68
g69
NtRp3398
(dp3399
g72
(dp3400
sg74
(lp3401
g67
(g76
g69
NtRp3402
(dp3403
g72
(dp3404
g80
I5
ssg81
Nsg74
(lp3405
g67
(g83
g69
NtRp3406
(dp3407
g72
(dp3408
sg81
g3402
sg74
(lp3409
g67
(g88
g69
NtRp3410
(dp3411
g72
(dp3412
g92
g93
ssg81
g3406
sg74
(lp3413
S'last_query'
p3414
asbag67
(g88
g69
NtRp3415
(dp3416
g72
(dp3417
g99
g100
ssg81
g3406
sg74
(lp3418
S':'
asbag67
(g88
g69
NtRp3419
(dp3420
g72
(dp3421
sg81
g3406
sg74
(lp3422
g67
(g68
g69
NtRp3423
(dp3424
g72
(dp3425
g80
I5
ssg81
g3419
sg74
(lp3426
S'(db.ratings.id>0)&(db.ratings.iuser==4)&(db.ratings.imovie==4505)'
p3427
asbasbasbasbasbsS'etype'
p3428
S"<class 'psycopg2.IntegrityError'>"
p3429
sS'date'
p3430
S'Mon Jul  9 02:44:58 2012'
p3431
sS'response'
p3432
g67
(g68
g69
NtRp3433
(dp3434
g72
(dp3435
sg74
(lp3436
g67
(g76
g69
NtRp3437
(dp3438
g72
(dp3439
g80
I5
ssg81
Nsg74
(lp3440
g67
(g83
g69
NtRp3441
(dp3442
g72
(dp3443
sg81
g3437
sg74
(lp3444
g67
(g88
g69
NtRp3445
(dp3446
g72
(dp3447
g92
g93
ssg81
g3441
sg74
(lp3448
g178
asbag67
(g88
g69
NtRp3449
(dp3450
g72
(dp3451
g99
g100
ssg81
g3441
sg74
(lp3452
S':'
asbag67
(g88
g69
NtRp3453
(dp3454
g72
(dp3455
sg81
g3441
sg74
(lp3456
g67
(g68
g69
NtRp3457
(dp3458
g72
(dp3459
g80
I5
ssg81
g3453
sg74
(lp3460
S'<cStringIO.StringO object at 0x7f13a44856c0>'
p3461
asbasbasbag67
(g83
g69
NtRp3462
(dp3463
g72
(dp3464
sg81
g3437
sg74
(lp3465
g67
(g88
g69
NtRp3466
(dp3467
g72
(dp3468
g92
g93
ssg81
g3462
sg74
(lp3469
g244
asbag67
(g88
g69
NtRp3470
(dp3471
g72
(dp3472
g99
g100
ssg81
g3462
sg74
(lp3473
S':'
asbag67
(g88
g69
NtRp3474
(dp3475
g72
(dp3476
sg81
g3462
sg74
(lp3477
g67
(g68
g69
NtRp3478
(dp3479
g72
(dp3480
g80
I5
ssg81
g3474
sg74
(lp3481
g67
(g76
g69
NtRp3482
(dp3483
g72
(dp3484
g80
I4
ssg81
Nsg74
(lp3485
g67
(g83
g69
NtRp3486
(dp3487
g72
(dp3488
sg81
g3482
sg74
(lp3489
g67
(g88
g69
NtRp3490
(dp3491
g72
(dp3492
g92
g93
ssg81
g3486
sg74
(lp3493
S'session_id_milo'
p3494
asbag67
(g88
g69
NtRp3495
(dp3496
g72
(dp3497
g99
g100
ssg81
g3486
sg74
(lp3498
S':'
asbag67
(g88
g69
NtRp3499
(dp3500
g72
(dp3501
sg81
g3486
sg74
(lp3502
g67
(g68
g69
NtRp3503
(dp3504
g72
(dp3505
g80
I4
ssg81
g3499
sg74
(lp3506
g67
(g76
g69
NtRp3507
(dp3508
g72
(dp3509
g80
I3
ssg81
Nsg74
(lp3510
g67
(g83
g69
NtRp3511
(dp3512
g72
(dp3513
sg81
g3507
sg74
(lp3514
g67
(g88
g69
NtRp3515
(dp3516
g72
(dp3517
g92
g93
ssg81
g3511
sg74
(lp3518
g294
asbag67
(g88
g69
NtRp3519
(dp3520
g72
(dp3521
g99
g100
ssg81
g3511
sg74
(lp3522
S':'
asbag67
(g88
g69
NtRp3523
(dp3524
g72
(dp3525
sg81
g3511
sg74
(lp3526
g67
(g68
g69
NtRp3527
(dp3528
g72
(dp3529
g80
I3
ssg81
g3523
sg74
(lp3530
S''
asbasbasbag67
(g83
g69
NtRp3531
(dp3532
g72
(dp3533
sg81
g3507
sg74
(lp3534
g67
(g88
g69
NtRp3535
(dp3536
g72
(dp3537
g92
g93
ssg81
g3531
sg74
(lp3538
g315
asbag67
(g88
g69
NtRp3539
(dp3540
g72
(dp3541
g99
g100
ssg81
g3531
sg74
(lp3542
S':'
asbag67
(g88
g69
NtRp3543
(dp3544
g72
(dp3545
sg81
g3531
sg74
(lp3546
g67
(g68
g69
NtRp3547
(dp3548
g72
(dp3549
g80
I3
ssg81
g3543
sg74
(lp3550
S''
asbasbasbag67
(g83
g69
NtRp3551
(dp3552
g72
(dp3553
sg81
g3507
sg74
(lp3554
g67
(g88
g69
NtRp3555
(dp3556
g72
(dp3557
g92
g93
ssg81
g3551
sg74
(lp3558
g336
asbag67
(g88
g69
NtRp3559
(dp3560
g72
(dp3561
g99
g100
ssg81
g3551
sg74
(lp3562
S':'
asbag67
(g88
g69
NtRp3563
(dp3564
g72
(dp3565
sg81
g3551
sg74
(lp3566
g67
(g68
g69
NtRp3567
(dp3568
g72
(dp3569
g80
I3
ssg81
g3563
sg74
(lp3570
S''
asbasbasbag67
(g83
g69
NtRp3571
(dp3572
g72
(dp3573
sg81
g3507
sg74
(lp3574
g67
(g88
g69
NtRp3575
(dp3576
g72
(dp3577
g92
g93
ssg81
g3571
sg74
(lp3578
g357
asbag67
(g88
g69
NtRp3579
(dp3580
g72
(dp3581
g99
g100
ssg81
g3571
sg74
(lp3582
S':'
asbag67
(g88
g69
NtRp3583
(dp3584
g72
(dp3585
sg81
g3571
sg74
(lp3586
g67
(g68
g69
NtRp3587
(dp3588
g72
(dp3589
g80
I3
ssg81
g3583
sg74
(lp3590
S''
asbasbasbag67
(g83
g69
NtRp3591
(dp3592
g72
(dp3593
sg81
g3507
sg74
(lp3594
g67
(g88
g69
NtRp3595
(dp3596
g72
(dp3597
g92
g93
ssg81
g3591
sg74
(lp3598
g378
asbag67
(g88
g69
NtRp3599
(dp3600
g72
(dp3601
g99
g100
ssg81
g3591
sg74
(lp3602
S':'
asbag67
(g88
g69
NtRp3603
(dp3604
g72
(dp3605
sg81
g3591
sg74
(lp3606
g67
(g68
g69
NtRp3607
(dp3608
g72
(dp3609
g80
I3
ssg81
g3603
sg74
(lp3610
S''
asbasbasbag67
(g83
g69
NtRp3611
(dp3612
g72
(dp3613
sg81
g3507
sg74
(lp3614
g67
(g88
g69
NtRp3615
(dp3616
g72
(dp3617
g92
g93
ssg81
g3611
sg74
(lp3618
g399
asbag67
(g88
g69
NtRp3619
(dp3620
g72
(dp3621
g99
g100
ssg81
g3611
sg74
(lp3622
S':'
asbag67
(g88
g69
NtRp3623
(dp3624
g72
(dp3625
sg81
g3611
sg74
(lp3626
g67
(g68
g69
NtRp3627
(dp3628
g72
(dp3629
g80
I3
ssg81
g3623
sg74
(lp3630
S'/'
asbasbasbag67
(g83
g69
NtRp3631
(dp3632
g72
(dp3633
sg81
g3507
sg74
(lp3634
g67
(g88
g69
NtRp3635
(dp3636
g72
(dp3637
g92
g93
ssg81
g3631
sg74
(lp3638
g420
asbag67
(g88
g69
NtRp3639
(dp3640
g72
(dp3641
g99
g100
ssg81
g3631
sg74
(lp3642
S':'
asbag67
(g88
g69
NtRp3643
(dp3644
g72
(dp3645
sg81
g3631
sg74
(lp3646
g67
(g68
g69
NtRp3647
(dp3648
g72
(dp3649
g80
I3
ssg81
g3643
sg74
(lp3650
S''
asbasbasbag67
(g83
g69
NtRp3651
(dp3652
g72
(dp3653
sg81
g3507
sg74
(lp3654
g67
(g88
g69
NtRp3655
(dp3656
g72
(dp3657
g92
g93
ssg81
g3651
sg74
(lp3658
g441
asbag67
(g88
g69
NtRp3659
(dp3660
g72
(dp3661
g99
g100
ssg81
g3651
sg74
(lp3662
S':'
asbag67
(g88
g69
NtRp3663
(dp3664
g72
(dp3665
sg81
g3651
sg74
(lp3666
g67
(g68
g69
NtRp3667
(dp3668
g72
(dp3669
g80
I3
ssg81
g3663
sg74
(lp3670
S''
asbasbasbasbasbasbasbasbasbasbasbag67
(g83
g69
NtRp3671
(dp3672
g72
(dp3673
sg81
g3437
sg74
(lp3674
g67
(g88
g69
NtRp3675
(dp3676
g72
(dp3677
g92
g93
ssg81
g3671
sg74
(lp3678
S'delimiters'
p3679
asbag67
(g88
g69
NtRp3680
(dp3681
g72
(dp3682
g99
g100
ssg81
g3671
sg74
(lp3683
S':'
asbag67
(g88
g69
NtRp3684
(dp3685
g72
(dp3686
sg81
g3671
sg74
(lp3687
g67
(g68
g69
NtRp3688
(dp3689
g72
(dp3690
g80
I5
ssg81
g3684
sg74
(lp3691
g67
(g76
g69
NtRp3692
(dp3693
g72
(dp3694
g80
I4
ssg81
Nsg74
(lp3695
g67
(g83
g69
NtRp3696
(dp3697
g72
(dp3698
sg81
g3692
sg74
(lp3699
g67
(g88
g69
NtRp3700
(dp3701
g72
(dp3702
sg81
g3696
sg74
(lp3703
g67
(g68
g69
NtRp3704
(dp3705
g72
(dp3706
g80
I4
ssg81
g3700
sg74
(lp3707
S'{{'
p3708
asbasbasbag67
(g83
g69
NtRp3709
(dp3710
g72
(dp3711
sg81
g3692
sg74
(lp3712
g67
(g88
g69
NtRp3713
(dp3714
g72
(dp3715
sg81
g3709
sg74
(lp3716
g67
(g68
g69
NtRp3717
(dp3718
g72
(dp3719
g80
I4
ssg81
g3713
sg74
(lp3720
S'}}'
p3721
asbasbasbasbasbasbasbag67
(g83
g69
NtRp3722
(dp3723
g72
(dp3724
sg81
g3437
sg74
(lp3725
g67
(g88
g69
NtRp3726
(dp3727
g72
(dp3728
g92
g93
ssg81
g3722
sg74
(lp3729
S'files'
p3730
asbag67
(g88
g69
NtRp3731
(dp3732
g72
(dp3733
g99
g100
ssg81
g3722
sg74
(lp3734
S':'
asbag67
(g88
g69
NtRp3735
(dp3736
g72
(dp3737
sg81
g3722
sg74
(lp3738
g67
(g68
g69
NtRp3739
(dp3740
g72
(dp3741
g80
I5
ssg81
g3735
sg74
(lp3742
g67
(g76
g69
NtRp3743
(dp3744
g72
(dp3745
g80
I4
ssg81
Nsg74
(lp3746
sbasbasbasbag67
(g83
g69
NtRp3747
(dp3748
g72
(dp3749
sg81
g3437
sg74
(lp3750
g67
(g88
g69
NtRp3751
(dp3752
g72
(dp3753
g92
g93
ssg81
g3747
sg74
(lp3754
S'flash'
p3755
asbag67
(g88
g69
NtRp3756
(dp3757
g72
(dp3758
g99
g100
ssg81
g3747
sg74
(lp3759
S':'
asbag67
(g88
g69
NtRp3760
(dp3761
g72
(dp3762
sg81
g3747
sg74
(lp3763
g67
(g68
g69
NtRp3764
(dp3765
g72
(dp3766
g80
I5
ssg81
g3760
sg74
(lp3767
S''
asbasbasbag67
(g83
g69
NtRp3768
(dp3769
g72
(dp3770
sg81
g3437
sg74
(lp3771
g67
(g88
g69
NtRp3772
(dp3773
g72
(dp3774
g92
g93
ssg81
g3768
sg74
(lp3775
S'generic_patterns'
p3776
asbag67
(g88
g69
NtRp3777
(dp3778
g72
(dp3779
g99
g100
ssg81
g3768
sg74
(lp3780
S':'
asbag67
(g88
g69
NtRp3781
(dp3782
g72
(dp3783
sg81
g3768
sg74
(lp3784
g67
(g68
g69
NtRp3785
(dp3786
g72
(dp3787
g80
I5
ssg81
g3781
sg74
(lp3788
g67
(g76
g69
NtRp3789
(dp3790
g72
(dp3791
g80
I4
ssg81
Nsg74
(lp3792
g67
(g83
g69
NtRp3793
(dp3794
g72
(dp3795
sg81
g3789
sg74
(lp3796
g67
(g88
g69
NtRp3797
(dp3798
g72
(dp3799
sg81
g3793
sg74
(lp3800
g67
(g68
g69
NtRp3801
(dp3802
g72
(dp3803
g80
I4
ssg81
g3797
sg74
(lp3804
S'*'
asbasbasbasbasbasbasbag67
(g83
g69
NtRp3805
(dp3806
g72
(dp3807
sg81
g3437
sg74
(lp3808
g67
(g88
g69
NtRp3809
(dp3810
g72
(dp3811
g92
g93
ssg81
g3805
sg74
(lp3812
S'headers'
p3813
asbag67
(g88
g69
NtRp3814
(dp3815
g72
(dp3816
g99
g100
ssg81
g3805
sg74
(lp3817
S':'
asbag67
(g88
g69
NtRp3818
(dp3819
g72
(dp3820
sg81
g3805
sg74
(lp3821
g67
(g68
g69
NtRp3822
(dp3823
g72
(dp3824
g80
I5
ssg81
g3818
sg74
(lp3825
g67
(g76
g69
NtRp3826
(dp3827
g72
(dp3828
g80
I4
ssg81
Nsg74
(lp3829
g67
(g83
g69
NtRp3830
(dp3831
g72
(dp3832
sg81
g3826
sg74
(lp3833
g67
(g88
g69
NtRp3834
(dp3835
g72
(dp3836
g92
g93
ssg81
g3830
sg74
(lp3837
S'Cache-Control'
p3838
asbag67
(g88
g69
NtRp3839
(dp3840
g72
(dp3841
g99
g100
ssg81
g3830
sg74
(lp3842
S':'
asbag67
(g88
g69
NtRp3843
(dp3844
g72
(dp3845
sg81
g3830
sg74
(lp3846
g67
(g68
g69
NtRp3847
(dp3848
g72
(dp3849
g80
I4
ssg81
g3843
sg74
(lp3850
S'no-store, no-cache, must-revalidate, post-check=0, pre-check=0'
p3851
asbasbasbag67
(g83
g69
NtRp3852
(dp3853
g72
(dp3854
sg81
g3826
sg74
(lp3855
g67
(g88
g69
NtRp3856
(dp3857
g72
(dp3858
g92
g93
ssg81
g3852
sg74
(lp3859
S'Content-Type'
p3860
asbag67
(g88
g69
NtRp3861
(dp3862
g72
(dp3863
g99
g100
ssg81
g3852
sg74
(lp3864
S':'
asbag67
(g88
g69
NtRp3865
(dp3866
g72
(dp3867
sg81
g3852
sg74
(lp3868
g67
(g68
g69
NtRp3869
(dp3870
g72
(dp3871
g80
I4
ssg81
g3865
sg74
(lp3872
S'text/html; charset=utf-8'
p3873
asbasbasbag67
(g83
g69
NtRp3874
(dp3875
g72
(dp3876
sg81
g3826
sg74
(lp3877
g67
(g88
g69
NtRp3878
(dp3879
g72
(dp3880
g92
g93
ssg81
g3874
sg74
(lp3881
S'Expires'
p3882
asbag67
(g88
g69
NtRp3883
(dp3884
g72
(dp3885
g99
g100
ssg81
g3874
sg74
(lp3886
S':'
asbag67
(g88
g69
NtRp3887
(dp3888
g72
(dp3889
sg81
g3874
sg74
(lp3890
g67
(g68
g69
NtRp3891
(dp3892
g72
(dp3893
g80
I4
ssg81
g3887
sg74
(lp3894
S'Mon, 09 Jul 2012 00:44:58 GMT'
p3895
asbasbasbag67
(g83
g69
NtRp3896
(dp3897
g72
(dp3898
sg81
g3826
sg74
(lp3899
g67
(g88
g69
NtRp3900
(dp3901
g72
(dp3902
g92
g93
ssg81
g3896
sg74
(lp3903
S'Pragma'
p3904
asbag67
(g88
g69
NtRp3905
(dp3906
g72
(dp3907
g99
g100
ssg81
g3896
sg74
(lp3908
S':'
asbag67
(g88
g69
NtRp3909
(dp3910
g72
(dp3911
sg81
g3896
sg74
(lp3912
g67
(g68
g69
NtRp3913
(dp3914
g72
(dp3915
g80
I4
ssg81
g3909
sg74
(lp3916
S'no-cache'
p3917
asbasbasbag67
(g83
g69
NtRp3918
(dp3919
g72
(dp3920
sg81
g3826
sg74
(lp3921
g67
(g88
g69
NtRp3922
(dp3923
g72
(dp3924
g92
g93
ssg81
g3918
sg74
(lp3925
S'X-Powered-By'
p3926
asbag67
(g88
g69
NtRp3927
(dp3928
g72
(dp3929
g99
g100
ssg81
g3918
sg74
(lp3930
S':'
asbag67
(g88
g69
NtRp3931
(dp3932
g72
(dp3933
sg81
g3918
sg74
(lp3934
g67
(g68
g69
NtRp3935
(dp3936
g72
(dp3937
g80
I4
ssg81
g3931
sg74
(lp3938
S'web2py'
p3939
asbasbasbasbasbasbasbag67
(g83
g69
NtRp3940
(dp3941
g72
(dp3942
sg81
g3437
sg74
(lp3943
g67
(g88
g69
NtRp3944
(dp3945
g72
(dp3946
g92
g93
ssg81
g3940
sg74
(lp3947
S'menu'
p3948
asbag67
(g88
g69
NtRp3949
(dp3950
g72
(dp3951
g99
g100
ssg81
g3940
sg74
(lp3952
S':'
asbag67
(g88
g69
NtRp3953
(dp3954
g72
(dp3955
sg81
g3940
sg74
(lp3956
g67
(g68
g69
NtRp3957
(dp3958
g72
(dp3959
g80
I5
ssg81
g3953
sg74
(lp3960
g67
(g76
g69
NtRp3961
(dp3962
g72
(dp3963
g80
I4
ssg81
Nsg74
(lp3964
sbasbasbasbag67
(g83
g69
NtRp3965
(dp3966
g72
(dp3967
sg81
g3437
sg74
(lp3968
g67
(g88
g69
NtRp3969
(dp3970
g72
(dp3971
g92
g93
ssg81
g3965
sg74
(lp3972
S'meta'
p3973
asbag67
(g88
g69
NtRp3974
(dp3975
g72
(dp3976
g99
g100
ssg81
g3965
sg74
(lp3977
S':'
asbag67
(g88
g69
NtRp3978
(dp3979
g72
(dp3980
sg81
g3965
sg74
(lp3981
g67
(g68
g69
NtRp3982
(dp3983
g72
(dp3984
g80
I5
ssg81
g3978
sg74
(lp3985
g67
(g76
g69
NtRp3986
(dp3987
g72
(dp3988
g80
I4
ssg81
Nsg74
(lp3989
sbasbasbasbag67
(g83
g69
NtRp3990
(dp3991
g72
(dp3992
sg81
g3437
sg74
(lp3993
g67
(g88
g69
NtRp3994
(dp3995
g72
(dp3996
g92
g93
ssg81
g3990
sg74
(lp3997
S'postprocessing'
p3998
asbag67
(g88
g69
NtRp3999
(dp4000
g72
(dp4001
g99
g100
ssg81
g3990
sg74
(lp4002
S':'
asbag67
(g88
g69
NtRp4003
(dp4004
g72
(dp4005
sg81
g3990
sg74
(lp4006
g67
(g68
g69
NtRp4007
(dp4008
g72
(dp4009
g80
I5
ssg81
g4003
sg74
(lp4010
g67
(g76
g69
NtRp4011
(dp4012
g72
(dp4013
g80
I4
ssg81
Nsg74
(lp4014
sbasbasbasbag67
(g83
g69
NtRp4015
(dp4016
g72
(dp4017
sg81
g3437
sg74
(lp4018
g67
(g88
g69
NtRp4019
(dp4020
g72
(dp4021
g92
g93
ssg81
g4015
sg74
(lp4022
S'session_file'
p4023
asbag67
(g88
g69
NtRp4024
(dp4025
g72
(dp4026
g99
g100
ssg81
g4015
sg74
(lp4027
S':'
asbag67
(g88
g69
NtRp4028
(dp4029
g72
(dp4030
sg81
g4015
sg74
(lp4031
g67
(g68
g69
NtRp4032
(dp4033
g72
(dp4034
g80
I5
ssg81
g4028
sg74
(lp4035
S"<open file '/home/goshawk/web2py/applications/milo/sessions/127.0.0.1-19614cfd-e191-4bce-bf28-2da4d735c3fb', mode 'rb+' at 0x7f13a43648a0>"
p4036
asbasbasbag67
(g83
g69
NtRp4037
(dp4038
g72
(dp4039
sg81
g3437
sg74
(lp4040
g67
(g88
g69
NtRp4041
(dp4042
g72
(dp4043
g92
g93
ssg81
g4037
sg74
(lp4044
S'session_filename'
p4045
asbag67
(g88
g69
NtRp4046
(dp4047
g72
(dp4048
g99
g100
ssg81
g4037
sg74
(lp4049
S':'
asbag67
(g88
g69
NtRp4050
(dp4051
g72
(dp4052
sg81
g4037
sg74
(lp4053
g67
(g68
g69
NtRp4054
(dp4055
g72
(dp4056
g80
I5
ssg81
g4050
sg74
(lp4057
S'/home/goshawk/web2py/applications/milo/sessions/127.0.0.1-19614cfd-e191-4bce-bf28-2da4d735c3fb'
p4058
asbasbasbag67
(g83
g69
NtRp4059
(dp4060
g72
(dp4061
sg81
g3437
sg74
(lp4062
g67
(g88
g69
NtRp4063
(dp4064
g72
(dp4065
g92
g93
ssg81
g4059
sg74
(lp4066
S'session_id'
p4067
asbag67
(g88
g69
NtRp4068
(dp4069
g72
(dp4070
g99
g100
ssg81
g4059
sg74
(lp4071
S':'
asbag67
(g88
g69
NtRp4072
(dp4073
g72
(dp4074
sg81
g4059
sg74
(lp4075
g67
(g68
g69
NtRp4076
(dp4077
g72
(dp4078
g80
I5
ssg81
g4072
sg74
(lp4079
S'127.0.0.1-19614cfd-e191-4bce-bf28-2da4d735c3fb'
p4080
asbasbasbag67
(g83
g69
NtRp4081
(dp4082
g72
(dp4083
sg81
g3437
sg74
(lp4084
g67
(g88
g69
NtRp4085
(dp4086
g72
(dp4087
g92
g93
ssg81
g4081
sg74
(lp4088
S'session_id_name'
p4089
asbag67
(g88
g69
NtRp4090
(dp4091
g72
(dp4092
g99
g100
ssg81
g4081
sg74
(lp4093
S':'
asbag67
(g88
g69
NtRp4094
(dp4095
g72
(dp4096
sg81
g4081
sg74
(lp4097
g67
(g68
g69
NtRp4098
(dp4099
g72
(dp4100
g80
I5
ssg81
g4094
sg74
(lp4101
g3494
asbasbasbag67
(g83
g69
NtRp4102
(dp4103
g72
(dp4104
sg81
g3437
sg74
(lp4105
g67
(g88
g69
NtRp4106
(dp4107
g72
(dp4108
g92
g93
ssg81
g4102
sg74
(lp4109
S'session_locked'
p4110
asbag67
(g88
g69
NtRp4111
(dp4112
g72
(dp4113
g99
g100
ssg81
g4102
sg74
(lp4114
S':'
asbag67
(g88
g69
NtRp4115
(dp4116
g72
(dp4117
sg81
g4102
sg74
(lp4118
g67
(g68
g69
NtRp4119
(dp4120
g72
(dp4121
g80
I5
ssg81
g4115
sg74
(lp4122
g1688
asbasbasbag67
(g83
g69
NtRp4123
(dp4124
g72
(dp4125
sg81
g3437
sg74
(lp4126
g67
(g88
g69
NtRp4127
(dp4128
g72
(dp4129
g92
g93
ssg81
g4123
sg74
(lp4130
S'session_new'
p4131
asbag67
(g88
g69
NtRp4132
(dp4133
g72
(dp4134
g99
g100
ssg81
g4123
sg74
(lp4135
S':'
asbag67
(g88
g69
NtRp4136
(dp4137
g72
(dp4138
sg81
g4123
sg74
(lp4139
g67
(g68
g69
NtRp4140
(dp4141
g72
(dp4142
g80
I5
ssg81
g4136
sg74
(lp4143
g110
asbasbasbag67
(g83
g69
NtRp4144
(dp4145
g72
(dp4146
sg81
g3437
sg74
(lp4147
g67
(g88
g69
NtRp4148
(dp4149
g72
(dp4150
g92
g93
ssg81
g4144
sg74
(lp4151
S'status'
p4152
asbag67
(g88
g69
NtRp4153
(dp4154
g72
(dp4155
g99
g100
ssg81
g4144
sg74
(lp4156
S':'
asbag67
(g88
g69
NtRp4157
(dp4158
g72
(dp4159
sg81
g4144
sg74
(lp4160
g67
(g68
g69
NtRp4161
(dp4162
g72
(dp4163
g80
I5
ssg81
g4157
sg74
(lp4164
S'200'
p4165
asbasbasbag67
(g83
g69
NtRp4166
(dp4167
g72
(dp4168
sg81
g3437
sg74
(lp4169
g67
(g88
g69
NtRp4170
(dp4171
g72
(dp4172
g92
g93
ssg81
g4166
sg74
(lp4173
g2416
asbag67
(g88
g69
NtRp4174
(dp4175
g72
(dp4176
g99
g100
ssg81
g4166
sg74
(lp4177
S':'
asbag67
(g88
g69
NtRp4178
(dp4179
g72
(dp4180
sg81
g4166
sg74
(lp4181
g67
(g68
g69
NtRp4182
(dp4183
g72
(dp4184
g80
I5
ssg81
g4178
sg74
(lp4185
g2429
asbasbasbag67
(g83
g69
NtRp4186
(dp4187
g72
(dp4188
sg81
g3437
sg74
(lp4189
g67
(g88
g69
NtRp4190
(dp4191
g72
(dp4192
g92
g93
ssg81
g4186
sg74
(lp4193
S'view'
p4194
asbag67
(g88
g69
NtRp4195
(dp4196
g72
(dp4197
g99
g100
ssg81
g4186
sg74
(lp4198
S':'
asbag67
(g88
g69
NtRp4199
(dp4200
g72
(dp4201
sg81
g4186
sg74
(lp4202
g67
(g68
g69
NtRp4203
(dp4204
g72
(dp4205
g80
I5
ssg81
g4199
sg74
(lp4206
S'appadmin/select.html'
p4207
asbasbasbasbasbsS'locals'
p4208
(dp4209
S'a'
S"('CREATE UNIQUE INDEX iuser_imovie ON ratings (iuser,imovie);',)"
p4210
sS'self'
p4211
S'<gluon.dal.PostgreSQLAdapter object>'
p4212
sS'b'
g3358
sS't0'
p4213
S'1341794698.149217'
p4214
sssS'traceback'
p4215
S'Traceback (most recent call last):\n  File "/home/goshawk/web2py/gluon/restricted.py", line 205, in restricted\n    exec ccode in environment\n  File "/home/goshawk/web2py/applications/milo/models/db.py", line 106, in <module>\n    db.executesql(\'CREATE UNIQUE INDEX iuser_imovie ON ratings (iuser,imovie);\')\n  File "/home/goshawk/web2py/gluon/dal.py", line 6394, in executesql\n    self._adapter.execute(query)\n  File "/home/goshawk/web2py/gluon/dal.py", line 1392, in execute\n    return self.log_execute(*a, **b)\n  File "/home/goshawk/web2py/gluon/dal.py", line 1386, in log_execute\n    ret = self.cursor.execute(*a, **b)\nIntegrityError: could not create unique index "iuser_imovie"\nDETAIL:  Key (iuser, imovie)=(1773, 1112) is duplicated.\n\n'
p4216
s.