(dp1
S'output'
p2
S"<type 'exceptions.OSError'> [Errno 2] No such file or directory: '/home/goshawk/web2py/applications/milo/modules/elaborated_models/icm.mat'"
p3
sS'layer'
p4
S'/home/goshawk/web2py/applications/milo/controllers/admin.py'
p5
sS'code'
p6
S'# coding: utf8\n# try something like\n\nimport matlab_wrapper\n\ndef index():\n    algorithms = matlab_wrapper.Whisperer.get_algnames()\n    matrices = matlab_wrapper.Whisperer.get_matrices_info()\n    return dict(message="hello from admin.py", algorithms=algorithms, matrices_info=matrices)\nresponse._vars=response._caller(index)\n'
p7
sS'snapshot'
p8
(dp9
S'exception'
p10
(dp11
S'__getslice__'
p12
S"<method-wrapper '__getslice__' of exceptions.OSError object>"
p13
sS'__str__'
p14
S"<method-wrapper '__str__' of exceptions.OSError object>"
p15
sS'__reduce__'
p16
S'<built-in method __reduce__ of exceptions.OSError object>'
p17
sS'__dict__'
p18
S'{}'
p19
sS'__sizeof__'
p20
S'<built-in method __sizeof__ of exceptions.OSError object>'
p21
sS'__init__'
p22
S"<method-wrapper '__init__' of exceptions.OSError object>"
p23
sS'__setattr__'
p24
S"<method-wrapper '__setattr__' of exceptions.OSError object>"
p25
sS'__reduce_ex__'
p26
S'<built-in method __reduce_ex__ of exceptions.OSError object>'
p27
sS'__new__'
p28
S'<built-in method __new__ of type object>'
p29
sS'errno'
p30
S'2'
sS'__format__'
p31
S'<built-in method __format__ of exceptions.OSError object>'
p32
sS'__class__'
p33
S"<type 'exceptions.OSError'>"
p34
sS'filename'
p35
S"'/home/goshawk/web2py/applications/milo/modules/elaborated_models/icm.mat'"
p36
sS'__doc__'
p37
S"'OS system call failed.'"
p38
sS'__getitem__'
p39
S"<method-wrapper '__getitem__' of exceptions.OSError object>"
p40
sS'__setstate__'
p41
S'<built-in method __setstate__ of exceptions.OSError object>'
p42
sS'__getattribute__'
p43
S"<method-wrapper '__getattribute__' of exceptions.OSError object>"
p44
sS'args'
p45
S"(2, 'No such file or directory')"
p46
sS'__subclasshook__'
p47
S'<built-in method __subclasshook__ of type object>'
p48
sS'__unicode__'
p49
S'<built-in method __unicode__ of exceptions.OSError object>'
p50
sS'strerror'
p51
S"'No such file or directory'"
p52
sS'__delattr__'
p53
S"<method-wrapper '__delattr__' of exceptions.OSError object>"
p54
sS'__repr__'
p55
S"<method-wrapper '__repr__' of exceptions.OSError object>"
p56
sS'__hash__'
p57
S"<method-wrapper '__hash__' of exceptions.OSError object>"
p58
ssS'evalue'
p59
S"[Errno 2] No such file or directory: '/home/goshawk/web2py/applications/milo/modules/elaborated_models/icm.mat'"
p60
sS'request'
p61
ccopy_reg
_reconstructor
p62
(cgluon.html
BEAUTIFY
p63
c__builtin__
object
p64
NtRp65
(dp66
S'attributes'
p67
(dp68
sS'components'
p69
(lp70
g62
(cgluon.html
TABLE
p71
g64
NtRp72
(dp73
g67
(dp74
S'level'
p75
I5
ssS'parent'
p76
Nsg69
(lp77
g62
(cgluon.html
TR
p78
g64
NtRp79
(dp80
g67
(dp81
sg76
g72
sg69
(lp82
g62
(cgluon.html
TD
p83
g64
NtRp84
(dp85
g67
(dp86
S'_style'
p87
S'font-weight:bold;vertical-align:top'
p88
ssg76
g79
sg69
(lp89
S'ajax'
p90
asbag62
(g83
g64
NtRp91
(dp92
g67
(dp93
S'_valign'
p94
S'top'
p95
ssg76
g79
sg69
(lp96
S':'
asbag62
(g83
g64
NtRp97
(dp98
g67
(dp99
sg76
g79
sg69
(lp100
g62
(g63
g64
NtRp101
(dp102
g67
(dp103
g75
I5
ssg76
g97
sg69
(lp104
S'False'
p105
asbasbasbag62
(g78
g64
NtRp106
(dp107
g67
(dp108
sg76
g72
sg69
(lp109
g62
(g83
g64
NtRp110
(dp111
g67
(dp112
g87
g88
ssg76
g106
sg69
(lp113
S'application'
p114
asbag62
(g83
g64
NtRp115
(dp116
g67
(dp117
g94
g95
ssg76
g106
sg69
(lp118
S':'
asbag62
(g83
g64
NtRp119
(dp120
g67
(dp121
sg76
g106
sg69
(lp122
g62
(g63
g64
NtRp123
(dp124
g67
(dp125
g75
I5
ssg76
g119
sg69
(lp126
S'milo'
p127
asbasbasbag62
(g78
g64
NtRp128
(dp129
g67
(dp130
sg76
g72
sg69
(lp131
g62
(g83
g64
NtRp132
(dp133
g67
(dp134
g87
g88
ssg76
g128
sg69
(lp135
g45
asbag62
(g83
g64
NtRp136
(dp137
g67
(dp138
g94
g95
ssg76
g128
sg69
(lp139
S':'
asbag62
(g83
g64
NtRp140
(dp141
g67
(dp142
sg76
g128
sg69
(lp143
g62
(g63
g64
NtRp144
(dp145
g67
(dp146
g75
I5
ssg76
g140
sg69
(lp147
g62
(g71
g64
NtRp148
(dp149
g67
(dp150
g75
I4
ssg76
Nsg69
(lp151
sbasbasbasbag62
(g78
g64
NtRp152
(dp153
g67
(dp154
sg76
g72
sg69
(lp155
g62
(g83
g64
NtRp156
(dp157
g67
(dp158
g87
g88
ssg76
g152
sg69
(lp159
S'body'
p160
asbag62
(g83
g64
NtRp161
(dp162
g67
(dp163
g94
g95
ssg76
g152
sg69
(lp164
S':'
asbag62
(g83
g64
NtRp165
(dp166
g67
(dp167
sg76
g152
sg69
(lp168
g62
(g63
g64
NtRp169
(dp170
g67
(dp171
g75
I5
ssg76
g165
sg69
(lp172
S'<cStringIO.StringO object at 0x7fc7a40c6880>'
p173
asbasbasbag62
(g78
g64
NtRp174
(dp175
g67
(dp176
sg76
g72
sg69
(lp177
g62
(g83
g64
NtRp178
(dp179
g67
(dp180
g87
g88
ssg76
g174
sg69
(lp181
S'client'
p182
asbag62
(g83
g64
NtRp183
(dp184
g67
(dp185
g94
g95
ssg76
g174
sg69
(lp186
S':'
asbag62
(g83
g64
NtRp187
(dp188
g67
(dp189
sg76
g174
sg69
(lp190
g62
(g63
g64
NtRp191
(dp192
g67
(dp193
g75
I5
ssg76
g187
sg69
(lp194
S'127.0.0.1'
p195
asbasbasbag62
(g78
g64
NtRp196
(dp197
g67
(dp198
sg76
g72
sg69
(lp199
g62
(g83
g64
NtRp200
(dp201
g67
(dp202
g87
g88
ssg76
g196
sg69
(lp203
S'controller'
p204
asbag62
(g83
g64
NtRp205
(dp206
g67
(dp207
g94
g95
ssg76
g196
sg69
(lp208
S':'
asbag62
(g83
g64
NtRp209
(dp210
g67
(dp211
sg76
g196
sg69
(lp212
g62
(g63
g64
NtRp213
(dp214
g67
(dp215
g75
I5
ssg76
g209
sg69
(lp216
S'admin'
p217
asbasbasbag62
(g78
g64
NtRp218
(dp219
g67
(dp220
sg76
g72
sg69
(lp221
g62
(g83
g64
NtRp222
(dp223
g67
(dp224
g87
g88
ssg76
g218
sg69
(lp225
S'cookies'
p226
asbag62
(g83
g64
NtRp227
(dp228
g67
(dp229
g94
g95
ssg76
g218
sg69
(lp230
S':'
asbag62
(g83
g64
NtRp231
(dp232
g67
(dp233
sg76
g218
sg69
(lp234
g62
(g63
g64
NtRp235
(dp236
g67
(dp237
g75
I5
ssg76
g231
sg69
(lp238
g62
(g71
g64
NtRp239
(dp240
g67
(dp241
g75
I4
ssg76
Nsg69
(lp242
g62
(g78
g64
NtRp243
(dp244
g67
(dp245
sg76
g239
sg69
(lp246
g62
(g83
g64
NtRp247
(dp248
g67
(dp249
g87
g88
ssg76
g243
sg69
(lp250
S'session_id_admin'
p251
asbag62
(g83
g64
NtRp252
(dp253
g67
(dp254
g94
g95
ssg76
g243
sg69
(lp255
S':'
asbag62
(g83
g64
NtRp256
(dp257
g67
(dp258
sg76
g243
sg69
(lp259
g62
(g63
g64
NtRp260
(dp261
g67
(dp262
g75
I4
ssg76
g256
sg69
(lp263
g62
(g71
g64
NtRp264
(dp265
g67
(dp266
g75
I3
ssg76
Nsg69
(lp267
g62
(g78
g64
NtRp268
(dp269
g67
(dp270
sg76
g264
sg69
(lp271
g62
(g83
g64
NtRp272
(dp273
g67
(dp274
g87
g88
ssg76
g268
sg69
(lp275
S'comment'
p276
asbag62
(g83
g64
NtRp277
(dp278
g67
(dp279
g94
g95
ssg76
g268
sg69
(lp280
S':'
asbag62
(g83
g64
NtRp281
(dp282
g67
(dp283
sg76
g268
sg69
(lp284
g62
(g63
g64
NtRp285
(dp286
g67
(dp287
g75
I3
ssg76
g281
sg69
(lp288
S''
asbasbasbag62
(g78
g64
NtRp289
(dp290
g67
(dp291
sg76
g264
sg69
(lp292
g62
(g83
g64
NtRp293
(dp294
g67
(dp295
g87
g88
ssg76
g289
sg69
(lp296
S'domain'
p297
asbag62
(g83
g64
NtRp298
(dp299
g67
(dp300
g94
g95
ssg76
g289
sg69
(lp301
S':'
asbag62
(g83
g64
NtRp302
(dp303
g67
(dp304
sg76
g289
sg69
(lp305
g62
(g63
g64
NtRp306
(dp307
g67
(dp308
g75
I3
ssg76
g302
sg69
(lp309
S''
asbasbasbag62
(g78
g64
NtRp310
(dp311
g67
(dp312
sg76
g264
sg69
(lp313
g62
(g83
g64
NtRp314
(dp315
g67
(dp316
g87
g88
ssg76
g310
sg69
(lp317
S'expires'
p318
asbag62
(g83
g64
NtRp319
(dp320
g67
(dp321
g94
g95
ssg76
g310
sg69
(lp322
S':'
asbag62
(g83
g64
NtRp323
(dp324
g67
(dp325
sg76
g310
sg69
(lp326
g62
(g63
g64
NtRp327
(dp328
g67
(dp329
g75
I3
ssg76
g323
sg69
(lp330
S''
asbasbasbag62
(g78
g64
NtRp331
(dp332
g67
(dp333
sg76
g264
sg69
(lp334
g62
(g83
g64
NtRp335
(dp336
g67
(dp337
g87
g88
ssg76
g331
sg69
(lp338
S'httponly'
p339
asbag62
(g83
g64
NtRp340
(dp341
g67
(dp342
g94
g95
ssg76
g331
sg69
(lp343
S':'
asbag62
(g83
g64
NtRp344
(dp345
g67
(dp346
sg76
g331
sg69
(lp347
g62
(g63
g64
NtRp348
(dp349
g67
(dp350
g75
I3
ssg76
g344
sg69
(lp351
S''
asbasbasbag62
(g78
g64
NtRp352
(dp353
g67
(dp354
sg76
g264
sg69
(lp355
g62
(g83
g64
NtRp356
(dp357
g67
(dp358
g87
g88
ssg76
g352
sg69
(lp359
S'max-age'
p360
asbag62
(g83
g64
NtRp361
(dp362
g67
(dp363
g94
g95
ssg76
g352
sg69
(lp364
S':'
asbag62
(g83
g64
NtRp365
(dp366
g67
(dp367
sg76
g352
sg69
(lp368
g62
(g63
g64
NtRp369
(dp370
g67
(dp371
g75
I3
ssg76
g365
sg69
(lp372
S''
asbasbasbag62
(g78
g64
NtRp373
(dp374
g67
(dp375
sg76
g264
sg69
(lp376
g62
(g83
g64
NtRp377
(dp378
g67
(dp379
g87
g88
ssg76
g373
sg69
(lp380
S'path'
p381
asbag62
(g83
g64
NtRp382
(dp383
g67
(dp384
g94
g95
ssg76
g373
sg69
(lp385
S':'
asbag62
(g83
g64
NtRp386
(dp387
g67
(dp388
sg76
g373
sg69
(lp389
g62
(g63
g64
NtRp390
(dp391
g67
(dp392
g75
I3
ssg76
g386
sg69
(lp393
S''
asbasbasbag62
(g78
g64
NtRp394
(dp395
g67
(dp396
sg76
g264
sg69
(lp397
g62
(g83
g64
NtRp398
(dp399
g67
(dp400
g87
g88
ssg76
g394
sg69
(lp401
S'secure'
p402
asbag62
(g83
g64
NtRp403
(dp404
g67
(dp405
g94
g95
ssg76
g394
sg69
(lp406
S':'
asbag62
(g83
g64
NtRp407
(dp408
g67
(dp409
sg76
g394
sg69
(lp410
g62
(g63
g64
NtRp411
(dp412
g67
(dp413
g75
I3
ssg76
g407
sg69
(lp414
S''
asbasbasbag62
(g78
g64
NtRp415
(dp416
g67
(dp417
sg76
g264
sg69
(lp418
g62
(g83
g64
NtRp419
(dp420
g67
(dp421
g87
g88
ssg76
g415
sg69
(lp422
S'version'
p423
asbag62
(g83
g64
NtRp424
(dp425
g67
(dp426
g94
g95
ssg76
g415
sg69
(lp427
S':'
asbag62
(g83
g64
NtRp428
(dp429
g67
(dp430
sg76
g415
sg69
(lp431
g62
(g63
g64
NtRp432
(dp433
g67
(dp434
g75
I3
ssg76
g428
sg69
(lp435
S''
asbasbasbasbasbasbasbag62
(g78
g64
NtRp436
(dp437
g67
(dp438
sg76
g239
sg69
(lp439
g62
(g83
g64
NtRp440
(dp441
g67
(dp442
g87
g88
ssg76
g436
sg69
(lp443
S'session_id_milo'
p444
asbag62
(g83
g64
NtRp445
(dp446
g67
(dp447
g94
g95
ssg76
g436
sg69
(lp448
S':'
asbag62
(g83
g64
NtRp449
(dp450
g67
(dp451
sg76
g436
sg69
(lp452
g62
(g63
g64
NtRp453
(dp454
g67
(dp455
g75
I4
ssg76
g449
sg69
(lp456
g62
(g71
g64
NtRp457
(dp458
g67
(dp459
g75
I3
ssg76
Nsg69
(lp460
g62
(g78
g64
NtRp461
(dp462
g67
(dp463
sg76
g457
sg69
(lp464
g62
(g83
g64
NtRp465
(dp466
g67
(dp467
g87
g88
ssg76
g461
sg69
(lp468
g276
asbag62
(g83
g64
NtRp469
(dp470
g67
(dp471
g94
g95
ssg76
g461
sg69
(lp472
S':'
asbag62
(g83
g64
NtRp473
(dp474
g67
(dp475
sg76
g461
sg69
(lp476
g62
(g63
g64
NtRp477
(dp478
g67
(dp479
g75
I3
ssg76
g473
sg69
(lp480
S''
asbasbasbag62
(g78
g64
NtRp481
(dp482
g67
(dp483
sg76
g457
sg69
(lp484
g62
(g83
g64
NtRp485
(dp486
g67
(dp487
g87
g88
ssg76
g481
sg69
(lp488
g297
asbag62
(g83
g64
NtRp489
(dp490
g67
(dp491
g94
g95
ssg76
g481
sg69
(lp492
S':'
asbag62
(g83
g64
NtRp493
(dp494
g67
(dp495
sg76
g481
sg69
(lp496
g62
(g63
g64
NtRp497
(dp498
g67
(dp499
g75
I3
ssg76
g493
sg69
(lp500
S''
asbasbasbag62
(g78
g64
NtRp501
(dp502
g67
(dp503
sg76
g457
sg69
(lp504
g62
(g83
g64
NtRp505
(dp506
g67
(dp507
g87
g88
ssg76
g501
sg69
(lp508
g318
asbag62
(g83
g64
NtRp509
(dp510
g67
(dp511
g94
g95
ssg76
g501
sg69
(lp512
S':'
asbag62
(g83
g64
NtRp513
(dp514
g67
(dp515
sg76
g501
sg69
(lp516
g62
(g63
g64
NtRp517
(dp518
g67
(dp519
g75
I3
ssg76
g513
sg69
(lp520
S''
asbasbasbag62
(g78
g64
NtRp521
(dp522
g67
(dp523
sg76
g457
sg69
(lp524
g62
(g83
g64
NtRp525
(dp526
g67
(dp527
g87
g88
ssg76
g521
sg69
(lp528
g339
asbag62
(g83
g64
NtRp529
(dp530
g67
(dp531
g94
g95
ssg76
g521
sg69
(lp532
S':'
asbag62
(g83
g64
NtRp533
(dp534
g67
(dp535
sg76
g521
sg69
(lp536
g62
(g63
g64
NtRp537
(dp538
g67
(dp539
g75
I3
ssg76
g533
sg69
(lp540
S''
asbasbasbag62
(g78
g64
NtRp541
(dp542
g67
(dp543
sg76
g457
sg69
(lp544
g62
(g83
g64
NtRp545
(dp546
g67
(dp547
g87
g88
ssg76
g541
sg69
(lp548
g360
asbag62
(g83
g64
NtRp549
(dp550
g67
(dp551
g94
g95
ssg76
g541
sg69
(lp552
S':'
asbag62
(g83
g64
NtRp553
(dp554
g67
(dp555
sg76
g541
sg69
(lp556
g62
(g63
g64
NtRp557
(dp558
g67
(dp559
g75
I3
ssg76
g553
sg69
(lp560
S''
asbasbasbag62
(g78
g64
NtRp561
(dp562
g67
(dp563
sg76
g457
sg69
(lp564
g62
(g83
g64
NtRp565
(dp566
g67
(dp567
g87
g88
ssg76
g561
sg69
(lp568
g381
asbag62
(g83
g64
NtRp569
(dp570
g67
(dp571
g94
g95
ssg76
g561
sg69
(lp572
S':'
asbag62
(g83
g64
NtRp573
(dp574
g67
(dp575
sg76
g561
sg69
(lp576
g62
(g63
g64
NtRp577
(dp578
g67
(dp579
g75
I3
ssg76
g573
sg69
(lp580
S''
asbasbasbag62
(g78
g64
NtRp581
(dp582
g67
(dp583
sg76
g457
sg69
(lp584
g62
(g83
g64
NtRp585
(dp586
g67
(dp587
g87
g88
ssg76
g581
sg69
(lp588
g402
asbag62
(g83
g64
NtRp589
(dp590
g67
(dp591
g94
g95
ssg76
g581
sg69
(lp592
S':'
asbag62
(g83
g64
NtRp593
(dp594
g67
(dp595
sg76
g581
sg69
(lp596
g62
(g63
g64
NtRp597
(dp598
g67
(dp599
g75
I3
ssg76
g593
sg69
(lp600
S''
asbasbasbag62
(g78
g64
NtRp601
(dp602
g67
(dp603
sg76
g457
sg69
(lp604
g62
(g83
g64
NtRp605
(dp606
g67
(dp607
g87
g88
ssg76
g601
sg69
(lp608
g423
asbag62
(g83
g64
NtRp609
(dp610
g67
(dp611
g94
g95
ssg76
g601
sg69
(lp612
S':'
asbag62
(g83
g64
NtRp613
(dp614
g67
(dp615
sg76
g601
sg69
(lp616
g62
(g63
g64
NtRp617
(dp618
g67
(dp619
g75
I3
ssg76
g613
sg69
(lp620
S''
asbasbasbasbasbasbasbasbasbasbasbag62
(g78
g64
NtRp621
(dp622
g67
(dp623
sg76
g72
sg69
(lp624
g62
(g83
g64
NtRp625
(dp626
g67
(dp627
g87
g88
ssg76
g621
sg69
(lp628
S'env'
p629
asbag62
(g83
g64
NtRp630
(dp631
g67
(dp632
g94
g95
ssg76
g621
sg69
(lp633
S':'
asbag62
(g83
g64
NtRp634
(dp635
g67
(dp636
sg76
g621
sg69
(lp637
g62
(g63
g64
NtRp638
(dp639
g67
(dp640
g75
I5
ssg76
g634
sg69
(lp641
g62
(g71
g64
NtRp642
(dp643
g67
(dp644
g75
I4
ssg76
Nsg69
(lp645
g62
(g78
g64
NtRp646
(dp647
g67
(dp648
sg76
g642
sg69
(lp649
g62
(g83
g64
NtRp650
(dp651
g67
(dp652
g87
g88
ssg76
g646
sg69
(lp653
S'app_folders'
p654
asbag62
(g83
g64
NtRp655
(dp656
g67
(dp657
g94
g95
ssg76
g646
sg69
(lp658
S':'
asbag62
(g83
g64
NtRp659
(dp660
g67
(dp661
sg76
g646
sg69
(lp662
g62
(g63
g64
NtRp663
(dp664
g67
(dp665
g75
I4
ssg76
g659
sg69
(lp666
S"set(['/home/goshawk/web2py/applications/milo/', '/home/goshawk/web2py/applications/admin/'])"
p667
asbasbasbag62
(g78
g64
NtRp668
(dp669
g67
(dp670
sg76
g642
sg69
(lp671
g62
(g83
g64
NtRp672
(dp673
g67
(dp674
g87
g88
ssg76
g668
sg69
(lp675
S'applications_parent'
p676
asbag62
(g83
g64
NtRp677
(dp678
g67
(dp679
g94
g95
ssg76
g668
sg69
(lp680
S':'
asbag62
(g83
g64
NtRp681
(dp682
g67
(dp683
sg76
g668
sg69
(lp684
g62
(g63
g64
NtRp685
(dp686
g67
(dp687
g75
I4
ssg76
g681
sg69
(lp688
S'/home/goshawk/web2py'
p689
asbasbasbag62
(g78
g64
NtRp690
(dp691
g67
(dp692
sg76
g642
sg69
(lp693
g62
(g83
g64
NtRp694
(dp695
g67
(dp696
g87
g88
ssg76
g690
sg69
(lp697
S'cmd_args'
p698
asbag62
(g83
g64
NtRp699
(dp700
g67
(dp701
g94
g95
ssg76
g690
sg69
(lp702
S':'
asbag62
(g83
g64
NtRp703
(dp704
g67
(dp705
sg76
g690
sg69
(lp706
g62
(g63
g64
NtRp707
(dp708
g67
(dp709
g75
I4
ssg76
g703
sg69
(lp710
g62
(g71
g64
NtRp711
(dp712
g67
(dp713
g75
I3
ssg76
Nsg69
(lp714
sbasbasbasbag62
(g78
g64
NtRp715
(dp716
g67
(dp717
sg76
g642
sg69
(lp718
g62
(g83
g64
NtRp719
(dp720
g67
(dp721
g87
g88
ssg76
g715
sg69
(lp722
S'cmd_options'
p723
asbag62
(g83
g64
NtRp724
(dp725
g67
(dp726
g94
g95
ssg76
g715
sg69
(lp727
S':'
asbag62
(g83
g64
NtRp728
(dp729
g67
(dp730
sg76
g715
sg69
(lp731
g62
(g63
g64
NtRp732
(dp733
g67
(dp734
g75
I4
ssg76
g728
sg69
(lp735
S"<Values at 0x18e90e0: {'verbose': False, 'ip': '127.0.0.1', 'shutdown_timeout': 5, 'taskbar': False, 'nocron': False, 'pid_filename': 'httpserver.pid', 'maxthreads': None, 'softcron': False, 'server_name': 'whisperer', 'bpython': False, 'nogui': False, 'port': 8000, 'extcron': False, 'debuglevel': 30, 'test': None, 'folder': '/home/goshawk/web2py', 'config': '', 'import_models': False, 'winservice': '', 'shell': None, 'run': '', 'log_filename': 'httpserver.log', 'args': [''], 'socket_timeout': 5, 'ssl_ca_certificate': None, 'scheduler': None, 'profiler_filename': None, 'ssl_private_key': '', 'password': 'admin', 'request_queue_size': 5, 'ssl_certificate': '', 'cronjob': False, 'numthreads': None, 'quiet': False, 'interfaces': None, 'minthreads': None, 'timeout': 10, 'plain': False, 'nobanner': False}>"
p736
asbasbasbag62
(g78
g64
NtRp737
(dp738
g67
(dp739
sg76
g642
sg69
(lp740
g62
(g83
g64
NtRp741
(dp742
g67
(dp743
g87
g88
ssg76
g737
sg69
(lp744
S'db_sessions'
p745
asbag62
(g83
g64
NtRp746
(dp747
g67
(dp748
g94
g95
ssg76
g737
sg69
(lp749
S':'
asbag62
(g83
g64
NtRp750
(dp751
g67
(dp752
sg76
g737
sg69
(lp753
g62
(g63
g64
NtRp754
(dp755
g67
(dp756
g75
I4
ssg76
g750
sg69
(lp757
S'set([])'
p758
asbasbasbag62
(g78
g64
NtRp759
(dp760
g67
(dp761
sg76
g642
sg69
(lp762
g62
(g83
g64
NtRp763
(dp764
g67
(dp765
g87
g88
ssg76
g759
sg69
(lp766
S'debugging'
p767
asbag62
(g83
g64
NtRp768
(dp769
g67
(dp770
g94
g95
ssg76
g759
sg69
(lp771
S':'
asbag62
(g83
g64
NtRp772
(dp773
g67
(dp774
sg76
g759
sg69
(lp775
g62
(g63
g64
NtRp776
(dp777
g67
(dp778
g75
I4
ssg76
g772
sg69
(lp779
g105
asbasbasbag62
(g78
g64
NtRp780
(dp781
g67
(dp782
sg76
g642
sg69
(lp783
g62
(g83
g64
NtRp784
(dp785
g67
(dp786
g87
g88
ssg76
g780
sg69
(lp787
S'gluon_parent'
p788
asbag62
(g83
g64
NtRp789
(dp790
g67
(dp791
g94
g95
ssg76
g780
sg69
(lp792
S':'
asbag62
(g83
g64
NtRp793
(dp794
g67
(dp795
sg76
g780
sg69
(lp796
g62
(g63
g64
NtRp797
(dp798
g67
(dp799
g75
I4
ssg76
g793
sg69
(lp800
S'/home/goshawk/web2py'
p801
asbasbasbag62
(g78
g64
NtRp802
(dp803
g67
(dp804
sg76
g642
sg69
(lp805
g62
(g83
g64
NtRp806
(dp807
g67
(dp808
g87
g88
ssg76
g802
sg69
(lp809
S'http_accept'
p810
asbag62
(g83
g64
NtRp811
(dp812
g67
(dp813
g94
g95
ssg76
g802
sg69
(lp814
S':'
asbag62
(g83
g64
NtRp815
(dp816
g67
(dp817
sg76
g802
sg69
(lp818
g62
(g63
g64
NtRp819
(dp820
g67
(dp821
g75
I4
ssg76
g815
sg69
(lp822
S'text/html,application/xhtml+xml,application/xml;q=0.9,*/*;q=0.8'
p823
asbasbasbag62
(g78
g64
NtRp824
(dp825
g67
(dp826
sg76
g642
sg69
(lp827
g62
(g83
g64
NtRp828
(dp829
g67
(dp830
g87
g88
ssg76
g824
sg69
(lp831
S'http_accept_charset'
p832
asbag62
(g83
g64
NtRp833
(dp834
g67
(dp835
g94
g95
ssg76
g824
sg69
(lp836
S':'
asbag62
(g83
g64
NtRp837
(dp838
g67
(dp839
sg76
g824
sg69
(lp840
g62
(g63
g64
NtRp841
(dp842
g67
(dp843
g75
I4
ssg76
g837
sg69
(lp844
S'ISO-8859-1,utf-8;q=0.7,*;q=0.3'
p845
asbasbasbag62
(g78
g64
NtRp846
(dp847
g67
(dp848
sg76
g642
sg69
(lp849
g62
(g83
g64
NtRp850
(dp851
g67
(dp852
g87
g88
ssg76
g846
sg69
(lp853
S'http_accept_encoding'
p854
asbag62
(g83
g64
NtRp855
(dp856
g67
(dp857
g94
g95
ssg76
g846
sg69
(lp858
S':'
asbag62
(g83
g64
NtRp859
(dp860
g67
(dp861
sg76
g846
sg69
(lp862
g62
(g63
g64
NtRp863
(dp864
g67
(dp865
g75
I4
ssg76
g859
sg69
(lp866
S'gzip,deflate,sdch'
p867
asbasbasbag62
(g78
g64
NtRp868
(dp869
g67
(dp870
sg76
g642
sg69
(lp871
g62
(g83
g64
NtRp872
(dp873
g67
(dp874
g87
g88
ssg76
g868
sg69
(lp875
S'http_accept_language'
p876
asbag62
(g83
g64
NtRp877
(dp878
g67
(dp879
g94
g95
ssg76
g868
sg69
(lp880
S':'
asbag62
(g83
g64
NtRp881
(dp882
g67
(dp883
sg76
g868
sg69
(lp884
g62
(g63
g64
NtRp885
(dp886
g67
(dp887
g75
I4
ssg76
g881
sg69
(lp888
S'en-US,en;q=0.8'
p889
asbasbasbag62
(g78
g64
NtRp890
(dp891
g67
(dp892
sg76
g642
sg69
(lp893
g62
(g83
g64
NtRp894
(dp895
g67
(dp896
g87
g88
ssg76
g890
sg69
(lp897
S'http_cache_control'
p898
asbag62
(g83
g64
NtRp899
(dp900
g67
(dp901
g94
g95
ssg76
g890
sg69
(lp902
S':'
asbag62
(g83
g64
NtRp903
(dp904
g67
(dp905
sg76
g890
sg69
(lp906
g62
(g63
g64
NtRp907
(dp908
g67
(dp909
g75
I4
ssg76
g903
sg69
(lp910
S'max-age=0'
p911
asbasbasbag62
(g78
g64
NtRp912
(dp913
g67
(dp914
sg76
g642
sg69
(lp915
g62
(g83
g64
NtRp916
(dp917
g67
(dp918
g87
g88
ssg76
g912
sg69
(lp919
S'http_connection'
p920
asbag62
(g83
g64
NtRp921
(dp922
g67
(dp923
g94
g95
ssg76
g912
sg69
(lp924
S':'
asbag62
(g83
g64
NtRp925
(dp926
g67
(dp927
sg76
g912
sg69
(lp928
g62
(g63
g64
NtRp929
(dp930
g67
(dp931
g75
I4
ssg76
g925
sg69
(lp932
S'keep-alive'
p933
asbasbasbag62
(g78
g64
NtRp934
(dp935
g67
(dp936
sg76
g642
sg69
(lp937
g62
(g83
g64
NtRp938
(dp939
g67
(dp940
g87
g88
ssg76
g934
sg69
(lp941
S'http_cookie'
p942
asbag62
(g83
g64
NtRp943
(dp944
g67
(dp945
g94
g95
ssg76
g934
sg69
(lp946
S':'
asbag62
(g83
g64
NtRp947
(dp948
g67
(dp949
sg76
g934
sg69
(lp950
g62
(g63
g64
NtRp951
(dp952
g67
(dp953
g75
I4
ssg76
g947
sg69
(lp954
S'session_id_milo=127.0.0.1-6ea54ce8-d4d4-42e2-9f2c-7c1a0acc789f; session_id_admin=127.0.0.1-15ce088f-ba26-4e86-8b5e-a24ec37269b4'
p955
asbasbasbag62
(g78
g64
NtRp956
(dp957
g67
(dp958
sg76
g642
sg69
(lp959
g62
(g83
g64
NtRp960
(dp961
g67
(dp962
g87
g88
ssg76
g956
sg69
(lp963
S'http_host'
p964
asbag62
(g83
g64
NtRp965
(dp966
g67
(dp967
g94
g95
ssg76
g956
sg69
(lp968
S':'
asbag62
(g83
g64
NtRp969
(dp970
g67
(dp971
sg76
g956
sg69
(lp972
g62
(g63
g64
NtRp973
(dp974
g67
(dp975
g75
I4
ssg76
g969
sg69
(lp976
S'localhost:8000'
p977
asbasbasbag62
(g78
g64
NtRp978
(dp979
g67
(dp980
sg76
g642
sg69
(lp981
g62
(g83
g64
NtRp982
(dp983
g67
(dp984
g87
g88
ssg76
g978
sg69
(lp985
S'http_referer'
p986
asbag62
(g83
g64
NtRp987
(dp988
g67
(dp989
g94
g95
ssg76
g978
sg69
(lp990
S':'
asbag62
(g83
g64
NtRp991
(dp992
g67
(dp993
sg76
g978
sg69
(lp994
g62
(g63
g64
NtRp995
(dp996
g67
(dp997
g75
I4
ssg76
g991
sg69
(lp998
S'http://localhost:8000/'
p999
asbasbasbag62
(g78
g64
NtRp1000
(dp1001
g67
(dp1002
sg76
g642
sg69
(lp1003
g62
(g83
g64
NtRp1004
(dp1005
g67
(dp1006
g87
g88
ssg76
g1000
sg69
(lp1007
S'http_user_agent'
p1008
asbag62
(g83
g64
NtRp1009
(dp1010
g67
(dp1011
g94
g95
ssg76
g1000
sg69
(lp1012
S':'
asbag62
(g83
g64
NtRp1013
(dp1014
g67
(dp1015
sg76
g1000
sg69
(lp1016
g62
(g63
g64
NtRp1017
(dp1018
g67
(dp1019
g75
I4
ssg76
g1013
sg69
(lp1020
S'Mozilla/5.0 (X11; Linux x86_64) AppleWebKit/535.19 (KHTML, like Gecko) Ubuntu/12.04 Chromium/18.0.1025.168 Chrome/18.0.1025.168 Safari/535.19'
p1021
asbasbasbag62
(g78
g64
NtRp1022
(dp1023
g67
(dp1024
sg76
g642
sg69
(lp1025
g62
(g83
g64
NtRp1026
(dp1027
g67
(dp1028
g87
g88
ssg76
g1022
sg69
(lp1029
S'is_jython'
p1030
asbag62
(g83
g64
NtRp1031
(dp1032
g67
(dp1033
g94
g95
ssg76
g1022
sg69
(lp1034
S':'
asbag62
(g83
g64
NtRp1035
(dp1036
g67
(dp1037
sg76
g1022
sg69
(lp1038
g62
(g63
g64
NtRp1039
(dp1040
g67
(dp1041
g75
I4
ssg76
g1035
sg69
(lp1042
g105
asbasbasbag62
(g78
g64
NtRp1043
(dp1044
g67
(dp1045
sg76
g642
sg69
(lp1046
g62
(g83
g64
NtRp1047
(dp1048
g67
(dp1049
g87
g88
ssg76
g1043
sg69
(lp1050
S'is_pypy'
p1051
asbag62
(g83
g64
NtRp1052
(dp1053
g67
(dp1054
g94
g95
ssg76
g1043
sg69
(lp1055
S':'
asbag62
(g83
g64
NtRp1056
(dp1057
g67
(dp1058
sg76
g1043
sg69
(lp1059
g62
(g63
g64
NtRp1060
(dp1061
g67
(dp1062
g75
I4
ssg76
g1056
sg69
(lp1063
g105
asbasbasbag62
(g78
g64
NtRp1064
(dp1065
g67
(dp1066
sg76
g642
sg69
(lp1067
g62
(g83
g64
NtRp1068
(dp1069
g67
(dp1070
g87
g88
ssg76
g1064
sg69
(lp1071
S'path_info'
p1072
asbag62
(g83
g64
NtRp1073
(dp1074
g67
(dp1075
g94
g95
ssg76
g1064
sg69
(lp1076
S':'
asbag62
(g83
g64
NtRp1077
(dp1078
g67
(dp1079
sg76
g1064
sg69
(lp1080
g62
(g63
g64
NtRp1081
(dp1082
g67
(dp1083
g75
I4
ssg76
g1077
sg69
(lp1084
S'/milo/admin/index'
p1085
asbasbasbag62
(g78
g64
NtRp1086
(dp1087
g67
(dp1088
sg76
g642
sg69
(lp1089
g62
(g83
g64
NtRp1090
(dp1091
g67
(dp1092
g87
g88
ssg76
g1086
sg69
(lp1093
S'query_string'
p1094
asbag62
(g83
g64
NtRp1095
(dp1096
g67
(dp1097
g94
g95
ssg76
g1086
sg69
(lp1098
S':'
asbag62
(g83
g64
NtRp1099
(dp1100
g67
(dp1101
sg76
g1086
sg69
(lp1102
g62
(g63
g64
NtRp1103
(dp1104
g67
(dp1105
g75
I4
ssg76
g1099
sg69
(lp1106
S''
asbasbasbag62
(g78
g64
NtRp1107
(dp1108
g67
(dp1109
sg76
g642
sg69
(lp1110
g62
(g83
g64
NtRp1111
(dp1112
g67
(dp1113
g87
g88
ssg76
g1107
sg69
(lp1114
S'remote_addr'
p1115
asbag62
(g83
g64
NtRp1116
(dp1117
g67
(dp1118
g94
g95
ssg76
g1107
sg69
(lp1119
S':'
asbag62
(g83
g64
NtRp1120
(dp1121
g67
(dp1122
sg76
g1107
sg69
(lp1123
g62
(g63
g64
NtRp1124
(dp1125
g67
(dp1126
g75
I4
ssg76
g1120
sg69
(lp1127
g195
asbasbasbag62
(g78
g64
NtRp1128
(dp1129
g67
(dp1130
sg76
g642
sg69
(lp1131
g62
(g83
g64
NtRp1132
(dp1133
g67
(dp1134
g87
g88
ssg76
g1128
sg69
(lp1135
S'remote_port'
p1136
asbag62
(g83
g64
NtRp1137
(dp1138
g67
(dp1139
g94
g95
ssg76
g1128
sg69
(lp1140
S':'
asbag62
(g83
g64
NtRp1141
(dp1142
g67
(dp1143
sg76
g1128
sg69
(lp1144
g62
(g63
g64
NtRp1145
(dp1146
g67
(dp1147
g75
I4
ssg76
g1141
sg69
(lp1148
S'36474'
p1149
asbasbasbag62
(g78
g64
NtRp1150
(dp1151
g67
(dp1152
sg76
g642
sg69
(lp1153
g62
(g83
g64
NtRp1154
(dp1155
g67
(dp1156
g87
g88
ssg76
g1150
sg69
(lp1157
S'request_method'
p1158
asbag62
(g83
g64
NtRp1159
(dp1160
g67
(dp1161
g94
g95
ssg76
g1150
sg69
(lp1162
S':'
asbag62
(g83
g64
NtRp1163
(dp1164
g67
(dp1165
sg76
g1150
sg69
(lp1166
g62
(g63
g64
NtRp1167
(dp1168
g67
(dp1169
g75
I4
ssg76
g1163
sg69
(lp1170
S'GET'
p1171
asbasbasbag62
(g78
g64
NtRp1172
(dp1173
g67
(dp1174
sg76
g642
sg69
(lp1175
g62
(g83
g64
NtRp1176
(dp1177
g67
(dp1178
g87
g88
ssg76
g1172
sg69
(lp1179
S'request_uri'
p1180
asbag62
(g83
g64
NtRp1181
(dp1182
g67
(dp1183
g94
g95
ssg76
g1172
sg69
(lp1184
S':'
asbag62
(g83
g64
NtRp1185
(dp1186
g67
(dp1187
sg76
g1172
sg69
(lp1188
g62
(g63
g64
NtRp1189
(dp1190
g67
(dp1191
g75
I4
ssg76
g1185
sg69
(lp1192
g1085
asbasbasbag62
(g78
g64
NtRp1193
(dp1194
g67
(dp1195
sg76
g642
sg69
(lp1196
g62
(g83
g64
NtRp1197
(dp1198
g67
(dp1199
g87
g88
ssg76
g1193
sg69
(lp1200
S'script_name'
p1201
asbag62
(g83
g64
NtRp1202
(dp1203
g67
(dp1204
g94
g95
ssg76
g1193
sg69
(lp1205
S':'
asbag62
(g83
g64
NtRp1206
(dp1207
g67
(dp1208
sg76
g1193
sg69
(lp1209
g62
(g63
g64
NtRp1210
(dp1211
g67
(dp1212
g75
I4
ssg76
g1206
sg69
(lp1213
S''
asbasbasbag62
(g78
g64
NtRp1214
(dp1215
g67
(dp1216
sg76
g642
sg69
(lp1217
g62
(g83
g64
NtRp1218
(dp1219
g67
(dp1220
g87
g88
ssg76
g1214
sg69
(lp1221
S'server_name'
p1222
asbag62
(g83
g64
NtRp1223
(dp1224
g67
(dp1225
g94
g95
ssg76
g1214
sg69
(lp1226
S':'
asbag62
(g83
g64
NtRp1227
(dp1228
g67
(dp1229
sg76
g1214
sg69
(lp1230
g62
(g63
g64
NtRp1231
(dp1232
g67
(dp1233
g75
I4
ssg76
g1227
sg69
(lp1234
S'whisperer'
p1235
asbasbasbag62
(g78
g64
NtRp1236
(dp1237
g67
(dp1238
sg76
g642
sg69
(lp1239
g62
(g83
g64
NtRp1240
(dp1241
g67
(dp1242
g87
g88
ssg76
g1236
sg69
(lp1243
S'server_port'
p1244
asbag62
(g83
g64
NtRp1245
(dp1246
g67
(dp1247
g94
g95
ssg76
g1236
sg69
(lp1248
S':'
asbag62
(g83
g64
NtRp1249
(dp1250
g67
(dp1251
sg76
g1236
sg69
(lp1252
g62
(g63
g64
NtRp1253
(dp1254
g67
(dp1255
g75
I4
ssg76
g1249
sg69
(lp1256
S'8000'
p1257
asbasbasbag62
(g78
g64
NtRp1258
(dp1259
g67
(dp1260
sg76
g642
sg69
(lp1261
g62
(g83
g64
NtRp1262
(dp1263
g67
(dp1264
g87
g88
ssg76
g1258
sg69
(lp1265
S'server_protocol'
p1266
asbag62
(g83
g64
NtRp1267
(dp1268
g67
(dp1269
g94
g95
ssg76
g1258
sg69
(lp1270
S':'
asbag62
(g83
g64
NtRp1271
(dp1272
g67
(dp1273
sg76
g1258
sg69
(lp1274
g62
(g63
g64
NtRp1275
(dp1276
g67
(dp1277
g75
I4
ssg76
g1271
sg69
(lp1278
S'HTTP/1.1'
p1279
asbasbasbag62
(g78
g64
NtRp1280
(dp1281
g67
(dp1282
sg76
g642
sg69
(lp1283
g62
(g83
g64
NtRp1284
(dp1285
g67
(dp1286
g87
g88
ssg76
g1280
sg69
(lp1287
S'server_software'
p1288
asbag62
(g83
g64
NtRp1289
(dp1290
g67
(dp1291
g94
g95
ssg76
g1280
sg69
(lp1292
S':'
asbag62
(g83
g64
NtRp1293
(dp1294
g67
(dp1295
sg76
g1280
sg69
(lp1296
g62
(g63
g64
NtRp1297
(dp1298
g67
(dp1299
g75
I4
ssg76
g1293
sg69
(lp1300
S'Rocket 1.2.4'
p1301
asbasbasbag62
(g78
g64
NtRp1302
(dp1303
g67
(dp1304
sg76
g642
sg69
(lp1305
g62
(g83
g64
NtRp1306
(dp1307
g67
(dp1308
g87
g88
ssg76
g1302
sg69
(lp1309
S'web2py_crontype'
p1310
asbag62
(g83
g64
NtRp1311
(dp1312
g67
(dp1313
g94
g95
ssg76
g1302
sg69
(lp1314
S':'
asbag62
(g83
g64
NtRp1315
(dp1316
g67
(dp1317
sg76
g1302
sg69
(lp1318
g62
(g63
g64
NtRp1319
(dp1320
g67
(dp1321
g75
I4
ssg76
g1315
sg69
(lp1322
S'hard'
p1323
asbasbasbag62
(g78
g64
NtRp1324
(dp1325
g67
(dp1326
sg76
g642
sg69
(lp1327
g62
(g83
g64
NtRp1328
(dp1329
g67
(dp1330
g87
g88
ssg76
g1324
sg69
(lp1331
S'web2py_original_uri'
p1332
asbag62
(g83
g64
NtRp1333
(dp1334
g67
(dp1335
g94
g95
ssg76
g1324
sg69
(lp1336
S':'
asbag62
(g83
g64
NtRp1337
(dp1338
g67
(dp1339
sg76
g1324
sg69
(lp1340
g62
(g63
g64
NtRp1341
(dp1342
g67
(dp1343
g75
I4
ssg76
g1337
sg69
(lp1344
g1085
asbasbasbag62
(g78
g64
NtRp1345
(dp1346
g67
(dp1347
sg76
g642
sg69
(lp1348
g62
(g83
g64
NtRp1349
(dp1350
g67
(dp1351
g87
g88
ssg76
g1345
sg69
(lp1352
S'web2py_path'
p1353
asbag62
(g83
g64
NtRp1354
(dp1355
g67
(dp1356
g94
g95
ssg76
g1345
sg69
(lp1357
S':'
asbag62
(g83
g64
NtRp1358
(dp1359
g67
(dp1360
sg76
g1345
sg69
(lp1361
g62
(g63
g64
NtRp1362
(dp1363
g67
(dp1364
g75
I4
ssg76
g1358
sg69
(lp1365
g689
asbasbasbag62
(g78
g64
NtRp1366
(dp1367
g67
(dp1368
sg76
g642
sg69
(lp1369
g62
(g83
g64
NtRp1370
(dp1371
g67
(dp1372
g87
g88
ssg76
g1366
sg69
(lp1373
S'web2py_version'
p1374
asbag62
(g83
g64
NtRp1375
(dp1376
g67
(dp1377
g94
g95
ssg76
g1366
sg69
(lp1378
S':'
asbag62
(g83
g64
NtRp1379
(dp1380
g67
(dp1381
sg76
g1366
sg69
(lp1382
g62
(g63
g64
NtRp1383
(dp1384
g67
(dp1385
g75
I4
ssg76
g1379
sg69
(lp1386
g62
(g71
g64
NtRp1387
(dp1388
g67
(dp1389
g75
I3
ssg76
Nsg69
(lp1390
g62
(g78
g64
NtRp1391
(dp1392
g67
(dp1393
sg76
g1387
sg69
(lp1394
g62
(g83
g64
NtRp1395
(dp1396
g67
(dp1397
sg76
g1391
sg69
(lp1398
g62
(g63
g64
NtRp1399
(dp1400
g67
(dp1401
g75
I3
ssg76
g1395
sg69
(lp1402
S'1'
asbasbasbag62
(g78
g64
NtRp1403
(dp1404
g67
(dp1405
sg76
g1387
sg69
(lp1406
g62
(g83
g64
NtRp1407
(dp1408
g67
(dp1409
sg76
g1403
sg69
(lp1410
g62
(g63
g64
NtRp1411
(dp1412
g67
(dp1413
g75
I3
ssg76
g1407
sg69
(lp1414
S'99'
p1415
asbasbasbag62
(g78
g64
NtRp1416
(dp1417
g67
(dp1418
sg76
g1387
sg69
(lp1419
g62
(g83
g64
NtRp1420
(dp1421
g67
(dp1422
sg76
g1416
sg69
(lp1423
g62
(g63
g64
NtRp1424
(dp1425
g67
(dp1426
g75
I3
ssg76
g1420
sg69
(lp1427
S'7'
asbasbasbag62
(g78
g64
NtRp1428
(dp1429
g67
(dp1430
sg76
g1387
sg69
(lp1431
g62
(g83
g64
NtRp1432
(dp1433
g67
(dp1434
sg76
g1428
sg69
(lp1435
g62
(g63
g64
NtRp1436
(dp1437
g67
(dp1438
g75
I3
ssg76
g1432
sg69
(lp1439
S'datetime.datetime(2012, 3, 4, 22, 12, 8)'
p1440
asbasbasbag62
(g78
g64
NtRp1441
(dp1442
g67
(dp1443
sg76
g1387
sg69
(lp1444
g62
(g83
g64
NtRp1445
(dp1446
g67
(dp1447
sg76
g1441
sg69
(lp1448
g62
(g63
g64
NtRp1449
(dp1450
g67
(dp1451
g75
I3
ssg76
g1445
sg69
(lp1452
S'stable'
p1453
asbasbasbasbasbasbasbag62
(g78
g64
NtRp1454
(dp1455
g67
(dp1456
sg76
g642
sg69
(lp1457
g62
(g83
g64
NtRp1458
(dp1459
g67
(dp1460
g87
g88
ssg76
g1454
sg69
(lp1461
S'wsgi_errors'
p1462
asbag62
(g83
g64
NtRp1463
(dp1464
g67
(dp1465
g94
g95
ssg76
g1454
sg69
(lp1466
S':'
asbag62
(g83
g64
NtRp1467
(dp1468
g67
(dp1469
sg76
g1454
sg69
(lp1470
g62
(g63
g64
NtRp1471
(dp1472
g67
(dp1473
g75
I4
ssg76
g1467
sg69
(lp1474
S"<open file '<stderr>', mode 'w' at 0x7fc7bb865270>"
p1475
asbasbasbag62
(g78
g64
NtRp1476
(dp1477
g67
(dp1478
sg76
g642
sg69
(lp1479
g62
(g83
g64
NtRp1480
(dp1481
g67
(dp1482
g87
g88
ssg76
g1476
sg69
(lp1483
S'wsgi_file_wrapper'
p1484
asbag62
(g83
g64
NtRp1485
(dp1486
g67
(dp1487
g94
g95
ssg76
g1476
sg69
(lp1488
S':'
asbag62
(g83
g64
NtRp1489
(dp1490
g67
(dp1491
sg76
g1476
sg69
(lp1492
g62
(g63
g64
NtRp1493
(dp1494
g67
(dp1495
g75
I4
ssg76
g1489
sg69
(lp1496
S'<class wsgiref.util.FileWrapper at 0x1815f58>'
p1497
asbasbasbag62
(g78
g64
NtRp1498
(dp1499
g67
(dp1500
sg76
g642
sg69
(lp1501
g62
(g83
g64
NtRp1502
(dp1503
g67
(dp1504
g87
g88
ssg76
g1498
sg69
(lp1505
S'wsgi_input'
p1506
asbag62
(g83
g64
NtRp1507
(dp1508
g67
(dp1509
g94
g95
ssg76
g1498
sg69
(lp1510
S':'
asbag62
(g83
g64
NtRp1511
(dp1512
g67
(dp1513
sg76
g1498
sg69
(lp1514
g62
(g63
g64
NtRp1515
(dp1516
g67
(dp1517
g75
I4
ssg76
g1511
sg69
(lp1518
S'<socket._fileobject object at 0x7fc7a5642ad0>'
p1519
asbasbasbag62
(g78
g64
NtRp1520
(dp1521
g67
(dp1522
sg76
g642
sg69
(lp1523
g62
(g83
g64
NtRp1524
(dp1525
g67
(dp1526
g87
g88
ssg76
g1520
sg69
(lp1527
S'wsgi_multiprocess'
p1528
asbag62
(g83
g64
NtRp1529
(dp1530
g67
(dp1531
g94
g95
ssg76
g1520
sg69
(lp1532
S':'
asbag62
(g83
g64
NtRp1533
(dp1534
g67
(dp1535
sg76
g1520
sg69
(lp1536
g62
(g63
g64
NtRp1537
(dp1538
g67
(dp1539
g75
I4
ssg76
g1533
sg69
(lp1540
g105
asbasbasbag62
(g78
g64
NtRp1541
(dp1542
g67
(dp1543
sg76
g642
sg69
(lp1544
g62
(g83
g64
NtRp1545
(dp1546
g67
(dp1547
g87
g88
ssg76
g1541
sg69
(lp1548
S'wsgi_multithread'
p1549
asbag62
(g83
g64
NtRp1550
(dp1551
g67
(dp1552
g94
g95
ssg76
g1541
sg69
(lp1553
S':'
asbag62
(g83
g64
NtRp1554
(dp1555
g67
(dp1556
sg76
g1541
sg69
(lp1557
g62
(g63
g64
NtRp1558
(dp1559
g67
(dp1560
g75
I4
ssg76
g1554
sg69
(lp1561
S'True'
p1562
asbasbasbag62
(g78
g64
NtRp1563
(dp1564
g67
(dp1565
sg76
g642
sg69
(lp1566
g62
(g83
g64
NtRp1567
(dp1568
g67
(dp1569
g87
g88
ssg76
g1563
sg69
(lp1570
S'wsgi_run_once'
p1571
asbag62
(g83
g64
NtRp1572
(dp1573
g67
(dp1574
g94
g95
ssg76
g1563
sg69
(lp1575
S':'
asbag62
(g83
g64
NtRp1576
(dp1577
g67
(dp1578
sg76
g1563
sg69
(lp1579
g62
(g63
g64
NtRp1580
(dp1581
g67
(dp1582
g75
I4
ssg76
g1576
sg69
(lp1583
g105
asbasbasbag62
(g78
g64
NtRp1584
(dp1585
g67
(dp1586
sg76
g642
sg69
(lp1587
g62
(g83
g64
NtRp1588
(dp1589
g67
(dp1590
g87
g88
ssg76
g1584
sg69
(lp1591
S'wsgi_url_scheme'
p1592
asbag62
(g83
g64
NtRp1593
(dp1594
g67
(dp1595
g94
g95
ssg76
g1584
sg69
(lp1596
S':'
asbag62
(g83
g64
NtRp1597
(dp1598
g67
(dp1599
sg76
g1584
sg69
(lp1600
g62
(g63
g64
NtRp1601
(dp1602
g67
(dp1603
g75
I4
ssg76
g1597
sg69
(lp1604
S'http'
p1605
asbasbasbag62
(g78
g64
NtRp1606
(dp1607
g67
(dp1608
sg76
g642
sg69
(lp1609
g62
(g83
g64
NtRp1610
(dp1611
g67
(dp1612
g87
g88
ssg76
g1606
sg69
(lp1613
S'wsgi_version'
p1614
asbag62
(g83
g64
NtRp1615
(dp1616
g67
(dp1617
g94
g95
ssg76
g1606
sg69
(lp1618
S':'
asbag62
(g83
g64
NtRp1619
(dp1620
g67
(dp1621
sg76
g1606
sg69
(lp1622
g62
(g63
g64
NtRp1623
(dp1624
g67
(dp1625
g75
I4
ssg76
g1619
sg69
(lp1626
g62
(g71
g64
NtRp1627
(dp1628
g67
(dp1629
g75
I3
ssg76
Nsg69
(lp1630
g62
(g78
g64
NtRp1631
(dp1632
g67
(dp1633
sg76
g1627
sg69
(lp1634
g62
(g83
g64
NtRp1635
(dp1636
g67
(dp1637
sg76
g1631
sg69
(lp1638
g62
(g63
g64
NtRp1639
(dp1640
g67
(dp1641
g75
I3
ssg76
g1635
sg69
(lp1642
S'1'
asbasbasbag62
(g78
g64
NtRp1643
(dp1644
g67
(dp1645
sg76
g1627
sg69
(lp1646
g62
(g83
g64
NtRp1647
(dp1648
g67
(dp1649
sg76
g1643
sg69
(lp1650
g62
(g63
g64
NtRp1651
(dp1652
g67
(dp1653
g75
I3
ssg76
g1647
sg69
(lp1654
S'0'
asbasbasbasbasbasbasbasbasbasbasbag62
(g78
g64
NtRp1655
(dp1656
g67
(dp1657
sg76
g72
sg69
(lp1658
g62
(g83
g64
NtRp1659
(dp1660
g67
(dp1661
g87
g88
ssg76
g1655
sg69
(lp1662
S'extension'
p1663
asbag62
(g83
g64
NtRp1664
(dp1665
g67
(dp1666
g94
g95
ssg76
g1655
sg69
(lp1667
S':'
asbag62
(g83
g64
NtRp1668
(dp1669
g67
(dp1670
sg76
g1655
sg69
(lp1671
g62
(g63
g64
NtRp1672
(dp1673
g67
(dp1674
g75
I5
ssg76
g1668
sg69
(lp1675
S'html'
p1676
asbasbasbag62
(g78
g64
NtRp1677
(dp1678
g67
(dp1679
sg76
g72
sg69
(lp1680
g62
(g83
g64
NtRp1681
(dp1682
g67
(dp1683
g87
g88
ssg76
g1677
sg69
(lp1684
S'folder'
p1685
asbag62
(g83
g64
NtRp1686
(dp1687
g67
(dp1688
g94
g95
ssg76
g1677
sg69
(lp1689
S':'
asbag62
(g83
g64
NtRp1690
(dp1691
g67
(dp1692
sg76
g1677
sg69
(lp1693
g62
(g63
g64
NtRp1694
(dp1695
g67
(dp1696
g75
I5
ssg76
g1690
sg69
(lp1697
S'/home/goshawk/web2py/applications/milo/'
p1698
asbasbasbag62
(g78
g64
NtRp1699
(dp1700
g67
(dp1701
sg76
g72
sg69
(lp1702
g62
(g83
g64
NtRp1703
(dp1704
g67
(dp1705
g87
g88
ssg76
g1699
sg69
(lp1706
S'function'
p1707
asbag62
(g83
g64
NtRp1708
(dp1709
g67
(dp1710
g94
g95
ssg76
g1699
sg69
(lp1711
S':'
asbag62
(g83
g64
NtRp1712
(dp1713
g67
(dp1714
sg76
g1699
sg69
(lp1715
g62
(g63
g64
NtRp1716
(dp1717
g67
(dp1718
g75
I5
ssg76
g1712
sg69
(lp1719
S'index'
p1720
asbasbasbag62
(g78
g64
NtRp1721
(dp1722
g67
(dp1723
sg76
g72
sg69
(lp1724
g62
(g83
g64
NtRp1725
(dp1726
g67
(dp1727
g87
g88
ssg76
g1721
sg69
(lp1728
S'get_vars'
p1729
asbag62
(g83
g64
NtRp1730
(dp1731
g67
(dp1732
g94
g95
ssg76
g1721
sg69
(lp1733
S':'
asbag62
(g83
g64
NtRp1734
(dp1735
g67
(dp1736
sg76
g1721
sg69
(lp1737
g62
(g63
g64
NtRp1738
(dp1739
g67
(dp1740
g75
I5
ssg76
g1734
sg69
(lp1741
g62
(g71
g64
NtRp1742
(dp1743
g67
(dp1744
g75
I4
ssg76
Nsg69
(lp1745
sbasbasbasbag62
(g78
g64
NtRp1746
(dp1747
g67
(dp1748
sg76
g72
sg69
(lp1749
g62
(g83
g64
NtRp1750
(dp1751
g67
(dp1752
g87
g88
ssg76
g1746
sg69
(lp1753
S'global_settings'
p1754
asbag62
(g83
g64
NtRp1755
(dp1756
g67
(dp1757
g94
g95
ssg76
g1746
sg69
(lp1758
S':'
asbag62
(g83
g64
NtRp1759
(dp1760
g67
(dp1761
sg76
g1746
sg69
(lp1762
g62
(g63
g64
NtRp1763
(dp1764
g67
(dp1765
g75
I5
ssg76
g1759
sg69
(lp1766
g62
(g71
g64
NtRp1767
(dp1768
g67
(dp1769
g75
I4
ssg76
Nsg69
(lp1770
g62
(g78
g64
NtRp1771
(dp1772
g67
(dp1773
sg76
g1767
sg69
(lp1774
g62
(g83
g64
NtRp1775
(dp1776
g67
(dp1777
g87
g88
ssg76
g1771
sg69
(lp1778
g654
asbag62
(g83
g64
NtRp1779
(dp1780
g67
(dp1781
g94
g95
ssg76
g1771
sg69
(lp1782
S':'
asbag62
(g83
g64
NtRp1783
(dp1784
g67
(dp1785
sg76
g1771
sg69
(lp1786
g62
(g63
g64
NtRp1787
(dp1788
g67
(dp1789
g75
I4
ssg76
g1783
sg69
(lp1790
S"set(['/home/goshawk/web2py/applications/milo/', '/home/goshawk/web2py/applications/admin/'])"
p1791
asbasbasbag62
(g78
g64
NtRp1792
(dp1793
g67
(dp1794
sg76
g1767
sg69
(lp1795
g62
(g83
g64
NtRp1796
(dp1797
g67
(dp1798
g87
g88
ssg76
g1792
sg69
(lp1799
g676
asbag62
(g83
g64
NtRp1800
(dp1801
g67
(dp1802
g94
g95
ssg76
g1792
sg69
(lp1803
S':'
asbag62
(g83
g64
NtRp1804
(dp1805
g67
(dp1806
sg76
g1792
sg69
(lp1807
g62
(g63
g64
NtRp1808
(dp1809
g67
(dp1810
g75
I4
ssg76
g1804
sg69
(lp1811
g689
asbasbasbag62
(g78
g64
NtRp1812
(dp1813
g67
(dp1814
sg76
g1767
sg69
(lp1815
g62
(g83
g64
NtRp1816
(dp1817
g67
(dp1818
g87
g88
ssg76
g1812
sg69
(lp1819
g698
asbag62
(g83
g64
NtRp1820
(dp1821
g67
(dp1822
g94
g95
ssg76
g1812
sg69
(lp1823
S':'
asbag62
(g83
g64
NtRp1824
(dp1825
g67
(dp1826
sg76
g1812
sg69
(lp1827
g62
(g63
g64
NtRp1828
(dp1829
g67
(dp1830
g75
I4
ssg76
g1824
sg69
(lp1831
g62
(g71
g64
NtRp1832
(dp1833
g67
(dp1834
g75
I3
ssg76
Nsg69
(lp1835
sbasbasbasbag62
(g78
g64
NtRp1836
(dp1837
g67
(dp1838
sg76
g1767
sg69
(lp1839
g62
(g83
g64
NtRp1840
(dp1841
g67
(dp1842
g87
g88
ssg76
g1836
sg69
(lp1843
g723
asbag62
(g83
g64
NtRp1844
(dp1845
g67
(dp1846
g94
g95
ssg76
g1836
sg69
(lp1847
S':'
asbag62
(g83
g64
NtRp1848
(dp1849
g67
(dp1850
sg76
g1836
sg69
(lp1851
g62
(g63
g64
NtRp1852
(dp1853
g67
(dp1854
g75
I4
ssg76
g1848
sg69
(lp1855
S"<Values at 0x18e90e0: {'verbose': False, 'ip': '127.0.0.1', 'shutdown_timeout': 5, 'taskbar': False, 'nocron': False, 'pid_filename': 'httpserver.pid', 'maxthreads': None, 'softcron': False, 'server_name': 'whisperer', 'bpython': False, 'nogui': False, 'port': 8000, 'extcron': False, 'debuglevel': 30, 'test': None, 'folder': '/home/goshawk/web2py', 'config': '', 'import_models': False, 'winservice': '', 'shell': None, 'run': '', 'log_filename': 'httpserver.log', 'args': [''], 'socket_timeout': 5, 'ssl_ca_certificate': None, 'scheduler': None, 'profiler_filename': None, 'ssl_private_key': '', 'password': 'admin', 'request_queue_size': 5, 'ssl_certificate': '', 'cronjob': False, 'numthreads': None, 'quiet': False, 'interfaces': None, 'minthreads': None, 'timeout': 10, 'plain': False, 'nobanner': False}>"
p1856
asbasbasbag62
(g78
g64
NtRp1857
(dp1858
g67
(dp1859
sg76
g1767
sg69
(lp1860
g62
(g83
g64
NtRp1861
(dp1862
g67
(dp1863
g87
g88
ssg76
g1857
sg69
(lp1864
g745
asbag62
(g83
g64
NtRp1865
(dp1866
g67
(dp1867
g94
g95
ssg76
g1857
sg69
(lp1868
S':'
asbag62
(g83
g64
NtRp1869
(dp1870
g67
(dp1871
sg76
g1857
sg69
(lp1872
g62
(g63
g64
NtRp1873
(dp1874
g67
(dp1875
g75
I4
ssg76
g1869
sg69
(lp1876
S'set([])'
p1877
asbasbasbag62
(g78
g64
NtRp1878
(dp1879
g67
(dp1880
sg76
g1767
sg69
(lp1881
g62
(g83
g64
NtRp1882
(dp1883
g67
(dp1884
g87
g88
ssg76
g1878
sg69
(lp1885
g767
asbag62
(g83
g64
NtRp1886
(dp1887
g67
(dp1888
g94
g95
ssg76
g1878
sg69
(lp1889
S':'
asbag62
(g83
g64
NtRp1890
(dp1891
g67
(dp1892
sg76
g1878
sg69
(lp1893
g62
(g63
g64
NtRp1894
(dp1895
g67
(dp1896
g75
I4
ssg76
g1890
sg69
(lp1897
g105
asbasbasbag62
(g78
g64
NtRp1898
(dp1899
g67
(dp1900
sg76
g1767
sg69
(lp1901
g62
(g83
g64
NtRp1902
(dp1903
g67
(dp1904
g87
g88
ssg76
g1898
sg69
(lp1905
g788
asbag62
(g83
g64
NtRp1906
(dp1907
g67
(dp1908
g94
g95
ssg76
g1898
sg69
(lp1909
S':'
asbag62
(g83
g64
NtRp1910
(dp1911
g67
(dp1912
sg76
g1898
sg69
(lp1913
g62
(g63
g64
NtRp1914
(dp1915
g67
(dp1916
g75
I4
ssg76
g1910
sg69
(lp1917
g801
asbasbasbag62
(g78
g64
NtRp1918
(dp1919
g67
(dp1920
sg76
g1767
sg69
(lp1921
g62
(g83
g64
NtRp1922
(dp1923
g67
(dp1924
g87
g88
ssg76
g1918
sg69
(lp1925
g1030
asbag62
(g83
g64
NtRp1926
(dp1927
g67
(dp1928
g94
g95
ssg76
g1918
sg69
(lp1929
S':'
asbag62
(g83
g64
NtRp1930
(dp1931
g67
(dp1932
sg76
g1918
sg69
(lp1933
g62
(g63
g64
NtRp1934
(dp1935
g67
(dp1936
g75
I4
ssg76
g1930
sg69
(lp1937
g105
asbasbasbag62
(g78
g64
NtRp1938
(dp1939
g67
(dp1940
sg76
g1767
sg69
(lp1941
g62
(g83
g64
NtRp1942
(dp1943
g67
(dp1944
g87
g88
ssg76
g1938
sg69
(lp1945
g1051
asbag62
(g83
g64
NtRp1946
(dp1947
g67
(dp1948
g94
g95
ssg76
g1938
sg69
(lp1949
S':'
asbag62
(g83
g64
NtRp1950
(dp1951
g67
(dp1952
sg76
g1938
sg69
(lp1953
g62
(g63
g64
NtRp1954
(dp1955
g67
(dp1956
g75
I4
ssg76
g1950
sg69
(lp1957
g105
asbasbasbag62
(g78
g64
NtRp1958
(dp1959
g67
(dp1960
sg76
g1767
sg69
(lp1961
g62
(g83
g64
NtRp1962
(dp1963
g67
(dp1964
g87
g88
ssg76
g1958
sg69
(lp1965
g1310
asbag62
(g83
g64
NtRp1966
(dp1967
g67
(dp1968
g94
g95
ssg76
g1958
sg69
(lp1969
S':'
asbag62
(g83
g64
NtRp1970
(dp1971
g67
(dp1972
sg76
g1958
sg69
(lp1973
g62
(g63
g64
NtRp1974
(dp1975
g67
(dp1976
g75
I4
ssg76
g1970
sg69
(lp1977
g1323
asbasbasbag62
(g78
g64
NtRp1978
(dp1979
g67
(dp1980
sg76
g1767
sg69
(lp1981
g62
(g83
g64
NtRp1982
(dp1983
g67
(dp1984
g87
g88
ssg76
g1978
sg69
(lp1985
g1374
asbag62
(g83
g64
NtRp1986
(dp1987
g67
(dp1988
g94
g95
ssg76
g1978
sg69
(lp1989
S':'
asbag62
(g83
g64
NtRp1990
(dp1991
g67
(dp1992
sg76
g1978
sg69
(lp1993
g62
(g63
g64
NtRp1994
(dp1995
g67
(dp1996
g75
I4
ssg76
g1990
sg69
(lp1997
g62
(g71
g64
NtRp1998
(dp1999
g67
(dp2000
g75
I3
ssg76
Nsg69
(lp2001
g62
(g78
g64
NtRp2002
(dp2003
g67
(dp2004
sg76
g1998
sg69
(lp2005
g62
(g83
g64
NtRp2006
(dp2007
g67
(dp2008
sg76
g2002
sg69
(lp2009
g62
(g63
g64
NtRp2010
(dp2011
g67
(dp2012
g75
I3
ssg76
g2006
sg69
(lp2013
S'1'
asbasbasbag62
(g78
g64
NtRp2014
(dp2015
g67
(dp2016
sg76
g1998
sg69
(lp2017
g62
(g83
g64
NtRp2018
(dp2019
g67
(dp2020
sg76
g2014
sg69
(lp2021
g62
(g63
g64
NtRp2022
(dp2023
g67
(dp2024
g75
I3
ssg76
g2018
sg69
(lp2025
S'99'
p2026
asbasbasbag62
(g78
g64
NtRp2027
(dp2028
g67
(dp2029
sg76
g1998
sg69
(lp2030
g62
(g83
g64
NtRp2031
(dp2032
g67
(dp2033
sg76
g2027
sg69
(lp2034
g62
(g63
g64
NtRp2035
(dp2036
g67
(dp2037
g75
I3
ssg76
g2031
sg69
(lp2038
S'7'
asbasbasbag62
(g78
g64
NtRp2039
(dp2040
g67
(dp2041
sg76
g1998
sg69
(lp2042
g62
(g83
g64
NtRp2043
(dp2044
g67
(dp2045
sg76
g2039
sg69
(lp2046
g62
(g63
g64
NtRp2047
(dp2048
g67
(dp2049
g75
I3
ssg76
g2043
sg69
(lp2050
S'datetime.datetime(2012, 3, 4, 22, 12, 8)'
p2051
asbasbasbag62
(g78
g64
NtRp2052
(dp2053
g67
(dp2054
sg76
g1998
sg69
(lp2055
g62
(g83
g64
NtRp2056
(dp2057
g67
(dp2058
sg76
g2052
sg69
(lp2059
g62
(g63
g64
NtRp2060
(dp2061
g67
(dp2062
g75
I3
ssg76
g2056
sg69
(lp2063
g1453
asbasbasbasbasbasbasbasbasbasbasbag62
(g78
g64
NtRp2064
(dp2065
g67
(dp2066
sg76
g72
sg69
(lp2067
g62
(g83
g64
NtRp2068
(dp2069
g67
(dp2070
g87
g88
ssg76
g2064
sg69
(lp2071
S'is_https'
p2072
asbag62
(g83
g64
NtRp2073
(dp2074
g67
(dp2075
g94
g95
ssg76
g2064
sg69
(lp2076
S':'
asbag62
(g83
g64
NtRp2077
(dp2078
g67
(dp2079
sg76
g2064
sg69
(lp2080
g62
(g63
g64
NtRp2081
(dp2082
g67
(dp2083
g75
I5
ssg76
g2077
sg69
(lp2084
g105
asbasbasbag62
(g78
g64
NtRp2085
(dp2086
g67
(dp2087
sg76
g72
sg69
(lp2088
g62
(g83
g64
NtRp2089
(dp2090
g67
(dp2091
g87
g88
ssg76
g2085
sg69
(lp2092
S'is_local'
p2093
asbag62
(g83
g64
NtRp2094
(dp2095
g67
(dp2096
g94
g95
ssg76
g2085
sg69
(lp2097
S':'
asbag62
(g83
g64
NtRp2098
(dp2099
g67
(dp2100
sg76
g2085
sg69
(lp2101
g62
(g63
g64
NtRp2102
(dp2103
g67
(dp2104
g75
I5
ssg76
g2098
sg69
(lp2105
g1562
asbasbasbag62
(g78
g64
NtRp2106
(dp2107
g67
(dp2108
sg76
g72
sg69
(lp2109
g62
(g83
g64
NtRp2110
(dp2111
g67
(dp2112
g87
g88
ssg76
g2106
sg69
(lp2113
S'is_restful'
p2114
asbag62
(g83
g64
NtRp2115
(dp2116
g67
(dp2117
g94
g95
ssg76
g2106
sg69
(lp2118
S':'
asbag62
(g83
g64
NtRp2119
(dp2120
g67
(dp2121
sg76
g2106
sg69
(lp2122
g62
(g63
g64
NtRp2123
(dp2124
g67
(dp2125
g75
I5
ssg76
g2119
sg69
(lp2126
g105
asbasbasbag62
(g78
g64
NtRp2127
(dp2128
g67
(dp2129
sg76
g72
sg69
(lp2130
g62
(g83
g64
NtRp2131
(dp2132
g67
(dp2133
g87
g88
ssg76
g2127
sg69
(lp2134
S'now'
p2135
asbag62
(g83
g64
NtRp2136
(dp2137
g67
(dp2138
g94
g95
ssg76
g2127
sg69
(lp2139
S':'
asbag62
(g83
g64
NtRp2140
(dp2141
g67
(dp2142
sg76
g2127
sg69
(lp2143
g62
(g63
g64
NtRp2144
(dp2145
g67
(dp2146
g75
I5
ssg76
g2140
sg69
(lp2147
S'datetime.datetime(2012, 7, 15, 1, 11, 46, 535281)'
p2148
asbasbasbag62
(g78
g64
NtRp2149
(dp2150
g67
(dp2151
sg76
g72
sg69
(lp2152
g62
(g83
g64
NtRp2153
(dp2154
g67
(dp2155
g87
g88
ssg76
g2149
sg69
(lp2156
S'post_vars'
p2157
asbag62
(g83
g64
NtRp2158
(dp2159
g67
(dp2160
g94
g95
ssg76
g2149
sg69
(lp2161
S':'
asbag62
(g83
g64
NtRp2162
(dp2163
g67
(dp2164
sg76
g2149
sg69
(lp2165
g62
(g63
g64
NtRp2166
(dp2167
g67
(dp2168
g75
I5
ssg76
g2162
sg69
(lp2169
g62
(g71
g64
NtRp2170
(dp2171
g67
(dp2172
g75
I4
ssg76
Nsg69
(lp2173
sbasbasbasbag62
(g78
g64
NtRp2174
(dp2175
g67
(dp2176
sg76
g72
sg69
(lp2177
g62
(g83
g64
NtRp2178
(dp2179
g67
(dp2180
g87
g88
ssg76
g2174
sg69
(lp2181
S'url'
p2182
asbag62
(g83
g64
NtRp2183
(dp2184
g67
(dp2185
g94
g95
ssg76
g2174
sg69
(lp2186
S':'
asbag62
(g83
g64
NtRp2187
(dp2188
g67
(dp2189
sg76
g2174
sg69
(lp2190
g62
(g63
g64
NtRp2191
(dp2192
g67
(dp2193
g75
I5
ssg76
g2187
sg69
(lp2194
S'/milo/admin/index'
p2195
asbasbasbag62
(g78
g64
NtRp2196
(dp2197
g67
(dp2198
sg76
g72
sg69
(lp2199
g62
(g83
g64
NtRp2200
(dp2201
g67
(dp2202
g87
g88
ssg76
g2196
sg69
(lp2203
S'utcnow'
p2204
asbag62
(g83
g64
NtRp2205
(dp2206
g67
(dp2207
g94
g95
ssg76
g2196
sg69
(lp2208
S':'
asbag62
(g83
g64
NtRp2209
(dp2210
g67
(dp2211
sg76
g2196
sg69
(lp2212
g62
(g63
g64
NtRp2213
(dp2214
g67
(dp2215
g75
I5
ssg76
g2209
sg69
(lp2216
S'datetime.datetime(2012, 7, 14, 23, 11, 46, 535301)'
p2217
asbasbasbag62
(g78
g64
NtRp2218
(dp2219
g67
(dp2220
sg76
g72
sg69
(lp2221
g62
(g83
g64
NtRp2222
(dp2223
g67
(dp2224
g87
g88
ssg76
g2218
sg69
(lp2225
S'uuid'
p2226
asbag62
(g83
g64
NtRp2227
(dp2228
g67
(dp2229
g94
g95
ssg76
g2218
sg69
(lp2230
S':'
asbag62
(g83
g64
NtRp2231
(dp2232
g67
(dp2233
sg76
g2218
sg69
(lp2234
g62
(g63
g64
NtRp2235
(dp2236
g67
(dp2237
g75
I5
ssg76
g2231
sg69
(lp2238
S'milo/127.0.0.1.2012-07-15.01-11-46.71b057f2-99be-4f96-a748-3dbe737aa03b'
p2239
asbasbasbag62
(g78
g64
NtRp2240
(dp2241
g67
(dp2242
sg76
g72
sg69
(lp2243
g62
(g83
g64
NtRp2244
(dp2245
g67
(dp2246
g87
g88
ssg76
g2240
sg69
(lp2247
S'vars'
p2248
asbag62
(g83
g64
NtRp2249
(dp2250
g67
(dp2251
g94
g95
ssg76
g2240
sg69
(lp2252
S':'
asbag62
(g83
g64
NtRp2253
(dp2254
g67
(dp2255
sg76
g2240
sg69
(lp2256
g62
(g63
g64
NtRp2257
(dp2258
g67
(dp2259
g75
I5
ssg76
g2253
sg69
(lp2260
g62
(g71
g64
NtRp2261
(dp2262
g67
(dp2263
g75
I4
ssg76
Nsg69
(lp2264
sbasbasbasbag62
(g78
g64
NtRp2265
(dp2266
g67
(dp2267
sg76
g72
sg69
(lp2268
g62
(g83
g64
NtRp2269
(dp2270
g67
(dp2271
g87
g88
ssg76
g2265
sg69
(lp2272
S'wsgi'
p2273
asbag62
(g83
g64
NtRp2274
(dp2275
g67
(dp2276
g94
g95
ssg76
g2265
sg69
(lp2277
S':'
asbag62
(g83
g64
NtRp2278
(dp2279
g67
(dp2280
sg76
g2265
sg69
(lp2281
g62
(g63
g64
NtRp2282
(dp2283
g67
(dp2284
g75
I5
ssg76
g2278
sg69
(lp2285
g62
(g71
g64
NtRp2286
(dp2287
g67
(dp2288
g75
I4
ssg76
Nsg69
(lp2289
g62
(g78
g64
NtRp2290
(dp2291
g67
(dp2292
sg76
g2286
sg69
(lp2293
g62
(g83
g64
NtRp2294
(dp2295
g67
(dp2296
g87
g88
ssg76
g2290
sg69
(lp2297
S'environ'
p2298
asbag62
(g83
g64
NtRp2299
(dp2300
g67
(dp2301
g94
g95
ssg76
g2290
sg69
(lp2302
S':'
asbag62
(g83
g64
NtRp2303
(dp2304
g67
(dp2305
sg76
g2290
sg69
(lp2306
g62
(g63
g64
NtRp2307
(dp2308
g67
(dp2309
g75
I4
ssg76
g2303
sg69
(lp2310
g62
(g71
g64
NtRp2311
(dp2312
g67
(dp2313
g75
I3
ssg76
Nsg69
(lp2314
g62
(g78
g64
NtRp2315
(dp2316
g67
(dp2317
sg76
g2311
sg69
(lp2318
g62
(g83
g64
NtRp2319
(dp2320
g67
(dp2321
g87
g88
ssg76
g2315
sg69
(lp2322
S'HTTP_ACCEPT'
p2323
asbag62
(g83
g64
NtRp2324
(dp2325
g67
(dp2326
g94
g95
ssg76
g2315
sg69
(lp2327
S':'
asbag62
(g83
g64
NtRp2328
(dp2329
g67
(dp2330
sg76
g2315
sg69
(lp2331
g62
(g63
g64
NtRp2332
(dp2333
g67
(dp2334
g75
I3
ssg76
g2328
sg69
(lp2335
g823
asbasbasbag62
(g78
g64
NtRp2336
(dp2337
g67
(dp2338
sg76
g2311
sg69
(lp2339
g62
(g83
g64
NtRp2340
(dp2341
g67
(dp2342
g87
g88
ssg76
g2336
sg69
(lp2343
S'HTTP_ACCEPT_CHARSET'
p2344
asbag62
(g83
g64
NtRp2345
(dp2346
g67
(dp2347
g94
g95
ssg76
g2336
sg69
(lp2348
S':'
asbag62
(g83
g64
NtRp2349
(dp2350
g67
(dp2351
sg76
g2336
sg69
(lp2352
g62
(g63
g64
NtRp2353
(dp2354
g67
(dp2355
g75
I3
ssg76
g2349
sg69
(lp2356
g845
asbasbasbag62
(g78
g64
NtRp2357
(dp2358
g67
(dp2359
sg76
g2311
sg69
(lp2360
g62
(g83
g64
NtRp2361
(dp2362
g67
(dp2363
g87
g88
ssg76
g2357
sg69
(lp2364
S'HTTP_ACCEPT_ENCODING'
p2365
asbag62
(g83
g64
NtRp2366
(dp2367
g67
(dp2368
g94
g95
ssg76
g2357
sg69
(lp2369
S':'
asbag62
(g83
g64
NtRp2370
(dp2371
g67
(dp2372
sg76
g2357
sg69
(lp2373
g62
(g63
g64
NtRp2374
(dp2375
g67
(dp2376
g75
I3
ssg76
g2370
sg69
(lp2377
g867
asbasbasbag62
(g78
g64
NtRp2378
(dp2379
g67
(dp2380
sg76
g2311
sg69
(lp2381
g62
(g83
g64
NtRp2382
(dp2383
g67
(dp2384
g87
g88
ssg76
g2378
sg69
(lp2385
S'HTTP_ACCEPT_LANGUAGE'
p2386
asbag62
(g83
g64
NtRp2387
(dp2388
g67
(dp2389
g94
g95
ssg76
g2378
sg69
(lp2390
S':'
asbag62
(g83
g64
NtRp2391
(dp2392
g67
(dp2393
sg76
g2378
sg69
(lp2394
g62
(g63
g64
NtRp2395
(dp2396
g67
(dp2397
g75
I3
ssg76
g2391
sg69
(lp2398
g889
asbasbasbag62
(g78
g64
NtRp2399
(dp2400
g67
(dp2401
sg76
g2311
sg69
(lp2402
g62
(g83
g64
NtRp2403
(dp2404
g67
(dp2405
g87
g88
ssg76
g2399
sg69
(lp2406
S'HTTP_CACHE_CONTROL'
p2407
asbag62
(g83
g64
NtRp2408
(dp2409
g67
(dp2410
g94
g95
ssg76
g2399
sg69
(lp2411
S':'
asbag62
(g83
g64
NtRp2412
(dp2413
g67
(dp2414
sg76
g2399
sg69
(lp2415
g62
(g63
g64
NtRp2416
(dp2417
g67
(dp2418
g75
I3
ssg76
g2412
sg69
(lp2419
g911
asbasbasbag62
(g78
g64
NtRp2420
(dp2421
g67
(dp2422
sg76
g2311
sg69
(lp2423
g62
(g83
g64
NtRp2424
(dp2425
g67
(dp2426
g87
g88
ssg76
g2420
sg69
(lp2427
S'HTTP_CONNECTION'
p2428
asbag62
(g83
g64
NtRp2429
(dp2430
g67
(dp2431
g94
g95
ssg76
g2420
sg69
(lp2432
S':'
asbag62
(g83
g64
NtRp2433
(dp2434
g67
(dp2435
sg76
g2420
sg69
(lp2436
g62
(g63
g64
NtRp2437
(dp2438
g67
(dp2439
g75
I3
ssg76
g2433
sg69
(lp2440
g933
asbasbasbag62
(g78
g64
NtRp2441
(dp2442
g67
(dp2443
sg76
g2311
sg69
(lp2444
g62
(g83
g64
NtRp2445
(dp2446
g67
(dp2447
g87
g88
ssg76
g2441
sg69
(lp2448
S'HTTP_COOKIE'
p2449
asbag62
(g83
g64
NtRp2450
(dp2451
g67
(dp2452
g94
g95
ssg76
g2441
sg69
(lp2453
S':'
asbag62
(g83
g64
NtRp2454
(dp2455
g67
(dp2456
sg76
g2441
sg69
(lp2457
g62
(g63
g64
NtRp2458
(dp2459
g67
(dp2460
g75
I3
ssg76
g2454
sg69
(lp2461
g955
asbasbasbag62
(g78
g64
NtRp2462
(dp2463
g67
(dp2464
sg76
g2311
sg69
(lp2465
g62
(g83
g64
NtRp2466
(dp2467
g67
(dp2468
g87
g88
ssg76
g2462
sg69
(lp2469
S'HTTP_HOST'
p2470
asbag62
(g83
g64
NtRp2471
(dp2472
g67
(dp2473
g94
g95
ssg76
g2462
sg69
(lp2474
S':'
asbag62
(g83
g64
NtRp2475
(dp2476
g67
(dp2477
sg76
g2462
sg69
(lp2478
g62
(g63
g64
NtRp2479
(dp2480
g67
(dp2481
g75
I3
ssg76
g2475
sg69
(lp2482
g977
asbasbasbag62
(g78
g64
NtRp2483
(dp2484
g67
(dp2485
sg76
g2311
sg69
(lp2486
g62
(g83
g64
NtRp2487
(dp2488
g67
(dp2489
g87
g88
ssg76
g2483
sg69
(lp2490
S'HTTP_REFERER'
p2491
asbag62
(g83
g64
NtRp2492
(dp2493
g67
(dp2494
g94
g95
ssg76
g2483
sg69
(lp2495
S':'
asbag62
(g83
g64
NtRp2496
(dp2497
g67
(dp2498
sg76
g2483
sg69
(lp2499
g62
(g63
g64
NtRp2500
(dp2501
g67
(dp2502
g75
I3
ssg76
g2496
sg69
(lp2503
g999
asbasbasbag62
(g78
g64
NtRp2504
(dp2505
g67
(dp2506
sg76
g2311
sg69
(lp2507
g62
(g83
g64
NtRp2508
(dp2509
g67
(dp2510
g87
g88
ssg76
g2504
sg69
(lp2511
S'HTTP_USER_AGENT'
p2512
asbag62
(g83
g64
NtRp2513
(dp2514
g67
(dp2515
g94
g95
ssg76
g2504
sg69
(lp2516
S':'
asbag62
(g83
g64
NtRp2517
(dp2518
g67
(dp2519
sg76
g2504
sg69
(lp2520
g62
(g63
g64
NtRp2521
(dp2522
g67
(dp2523
g75
I3
ssg76
g2517
sg69
(lp2524
g1021
asbasbasbag62
(g78
g64
NtRp2525
(dp2526
g67
(dp2527
sg76
g2311
sg69
(lp2528
g62
(g83
g64
NtRp2529
(dp2530
g67
(dp2531
g87
g88
ssg76
g2525
sg69
(lp2532
S'PATH_INFO'
p2533
asbag62
(g83
g64
NtRp2534
(dp2535
g67
(dp2536
g94
g95
ssg76
g2525
sg69
(lp2537
S':'
asbag62
(g83
g64
NtRp2538
(dp2539
g67
(dp2540
sg76
g2525
sg69
(lp2541
g62
(g63
g64
NtRp2542
(dp2543
g67
(dp2544
g75
I3
ssg76
g2538
sg69
(lp2545
g1085
asbasbasbag62
(g78
g64
NtRp2546
(dp2547
g67
(dp2548
sg76
g2311
sg69
(lp2549
g62
(g83
g64
NtRp2550
(dp2551
g67
(dp2552
g87
g88
ssg76
g2546
sg69
(lp2553
S'QUERY_STRING'
p2554
asbag62
(g83
g64
NtRp2555
(dp2556
g67
(dp2557
g94
g95
ssg76
g2546
sg69
(lp2558
S':'
asbag62
(g83
g64
NtRp2559
(dp2560
g67
(dp2561
sg76
g2546
sg69
(lp2562
g62
(g63
g64
NtRp2563
(dp2564
g67
(dp2565
g75
I3
ssg76
g2559
sg69
(lp2566
S''
asbasbasbag62
(g78
g64
NtRp2567
(dp2568
g67
(dp2569
sg76
g2311
sg69
(lp2570
g62
(g83
g64
NtRp2571
(dp2572
g67
(dp2573
g87
g88
ssg76
g2567
sg69
(lp2574
S'REMOTE_ADDR'
p2575
asbag62
(g83
g64
NtRp2576
(dp2577
g67
(dp2578
g94
g95
ssg76
g2567
sg69
(lp2579
S':'
asbag62
(g83
g64
NtRp2580
(dp2581
g67
(dp2582
sg76
g2567
sg69
(lp2583
g62
(g63
g64
NtRp2584
(dp2585
g67
(dp2586
g75
I3
ssg76
g2580
sg69
(lp2587
g195
asbasbasbag62
(g78
g64
NtRp2588
(dp2589
g67
(dp2590
sg76
g2311
sg69
(lp2591
g62
(g83
g64
NtRp2592
(dp2593
g67
(dp2594
g87
g88
ssg76
g2588
sg69
(lp2595
S'REMOTE_PORT'
p2596
asbag62
(g83
g64
NtRp2597
(dp2598
g67
(dp2599
g94
g95
ssg76
g2588
sg69
(lp2600
S':'
asbag62
(g83
g64
NtRp2601
(dp2602
g67
(dp2603
sg76
g2588
sg69
(lp2604
g62
(g63
g64
NtRp2605
(dp2606
g67
(dp2607
g75
I3
ssg76
g2601
sg69
(lp2608
g1149
asbasbasbag62
(g78
g64
NtRp2609
(dp2610
g67
(dp2611
sg76
g2311
sg69
(lp2612
g62
(g83
g64
NtRp2613
(dp2614
g67
(dp2615
g87
g88
ssg76
g2609
sg69
(lp2616
S'REQUEST_METHOD'
p2617
asbag62
(g83
g64
NtRp2618
(dp2619
g67
(dp2620
g94
g95
ssg76
g2609
sg69
(lp2621
S':'
asbag62
(g83
g64
NtRp2622
(dp2623
g67
(dp2624
sg76
g2609
sg69
(lp2625
g62
(g63
g64
NtRp2626
(dp2627
g67
(dp2628
g75
I3
ssg76
g2622
sg69
(lp2629
g1171
asbasbasbag62
(g78
g64
NtRp2630
(dp2631
g67
(dp2632
sg76
g2311
sg69
(lp2633
g62
(g83
g64
NtRp2634
(dp2635
g67
(dp2636
g87
g88
ssg76
g2630
sg69
(lp2637
S'REQUEST_URI'
p2638
asbag62
(g83
g64
NtRp2639
(dp2640
g67
(dp2641
g94
g95
ssg76
g2630
sg69
(lp2642
S':'
asbag62
(g83
g64
NtRp2643
(dp2644
g67
(dp2645
sg76
g2630
sg69
(lp2646
g62
(g63
g64
NtRp2647
(dp2648
g67
(dp2649
g75
I3
ssg76
g2643
sg69
(lp2650
g1085
asbasbasbag62
(g78
g64
NtRp2651
(dp2652
g67
(dp2653
sg76
g2311
sg69
(lp2654
g62
(g83
g64
NtRp2655
(dp2656
g67
(dp2657
g87
g88
ssg76
g2651
sg69
(lp2658
S'SCRIPT_NAME'
p2659
asbag62
(g83
g64
NtRp2660
(dp2661
g67
(dp2662
g94
g95
ssg76
g2651
sg69
(lp2663
S':'
asbag62
(g83
g64
NtRp2664
(dp2665
g67
(dp2666
sg76
g2651
sg69
(lp2667
g62
(g63
g64
NtRp2668
(dp2669
g67
(dp2670
g75
I3
ssg76
g2664
sg69
(lp2671
S''
asbasbasbag62
(g78
g64
NtRp2672
(dp2673
g67
(dp2674
sg76
g2311
sg69
(lp2675
g62
(g83
g64
NtRp2676
(dp2677
g67
(dp2678
g87
g88
ssg76
g2672
sg69
(lp2679
S'SERVER_NAME'
p2680
asbag62
(g83
g64
NtRp2681
(dp2682
g67
(dp2683
g94
g95
ssg76
g2672
sg69
(lp2684
S':'
asbag62
(g83
g64
NtRp2685
(dp2686
g67
(dp2687
sg76
g2672
sg69
(lp2688
g62
(g63
g64
NtRp2689
(dp2690
g67
(dp2691
g75
I3
ssg76
g2685
sg69
(lp2692
g1235
asbasbasbag62
(g78
g64
NtRp2693
(dp2694
g67
(dp2695
sg76
g2311
sg69
(lp2696
g62
(g83
g64
NtRp2697
(dp2698
g67
(dp2699
g87
g88
ssg76
g2693
sg69
(lp2700
S'SERVER_PORT'
p2701
asbag62
(g83
g64
NtRp2702
(dp2703
g67
(dp2704
g94
g95
ssg76
g2693
sg69
(lp2705
S':'
asbag62
(g83
g64
NtRp2706
(dp2707
g67
(dp2708
sg76
g2693
sg69
(lp2709
g62
(g63
g64
NtRp2710
(dp2711
g67
(dp2712
g75
I3
ssg76
g2706
sg69
(lp2713
g1257
asbasbasbag62
(g78
g64
NtRp2714
(dp2715
g67
(dp2716
sg76
g2311
sg69
(lp2717
g62
(g83
g64
NtRp2718
(dp2719
g67
(dp2720
g87
g88
ssg76
g2714
sg69
(lp2721
S'SERVER_PROTOCOL'
p2722
asbag62
(g83
g64
NtRp2723
(dp2724
g67
(dp2725
g94
g95
ssg76
g2714
sg69
(lp2726
S':'
asbag62
(g83
g64
NtRp2727
(dp2728
g67
(dp2729
sg76
g2714
sg69
(lp2730
g62
(g63
g64
NtRp2731
(dp2732
g67
(dp2733
g75
I3
ssg76
g2727
sg69
(lp2734
g1279
asbasbasbag62
(g78
g64
NtRp2735
(dp2736
g67
(dp2737
sg76
g2311
sg69
(lp2738
g62
(g83
g64
NtRp2739
(dp2740
g67
(dp2741
g87
g88
ssg76
g2735
sg69
(lp2742
S'SERVER_SOFTWARE'
p2743
asbag62
(g83
g64
NtRp2744
(dp2745
g67
(dp2746
g94
g95
ssg76
g2735
sg69
(lp2747
S':'
asbag62
(g83
g64
NtRp2748
(dp2749
g67
(dp2750
sg76
g2735
sg69
(lp2751
g62
(g63
g64
NtRp2752
(dp2753
g67
(dp2754
g75
I3
ssg76
g2748
sg69
(lp2755
g1301
asbasbasbag62
(g78
g64
NtRp2756
(dp2757
g67
(dp2758
sg76
g2311
sg69
(lp2759
g62
(g83
g64
NtRp2760
(dp2761
g67
(dp2762
g87
g88
ssg76
g2756
sg69
(lp2763
S'WEB2PY_ORIGINAL_URI'
p2764
asbag62
(g83
g64
NtRp2765
(dp2766
g67
(dp2767
g94
g95
ssg76
g2756
sg69
(lp2768
S':'
asbag62
(g83
g64
NtRp2769
(dp2770
g67
(dp2771
sg76
g2756
sg69
(lp2772
g62
(g63
g64
NtRp2773
(dp2774
g67
(dp2775
g75
I3
ssg76
g2769
sg69
(lp2776
g1085
asbasbasbag62
(g78
g64
NtRp2777
(dp2778
g67
(dp2779
sg76
g2311
sg69
(lp2780
g62
(g83
g64
NtRp2781
(dp2782
g67
(dp2783
g87
g88
ssg76
g2777
sg69
(lp2784
S'wsgi.errors'
p2785
asbag62
(g83
g64
NtRp2786
(dp2787
g67
(dp2788
g94
g95
ssg76
g2777
sg69
(lp2789
S':'
asbag62
(g83
g64
NtRp2790
(dp2791
g67
(dp2792
sg76
g2777
sg69
(lp2793
g62
(g63
g64
NtRp2794
(dp2795
g67
(dp2796
g75
I3
ssg76
g2790
sg69
(lp2797
S"<open file '<stderr>', mode 'w' at 0x7fc7bb865270>"
p2798
asbasbasbag62
(g78
g64
NtRp2799
(dp2800
g67
(dp2801
sg76
g2311
sg69
(lp2802
g62
(g83
g64
NtRp2803
(dp2804
g67
(dp2805
g87
g88
ssg76
g2799
sg69
(lp2806
S'wsgi.file_wrapper'
p2807
asbag62
(g83
g64
NtRp2808
(dp2809
g67
(dp2810
g94
g95
ssg76
g2799
sg69
(lp2811
S':'
asbag62
(g83
g64
NtRp2812
(dp2813
g67
(dp2814
sg76
g2799
sg69
(lp2815
g62
(g63
g64
NtRp2816
(dp2817
g67
(dp2818
g75
I3
ssg76
g2812
sg69
(lp2819
S'<class wsgiref.util.FileWrapper at 0x1815f58>'
p2820
asbasbasbag62
(g78
g64
NtRp2821
(dp2822
g67
(dp2823
sg76
g2311
sg69
(lp2824
g62
(g83
g64
NtRp2825
(dp2826
g67
(dp2827
g87
g88
ssg76
g2821
sg69
(lp2828
S'wsgi.input'
p2829
asbag62
(g83
g64
NtRp2830
(dp2831
g67
(dp2832
g94
g95
ssg76
g2821
sg69
(lp2833
S':'
asbag62
(g83
g64
NtRp2834
(dp2835
g67
(dp2836
sg76
g2821
sg69
(lp2837
g62
(g63
g64
NtRp2838
(dp2839
g67
(dp2840
g75
I3
ssg76
g2834
sg69
(lp2841
S'<cStringIO.StringO object at 0x7fc7a40c6880>'
p2842
asbasbasbag62
(g78
g64
NtRp2843
(dp2844
g67
(dp2845
sg76
g2311
sg69
(lp2846
g62
(g83
g64
NtRp2847
(dp2848
g67
(dp2849
g87
g88
ssg76
g2843
sg69
(lp2850
S'wsgi.multiprocess'
p2851
asbag62
(g83
g64
NtRp2852
(dp2853
g67
(dp2854
g94
g95
ssg76
g2843
sg69
(lp2855
S':'
asbag62
(g83
g64
NtRp2856
(dp2857
g67
(dp2858
sg76
g2843
sg69
(lp2859
g62
(g63
g64
NtRp2860
(dp2861
g67
(dp2862
g75
I3
ssg76
g2856
sg69
(lp2863
g105
asbasbasbag62
(g78
g64
NtRp2864
(dp2865
g67
(dp2866
sg76
g2311
sg69
(lp2867
g62
(g83
g64
NtRp2868
(dp2869
g67
(dp2870
g87
g88
ssg76
g2864
sg69
(lp2871
S'wsgi.multithread'
p2872
asbag62
(g83
g64
NtRp2873
(dp2874
g67
(dp2875
g94
g95
ssg76
g2864
sg69
(lp2876
S':'
asbag62
(g83
g64
NtRp2877
(dp2878
g67
(dp2879
sg76
g2864
sg69
(lp2880
g62
(g63
g64
NtRp2881
(dp2882
g67
(dp2883
g75
I3
ssg76
g2877
sg69
(lp2884
g1562
asbasbasbag62
(g78
g64
NtRp2885
(dp2886
g67
(dp2887
sg76
g2311
sg69
(lp2888
g62
(g83
g64
NtRp2889
(dp2890
g67
(dp2891
g87
g88
ssg76
g2885
sg69
(lp2892
S'wsgi.run_once'
p2893
asbag62
(g83
g64
NtRp2894
(dp2895
g67
(dp2896
g94
g95
ssg76
g2885
sg69
(lp2897
S':'
asbag62
(g83
g64
NtRp2898
(dp2899
g67
(dp2900
sg76
g2885
sg69
(lp2901
g62
(g63
g64
NtRp2902
(dp2903
g67
(dp2904
g75
I3
ssg76
g2898
sg69
(lp2905
g105
asbasbasbag62
(g78
g64
NtRp2906
(dp2907
g67
(dp2908
sg76
g2311
sg69
(lp2909
g62
(g83
g64
NtRp2910
(dp2911
g67
(dp2912
g87
g88
ssg76
g2906
sg69
(lp2913
S'wsgi.url_scheme'
p2914
asbag62
(g83
g64
NtRp2915
(dp2916
g67
(dp2917
g94
g95
ssg76
g2906
sg69
(lp2918
S':'
asbag62
(g83
g64
NtRp2919
(dp2920
g67
(dp2921
sg76
g2906
sg69
(lp2922
g62
(g63
g64
NtRp2923
(dp2924
g67
(dp2925
g75
I3
ssg76
g2919
sg69
(lp2926
g1605
asbasbasbag62
(g78
g64
NtRp2927
(dp2928
g67
(dp2929
sg76
g2311
sg69
(lp2930
g62
(g83
g64
NtRp2931
(dp2932
g67
(dp2933
g87
g88
ssg76
g2927
sg69
(lp2934
S'wsgi.version'
p2935
asbag62
(g83
g64
NtRp2936
(dp2937
g67
(dp2938
g94
g95
ssg76
g2927
sg69
(lp2939
S':'
asbag62
(g83
g64
NtRp2940
(dp2941
g67
(dp2942
sg76
g2927
sg69
(lp2943
g62
(g63
g64
NtRp2944
(dp2945
g67
(dp2946
g75
I3
ssg76
g2940
sg69
(lp2947
S'1'
asbasbasbasbasbasbasbasbasbasbasbasbasbsS'frames'
p2948
(lp2949
(dp2950
S'file'
p2951
S'/home/goshawk/web2py/gluon/restricted.py'
p2952
sS'dump'
p2953
(dp2954
S'environment'
p2955
S"{'A': <class 'gluon.html.A'>, 'Auth': <class 'gluon.tools.Auth'>, 'B': <class 'gluon.html.B'>, 'BEAUTIFY': <class 'gluon.html.BEAUTIFY'>, 'BODY': <class 'gluon.html.BODY'>, 'BR': <class 'gluon.html.BR'>, 'BUTTON': <class 'gluon.html.BUTTON'>, 'CAT': <class 'gluon.html.CAT'>, 'CENTER': <class 'gluon.html.CENTER'>, 'CLEANUP': <class 'gluon.validators.CLEANUP'>, ...}"
p2956
sS'ccode'
p2957
S'<code object <module> at 0x7fc7a5642230, file "/.../applications/milo/controllers/admin.py", line 4>'
p2958
ssS'lnum'
p2959
I205
sS'lines'
p2960
(dp2961
I200
S'    try:'
p2962
sI201
S'        if type(code) == types.CodeType:'
p2963
sI202
S'            ccode = code'
p2964
sI203
S'        else:'
p2965
sI204
S'            ccode = compile2(code,layer)'
p2966
sI205
S'        exec ccode in environment'
p2967
sI206
S'    except HTTP:'
p2968
sI207
S'        raise'
p2969
sI208
S'    except RestrictedError:'
p2970
sI209
S'        # do not encapsulate (obfuscate) the original RestrictedError'
p2971
ssS'call'
p2972
S"(code='# coding: utf8\\n# try something like\\n\\nimport matl...matrices)\\nresponse._vars=response._caller(index)\\n', environment={'A': <class 'gluon.html.A'>, 'Auth': <class 'gluon.tools.Auth'>, 'B': <class 'gluon.html.B'>, 'BEAUTIFY': <class 'gluon.html.BEAUTIFY'>, 'BODY': <class 'gluon.html.BODY'>, 'BR': <class 'gluon.html.BR'>, 'BUTTON': <class 'gluon.html.BUTTON'>, 'CAT': <class 'gluon.html.CAT'>, 'CENTER': <class 'gluon.html.CENTER'>, 'CLEANUP': <class 'gluon.validators.CLEANUP'>, ...}, layer='/home/goshawk/web2py/applications/milo/controllers/admin.py')"
p2973
sS'func'
p2974
S'restricted'
p2975
sa(dp2976
g2951
S'/home/goshawk/web2py/applications/milo/controllers/admin.py'
p2977
sg2953
(dp2978
sg2959
I10
sg2960
(dp2979
I1
S'# coding: utf8'
p2980
sI2
S'# try something like'
p2981
sI3
S''
sI4
S'import matlab_wrapper'
p2982
sI5
S''
sI6
S'def index():'
p2983
sI7
S'    algorithms = matlab_wrapper.Whisperer.get_algnames()'
p2984
sI8
S'    matrices = matlab_wrapper.Whisperer.get_matrices_info()'
p2985
sI9
S'    return dict(message="hello from admin.py", algorithms=algorithms, matrices_info=matrices)'
p2986
ssg2972
S'()'
p2987
sg2974
S'<module>'
p2988
sa(dp2989
g2951
S'/home/goshawk/web2py/gluon/globals.py'
p2990
sg2953
(dp2991
S'self'
p2992
S'undefined'
p2993
sS'f'
S'<function index>'
p2994
ssg2959
I173
sg2960
(dp2995
I168
S'        self.menu = []             # used by the default view layout'
p2996
sI169
S'        self.files = []            # used by web2py_ajax.html'
p2997
sI170
S'        self.generic_patterns = [] # patterns to allow generic views'
p2998
sI171
S"        self.delimiters = ('{{','}}')"
p2999
sI172
S'        self._vars = None'
p3000
sI173
S'        self._caller = lambda f: f()'
p3001
sI174
S'        self._view_environment = None'
p3002
sI175
S'        self._custom_commit = None'
p3003
sI176
S'        self._custom_rollback = None'
p3004
sI177
S''
ssg2972
S'(f=<function index>)'
p3005
sg2974
S'<lambda>'
p3006
sa(dp3007
g2951
S'/home/goshawk/web2py/applications/milo/controllers/admin.py'
p3008
sg2953
(dp3009
S'matlab_wrapper.Whisperer.get_matrices_info'
p3010
S"<bound method type.get_matrices_info of <class '...ications.milo.modules.matlab_wrapper.Whisperer'>>"
p3011
sS'matrices'
p3012
g2993
sS'global matlab_wrapper'
p3013
S"<module 'applications.milo.modules.matlab_wrappe...om 'applications/milo/modules/matlab_wrapper.py'>"
p3014
sS'matlab_wrapper.Whisperer'
p3015
S"<class 'applications.milo.modules.matlab_wrapper.Whisperer'>"
p3016
ssg2959
I8
sg2960
(dp3017
I1
S'# coding: utf8'
p3018
sI2
S'# try something like'
p3019
sI3
S''
sI4
S'import matlab_wrapper'
p3020
sI5
S''
sI6
S'def index():'
p3021
sI7
S'    algorithms = matlab_wrapper.Whisperer.get_algnames()'
p3022
sI8
S'    matrices = matlab_wrapper.Whisperer.get_matrices_info()'
p3023
sI9
S'    return dict(message="hello from admin.py", algorithms=algorithms, matrices_info=matrices)'
p3024
ssg2972
S'()'
p3025
sg2974
S'index'
p3026
sa(dp3027
g2951
S'/home/goshawk/web2py/applications/milo/modules/matlab_wrapper.py'
p3028
sg2953
(dp3029
S'datetime.datetime.fromtimestamp'
p3030
S'<built-in method fromtimestamp of type object>'
p3031
sS'cls.savepath'
p3032
S"'/home/goshawk/web2py/applications/milo/modules/elaborated_models'"
p3033
sS'global datetime'
p3034
S"<module 'datetime' from '/usr/lib/python2.7/lib-dynload/datetime.so'>"
p3035
sS'global os'
p3036
S"<module 'os' from '/usr/lib/python2.7/os.pyc'>"
p3037
sS'datetime.datetime'
p3038
S"<type 'datetime.datetime'>"
p3039
sS'os.path.join'
p3040
S'<function join>'
p3041
sS'cls'
p3042
S"<class 'applications.milo.modules.matlab_wrapper.Whisperer'>"
p3043
sS'matrices'
p3044
S"{'urm': datetime.datetime(2012, 7, 10, 4, 47, 57, 199956)}"
p3045
sS'os.path'
p3046
S"<module 'posixpath' from '/usr/lib/python2.7/posixpath.pyc'>"
p3047
sS'os.path.getmtime'
p3048
S'<function getmtime>'
p3049
ssg2959
I241
sg2960
(dp3050
I236
S''
sI237
S'    @classmethod'
p3051
sI238
S'    def get_matrices_info(cls):'
p3052
sI239
S'        matrices = dict()'
p3053
sI240
S'        try:'
p3054
sI241
S"            matrices['urm'] = datetime.datetime.fromtimestamp(os.path.getmtime(os.path.join(cls.savepath, 'urm.mat')))"
p3055
sI242
S"            matrices['icm'] = datetime.datetime.fromtimestamp(os.path.getmtime(os.path.join(cls.savepath, 'icm.mat')))"
p3056
sI243
S"            matrices['titles'] = datetime.datetime.fromtimestamp(os.path.getmtime(os.path.join(cls.savepath, 'titles.mat')))"
p3057
sI244
S"            matrices['features'] = datetime.datetime.fromtimestamp(os.path.getmtime(os.path.join(cls.savepath, 'features.mat')))"
p3058
sI245
S'        except:'
p3059
ssg2972
S"(cls=<class 'applications.milo.modules.matlab_wrapper.Whisperer'>)"
p3060
sg2974
S'get_matrices_info'
p3061
sa(dp3062
g2951
S'/usr/lib/python2.7/genericpath.py'
p3063
sg2953
(dp3064
S').st_mtime'
p3065
g2993
sS'global os'
p3066
S"<module 'os' from '/usr/lib/python2.7/os.pyc'>"
p3067
sS'os.stat'
p3068
S'<built-in function stat>'
p3069
sS'filename'
p3070
S"'/home/goshawk/web2py/applications/milo/modules/elaborated_models/icm.mat'"
p3071
ssg2959
I54
sg2960
(dp3072
I49
S'    return os.stat(filename).st_size'
p3073
sI50
S''
sI51
S''
sI52
S'def getmtime(filename):'
p3074
sI53
S'    """Return the last modification time of a file, reported by os.stat()."""'
p3075
sI54
S'    return os.stat(filename).st_mtime'
p3076
sI55
S''
sI56
S''
sI57
S'def getatime(filename):'
p3077
sI58
S'    """Return the last access time of a file, reported by os.stat()."""'
p3078
ssg2972
S"(filename='/home/goshawk/web2py/applications/milo/modules/elaborated_models/icm.mat')"
p3079
sg2974
S'getmtime'
p3080
sasS'pyver'
p3081
S'Python 2.7.3: /usr/bin/python'
p3082
sS'session'
p3083
g62
(g63
g64
NtRp3084
(dp3085
g67
(dp3086
sg69
(lp3087
g62
(g71
g64
NtRp3088
(dp3089
g67
(dp3090
g75
I5
ssg76
Nsg69
(lp3091
sbasbsS'etype'
p3092
S"<type 'exceptions.OSError'>"
p3093
sS'date'
p3094
S'Sun Jul 15 01:11:46 2012'
p3095
sS'response'
p3096
g62
(g63
g64
NtRp3097
(dp3098
g67
(dp3099
sg69
(lp3100
g62
(g71
g64
NtRp3101
(dp3102
g67
(dp3103
g75
I5
ssg76
Nsg69
(lp3104
g62
(g78
g64
NtRp3105
(dp3106
g67
(dp3107
sg76
g3101
sg69
(lp3108
g62
(g83
g64
NtRp3109
(dp3110
g67
(dp3111
g87
g88
ssg76
g3105
sg69
(lp3112
g160
asbag62
(g83
g64
NtRp3113
(dp3114
g67
(dp3115
g94
g95
ssg76
g3105
sg69
(lp3116
S':'
asbag62
(g83
g64
NtRp3117
(dp3118
g67
(dp3119
sg76
g3105
sg69
(lp3120
g62
(g63
g64
NtRp3121
(dp3122
g67
(dp3123
g75
I5
ssg76
g3117
sg69
(lp3124
S'<cStringIO.StringO object at 0x7fc7a40fa730>'
p3125
asbasbasbag62
(g78
g64
NtRp3126
(dp3127
g67
(dp3128
sg76
g3101
sg69
(lp3129
g62
(g83
g64
NtRp3130
(dp3131
g67
(dp3132
g87
g88
ssg76
g3126
sg69
(lp3133
g226
asbag62
(g83
g64
NtRp3134
(dp3135
g67
(dp3136
g94
g95
ssg76
g3126
sg69
(lp3137
S':'
asbag62
(g83
g64
NtRp3138
(dp3139
g67
(dp3140
sg76
g3126
sg69
(lp3141
g62
(g63
g64
NtRp3142
(dp3143
g67
(dp3144
g75
I5
ssg76
g3138
sg69
(lp3145
g62
(g71
g64
NtRp3146
(dp3147
g67
(dp3148
g75
I4
ssg76
Nsg69
(lp3149
g62
(g78
g64
NtRp3150
(dp3151
g67
(dp3152
sg76
g3146
sg69
(lp3153
g62
(g83
g64
NtRp3154
(dp3155
g67
(dp3156
g87
g88
ssg76
g3150
sg69
(lp3157
S'session_id_milo'
p3158
asbag62
(g83
g64
NtRp3159
(dp3160
g67
(dp3161
g94
g95
ssg76
g3150
sg69
(lp3162
S':'
asbag62
(g83
g64
NtRp3163
(dp3164
g67
(dp3165
sg76
g3150
sg69
(lp3166
g62
(g63
g64
NtRp3167
(dp3168
g67
(dp3169
g75
I4
ssg76
g3163
sg69
(lp3170
g62
(g71
g64
NtRp3171
(dp3172
g67
(dp3173
g75
I3
ssg76
Nsg69
(lp3174
g62
(g78
g64
NtRp3175
(dp3176
g67
(dp3177
sg76
g3171
sg69
(lp3178
g62
(g83
g64
NtRp3179
(dp3180
g67
(dp3181
g87
g88
ssg76
g3175
sg69
(lp3182
g276
asbag62
(g83
g64
NtRp3183
(dp3184
g67
(dp3185
g94
g95
ssg76
g3175
sg69
(lp3186
S':'
asbag62
(g83
g64
NtRp3187
(dp3188
g67
(dp3189
sg76
g3175
sg69
(lp3190
g62
(g63
g64
NtRp3191
(dp3192
g67
(dp3193
g75
I3
ssg76
g3187
sg69
(lp3194
S''
asbasbasbag62
(g78
g64
NtRp3195
(dp3196
g67
(dp3197
sg76
g3171
sg69
(lp3198
g62
(g83
g64
NtRp3199
(dp3200
g67
(dp3201
g87
g88
ssg76
g3195
sg69
(lp3202
g297
asbag62
(g83
g64
NtRp3203
(dp3204
g67
(dp3205
g94
g95
ssg76
g3195
sg69
(lp3206
S':'
asbag62
(g83
g64
NtRp3207
(dp3208
g67
(dp3209
sg76
g3195
sg69
(lp3210
g62
(g63
g64
NtRp3211
(dp3212
g67
(dp3213
g75
I3
ssg76
g3207
sg69
(lp3214
S''
asbasbasbag62
(g78
g64
NtRp3215
(dp3216
g67
(dp3217
sg76
g3171
sg69
(lp3218
g62
(g83
g64
NtRp3219
(dp3220
g67
(dp3221
g87
g88
ssg76
g3215
sg69
(lp3222
g318
asbag62
(g83
g64
NtRp3223
(dp3224
g67
(dp3225
g94
g95
ssg76
g3215
sg69
(lp3226
S':'
asbag62
(g83
g64
NtRp3227
(dp3228
g67
(dp3229
sg76
g3215
sg69
(lp3230
g62
(g63
g64
NtRp3231
(dp3232
g67
(dp3233
g75
I3
ssg76
g3227
sg69
(lp3234
S''
asbasbasbag62
(g78
g64
NtRp3235
(dp3236
g67
(dp3237
sg76
g3171
sg69
(lp3238
g62
(g83
g64
NtRp3239
(dp3240
g67
(dp3241
g87
g88
ssg76
g3235
sg69
(lp3242
g339
asbag62
(g83
g64
NtRp3243
(dp3244
g67
(dp3245
g94
g95
ssg76
g3235
sg69
(lp3246
S':'
asbag62
(g83
g64
NtRp3247
(dp3248
g67
(dp3249
sg76
g3235
sg69
(lp3250
g62
(g63
g64
NtRp3251
(dp3252
g67
(dp3253
g75
I3
ssg76
g3247
sg69
(lp3254
S''
asbasbasbag62
(g78
g64
NtRp3255
(dp3256
g67
(dp3257
sg76
g3171
sg69
(lp3258
g62
(g83
g64
NtRp3259
(dp3260
g67
(dp3261
g87
g88
ssg76
g3255
sg69
(lp3262
g360
asbag62
(g83
g64
NtRp3263
(dp3264
g67
(dp3265
g94
g95
ssg76
g3255
sg69
(lp3266
S':'
asbag62
(g83
g64
NtRp3267
(dp3268
g67
(dp3269
sg76
g3255
sg69
(lp3270
g62
(g63
g64
NtRp3271
(dp3272
g67
(dp3273
g75
I3
ssg76
g3267
sg69
(lp3274
S''
asbasbasbag62
(g78
g64
NtRp3275
(dp3276
g67
(dp3277
sg76
g3171
sg69
(lp3278
g62
(g83
g64
NtRp3279
(dp3280
g67
(dp3281
g87
g88
ssg76
g3275
sg69
(lp3282
g381
asbag62
(g83
g64
NtRp3283
(dp3284
g67
(dp3285
g94
g95
ssg76
g3275
sg69
(lp3286
S':'
asbag62
(g83
g64
NtRp3287
(dp3288
g67
(dp3289
sg76
g3275
sg69
(lp3290
g62
(g63
g64
NtRp3291
(dp3292
g67
(dp3293
g75
I3
ssg76
g3287
sg69
(lp3294
S'/'
asbasbasbag62
(g78
g64
NtRp3295
(dp3296
g67
(dp3297
sg76
g3171
sg69
(lp3298
g62
(g83
g64
NtRp3299
(dp3300
g67
(dp3301
g87
g88
ssg76
g3295
sg69
(lp3302
g402
asbag62
(g83
g64
NtRp3303
(dp3304
g67
(dp3305
g94
g95
ssg76
g3295
sg69
(lp3306
S':'
asbag62
(g83
g64
NtRp3307
(dp3308
g67
(dp3309
sg76
g3295
sg69
(lp3310
g62
(g63
g64
NtRp3311
(dp3312
g67
(dp3313
g75
I3
ssg76
g3307
sg69
(lp3314
S''
asbasbasbag62
(g78
g64
NtRp3315
(dp3316
g67
(dp3317
sg76
g3171
sg69
(lp3318
g62
(g83
g64
NtRp3319
(dp3320
g67
(dp3321
g87
g88
ssg76
g3315
sg69
(lp3322
g423
asbag62
(g83
g64
NtRp3323
(dp3324
g67
(dp3325
g94
g95
ssg76
g3315
sg69
(lp3326
S':'
asbag62
(g83
g64
NtRp3327
(dp3328
g67
(dp3329
sg76
g3315
sg69
(lp3330
g62
(g63
g64
NtRp3331
(dp3332
g67
(dp3333
g75
I3
ssg76
g3327
sg69
(lp3334
S''
asbasbasbasbasbasbasbasbasbasbasbag62
(g78
g64
NtRp3335
(dp3336
g67
(dp3337
sg76
g3101
sg69
(lp3338
g62
(g83
g64
NtRp3339
(dp3340
g67
(dp3341
g87
g88
ssg76
g3335
sg69
(lp3342
S'delimiters'
p3343
asbag62
(g83
g64
NtRp3344
(dp3345
g67
(dp3346
g94
g95
ssg76
g3335
sg69
(lp3347
S':'
asbag62
(g83
g64
NtRp3348
(dp3349
g67
(dp3350
sg76
g3335
sg69
(lp3351
g62
(g63
g64
NtRp3352
(dp3353
g67
(dp3354
g75
I5
ssg76
g3348
sg69
(lp3355
g62
(g71
g64
NtRp3356
(dp3357
g67
(dp3358
g75
I4
ssg76
Nsg69
(lp3359
g62
(g78
g64
NtRp3360
(dp3361
g67
(dp3362
sg76
g3356
sg69
(lp3363
g62
(g83
g64
NtRp3364
(dp3365
g67
(dp3366
sg76
g3360
sg69
(lp3367
g62
(g63
g64
NtRp3368
(dp3369
g67
(dp3370
g75
I4
ssg76
g3364
sg69
(lp3371
S'{{'
p3372
asbasbasbag62
(g78
g64
NtRp3373
(dp3374
g67
(dp3375
sg76
g3356
sg69
(lp3376
g62
(g83
g64
NtRp3377
(dp3378
g67
(dp3379
sg76
g3373
sg69
(lp3380
g62
(g63
g64
NtRp3381
(dp3382
g67
(dp3383
g75
I4
ssg76
g3377
sg69
(lp3384
S'}}'
p3385
asbasbasbasbasbasbasbag62
(g78
g64
NtRp3386
(dp3387
g67
(dp3388
sg76
g3101
sg69
(lp3389
g62
(g83
g64
NtRp3390
(dp3391
g67
(dp3392
g87
g88
ssg76
g3386
sg69
(lp3393
S'files'
p3394
asbag62
(g83
g64
NtRp3395
(dp3396
g67
(dp3397
g94
g95
ssg76
g3386
sg69
(lp3398
S':'
asbag62
(g83
g64
NtRp3399
(dp3400
g67
(dp3401
sg76
g3386
sg69
(lp3402
g62
(g63
g64
NtRp3403
(dp3404
g67
(dp3405
g75
I5
ssg76
g3399
sg69
(lp3406
g62
(g71
g64
NtRp3407
(dp3408
g67
(dp3409
g75
I4
ssg76
Nsg69
(lp3410
sbasbasbasbag62
(g78
g64
NtRp3411
(dp3412
g67
(dp3413
sg76
g3101
sg69
(lp3414
g62
(g83
g64
NtRp3415
(dp3416
g67
(dp3417
g87
g88
ssg76
g3411
sg69
(lp3418
S'flash'
p3419
asbag62
(g83
g64
NtRp3420
(dp3421
g67
(dp3422
g94
g95
ssg76
g3411
sg69
(lp3423
S':'
asbag62
(g83
g64
NtRp3424
(dp3425
g67
(dp3426
sg76
g3411
sg69
(lp3427
g62
(g63
g64
NtRp3428
(dp3429
g67
(dp3430
g75
I5
ssg76
g3424
sg69
(lp3431
S''
asbasbasbag62
(g78
g64
NtRp3432
(dp3433
g67
(dp3434
sg76
g3101
sg69
(lp3435
g62
(g83
g64
NtRp3436
(dp3437
g67
(dp3438
g87
g88
ssg76
g3432
sg69
(lp3439
S'generic_patterns'
p3440
asbag62
(g83
g64
NtRp3441
(dp3442
g67
(dp3443
g94
g95
ssg76
g3432
sg69
(lp3444
S':'
asbag62
(g83
g64
NtRp3445
(dp3446
g67
(dp3447
sg76
g3432
sg69
(lp3448
g62
(g63
g64
NtRp3449
(dp3450
g67
(dp3451
g75
I5
ssg76
g3445
sg69
(lp3452
g62
(g71
g64
NtRp3453
(dp3454
g67
(dp3455
g75
I4
ssg76
Nsg69
(lp3456
g62
(g78
g64
NtRp3457
(dp3458
g67
(dp3459
sg76
g3453
sg69
(lp3460
g62
(g83
g64
NtRp3461
(dp3462
g67
(dp3463
sg76
g3457
sg69
(lp3464
g62
(g63
g64
NtRp3465
(dp3466
g67
(dp3467
g75
I4
ssg76
g3461
sg69
(lp3468
S'*'
asbasbasbasbasbasbasbag62
(g78
g64
NtRp3469
(dp3470
g67
(dp3471
sg76
g3101
sg69
(lp3472
g62
(g83
g64
NtRp3473
(dp3474
g67
(dp3475
g87
g88
ssg76
g3469
sg69
(lp3476
S'headers'
p3477
asbag62
(g83
g64
NtRp3478
(dp3479
g67
(dp3480
g94
g95
ssg76
g3469
sg69
(lp3481
S':'
asbag62
(g83
g64
NtRp3482
(dp3483
g67
(dp3484
sg76
g3469
sg69
(lp3485
g62
(g63
g64
NtRp3486
(dp3487
g67
(dp3488
g75
I5
ssg76
g3482
sg69
(lp3489
g62
(g71
g64
NtRp3490
(dp3491
g67
(dp3492
g75
I4
ssg76
Nsg69
(lp3493
g62
(g78
g64
NtRp3494
(dp3495
g67
(dp3496
sg76
g3490
sg69
(lp3497
g62
(g83
g64
NtRp3498
(dp3499
g67
(dp3500
g87
g88
ssg76
g3494
sg69
(lp3501
S'Cache-Control'
p3502
asbag62
(g83
g64
NtRp3503
(dp3504
g67
(dp3505
g94
g95
ssg76
g3494
sg69
(lp3506
S':'
asbag62
(g83
g64
NtRp3507
(dp3508
g67
(dp3509
sg76
g3494
sg69
(lp3510
g62
(g63
g64
NtRp3511
(dp3512
g67
(dp3513
g75
I4
ssg76
g3507
sg69
(lp3514
S'no-store, no-cache, must-revalidate, post-check=0, pre-check=0'
p3515
asbasbasbag62
(g78
g64
NtRp3516
(dp3517
g67
(dp3518
sg76
g3490
sg69
(lp3519
g62
(g83
g64
NtRp3520
(dp3521
g67
(dp3522
g87
g88
ssg76
g3516
sg69
(lp3523
S'Content-Type'
p3524
asbag62
(g83
g64
NtRp3525
(dp3526
g67
(dp3527
g94
g95
ssg76
g3516
sg69
(lp3528
S':'
asbag62
(g83
g64
NtRp3529
(dp3530
g67
(dp3531
sg76
g3516
sg69
(lp3532
g62
(g63
g64
NtRp3533
(dp3534
g67
(dp3535
g75
I4
ssg76
g3529
sg69
(lp3536
S'text/html; charset=utf-8'
p3537
asbasbasbag62
(g78
g64
NtRp3538
(dp3539
g67
(dp3540
sg76
g3490
sg69
(lp3541
g62
(g83
g64
NtRp3542
(dp3543
g67
(dp3544
g87
g88
ssg76
g3538
sg69
(lp3545
S'Expires'
p3546
asbag62
(g83
g64
NtRp3547
(dp3548
g67
(dp3549
g94
g95
ssg76
g3538
sg69
(lp3550
S':'
asbag62
(g83
g64
NtRp3551
(dp3552
g67
(dp3553
sg76
g3538
sg69
(lp3554
g62
(g63
g64
NtRp3555
(dp3556
g67
(dp3557
g75
I4
ssg76
g3551
sg69
(lp3558
S'Sat, 14 Jul 2012 23:11:46 GMT'
p3559
asbasbasbag62
(g78
g64
NtRp3560
(dp3561
g67
(dp3562
sg76
g3490
sg69
(lp3563
g62
(g83
g64
NtRp3564
(dp3565
g67
(dp3566
g87
g88
ssg76
g3560
sg69
(lp3567
S'Pragma'
p3568
asbag62
(g83
g64
NtRp3569
(dp3570
g67
(dp3571
g94
g95
ssg76
g3560
sg69
(lp3572
S':'
asbag62
(g83
g64
NtRp3573
(dp3574
g67
(dp3575
sg76
g3560
sg69
(lp3576
g62
(g63
g64
NtRp3577
(dp3578
g67
(dp3579
g75
I4
ssg76
g3573
sg69
(lp3580
S'no-cache'
p3581
asbasbasbag62
(g78
g64
NtRp3582
(dp3583
g67
(dp3584
sg76
g3490
sg69
(lp3585
g62
(g83
g64
NtRp3586
(dp3587
g67
(dp3588
g87
g88
ssg76
g3582
sg69
(lp3589
S'X-Powered-By'
p3590
asbag62
(g83
g64
NtRp3591
(dp3592
g67
(dp3593
g94
g95
ssg76
g3582
sg69
(lp3594
S':'
asbag62
(g83
g64
NtRp3595
(dp3596
g67
(dp3597
sg76
g3582
sg69
(lp3598
g62
(g63
g64
NtRp3599
(dp3600
g67
(dp3601
g75
I4
ssg76
g3595
sg69
(lp3602
S'web2py'
p3603
asbasbasbasbasbasbasbag62
(g78
g64
NtRp3604
(dp3605
g67
(dp3606
sg76
g3101
sg69
(lp3607
g62
(g83
g64
NtRp3608
(dp3609
g67
(dp3610
g87
g88
ssg76
g3604
sg69
(lp3611
S'menu'
p3612
asbag62
(g83
g64
NtRp3613
(dp3614
g67
(dp3615
g94
g95
ssg76
g3604
sg69
(lp3616
S':'
asbag62
(g83
g64
NtRp3617
(dp3618
g67
(dp3619
sg76
g3604
sg69
(lp3620
g62
(g63
g64
NtRp3621
(dp3622
g67
(dp3623
g75
I5
ssg76
g3617
sg69
(lp3624
g62
(g71
g64
NtRp3625
(dp3626
g67
(dp3627
g75
I4
ssg76
Nsg69
(lp3628
g62
(g78
g64
NtRp3629
(dp3630
g67
(dp3631
sg76
g3625
sg69
(lp3632
g62
(g83
g64
NtRp3633
(dp3634
g67
(dp3635
sg76
g3629
sg69
(lp3636
g62
(g63
g64
NtRp3637
(dp3638
g67
(dp3639
g75
I4
ssg76
g3633
sg69
(lp3640
g62
(g71
g64
NtRp3641
(dp3642
g67
(dp3643
g75
I3
ssg76
Nsg69
(lp3644
g62
(g78
g64
NtRp3645
(dp3646
g67
(dp3647
sg76
g3641
sg69
(lp3648
g62
(g83
g64
NtRp3649
(dp3650
g67
(dp3651
sg76
g3645
sg69
(lp3652
g62
(g63
g64
NtRp3653
(dp3654
g67
(dp3655
g75
I3
ssg76
g3649
sg69
(lp3656
cgluon.languages
lazyT_unpickle
p3657
(S't\x04\x00\x00\x00Home'
tRp3658
asbasbasbag62
(g78
g64
NtRp3659
(dp3660
g67
(dp3661
sg76
g3641
sg69
(lp3662
g62
(g83
g64
NtRp3663
(dp3664
g67
(dp3665
sg76
g3659
sg69
(lp3666
g62
(g63
g64
NtRp3667
(dp3668
g67
(dp3669
g75
I3
ssg76
g3663
sg69
(lp3670
g105
asbasbasbag62
(g78
g64
NtRp3671
(dp3672
g67
(dp3673
sg76
g3641
sg69
(lp3674
g62
(g83
g64
NtRp3675
(dp3676
g67
(dp3677
sg76
g3671
sg69
(lp3678
g62
(g63
g64
NtRp3679
(dp3680
g67
(dp3681
g75
I3
ssg76
g3675
sg69
(lp3682
S'/milo/default/index'
p3683
asbasbasbag62
(g78
g64
NtRp3684
(dp3685
g67
(dp3686
sg76
g3641
sg69
(lp3687
g62
(g83
g64
NtRp3688
(dp3689
g67
(dp3690
sg76
g3684
sg69
(lp3691
g62
(g63
g64
NtRp3692
(dp3693
g67
(dp3694
g75
I3
ssg76
g3688
sg69
(lp3695
g62
(g71
g64
NtRp3696
(dp3697
g67
(dp3698
g75
I2
ssg76
Nsg69
(lp3699
sbasbasbasbasbasbasbasbag62
(g78
g64
NtRp3700
(dp3701
g67
(dp3702
sg76
g3625
sg69
(lp3703
g62
(g83
g64
NtRp3704
(dp3705
g67
(dp3706
sg76
g3700
sg69
(lp3707
g62
(g63
g64
NtRp3708
(dp3709
g67
(dp3710
g75
I4
ssg76
g3704
sg69
(lp3711
g62
(g71
g64
NtRp3712
(dp3713
g67
(dp3714
g75
I3
ssg76
Nsg69
(lp3715
g62
(g78
g64
NtRp3716
(dp3717
g67
(dp3718
sg76
g3712
sg69
(lp3719
g62
(g83
g64
NtRp3720
(dp3721
g67
(dp3722
sg76
g3716
sg69
(lp3723
g62
(g63
g64
NtRp3724
(dp3725
g67
(dp3726
g75
I3
ssg76
g3720
sg69
(lp3727
g3657
(S't\x05\x00\x00\x00Admin'
tRp3728
asbasbasbag62
(g78
g64
NtRp3729
(dp3730
g67
(dp3731
sg76
g3712
sg69
(lp3732
g62
(g83
g64
NtRp3733
(dp3734
g67
(dp3735
sg76
g3729
sg69
(lp3736
g62
(g63
g64
NtRp3737
(dp3738
g67
(dp3739
g75
I3
ssg76
g3733
sg69
(lp3740
g105
asbasbasbag62
(g78
g64
NtRp3741
(dp3742
g67
(dp3743
sg76
g3712
sg69
(lp3744
g62
(g83
g64
NtRp3745
(dp3746
g67
(dp3747
sg76
g3741
sg69
(lp3748
g62
(g63
g64
NtRp3749
(dp3750
g67
(dp3751
g75
I3
ssg76
g3745
sg69
(lp3752
S'/milo/admin/index'
p3753
asbasbasbag62
(g78
g64
NtRp3754
(dp3755
g67
(dp3756
sg76
g3712
sg69
(lp3757
g62
(g83
g64
NtRp3758
(dp3759
g67
(dp3760
sg76
g3754
sg69
(lp3761
g62
(g63
g64
NtRp3762
(dp3763
g67
(dp3764
g75
I3
ssg76
g3758
sg69
(lp3765
g62
(g71
g64
NtRp3766
(dp3767
g67
(dp3768
g75
I2
ssg76
Nsg69
(lp3769
sbasbasbasbasbasbasbasbag62
(g78
g64
NtRp3770
(dp3771
g67
(dp3772
sg76
g3625
sg69
(lp3773
g62
(g83
g64
NtRp3774
(dp3775
g67
(dp3776
sg76
g3770
sg69
(lp3777
g62
(g63
g64
NtRp3778
(dp3779
g67
(dp3780
g75
I4
ssg76
g3774
sg69
(lp3781
g62
(g71
g64
NtRp3782
(dp3783
g67
(dp3784
g75
I3
ssg76
Nsg69
(lp3785
g62
(g78
g64
NtRp3786
(dp3787
g67
(dp3788
sg76
g3782
sg69
(lp3789
g62
(g83
g64
NtRp3790
(dp3791
g67
(dp3792
sg76
g3786
sg69
(lp3793
g62
(g63
g64
NtRp3794
(dp3795
g67
(dp3796
g75
I3
ssg76
g3790
sg69
(lp3797
g62
(cgluon.html
SPAN
p3798
g64
NtRp3799
(dp3800
g67
(dp3801
g87
S'color:yellow'
p3802
ssg76
Nsg69
(lp3803
g3603
asbasbasbasbag62
(g78
g64
NtRp3804
(dp3805
g67
(dp3806
sg76
g3782
sg69
(lp3807
g62
(g83
g64
NtRp3808
(dp3809
g67
(dp3810
sg76
g3804
sg69
(lp3811
g62
(g63
g64
NtRp3812
(dp3813
g67
(dp3814
g75
I3
ssg76
g3808
sg69
(lp3815
g105
asbasbasbag62
(g78
g64
NtRp3816
(dp3817
g67
(dp3818
sg76
g3782
sg69
(lp3819
g62
(g83
g64
NtRp3820
(dp3821
g67
(dp3822
sg76
g3816
sg69
(lp3823
g62
(g63
g64
NtRp3824
(dp3825
g67
(dp3826
g75
I3
ssg76
g3820
sg69
(lp3827
S'None'
p3828
asbasbasbag62
(g78
g64
NtRp3829
(dp3830
g67
(dp3831
sg76
g3782
sg69
(lp3832
g62
(g83
g64
NtRp3833
(dp3834
g67
(dp3835
sg76
g3829
sg69
(lp3836
g62
(g63
g64
NtRp3837
(dp3838
g67
(dp3839
g75
I3
ssg76
g3833
sg69
(lp3840
g62
(g71
g64
NtRp3841
(dp3842
g67
(dp3843
g75
I2
ssg76
Nsg69
(lp3844
g62
(g78
g64
NtRp3845
(dp3846
g67
(dp3847
sg76
g3841
sg69
(lp3848
g62
(g83
g64
NtRp3849
(dp3850
g67
(dp3851
sg76
g3845
sg69
(lp3852
g62
(g63
g64
NtRp3853
(dp3854
g67
(dp3855
g75
I2
ssg76
g3849
sg69
(lp3856
g62
(g71
g64
NtRp3857
(dp3858
g67
(dp3859
g75
I1
ssg76
Nsg69
(lp3860
g62
(g78
g64
NtRp3861
(dp3862
g67
(dp3863
sg76
g3857
sg69
(lp3864
g62
(g83
g64
NtRp3865
(dp3866
g67
(dp3867
sg76
g3861
sg69
(lp3868
g62
(g63
g64
NtRp3869
(dp3870
g67
(dp3871
g75
I1
ssg76
g3865
sg69
(lp3872
g3657
(S's\x08\x00\x00\x00My Sites'
tRp3873
asbasbasbag62
(g78
g64
NtRp3874
(dp3875
g67
(dp3876
sg76
g3857
sg69
(lp3877
g62
(g83
g64
NtRp3878
(dp3879
g67
(dp3880
sg76
g3874
sg69
(lp3881
g62
(g63
g64
NtRp3882
(dp3883
g67
(dp3884
g75
I1
ssg76
g3878
sg69
(lp3885
I00
asbasbasbag62
(g78
g64
NtRp3886
(dp3887
g67
(dp3888
sg76
g3857
sg69
(lp3889
g62
(g83
g64
NtRp3890
(dp3891
g67
(dp3892
sg76
g3886
sg69
(lp3893
g62
(g63
g64
NtRp3894
(dp3895
g67
(dp3896
g75
I1
ssg76
g3890
sg69
(lp3897
S'/admin/default/site'
p3898
asbasbasbasbasbasbasbag62
(g78
g64
NtRp3899
(dp3900
g67
(dp3901
sg76
g3841
sg69
(lp3902
g62
(g83
g64
NtRp3903
(dp3904
g67
(dp3905
sg76
g3899
sg69
(lp3906
g62
(g63
g64
NtRp3907
(dp3908
g67
(dp3909
g75
I2
ssg76
g3903
sg69
(lp3910
g62
(g71
g64
NtRp3911
(dp3912
g67
(dp3913
g75
I1
ssg76
Nsg69
(lp3914
g62
(g78
g64
NtRp3915
(dp3916
g67
(dp3917
sg76
g3911
sg69
(lp3918
g62
(g83
g64
NtRp3919
(dp3920
g67
(dp3921
sg76
g3915
sg69
(lp3922
g62
(g63
g64
NtRp3923
(dp3924
g67
(dp3925
g75
I1
ssg76
g3919
sg69
(lp3926
g3657
(S's\x08\x00\x00\x00This App'
tRp3927
asbasbasbag62
(g78
g64
NtRp3928
(dp3929
g67
(dp3930
sg76
g3911
sg69
(lp3931
g62
(g83
g64
NtRp3932
(dp3933
g67
(dp3934
sg76
g3928
sg69
(lp3935
g62
(g63
g64
NtRp3936
(dp3937
g67
(dp3938
g75
I1
ssg76
g3932
sg69
(lp3939
I00
asbasbasbag62
(g78
g64
NtRp3940
(dp3941
g67
(dp3942
sg76
g3911
sg69
(lp3943
g62
(g83
g64
NtRp3944
(dp3945
g67
(dp3946
sg76
g3940
sg69
(lp3947
g62
(g63
g64
NtRp3948
(dp3949
g67
(dp3950
g75
I1
ssg76
g3944
sg69
(lp3951
S'/admin/default/design/milo'
p3952
asbasbasbag62
(g78
g64
NtRp3953
(dp3954
g67
(dp3955
sg76
g3911
sg69
(lp3956
g62
(g83
g64
NtRp3957
(dp3958
g67
(dp3959
sg76
g3953
sg69
(lp3960
g62
(g63
g64
NtRp3961
(dp3962
g67
(dp3963
g75
I1
ssg76
g3957
sg69
(lp3964
(lp3965
(g3657
(S't\n\x00\x00\x00Controller'
tRp3966
I00
S'/admin/default/edit/milo/controllers/admin.py'
tp3967
a(g3657
(S't\x04\x00\x00\x00View'
tRp3968
I00
S'/admin/default/edit/milo/views/admin/index.html'
tp3969
a(g3657
(S't\x06\x00\x00\x00Layout'
tRp3970
I00
S'/admin/default/edit/milo/views/layout.html'
tp3971
a(g3657
(S't\n\x00\x00\x00Stylesheet'
tRp3972
I00
S'/admin/default/edit/milo/static/css/web2py.css'
tp3973
a(g3657
(S's\x08\x00\x00\x00DB Model'
tRp3974
I00
S'/admin/default/edit/milo/models/db.py'
tp3975
a(g3657
(S's\n\x00\x00\x00Menu Model'
tRp3976
I00
S'/admin/default/edit/milo/models/menu.py'
tp3977
a(g3657
(S't\x08\x00\x00\x00Database'
tRp3978
I00
S'/milo/appadmin/index'
tp3979
a(g3657
(S't\x06\x00\x00\x00Errors'
tRp3980
I00
S'/admin/default/errors/milo'
tp3981
a(g3657
(S't\x05\x00\x00\x00About'
tRp3982
I00
S'/admin/default/about/milo'
tp3983
aasbasbasbasbasbasbasbag62
(g78
g64
NtRp3984
(dp3985
g67
(dp3986
sg76
g3841
sg69
(lp3987
g62
(g83
g64
NtRp3988
(dp3989
g67
(dp3990
sg76
g3984
sg69
(lp3991
g62
(g63
g64
NtRp3992
(dp3993
g67
(dp3994
g75
I2
ssg76
g3988
sg69
(lp3995
g62
(g71
g64
NtRp3996
(dp3997
g67
(dp3998
g75
I1
ssg76
Nsg69
(lp3999
g62
(g78
g64
NtRp4000
(dp4001
g67
(dp4002
sg76
g3996
sg69
(lp4003
g62
(g83
g64
NtRp4004
(dp4005
g67
(dp4006
sg76
g4000
sg69
(lp4007
g62
(g63
g64
NtRp4008
(dp4009
g67
(dp4010
g75
I1
ssg76
g4004
sg69
(lp4011
S'web2py.com'
p4012
asbasbasbag62
(g78
g64
NtRp4013
(dp4014
g67
(dp4015
sg76
g3996
sg69
(lp4016
g62
(g83
g64
NtRp4017
(dp4018
g67
(dp4019
sg76
g4013
sg69
(lp4020
g62
(g63
g64
NtRp4021
(dp4022
g67
(dp4023
g75
I1
ssg76
g4017
sg69
(lp4024
I00
asbasbasbag62
(g78
g64
NtRp4025
(dp4026
g67
(dp4027
sg76
g3996
sg69
(lp4028
g62
(g83
g64
NtRp4029
(dp4030
g67
(dp4031
sg76
g4025
sg69
(lp4032
g62
(g63
g64
NtRp4033
(dp4034
g67
(dp4035
g75
I1
ssg76
g4029
sg69
(lp4036
S'http://www.web2py.com'
p4037
asbasbasbag62
(g78
g64
NtRp4038
(dp4039
g67
(dp4040
sg76
g3996
sg69
(lp4041
g62
(g83
g64
NtRp4042
(dp4043
g67
(dp4044
sg76
g4038
sg69
(lp4045
g62
(g63
g64
NtRp4046
(dp4047
g67
(dp4048
g75
I1
ssg76
g4042
sg69
(lp4049
(lp4050
(g3657
(S't\x08\x00\x00\x00Download'
tRp4051
I00
S'http://www.web2py.com/examples/default/download'
p4052
tp4053
a(g3657
(S't\x07\x00\x00\x00Support'
tRp4054
I00
S'http://www.web2py.com/examples/default/support'
p4055
tp4056
a(g3657
(S't\x04\x00\x00\x00Demo'
tRp4057
I00
S'http://web2py.com/demo_admin'
p4058
tp4059
a(g3657
(S's\x0e\x00\x00\x00Quick Examples'
tRp4060
I00
S'http://web2py.com/examples/default/examples'
p4061
tp4062
a(g3657
(S't\x03\x00\x00\x00FAQ'
tRp4063
I00
S'http://web2py.com/AlterEgo'
p4064
tp4065
a(g3657
(S't\x06\x00\x00\x00Videos'
tRp4066
I00
S'http://www.web2py.com/examples/default/videos/'
p4067
tp4068
a(g3657
(S's\x11\x00\x00\x00Free Applications'
tRp4069
I00
S'http://web2py.com/appliances'
p4070
tp4071
a(g3657
(S't\x07\x00\x00\x00Plugins'
tRp4072
I00
S'http://web2py.com/plugins'
p4073
tp4074
a(g3657
(S't\x07\x00\x00\x00Layouts'
tRp4075
I00
S'http://web2py.com/layouts'
p4076
tp4077
a(g3657
(S't\x07\x00\x00\x00Recipes'
tRp4078
I00
S'http://web2pyslices.com/'
p4079
tp4080
a(g3657
(S't\x08\x00\x00\x00Semantic'
tRp4081
I00
S'http://web2py.com/semantic'
p4082
tp4083
aasbasbasbasbasbasbasbag62
(g78
g64
NtRp4084
(dp4085
g67
(dp4086
sg76
g3841
sg69
(lp4087
g62
(g83
g64
NtRp4088
(dp4089
g67
(dp4090
sg76
g4084
sg69
(lp4091
g62
(g63
g64
NtRp4092
(dp4093
g67
(dp4094
g75
I2
ssg76
g4088
sg69
(lp4095
g62
(g71
g64
NtRp4096
(dp4097
g67
(dp4098
g75
I1
ssg76
Nsg69
(lp4099
g62
(g78
g64
NtRp4100
(dp4101
g67
(dp4102
sg76
g4096
sg69
(lp4103
g62
(g83
g64
NtRp4104
(dp4105
g67
(dp4106
sg76
g4100
sg69
(lp4107
g62
(g63
g64
NtRp4108
(dp4109
g67
(dp4110
g75
I1
ssg76
g4104
sg69
(lp4111
g3657
(S't\r\x00\x00\x00Documentation'
tRp4112
asbasbasbag62
(g78
g64
NtRp4113
(dp4114
g67
(dp4115
sg76
g4096
sg69
(lp4116
g62
(g83
g64
NtRp4117
(dp4118
g67
(dp4119
sg76
g4113
sg69
(lp4120
g62
(g63
g64
NtRp4121
(dp4122
g67
(dp4123
g75
I1
ssg76
g4117
sg69
(lp4124
I00
asbasbasbag62
(g78
g64
NtRp4125
(dp4126
g67
(dp4127
sg76
g4096
sg69
(lp4128
g62
(g83
g64
NtRp4129
(dp4130
g67
(dp4131
sg76
g4125
sg69
(lp4132
g62
(g63
g64
NtRp4133
(dp4134
g67
(dp4135
g75
I1
ssg76
g4129
sg69
(lp4136
S'http://www.web2py.com/book'
p4137
asbasbasbag62
(g78
g64
NtRp4138
(dp4139
g67
(dp4140
sg76
g4096
sg69
(lp4141
g62
(g83
g64
NtRp4142
(dp4143
g67
(dp4144
sg76
g4138
sg69
(lp4145
g62
(g63
g64
NtRp4146
(dp4147
g67
(dp4148
g75
I1
ssg76
g4142
sg69
(lp4149
(lp4150
(g3657
(S't\x07\x00\x00\x00Preface'
tRp4151
I00
S'http://www.web2py.com/book/default/chapter/00'
p4152
tp4153
a(g3657
(S't\x0c\x00\x00\x00Introduction'
tRp4154
I00
S'http://www.web2py.com/book/default/chapter/01'
p4155
tp4156
a(g3657
(S't\x06\x00\x00\x00Python'
tRp4157
I00
S'http://www.web2py.com/book/default/chapter/02'
p4158
tp4159
a(g3657
(S't\x08\x00\x00\x00Overview'
tRp4160
I00
S'http://www.web2py.com/book/default/chapter/03'
p4161
tp4162
a(g3657
(S's\x08\x00\x00\x00The Core'
tRp4163
I00
S'http://www.web2py.com/book/default/chapter/04'
p4164
tp4165
a(g3657
(S's\t\x00\x00\x00The Views'
tRp4166
I00
S'http://www.web2py.com/book/default/chapter/05'
p4167
tp4168
a(g3657
(S't\x08\x00\x00\x00Database'
tRp4169
I00
S'http://www.web2py.com/book/default/chapter/06'
p4170
tp4171
a(g3657
(S's\x14\x00\x00\x00Forms and Validators'
tRp4172
I00
S'http://www.web2py.com/book/default/chapter/07'
p4173
tp4174
a(g3657
(S's\r\x00\x00\x00Email and SMS'
tRp4175
I00
S'http://www.web2py.com/book/default/chapter/08'
p4176
tp4177
a(g3657
(S's\x0e\x00\x00\x00Access Control'
tRp4178
I00
S'http://www.web2py.com/book/default/chapter/09'
p4179
tp4180
a(g3657
(S't\x08\x00\x00\x00Services'
tRp4181
I00
S'http://www.web2py.com/book/default/chapter/10'
p4182
tp4183
a(g3657
(S's\x0c\x00\x00\x00Ajax Recipes'
tRp4184
I00
S'http://www.web2py.com/book/default/chapter/11'
p4185
tp4186
a(g3657
(S's\x16\x00\x00\x00Components and Plugins'
tRp4187
I00
S'http://www.web2py.com/book/default/chapter/12'
p4188
tp4189
a(g3657
(S's\x12\x00\x00\x00Deployment Recipes'
tRp4190
I00
S'http://www.web2py.com/book/default/chapter/13'
p4191
tp4192
a(g3657
(S's\r\x00\x00\x00Other Recipes'
tRp4193
I00
S'http://www.web2py.com/book/default/chapter/14'
p4194
tp4195
a(g3657
(S's\r\x00\x00\x00Buy this book'
tRp4196
I00
S'http://stores.lulu.com/web2py'
p4197
tp4198
aasbasbasbasbasbasbasbag62
(g78
g64
NtRp4199
(dp4200
g67
(dp4201
sg76
g3841
sg69
(lp4202
g62
(g83
g64
NtRp4203
(dp4204
g67
(dp4205
sg76
g4199
sg69
(lp4206
g62
(g63
g64
NtRp4207
(dp4208
g67
(dp4209
g75
I2
ssg76
g4203
sg69
(lp4210
g62
(g71
g64
NtRp4211
(dp4212
g67
(dp4213
g75
I1
ssg76
Nsg69
(lp4214
g62
(g78
g64
NtRp4215
(dp4216
g67
(dp4217
sg76
g4211
sg69
(lp4218
g62
(g83
g64
NtRp4219
(dp4220
g67
(dp4221
sg76
g4215
sg69
(lp4222
g62
(g63
g64
NtRp4223
(dp4224
g67
(dp4225
g75
I1
ssg76
g4219
sg69
(lp4226
g3657
(S't\t\x00\x00\x00Community'
tRp4227
asbasbasbag62
(g78
g64
NtRp4228
(dp4229
g67
(dp4230
sg76
g4211
sg69
(lp4231
g62
(g83
g64
NtRp4232
(dp4233
g67
(dp4234
sg76
g4228
sg69
(lp4235
g62
(g63
g64
NtRp4236
(dp4237
g67
(dp4238
g75
I1
ssg76
g4232
sg69
(lp4239
I00
asbasbasbag62
(g78
g64
NtRp4240
(dp4241
g67
(dp4242
sg76
g4211
sg69
(lp4243
g62
(g83
g64
NtRp4244
(dp4245
g67
(dp4246
sg76
g4240
sg69
(lp4247
g62
(g63
g64
NtRp4248
(dp4249
g67
(dp4250
g75
I1
ssg76
g4244
sg69
(lp4251
Nasbasbasbag62
(g78
g64
NtRp4252
(dp4253
g67
(dp4254
sg76
g4211
sg69
(lp4255
g62
(g83
g64
NtRp4256
(dp4257
g67
(dp4258
sg76
g4252
sg69
(lp4259
g62
(g63
g64
NtRp4260
(dp4261
g67
(dp4262
g75
I1
ssg76
g4256
sg69
(lp4263
(lp4264
(g3657
(S't\x06\x00\x00\x00Groups'
tRp4265
I00
S'http://www.web2py.com/examples/default/usergroups'
p4266
tp4267
a(g3657
(S't\x07\x00\x00\x00Twitter'
tRp4268
I00
S'http://twitter.com/web2py'
p4269
tp4270
a(g3657
(S's\t\x00\x00\x00Live Chat'
tRp4271
I00
S'http://webchat.freenode.net/?channels=web2py'
p4272
tp4273
aasbasbasbasbasbasbasbag62
(g78
g64
NtRp4274
(dp4275
g67
(dp4276
sg76
g3841
sg69
(lp4277
g62
(g83
g64
NtRp4278
(dp4279
g67
(dp4280
sg76
g4274
sg69
(lp4281
g62
(g63
g64
NtRp4282
(dp4283
g67
(dp4284
g75
I2
ssg76
g4278
sg69
(lp4285
g62
(g71
g64
NtRp4286
(dp4287
g67
(dp4288
g75
I1
ssg76
Nsg69
(lp4289
g62
(g78
g64
NtRp4290
(dp4291
g67
(dp4292
sg76
g4286
sg69
(lp4293
g62
(g83
g64
NtRp4294
(dp4295
g67
(dp4296
sg76
g4290
sg69
(lp4297
g62
(g63
g64
NtRp4298
(dp4299
g67
(dp4300
g75
I1
ssg76
g4294
sg69
(lp4301
g3657
(S't\x07\x00\x00\x00Plugins'
tRp4302
asbasbasbag62
(g78
g64
NtRp4303
(dp4304
g67
(dp4305
sg76
g4286
sg69
(lp4306
g62
(g83
g64
NtRp4307
(dp4308
g67
(dp4309
sg76
g4303
sg69
(lp4310
g62
(g63
g64
NtRp4311
(dp4312
g67
(dp4313
g75
I1
ssg76
g4307
sg69
(lp4314
I00
asbasbasbag62
(g78
g64
NtRp4315
(dp4316
g67
(dp4317
sg76
g4286
sg69
(lp4318
g62
(g83
g64
NtRp4319
(dp4320
g67
(dp4321
sg76
g4315
sg69
(lp4322
g62
(g63
g64
NtRp4323
(dp4324
g67
(dp4325
g75
I1
ssg76
g4319
sg69
(lp4326
Nasbasbasbag62
(g78
g64
NtRp4327
(dp4328
g67
(dp4329
sg76
g4286
sg69
(lp4330
g62
(g83
g64
NtRp4331
(dp4332
g67
(dp4333
sg76
g4327
sg69
(lp4334
g62
(g63
g64
NtRp4335
(dp4336
g67
(dp4337
g75
I1
ssg76
g4331
sg69
(lp4338
(lp4339
(S'plugin_wiki'
p4340
I00
S'http://web2py.com/examples/default/download'
p4341
tp4342
a(g3657
(S's\r\x00\x00\x00Other Plugins'
tRp4343
I00
g4073
tp4344
a(g3657
(S's\x0e\x00\x00\x00Layout Plugins'
tRp4345
I00
g4076
tp4346
aasbasbasbasbasbasbasbasbasbasbasbasbasbasbasbasbasbasbasbag62
(g78
g64
NtRp4347
(dp4348
g67
(dp4349
sg76
g3101
sg69
(lp4350
g62
(g83
g64
NtRp4351
(dp4352
g67
(dp4353
g87
g88
ssg76
g4347
sg69
(lp4354
S'meta'
p4355
asbag62
(g83
g64
NtRp4356
(dp4357
g67
(dp4358
g94
g95
ssg76
g4347
sg69
(lp4359
S':'
asbag62
(g83
g64
NtRp4360
(dp4361
g67
(dp4362
sg76
g4347
sg69
(lp4363
g62
(g63
g64
NtRp4364
(dp4365
g67
(dp4366
g75
I5
ssg76
g4360
sg69
(lp4367
g62
(g71
g64
NtRp4368
(dp4369
g67
(dp4370
g75
I4
ssg76
Nsg69
(lp4371
g62
(g78
g64
NtRp4372
(dp4373
g67
(dp4374
sg76
g4368
sg69
(lp4375
g62
(g83
g64
NtRp4376
(dp4377
g67
(dp4378
g87
g88
ssg76
g4372
sg69
(lp4379
S'author'
p4380
asbag62
(g83
g64
NtRp4381
(dp4382
g67
(dp4383
g94
g95
ssg76
g4372
sg69
(lp4384
S':'
asbag62
(g83
g64
NtRp4385
(dp4386
g67
(dp4387
sg76
g4372
sg69
(lp4388
g62
(g63
g64
NtRp4389
(dp4390
g67
(dp4391
g75
I4
ssg76
g4385
sg69
(lp4392
S'Vincenzo Ampolo <vincenzo.ampolo@gmail.com>'
p4393
asbasbasbag62
(g78
g64
NtRp4394
(dp4395
g67
(dp4396
sg76
g4368
sg69
(lp4397
g62
(g83
g64
NtRp4398
(dp4399
g67
(dp4400
g87
g88
ssg76
g4394
sg69
(lp4401
S'copyright'
p4402
asbag62
(g83
g64
NtRp4403
(dp4404
g67
(dp4405
g94
g95
ssg76
g4394
sg69
(lp4406
S':'
asbag62
(g83
g64
NtRp4407
(dp4408
g67
(dp4409
sg76
g4394
sg69
(lp4410
g62
(g63
g64
NtRp4411
(dp4412
g67
(dp4413
g75
I4
ssg76
g4407
sg69
(lp4414
S'Copyright 2012'
p4415
asbasbasbag62
(g78
g64
NtRp4416
(dp4417
g67
(dp4418
sg76
g4368
sg69
(lp4419
g62
(g83
g64
NtRp4420
(dp4421
g67
(dp4422
g87
g88
ssg76
g4416
sg69
(lp4423
S'description'
p4424
asbag62
(g83
g64
NtRp4425
(dp4426
g67
(dp4427
g94
g95
ssg76
g4416
sg69
(lp4428
S':'
asbag62
(g83
g64
NtRp4429
(dp4430
g67
(dp4431
sg76
g4416
sg69
(lp4432
g62
(g63
g64
NtRp4433
(dp4434
g67
(dp4435
g75
I4
ssg76
g4429
sg69
(lp4436
S'Milo recommendation system'
p4437
asbasbasbag62
(g78
g64
NtRp4438
(dp4439
g67
(dp4440
sg76
g4368
sg69
(lp4441
g62
(g83
g64
NtRp4442
(dp4443
g67
(dp4444
g87
g88
ssg76
g4438
sg69
(lp4445
S'generator'
p4446
asbag62
(g83
g64
NtRp4447
(dp4448
g67
(dp4449
g94
g95
ssg76
g4438
sg69
(lp4450
S':'
asbag62
(g83
g64
NtRp4451
(dp4452
g67
(dp4453
sg76
g4438
sg69
(lp4454
g62
(g63
g64
NtRp4455
(dp4456
g67
(dp4457
g75
I4
ssg76
g4451
sg69
(lp4458
S'Web2py Web Framework'
p4459
asbasbasbag62
(g78
g64
NtRp4460
(dp4461
g67
(dp4462
sg76
g4368
sg69
(lp4463
g62
(g83
g64
NtRp4464
(dp4465
g67
(dp4466
g87
g88
ssg76
g4460
sg69
(lp4467
S'keywords'
p4468
asbag62
(g83
g64
NtRp4469
(dp4470
g67
(dp4471
g94
g95
ssg76
g4460
sg69
(lp4472
S':'
asbag62
(g83
g64
NtRp4473
(dp4474
g67
(dp4475
sg76
g4460
sg69
(lp4476
g62
(g63
g64
NtRp4477
(dp4478
g67
(dp4479
g75
I4
ssg76
g4473
sg69
(lp4480
S'web2py, python, framework'
p4481
asbasbasbasbasbasbasbag62
(g78
g64
NtRp4482
(dp4483
g67
(dp4484
sg76
g3101
sg69
(lp4485
g62
(g83
g64
NtRp4486
(dp4487
g67
(dp4488
g87
g88
ssg76
g4482
sg69
(lp4489
S'postprocessing'
p4490
asbag62
(g83
g64
NtRp4491
(dp4492
g67
(dp4493
g94
g95
ssg76
g4482
sg69
(lp4494
S':'
asbag62
(g83
g64
NtRp4495
(dp4496
g67
(dp4497
sg76
g4482
sg69
(lp4498
g62
(g63
g64
NtRp4499
(dp4500
g67
(dp4501
g75
I5
ssg76
g4495
sg69
(lp4502
g62
(g71
g64
NtRp4503
(dp4504
g67
(dp4505
g75
I4
ssg76
Nsg69
(lp4506
sbasbasbasbag62
(g78
g64
NtRp4507
(dp4508
g67
(dp4509
sg76
g3101
sg69
(lp4510
g62
(g83
g64
NtRp4511
(dp4512
g67
(dp4513
g87
g88
ssg76
g4507
sg69
(lp4514
S'session_file'
p4515
asbag62
(g83
g64
NtRp4516
(dp4517
g67
(dp4518
g94
g95
ssg76
g4507
sg69
(lp4519
S':'
asbag62
(g83
g64
NtRp4520
(dp4521
g67
(dp4522
sg76
g4507
sg69
(lp4523
g62
(g63
g64
NtRp4524
(dp4525
g67
(dp4526
g75
I5
ssg76
g4520
sg69
(lp4527
S"<open file '/home/goshawk/web2py/applications/milo/sessions/127.0.0.1-6ea54ce8-d4d4-42e2-9f2c-7c1a0acc789f', mode 'rb+' at 0x7fc7a50984b0>"
p4528
asbasbasbag62
(g78
g64
NtRp4529
(dp4530
g67
(dp4531
sg76
g3101
sg69
(lp4532
g62
(g83
g64
NtRp4533
(dp4534
g67
(dp4535
g87
g88
ssg76
g4529
sg69
(lp4536
S'session_filename'
p4537
asbag62
(g83
g64
NtRp4538
(dp4539
g67
(dp4540
g94
g95
ssg76
g4529
sg69
(lp4541
S':'
asbag62
(g83
g64
NtRp4542
(dp4543
g67
(dp4544
sg76
g4529
sg69
(lp4545
g62
(g63
g64
NtRp4546
(dp4547
g67
(dp4548
g75
I5
ssg76
g4542
sg69
(lp4549
S'/home/goshawk/web2py/applications/milo/sessions/127.0.0.1-6ea54ce8-d4d4-42e2-9f2c-7c1a0acc789f'
p4550
asbasbasbag62
(g78
g64
NtRp4551
(dp4552
g67
(dp4553
sg76
g3101
sg69
(lp4554
g62
(g83
g64
NtRp4555
(dp4556
g67
(dp4557
g87
g88
ssg76
g4551
sg69
(lp4558
S'session_id'
p4559
asbag62
(g83
g64
NtRp4560
(dp4561
g67
(dp4562
g94
g95
ssg76
g4551
sg69
(lp4563
S':'
asbag62
(g83
g64
NtRp4564
(dp4565
g67
(dp4566
sg76
g4551
sg69
(lp4567
g62
(g63
g64
NtRp4568
(dp4569
g67
(dp4570
g75
I5
ssg76
g4564
sg69
(lp4571
S'127.0.0.1-6ea54ce8-d4d4-42e2-9f2c-7c1a0acc789f'
p4572
asbasbasbag62
(g78
g64
NtRp4573
(dp4574
g67
(dp4575
sg76
g3101
sg69
(lp4576
g62
(g83
g64
NtRp4577
(dp4578
g67
(dp4579
g87
g88
ssg76
g4573
sg69
(lp4580
S'session_id_name'
p4581
asbag62
(g83
g64
NtRp4582
(dp4583
g67
(dp4584
g94
g95
ssg76
g4573
sg69
(lp4585
S':'
asbag62
(g83
g64
NtRp4586
(dp4587
g67
(dp4588
sg76
g4573
sg69
(lp4589
g62
(g63
g64
NtRp4590
(dp4591
g67
(dp4592
g75
I5
ssg76
g4586
sg69
(lp4593
g3158
asbasbasbag62
(g78
g64
NtRp4594
(dp4595
g67
(dp4596
sg76
g3101
sg69
(lp4597
g62
(g83
g64
NtRp4598
(dp4599
g67
(dp4600
g87
g88
ssg76
g4594
sg69
(lp4601
S'session_locked'
p4602
asbag62
(g83
g64
NtRp4603
(dp4604
g67
(dp4605
g94
g95
ssg76
g4594
sg69
(lp4606
S':'
asbag62
(g83
g64
NtRp4607
(dp4608
g67
(dp4609
sg76
g4594
sg69
(lp4610
g62
(g63
g64
NtRp4611
(dp4612
g67
(dp4613
g75
I5
ssg76
g4607
sg69
(lp4614
g1562
asbasbasbag62
(g78
g64
NtRp4615
(dp4616
g67
(dp4617
sg76
g3101
sg69
(lp4618
g62
(g83
g64
NtRp4619
(dp4620
g67
(dp4621
g87
g88
ssg76
g4615
sg69
(lp4622
S'session_new'
p4623
asbag62
(g83
g64
NtRp4624
(dp4625
g67
(dp4626
g94
g95
ssg76
g4615
sg69
(lp4627
S':'
asbag62
(g83
g64
NtRp4628
(dp4629
g67
(dp4630
sg76
g4615
sg69
(lp4631
g62
(g63
g64
NtRp4632
(dp4633
g67
(dp4634
g75
I5
ssg76
g4628
sg69
(lp4635
g105
asbasbasbag62
(g78
g64
NtRp4636
(dp4637
g67
(dp4638
sg76
g3101
sg69
(lp4639
g62
(g83
g64
NtRp4640
(dp4641
g67
(dp4642
g87
g88
ssg76
g4636
sg69
(lp4643
S'status'
p4644
asbag62
(g83
g64
NtRp4645
(dp4646
g67
(dp4647
g94
g95
ssg76
g4636
sg69
(lp4648
S':'
asbag62
(g83
g64
NtRp4649
(dp4650
g67
(dp4651
sg76
g4636
sg69
(lp4652
g62
(g63
g64
NtRp4653
(dp4654
g67
(dp4655
g75
I5
ssg76
g4649
sg69
(lp4656
S'200'
p4657
asbasbasbag62
(g78
g64
NtRp4658
(dp4659
g67
(dp4660
sg76
g3101
sg69
(lp4661
g62
(g83
g64
NtRp4662
(dp4663
g67
(dp4664
g87
g88
ssg76
g4658
sg69
(lp4665
S'title'
p4666
asbag62
(g83
g64
NtRp4667
(dp4668
g67
(dp4669
g94
g95
ssg76
g4658
sg69
(lp4670
S':'
asbag62
(g83
g64
NtRp4671
(dp4672
g67
(dp4673
sg76
g4658
sg69
(lp4674
g62
(g63
g64
NtRp4675
(dp4676
g67
(dp4677
g75
I5
ssg76
g4671
sg69
(lp4678
S'Milo'
p4679
asbasbasbag62
(g78
g64
NtRp4680
(dp4681
g67
(dp4682
sg76
g3101
sg69
(lp4683
g62
(g83
g64
NtRp4684
(dp4685
g67
(dp4686
g87
g88
ssg76
g4680
sg69
(lp4687
g2226
asbag62
(g83
g64
NtRp4688
(dp4689
g67
(dp4690
g94
g95
ssg76
g4680
sg69
(lp4691
S':'
asbag62
(g83
g64
NtRp4692
(dp4693
g67
(dp4694
sg76
g4680
sg69
(lp4695
g62
(g63
g64
NtRp4696
(dp4697
g67
(dp4698
g75
I5
ssg76
g4692
sg69
(lp4699
g2239
asbasbasbag62
(g78
g64
NtRp4700
(dp4701
g67
(dp4702
sg76
g3101
sg69
(lp4703
g62
(g83
g64
NtRp4704
(dp4705
g67
(dp4706
g87
g88
ssg76
g4700
sg69
(lp4707
S'view'
p4708
asbag62
(g83
g64
NtRp4709
(dp4710
g67
(dp4711
g94
g95
ssg76
g4700
sg69
(lp4712
S':'
asbag62
(g83
g64
NtRp4713
(dp4714
g67
(dp4715
sg76
g4700
sg69
(lp4716
g62
(g63
g64
NtRp4717
(dp4718
g67
(dp4719
g75
I5
ssg76
g4713
sg69
(lp4720
S'admin/index.html'
p4721
asbasbasbasbasbsS'locals'
p4722
(dp4723
g35
S"'/home/goshawk/web2py/applications/milo/modules/elaborated_models/icm.mat'"
p4724
sssS'traceback'
p4725
S'Traceback (most recent call last):\n  File "/home/goshawk/web2py/gluon/restricted.py", line 205, in restricted\n    exec ccode in environment\n  File "/home/goshawk/web2py/applications/milo/controllers/admin.py", line 10, in <module>\n  File "/home/goshawk/web2py/gluon/globals.py", line 173, in <lambda>\n    self._caller = lambda f: f()\n  File "/home/goshawk/web2py/applications/milo/controllers/admin.py", line 8, in index\n    matrices = matlab_wrapper.Whisperer.get_matrices_info()\n  File "applications/milo/modules/matlab_wrapper.py", line 241, in get_matrices_info\n    matrices[\'urm\'] = datetime.datetime.fromtimestamp(os.path.getmtime(os.path.join(cls.savepath, \'urm.mat\')))\n  File "/usr/lib/python2.7/genericpath.py", line 54, in getmtime\n    return os.stat(filename).st_mtime\nOSError: [Errno 2] No such file or directory: \'/home/goshawk/web2py/applications/milo/modules/elaborated_models/icm.mat\'\n'
p4726
s.