(dp1
S'output'
p2
S"<type 'exceptions.NameError'> name 'algorithms' is not defined"
p3
sS'layer'
p4
S'/home/goshawk/web2py/applications/milo/views/admin/index.html'
p5
sS'code'
p6
S'response.write(\'<!DOCTYPE html PUBLIC "-//W3C//DTD XHTML 1.0 Strict//EN" "http://www.w3.org/TR/xhtml1/DTD/xhtml1-strict.dtd">\\n<html lang="en" xml:lang="en" xmlns="http://www.w3.org/1999/xhtml">\\n<head>\\n\\t<title>Milo manager</title>\\n\\t<meta http-equiv="content-language" content="en" />\\n\\t<meta http-equiv="cache-control" content="no-cache" />\\n\\t<meta http-equiv="Content-Type" content="text/html; charset=utf-8" />\\n    <link rel="shortcut icon" href="\', escape=False)\nresponse.write(URL(\'static\',\'emanager\'))\nresponse.write(\'/images/favicon.ico" type="image/x-icon"/>\\n    <link href="\', escape=False)\nresponse.write(URL(\'static\',\'emanager\'))\nresponse.write(\'/css/styles.css" rel="stylesheet" type="text/css" media="screen" />\\n\\t<!--[if lte IE 7]>\\n\\t<link href="css/styles_ie.css" rel="stylesheet" type="text/css" media="screen" />\\n\\t<![endif]-->\\n\\t<!--[if lte IE 6]>\\n\\t<link href="css/styles_ie6.css" rel="stylesheet" type="text/css" media="screen" />\\n\\t<![endif]-->\\n    <script type="text/javascript" src="\', escape=False)\nresponse.write(URL(\'static\',\'emanager\'))\nresponse.write(\'/js/jquery-1.2.6.min.js"></script>\\n    <script type="text/javascript" src="\', escape=False)\nresponse.write(URL(\'static\',\'emanager\'))\nresponse.write(\'/js/ui.js"></script>\\n</head>\\n\\n<body>\\n\\n<div id="wrap">\\n\\t<div id="header">\\n\\t\\t<h1><a class="bg" href="#" title="Home"></a>Milo Manager</h1>\\n\\t\\t<p id="status">Logged is as Username, <a href="#" title="Sign Out?">Sign Out?</a></p>\\n\\t\\t<h2><span>Hello, this is the Dashboard</span></h2>\\n\\t\\t<p id="description">A little description explain what Dashboard is in one/two lines.</p>\\n\\t</div>\\n    <div id="sidebar">\\n\\t\\t<ul class="items">\\n            <li class="active">\\n            \\t<a href="#" title="Dashboard">Dashboard</a>\\n            </li>\\n\\t\\t\\t<li class="subitems">\\n\\t\\t\\t\\t<a href="#" title="Shout Box Info">Algorithms Management</a>\\n\\t\\t\\t\\t<ul>\\n\\t\\t\\t\\t\\t\', escape=False)\nfor alg in algorithms:\n    response.write(\'\\n\\t\\t\\t\\t\\t<li><a href="#" title="\', escape=False)\n    alg\n    response.write(\'">\', escape=False)\n    alg\n    response.write(\'</a></li>\\n\\t\\t\\t\\t\\t\', escape=False)\n    pass\nresponse.write(\'\\n\\t\\t\\t\\t</ul>\\n\\t\\t\\t</li>\\n\\t\\t\\t<li class="subitems">\\n\\t\\t\\t\\t<a href="#" title="Clan Options">Clan Options</a>\\n\\t\\t\\t\\t<ul>\\n                    <li><a href="#" title="Edit Matches">Edit Matches</a></li>\\n                    <li><a href="#" title="Edit Practices">Edit Practices</a></li>\\n                    <li><a href="#" title="Edit Games">Edit Games</a></li>\\n                    <li><a href="#" title="Edit Servers">Edit Servers</a></li>\\n                    <li><a href="#" title="Edit Media">Edit Media</a></li>\\n                    <li><a href="#" title="Edit Sponsors">Edit Sponsors</a></li>\\n                    <li><a href="#" title="Opposing Clans">Opposing Clans</a></li>\\n\\t\\t\\t\\t</ul>\\n\\t\\t\\t</li>\\n\\t\\t\\t<li><a href="#mp3" title="MP3 Player">MP3 Player</a></li>\\n\\t\\t\\t<li class="subitems">\\n\\t\\t\\t\\t<a href="#" title="Users">Donation Info</a>\\n\\t\\t\\t\\t<ul>\\n\\t\\t\\t\\t\\t<li><a href="#" title="Admin Users">Monthly Goals</a></li>\\n\\t\\t\\t\\t\\t<li><a href="#" title="Add New User">Monthly Donations</a></li>\\n\\n\\t\\t\\t\\t</ul>\\n\\t\\t\\t</li>\\n\\t\\t\\t<li class="subitems">\\n\\t\\t\\t\\t<a href="#" title="Users">Member Info</a>\\n\\t\\t\\t\\t<ul>\\n\\t\\t\\t\\t\\t<li><a href="#" title="Admin Users">Member List</a></li>\\n\\t\\t\\t\\t\\t<li><a href="#" title="Add New User">Mass Message</a></li>\\n\\t\\t\\t\\t\\t<li><a href="#" title="Add New User">Edit Members</a></li>\\n\\t\\t\\t\\t\\t<li><a href="#" title="Add New User">Edit Permissions</a></li>\\n\\t\\t\\t\\t\\t<li><a href="#" title="Add New User">Edit Ranks</a></li>\\n\\t\\t\\t\\t</ul>\\n\\t\\t\\t</li>\\n\\t\\t</ul>\\n\\t\\t<span class="clear"></span>\\n\\t\\t<div id="redbox">\\n\\t\\t\\t<h4>eManager</h4>\\n\\t\\t\\t<p>\\n\\t\\t\\t\\t<big>Copyright 2008</big>\\n\\t\\t\\t\\tScript executed in 0.1568s<br />\\n\\t\\t\\t\\t30 SQL queries used<br />\\n\\t\\t\\t\\tBuild: 20080928\\n\\t\\t\\t</p>\\n\\t\\t</div>\\n\\t</div>\\n\\t<div id="content">\\n\\t\\t<h2>Form fields</h2>\\n\\t\\t<ul class="tabs">\\n\\t\\t\\t<li class="active"><a href="#" title="Item1"><span>This is a tab</span></a></li>\\n\\t\\t\\t<li><a href="#" title="Item2"><span>This is other tab</span></a></li>\\n\\t\\t</ul>\\n\\t\\t<form method="post" action="">\\n\\t\\t<fieldset>\\n\\t\\t\\t<label>Small Input:</label>\\n\\t\\t\\t<span class="small_input"><input class="small" name="" type="text" value="" /></span><br class="hid" />\\n\\t\\t\\t<span class="negative">Negative message!</span><br class="hid" />\\n\\t\\t\\t<label>Medium Input:</label>\\n\\t\\t\\t<span class="medium_input"><input class="medium" name="" type="text" value="" /></span><br class="hid" />\\n\\t\\t\\t<span class="positive">Positive message!</span><br class="hid" />\\n\\t\\t\\t<label>Large Input:</label>\\n\\t\\t\\t<span class="large_input"><input class="large" name="" type="text" value="" /></span><br class="hid" />\\n\\t\\t\\t<p>Lorem Ipsum is simply dummy text of the printing and typesetting industry.</p>\\n\\t\\t\\t<label>Your message?</label><br class="hid" />\\n\\t\\t\\t<span class="textarea"><textarea cols="" rows=""></textarea></span><br class="hid" />\\n\\t\\t\\t<a href="#" class="button" title="Submit"><span>Submit</span></a>\\n\\t\\t\\t<span class="clear"></span>\\n\\t\\t</fieldset>\\n\\t\\t</form>\\n\\t\\t<p class="alert">\\n\\t\\t\\t<span class="txt"><span class="icon"></span><strong>Alert:</strong> This template is going to explote in 10 seconds.</span>\\n\\t\\t\\t<a href="#" class="close" title="Close"><span class="bg"></span>Close</a>\\n\\t\\t</p>\\n\\t\\t<p id="tip" class="alert">\\n\\t\\t\\t<span class="txt"><span class="icon"></span><strong>Tip:</strong> I know, you REALLY love this CMS Skin.</span>\\n\\t\\t\\t<a href="#" class="close" title="Close"><span class="bg"></span>Close</a>\\n\\t\\t</p>\\n\\t\\t<p id="congrats" class="alert">\\n\\t\\t\\t<span class="txt"><span class="icon"></span><strong>Congrats:</strong> The action you just did was made with success.</span>\\n\\t\\t\\t<a href="#" class="close" title="Close"><span class="bg"></span>Close</a>\\n\\t\\t</p>\\n\\t\\t<h2>CSS Table List</h2>\\n\\t\\t<ul class="tabs">\\n\\t\\t\\t<li><a href="#" title="Item1"><span>Nice!</span></a></li>\\n\\t\\t\\t<li class="active"><a href="#" title="Item2"><span>I love this table</span></a></li>\\n\\t\\t</ul>\\n\\t\\t<div class="box">\\n\\t\\t\\t<table>\\n\\t\\t\\t\\t<tr>\\n\\t\\t\\t\\t\\t<th class="col1">Column 1</th>\\n\\t\\t\\t\\t\\t<th class="col2">Column 2</th>\\n\\t\\t\\t\\t\\t<th class="col3">Column 3</th>\\n\\t\\t\\t\\t\\t<th class="col4">Column 4</th>\\n\\t\\t\\t\\t\\t<th class="col5">Column 5</th>\\n\\t\\t\\t\\t</tr>\\n\\t\\t\\t\\t<tr class="highlight">\\n\\t\\t\\t\\t\\t<td><a href="#" title="Lorem ipsum dolor">Lorem ipsum dolor</a></td>\\n\\t\\t\\t\\t\\t<td>Lorem ipsum dolor</td>\\n\\t\\t\\t\\t\\t<td>Lorem ipsum dolor</td>\\n\\t\\t\\t\\t\\t<td>Lorem ipsum dolor</td>\\n\\t\\t\\t\\t\\t<td class="action">\\n\\t\\t\\t\\t\\t\\t<ul>\\n\\t\\t\\t\\t\\t\\t\\t<li><a class="edit" href="#" title="edit"></a></li>\\n\\t\\t\\t\\t\\t\\t\\t<li><a class="add" href="#" title="add"></a></li>\\n\\t\\t\\t\\t\\t\\t\\t<li><a class="delete" href="#" title="delete"></a></li>\\n\\t\\t\\t\\t\\t\\t\\t<li><a class="mark" href="#" title="mark"></a></li>\\n\\t\\t\\t\\t\\t\\t</ul>\\n\\t\\t\\t\\t\\t</td>\\n\\t\\t\\t\\t</tr>\\n\\t\\t\\t\\t<tr>\\n\\t\\t\\t\\t\\t<td><a href="#" title="Lorem ipsum dolor">Lorem ipsum dolor</a></td>\\n\\t\\t\\t\\t\\t<td>Lorem ipsum dolor</td>\\n\\t\\t\\t\\t\\t<td>Lorem ipsum dolor</td>\\n\\t\\t\\t\\t\\t<td>Lorem ipsum dolor</td>\\n\\t\\t\\t\\t\\t<td class="action">\\n\\t\\t\\t\\t\\t\\t<ul>\\n\\t\\t\\t\\t\\t\\t\\t<li><a class="edit" href="#" title="edit"></a></li>\\n\\t\\t\\t\\t\\t\\t\\t<li><a class="add" href="#" title="add"></a></li>\\n\\t\\t\\t\\t\\t\\t\\t<li><a class="delete" href="#" title="delete"></a></li>\\n\\t\\t\\t\\t\\t\\t\\t<li><a class="mark" href="#" title="mark"></a></li>\\n\\t\\t\\t\\t\\t\\t</ul>\\n\\t\\t\\t\\t\\t</td>\\n\\t\\t\\t\\t</tr>\\n\\t\\t\\t\\t<tr class="highlight">\\n\\t\\t\\t\\t\\t<td><a href="#" title="Lorem ipsum dolor">Lorem ipsum dolor</a></td>\\n\\t\\t\\t\\t\\t<td>Lorem ipsum dolor</td>\\n\\t\\t\\t\\t\\t<td>Lorem ipsum dolor</td>\\n\\t\\t\\t\\t\\t<td>Lorem ipsum dolor</td>\\n\\t\\t\\t\\t\\t<td class="action">\\n\\t\\t\\t\\t\\t\\t<ul>\\n\\t\\t\\t\\t\\t\\t\\t<li><a class="edit" href="#" title="edit"></a></li>\\n\\t\\t\\t\\t\\t\\t\\t<li><a class="add" href="#" title="add"></a></li>\\n\\t\\t\\t\\t\\t\\t\\t<li><a class="delete" href="#" title="delete"></a></li>\\n\\t\\t\\t\\t\\t\\t\\t<li><a class="mark" href="#" title="mark"></a></li>\\n\\t\\t\\t\\t\\t\\t</ul>\\n\\t\\t\\t\\t\\t</td>\\n\\t\\t\\t\\t</tr>\\n\\t\\t\\t\\t<tr>\\n\\t\\t\\t\\t\\t<td><a href="#" title="Lorem ipsum dolor">Lorem ipsum dolor</a></td>\\n\\t\\t\\t\\t\\t<td>Lorem ipsum dolor</td>\\n\\t\\t\\t\\t\\t<td>Lorem ipsum dolor</td>\\n\\t\\t\\t\\t\\t<td>Lorem ipsum dolor</td>\\n\\t\\t\\t\\t\\t<td class="action">\\n\\t\\t\\t\\t\\t\\t<ul>\\n\\t\\t\\t\\t\\t\\t\\t<li><a class="edit" href="#" title="edit"></a></li>\\n\\t\\t\\t\\t\\t\\t\\t<li><a class="add" href="#" title="add"></a></li>\\n\\t\\t\\t\\t\\t\\t\\t<li><a class="delete" href="#" title="delete"></a></li>\\n\\t\\t\\t\\t\\t\\t\\t<li><a class="mark" href="#" title="mark"></a></li>\\n\\t\\t\\t\\t\\t\\t</ul>\\n\\t\\t\\t\\t\\t</td>\\n\\t\\t\\t\\t</tr>\\n\\t\\t\\t\\t<tr class="highlight">\\n\\t\\t\\t\\t\\t<td><a href="#" title="Lorem ipsum dolor">Lorem ipsum dolor</a></td>\\n\\t\\t\\t\\t\\t<td>Lorem ipsum dolor</td>\\n\\t\\t\\t\\t\\t<td>Lorem ipsum dolor</td>\\n\\t\\t\\t\\t\\t<td>Lorem ipsum dolor</td>\\n\\t\\t\\t\\t\\t<td class="action">\\n\\t\\t\\t\\t\\t\\t<ul>\\n\\t\\t\\t\\t\\t\\t\\t<li><a class="edit" href="#" title="edit"></a></li>\\n\\t\\t\\t\\t\\t\\t\\t<li><a class="add" href="#" title="add"></a></li>\\n\\t\\t\\t\\t\\t\\t\\t<li><a class="delete" href="#" title="delete"></a></li>\\n\\t\\t\\t\\t\\t\\t\\t<li><a class="mark" href="#" title="mark"></a></li>\\n\\t\\t\\t\\t\\t\\t</ul>\\n\\t\\t\\t\\t\\t</td>\\n\\t\\t\\t\\t</tr>\\n\\t\\t\\t\\t<tr>\\n\\t\\t\\t\\t\\t<td><a href="#" title="Lorem ipsum dolor">Lorem ipsum dolor</a></td>\\n\\t\\t\\t\\t\\t<td>Lorem ipsum dolor</td>\\n\\t\\t\\t\\t\\t<td>Lorem ipsum dolor</td>\\n\\t\\t\\t\\t\\t<td>Lorem ipsum dolor</td>\\n\\t\\t\\t\\t\\t<td class="action">\\n\\t\\t\\t\\t\\t\\t<ul>\\n\\t\\t\\t\\t\\t\\t\\t<li><a class="edit" href="#" title="edit"></a></li>\\n\\t\\t\\t\\t\\t\\t\\t<li><a class="add" href="#" title="add"></a></li>\\n\\t\\t\\t\\t\\t\\t\\t<li><a class="delete" href="#" title="delete"></a></li>\\n\\t\\t\\t\\t\\t\\t\\t<li><a class="mark" href="#" title="mark"></a></li>\\n\\t\\t\\t\\t\\t\\t</ul>\\n\\t\\t\\t\\t\\t</td>\\n\\t\\t\\t\\t</tr>\\n\\t\\t\\t\\t<tr class="highlight">\\n\\t\\t\\t\\t\\t<td><a href="#" title="Lorem ipsum dolor">Lorem ipsum dolor</a></td>\\n\\t\\t\\t\\t\\t<td>Lorem ipsum dolor</td>\\n\\t\\t\\t\\t\\t<td>Lorem ipsum dolor</td>\\n\\t\\t\\t\\t\\t<td>Lorem ipsum dolor</td>\\n\\t\\t\\t\\t\\t<td class="action">\\n\\t\\t\\t\\t\\t\\t<ul>\\n\\t\\t\\t\\t\\t\\t\\t<li><a class="edit" href="#" title="edit"></a></li>\\n\\t\\t\\t\\t\\t\\t\\t<li><a class="add" href="#" title="add"></a></li>\\n\\t\\t\\t\\t\\t\\t\\t<li><a class="delete" href="#" title="delete"></a></li>\\n\\t\\t\\t\\t\\t\\t\\t<li><a class="mark" href="#" title="mark"></a></li>\\n\\t\\t\\t\\t\\t\\t</ul>\\n\\t\\t\\t\\t\\t</td>\\n\\t\\t\\t\\t</tr>\\n\\t\\t\\t\\t<tr>\\n\\t\\t\\t\\t\\t<td><a href="#" title="Lorem ipsum dolor">Lorem ipsum dolor</a></td>\\n\\t\\t\\t\\t\\t<td>Lorem ipsum dolor</td>\\n\\t\\t\\t\\t\\t<td>Lorem ipsum dolor</td>\\n\\t\\t\\t\\t\\t<td>Lorem ipsum dolor</td>\\n\\t\\t\\t\\t\\t<td class="action">\\n\\t\\t\\t\\t\\t\\t<ul>\\n\\t\\t\\t\\t\\t\\t\\t<li><a class="edit" href="#" title="edit"></a></li>\\n\\t\\t\\t\\t\\t\\t\\t<li><a class="add" href="#" title="add"></a></li>\\n\\t\\t\\t\\t\\t\\t\\t<li><a class="delete" href="#" title="delete"></a></li>\\n\\t\\t\\t\\t\\t\\t\\t<li><a class="mark" href="#" title="mark"></a></li>\\n\\t\\t\\t\\t\\t\\t</ul>\\n\\t\\t\\t\\t\\t</td>\\n\\t\\t\\t\\t</tr>\\n\\t\\t\\t\\t<tr class="highlight">\\n\\t\\t\\t\\t\\t<td><a href="#" title="Lorem ipsum dolor">Lorem ipsum dolor</a></td>\\n\\t\\t\\t\\t\\t<td>Lorem ipsum dolor</td>\\n\\t\\t\\t\\t\\t<td>Lorem ipsum dolor</td>\\n\\t\\t\\t\\t\\t<td>Lorem ipsum dolor</td>\\n\\t\\t\\t\\t\\t<td class="action">\\n\\t\\t\\t\\t\\t\\t<ul>\\n\\t\\t\\t\\t\\t\\t\\t<li><a class="edit" href="#" title="edit"></a></li>\\n\\t\\t\\t\\t\\t\\t\\t<li><a class="add" href="#" title="add"></a></li>\\n\\t\\t\\t\\t\\t\\t\\t<li><a class="delete" href="#" title="delete"></a></li>\\n\\t\\t\\t\\t\\t\\t\\t<li><a class="mark" href="#" title="mark"></a></li>\\n\\t\\t\\t\\t\\t\\t</ul>\\n\\t\\t\\t\\t\\t</td>\\n\\t\\t\\t\\t</tr>\\n\\t\\t\\t</table>\\n\\t\\t\\t<p id="pagin">\\n\\t\\t\\t\\t&laquo; <a href="#" title="">previous</a> &ndash;\\n\\t\\t\\t\\t<a href="#" title="">1</a>\\n\\t\\t\\t\\t<a href="#" title="">2</a>\\n\\t\\t\\t\\t<a href="#" title="">3</a>\\n\\t\\t\\t\\t<a href="#" title="">4</a>\\n\\t\\t\\t\\t<a href="#" title="">5</a>\\n\\t\\t\\t\\t<a href="#" title="">6</a>\\n\\t\\t\\t\\t<a href="#" title="">7</a>\\n\\t\\t\\t\\t<a href="#" title="">8</a>\\n\\t\\t\\t\\t<a href="#" title="">9</a>\\n\\t\\t\\t\\t&ndash; <a href="#" title="">next</a> &raquo;\\n\\t\\t\\t</p>\\n\\t\\t</div>\\n\\t</div>\\n\\t<div id="footer">\\n\\t</div>\\n</div>\\n\\n</body>\\n</html>\\n\', escape=False)'
p7
sS'snapshot'
p8
(dp9
S'exception'
p10
(dp11
S'__hash__'
p12
S"<method-wrapper '__hash__' of exceptions.NameError object>"
p13
sS'__setattr__'
p14
S"<method-wrapper '__setattr__' of exceptions.NameError object>"
p15
sS'__reduce_ex__'
p16
S'<built-in method __reduce_ex__ of exceptions.NameError object>'
p17
sS'__getslice__'
p18
S"<method-wrapper '__getslice__' of exceptions.NameError object>"
p19
sS'__getitem__'
p20
S"<method-wrapper '__getitem__' of exceptions.NameError object>"
p21
sS'__setstate__'
p22
S'<built-in method __setstate__ of exceptions.NameError object>'
p23
sS'args'
p24
S'("name \'algorithms\' is not defined",)'
p25
sS'__reduce__'
p26
S'<built-in method __reduce__ of exceptions.NameError object>'
p27
sS'__str__'
p28
S"<method-wrapper '__str__' of exceptions.NameError object>"
p29
sS'__format__'
p30
S'<built-in method __format__ of exceptions.NameError object>'
p31
sS'__getattribute__'
p32
S"<method-wrapper '__getattribute__' of exceptions.NameError object>"
p33
sS'__class__'
p34
S"<type 'exceptions.NameError'>"
p35
sS'__unicode__'
p36
S'<built-in method __unicode__ of exceptions.NameError object>'
p37
sS'__delattr__'
p38
S"<method-wrapper '__delattr__' of exceptions.NameError object>"
p39
sS'__subclasshook__'
p40
S'<built-in method __subclasshook__ of type object>'
p41
sS'__repr__'
p42
S"<method-wrapper '__repr__' of exceptions.NameError object>"
p43
sS'__dict__'
p44
S'{}'
p45
sS'__sizeof__'
p46
S'<built-in method __sizeof__ of exceptions.NameError object>'
p47
sS'__doc__'
p48
S"'Name not found globally.'"
p49
sS'__init__'
p50
S"<method-wrapper '__init__' of exceptions.NameError object>"
p51
sS'__new__'
p52
S'<built-in method __new__ of type object>'
p53
ssS'evalue'
p54
S"name 'algorithms' is not defined"
p55
sS'request'
p56
ccopy_reg
_reconstructor
p57
(cgluon.html
BEAUTIFY
p58
c__builtin__
object
p59
NtRp60
(dp61
S'attributes'
p62
(dp63
sS'components'
p64
(lp65
g57
(cgluon.html
TABLE
p66
g59
NtRp67
(dp68
g62
(dp69
S'level'
p70
I5
ssS'parent'
p71
Nsg64
(lp72
g57
(cgluon.html
TR
p73
g59
NtRp74
(dp75
g62
(dp76
sg71
g67
sg64
(lp77
g57
(cgluon.html
TD
p78
g59
NtRp79
(dp80
g62
(dp81
S'_style'
p82
S'font-weight:bold;vertical-align:top'
p83
ssg71
g74
sg64
(lp84
S'ajax'
p85
asbag57
(g78
g59
NtRp86
(dp87
g62
(dp88
S'_valign'
p89
S'top'
p90
ssg71
g74
sg64
(lp91
S':'
asbag57
(g78
g59
NtRp92
(dp93
g62
(dp94
sg71
g74
sg64
(lp95
g57
(g58
g59
NtRp96
(dp97
g62
(dp98
g70
I5
ssg71
g92
sg64
(lp99
S'False'
p100
asbasbasbag57
(g73
g59
NtRp101
(dp102
g62
(dp103
sg71
g67
sg64
(lp104
g57
(g78
g59
NtRp105
(dp106
g62
(dp107
g82
g83
ssg71
g101
sg64
(lp108
S'application'
p109
asbag57
(g78
g59
NtRp110
(dp111
g62
(dp112
g89
g90
ssg71
g101
sg64
(lp113
S':'
asbag57
(g78
g59
NtRp114
(dp115
g62
(dp116
sg71
g101
sg64
(lp117
g57
(g58
g59
NtRp118
(dp119
g62
(dp120
g70
I5
ssg71
g114
sg64
(lp121
S'milo'
p122
asbasbasbag57
(g73
g59
NtRp123
(dp124
g62
(dp125
sg71
g67
sg64
(lp126
g57
(g78
g59
NtRp127
(dp128
g62
(dp129
g82
g83
ssg71
g123
sg64
(lp130
g24
asbag57
(g78
g59
NtRp131
(dp132
g62
(dp133
g89
g90
ssg71
g123
sg64
(lp134
S':'
asbag57
(g78
g59
NtRp135
(dp136
g62
(dp137
sg71
g123
sg64
(lp138
g57
(g58
g59
NtRp139
(dp140
g62
(dp141
g70
I5
ssg71
g135
sg64
(lp142
g57
(g66
g59
NtRp143
(dp144
g62
(dp145
g70
I4
ssg71
Nsg64
(lp146
sbasbasbasbag57
(g73
g59
NtRp147
(dp148
g62
(dp149
sg71
g67
sg64
(lp150
g57
(g78
g59
NtRp151
(dp152
g62
(dp153
g82
g83
ssg71
g147
sg64
(lp154
S'body'
p155
asbag57
(g78
g59
NtRp156
(dp157
g62
(dp158
g89
g90
ssg71
g147
sg64
(lp159
S':'
asbag57
(g78
g59
NtRp160
(dp161
g62
(dp162
sg71
g147
sg64
(lp163
g57
(g58
g59
NtRp164
(dp165
g62
(dp166
g70
I5
ssg71
g160
sg64
(lp167
S'<cStringIO.StringO object at 0x7fa7203ade68>'
p168
asbasbasbag57
(g73
g59
NtRp169
(dp170
g62
(dp171
sg71
g67
sg64
(lp172
g57
(g78
g59
NtRp173
(dp174
g62
(dp175
g82
g83
ssg71
g169
sg64
(lp176
S'client'
p177
asbag57
(g78
g59
NtRp178
(dp179
g62
(dp180
g89
g90
ssg71
g169
sg64
(lp181
S':'
asbag57
(g78
g59
NtRp182
(dp183
g62
(dp184
sg71
g169
sg64
(lp185
g57
(g58
g59
NtRp186
(dp187
g62
(dp188
g70
I5
ssg71
g182
sg64
(lp189
S'127.0.0.1'
p190
asbasbasbag57
(g73
g59
NtRp191
(dp192
g62
(dp193
sg71
g67
sg64
(lp194
g57
(g78
g59
NtRp195
(dp196
g62
(dp197
g82
g83
ssg71
g191
sg64
(lp198
S'controller'
p199
asbag57
(g78
g59
NtRp200
(dp201
g62
(dp202
g89
g90
ssg71
g191
sg64
(lp203
S':'
asbag57
(g78
g59
NtRp204
(dp205
g62
(dp206
sg71
g191
sg64
(lp207
g57
(g58
g59
NtRp208
(dp209
g62
(dp210
g70
I5
ssg71
g204
sg64
(lp211
S'admin'
p212
asbasbasbag57
(g73
g59
NtRp213
(dp214
g62
(dp215
sg71
g67
sg64
(lp216
g57
(g78
g59
NtRp217
(dp218
g62
(dp219
g82
g83
ssg71
g213
sg64
(lp220
S'cookies'
p221
asbag57
(g78
g59
NtRp222
(dp223
g62
(dp224
g89
g90
ssg71
g213
sg64
(lp225
S':'
asbag57
(g78
g59
NtRp226
(dp227
g62
(dp228
sg71
g213
sg64
(lp229
g57
(g58
g59
NtRp230
(dp231
g62
(dp232
g70
I5
ssg71
g226
sg64
(lp233
g57
(g66
g59
NtRp234
(dp235
g62
(dp236
g70
I4
ssg71
Nsg64
(lp237
g57
(g73
g59
NtRp238
(dp239
g62
(dp240
sg71
g234
sg64
(lp241
g57
(g78
g59
NtRp242
(dp243
g62
(dp244
g82
g83
ssg71
g238
sg64
(lp245
S'session_id_milo'
p246
asbag57
(g78
g59
NtRp247
(dp248
g62
(dp249
g89
g90
ssg71
g238
sg64
(lp250
S':'
asbag57
(g78
g59
NtRp251
(dp252
g62
(dp253
sg71
g238
sg64
(lp254
g57
(g58
g59
NtRp255
(dp256
g62
(dp257
g70
I4
ssg71
g251
sg64
(lp258
g57
(g66
g59
NtRp259
(dp260
g62
(dp261
g70
I3
ssg71
Nsg64
(lp262
g57
(g73
g59
NtRp263
(dp264
g62
(dp265
sg71
g259
sg64
(lp266
g57
(g78
g59
NtRp267
(dp268
g62
(dp269
g82
g83
ssg71
g263
sg64
(lp270
S'comment'
p271
asbag57
(g78
g59
NtRp272
(dp273
g62
(dp274
g89
g90
ssg71
g263
sg64
(lp275
S':'
asbag57
(g78
g59
NtRp276
(dp277
g62
(dp278
sg71
g263
sg64
(lp279
g57
(g58
g59
NtRp280
(dp281
g62
(dp282
g70
I3
ssg71
g276
sg64
(lp283
S''
asbasbasbag57
(g73
g59
NtRp284
(dp285
g62
(dp286
sg71
g259
sg64
(lp287
g57
(g78
g59
NtRp288
(dp289
g62
(dp290
g82
g83
ssg71
g284
sg64
(lp291
S'domain'
p292
asbag57
(g78
g59
NtRp293
(dp294
g62
(dp295
g89
g90
ssg71
g284
sg64
(lp296
S':'
asbag57
(g78
g59
NtRp297
(dp298
g62
(dp299
sg71
g284
sg64
(lp300
g57
(g58
g59
NtRp301
(dp302
g62
(dp303
g70
I3
ssg71
g297
sg64
(lp304
S''
asbasbasbag57
(g73
g59
NtRp305
(dp306
g62
(dp307
sg71
g259
sg64
(lp308
g57
(g78
g59
NtRp309
(dp310
g62
(dp311
g82
g83
ssg71
g305
sg64
(lp312
S'expires'
p313
asbag57
(g78
g59
NtRp314
(dp315
g62
(dp316
g89
g90
ssg71
g305
sg64
(lp317
S':'
asbag57
(g78
g59
NtRp318
(dp319
g62
(dp320
sg71
g305
sg64
(lp321
g57
(g58
g59
NtRp322
(dp323
g62
(dp324
g70
I3
ssg71
g318
sg64
(lp325
S''
asbasbasbag57
(g73
g59
NtRp326
(dp327
g62
(dp328
sg71
g259
sg64
(lp329
g57
(g78
g59
NtRp330
(dp331
g62
(dp332
g82
g83
ssg71
g326
sg64
(lp333
S'httponly'
p334
asbag57
(g78
g59
NtRp335
(dp336
g62
(dp337
g89
g90
ssg71
g326
sg64
(lp338
S':'
asbag57
(g78
g59
NtRp339
(dp340
g62
(dp341
sg71
g326
sg64
(lp342
g57
(g58
g59
NtRp343
(dp344
g62
(dp345
g70
I3
ssg71
g339
sg64
(lp346
S''
asbasbasbag57
(g73
g59
NtRp347
(dp348
g62
(dp349
sg71
g259
sg64
(lp350
g57
(g78
g59
NtRp351
(dp352
g62
(dp353
g82
g83
ssg71
g347
sg64
(lp354
S'max-age'
p355
asbag57
(g78
g59
NtRp356
(dp357
g62
(dp358
g89
g90
ssg71
g347
sg64
(lp359
S':'
asbag57
(g78
g59
NtRp360
(dp361
g62
(dp362
sg71
g347
sg64
(lp363
g57
(g58
g59
NtRp364
(dp365
g62
(dp366
g70
I3
ssg71
g360
sg64
(lp367
S''
asbasbasbag57
(g73
g59
NtRp368
(dp369
g62
(dp370
sg71
g259
sg64
(lp371
g57
(g78
g59
NtRp372
(dp373
g62
(dp374
g82
g83
ssg71
g368
sg64
(lp375
S'path'
p376
asbag57
(g78
g59
NtRp377
(dp378
g62
(dp379
g89
g90
ssg71
g368
sg64
(lp380
S':'
asbag57
(g78
g59
NtRp381
(dp382
g62
(dp383
sg71
g368
sg64
(lp384
g57
(g58
g59
NtRp385
(dp386
g62
(dp387
g70
I3
ssg71
g381
sg64
(lp388
S''
asbasbasbag57
(g73
g59
NtRp389
(dp390
g62
(dp391
sg71
g259
sg64
(lp392
g57
(g78
g59
NtRp393
(dp394
g62
(dp395
g82
g83
ssg71
g389
sg64
(lp396
S'secure'
p397
asbag57
(g78
g59
NtRp398
(dp399
g62
(dp400
g89
g90
ssg71
g389
sg64
(lp401
S':'
asbag57
(g78
g59
NtRp402
(dp403
g62
(dp404
sg71
g389
sg64
(lp405
g57
(g58
g59
NtRp406
(dp407
g62
(dp408
g70
I3
ssg71
g402
sg64
(lp409
S''
asbasbasbag57
(g73
g59
NtRp410
(dp411
g62
(dp412
sg71
g259
sg64
(lp413
g57
(g78
g59
NtRp414
(dp415
g62
(dp416
g82
g83
ssg71
g410
sg64
(lp417
S'version'
p418
asbag57
(g78
g59
NtRp419
(dp420
g62
(dp421
g89
g90
ssg71
g410
sg64
(lp422
S':'
asbag57
(g78
g59
NtRp423
(dp424
g62
(dp425
sg71
g410
sg64
(lp426
g57
(g58
g59
NtRp427
(dp428
g62
(dp429
g70
I3
ssg71
g423
sg64
(lp430
S''
asbasbasbasbasbasbasbasbasbasbasbag57
(g73
g59
NtRp431
(dp432
g62
(dp433
sg71
g67
sg64
(lp434
g57
(g78
g59
NtRp435
(dp436
g62
(dp437
g82
g83
ssg71
g431
sg64
(lp438
S'env'
p439
asbag57
(g78
g59
NtRp440
(dp441
g62
(dp442
g89
g90
ssg71
g431
sg64
(lp443
S':'
asbag57
(g78
g59
NtRp444
(dp445
g62
(dp446
sg71
g431
sg64
(lp447
g57
(g58
g59
NtRp448
(dp449
g62
(dp450
g70
I5
ssg71
g444
sg64
(lp451
g57
(g66
g59
NtRp452
(dp453
g62
(dp454
g70
I4
ssg71
Nsg64
(lp455
g57
(g73
g59
NtRp456
(dp457
g62
(dp458
sg71
g452
sg64
(lp459
g57
(g78
g59
NtRp460
(dp461
g62
(dp462
g82
g83
ssg71
g456
sg64
(lp463
S'app_folders'
p464
asbag57
(g78
g59
NtRp465
(dp466
g62
(dp467
g89
g90
ssg71
g456
sg64
(lp468
S':'
asbag57
(g78
g59
NtRp469
(dp470
g62
(dp471
sg71
g456
sg64
(lp472
g57
(g58
g59
NtRp473
(dp474
g62
(dp475
g70
I4
ssg71
g469
sg64
(lp476
S"set(['/home/goshawk/web2py/applications/milo/', '/home/goshawk/web2py/applications/admin/'])"
p477
asbasbasbag57
(g73
g59
NtRp478
(dp479
g62
(dp480
sg71
g452
sg64
(lp481
g57
(g78
g59
NtRp482
(dp483
g62
(dp484
g82
g83
ssg71
g478
sg64
(lp485
S'applications_parent'
p486
asbag57
(g78
g59
NtRp487
(dp488
g62
(dp489
g89
g90
ssg71
g478
sg64
(lp490
S':'
asbag57
(g78
g59
NtRp491
(dp492
g62
(dp493
sg71
g478
sg64
(lp494
g57
(g58
g59
NtRp495
(dp496
g62
(dp497
g70
I4
ssg71
g491
sg64
(lp498
S'/home/goshawk/web2py'
p499
asbasbasbag57
(g73
g59
NtRp500
(dp501
g62
(dp502
sg71
g452
sg64
(lp503
g57
(g78
g59
NtRp504
(dp505
g62
(dp506
g82
g83
ssg71
g500
sg64
(lp507
S'cmd_args'
p508
asbag57
(g78
g59
NtRp509
(dp510
g62
(dp511
g89
g90
ssg71
g500
sg64
(lp512
S':'
asbag57
(g78
g59
NtRp513
(dp514
g62
(dp515
sg71
g500
sg64
(lp516
g57
(g58
g59
NtRp517
(dp518
g62
(dp519
g70
I4
ssg71
g513
sg64
(lp520
g57
(g66
g59
NtRp521
(dp522
g62
(dp523
g70
I3
ssg71
Nsg64
(lp524
sbasbasbasbag57
(g73
g59
NtRp525
(dp526
g62
(dp527
sg71
g452
sg64
(lp528
g57
(g78
g59
NtRp529
(dp530
g62
(dp531
g82
g83
ssg71
g525
sg64
(lp532
S'cmd_options'
p533
asbag57
(g78
g59
NtRp534
(dp535
g62
(dp536
g89
g90
ssg71
g525
sg64
(lp537
S':'
asbag57
(g78
g59
NtRp538
(dp539
g62
(dp540
sg71
g525
sg64
(lp541
g57
(g58
g59
NtRp542
(dp543
g62
(dp544
g70
I4
ssg71
g538
sg64
(lp545
S"<Values at 0x2ff40e0: {'verbose': False, 'ip': '127.0.0.1', 'shutdown_timeout': 5, 'taskbar': False, 'nocron': False, 'pid_filename': 'httpserver.pid', 'maxthreads': None, 'softcron': False, 'server_name': 'whisperer', 'bpython': False, 'nogui': False, 'port': 8000, 'extcron': False, 'debuglevel': 30, 'test': None, 'folder': '/home/goshawk/web2py', 'config': '', 'import_models': False, 'winservice': '', 'shell': None, 'run': '', 'log_filename': 'httpserver.log', 'args': [''], 'socket_timeout': 5, 'ssl_ca_certificate': None, 'scheduler': None, 'profiler_filename': None, 'ssl_private_key': '', 'password': 'admin', 'request_queue_size': 5, 'ssl_certificate': '', 'cronjob': False, 'numthreads': None, 'quiet': False, 'interfaces': None, 'minthreads': None, 'timeout': 10, 'plain': False, 'nobanner': False}>"
p546
asbasbasbag57
(g73
g59
NtRp547
(dp548
g62
(dp549
sg71
g452
sg64
(lp550
g57
(g78
g59
NtRp551
(dp552
g62
(dp553
g82
g83
ssg71
g547
sg64
(lp554
S'db_sessions'
p555
asbag57
(g78
g59
NtRp556
(dp557
g62
(dp558
g89
g90
ssg71
g547
sg64
(lp559
S':'
asbag57
(g78
g59
NtRp560
(dp561
g62
(dp562
sg71
g547
sg64
(lp563
g57
(g58
g59
NtRp564
(dp565
g62
(dp566
g70
I4
ssg71
g560
sg64
(lp567
S'set([])'
p568
asbasbasbag57
(g73
g59
NtRp569
(dp570
g62
(dp571
sg71
g452
sg64
(lp572
g57
(g78
g59
NtRp573
(dp574
g62
(dp575
g82
g83
ssg71
g569
sg64
(lp576
S'debugging'
p577
asbag57
(g78
g59
NtRp578
(dp579
g62
(dp580
g89
g90
ssg71
g569
sg64
(lp581
S':'
asbag57
(g78
g59
NtRp582
(dp583
g62
(dp584
sg71
g569
sg64
(lp585
g57
(g58
g59
NtRp586
(dp587
g62
(dp588
g70
I4
ssg71
g582
sg64
(lp589
g100
asbasbasbag57
(g73
g59
NtRp590
(dp591
g62
(dp592
sg71
g452
sg64
(lp593
g57
(g78
g59
NtRp594
(dp595
g62
(dp596
g82
g83
ssg71
g590
sg64
(lp597
S'gluon_parent'
p598
asbag57
(g78
g59
NtRp599
(dp600
g62
(dp601
g89
g90
ssg71
g590
sg64
(lp602
S':'
asbag57
(g78
g59
NtRp603
(dp604
g62
(dp605
sg71
g590
sg64
(lp606
g57
(g58
g59
NtRp607
(dp608
g62
(dp609
g70
I4
ssg71
g603
sg64
(lp610
S'/home/goshawk/web2py'
p611
asbasbasbag57
(g73
g59
NtRp612
(dp613
g62
(dp614
sg71
g452
sg64
(lp615
g57
(g78
g59
NtRp616
(dp617
g62
(dp618
g82
g83
ssg71
g612
sg64
(lp619
S'http_accept'
p620
asbag57
(g78
g59
NtRp621
(dp622
g62
(dp623
g89
g90
ssg71
g612
sg64
(lp624
S':'
asbag57
(g78
g59
NtRp625
(dp626
g62
(dp627
sg71
g612
sg64
(lp628
g57
(g58
g59
NtRp629
(dp630
g62
(dp631
g70
I4
ssg71
g625
sg64
(lp632
S'text/html,application/xhtml+xml,application/xml;q=0.9,*/*;q=0.8'
p633
asbasbasbag57
(g73
g59
NtRp634
(dp635
g62
(dp636
sg71
g452
sg64
(lp637
g57
(g78
g59
NtRp638
(dp639
g62
(dp640
g82
g83
ssg71
g634
sg64
(lp641
S'http_accept_charset'
p642
asbag57
(g78
g59
NtRp643
(dp644
g62
(dp645
g89
g90
ssg71
g634
sg64
(lp646
S':'
asbag57
(g78
g59
NtRp647
(dp648
g62
(dp649
sg71
g634
sg64
(lp650
g57
(g58
g59
NtRp651
(dp652
g62
(dp653
g70
I4
ssg71
g647
sg64
(lp654
S'ISO-8859-1,utf-8;q=0.7,*;q=0.3'
p655
asbasbasbag57
(g73
g59
NtRp656
(dp657
g62
(dp658
sg71
g452
sg64
(lp659
g57
(g78
g59
NtRp660
(dp661
g62
(dp662
g82
g83
ssg71
g656
sg64
(lp663
S'http_accept_encoding'
p664
asbag57
(g78
g59
NtRp665
(dp666
g62
(dp667
g89
g90
ssg71
g656
sg64
(lp668
S':'
asbag57
(g78
g59
NtRp669
(dp670
g62
(dp671
sg71
g656
sg64
(lp672
g57
(g58
g59
NtRp673
(dp674
g62
(dp675
g70
I4
ssg71
g669
sg64
(lp676
S'gzip,deflate,sdch'
p677
asbasbasbag57
(g73
g59
NtRp678
(dp679
g62
(dp680
sg71
g452
sg64
(lp681
g57
(g78
g59
NtRp682
(dp683
g62
(dp684
g82
g83
ssg71
g678
sg64
(lp685
S'http_accept_language'
p686
asbag57
(g78
g59
NtRp687
(dp688
g62
(dp689
g89
g90
ssg71
g678
sg64
(lp690
S':'
asbag57
(g78
g59
NtRp691
(dp692
g62
(dp693
sg71
g678
sg64
(lp694
g57
(g58
g59
NtRp695
(dp696
g62
(dp697
g70
I4
ssg71
g691
sg64
(lp698
S'en-US,en;q=0.8'
p699
asbasbasbag57
(g73
g59
NtRp700
(dp701
g62
(dp702
sg71
g452
sg64
(lp703
g57
(g78
g59
NtRp704
(dp705
g62
(dp706
g82
g83
ssg71
g700
sg64
(lp707
S'http_cache_control'
p708
asbag57
(g78
g59
NtRp709
(dp710
g62
(dp711
g89
g90
ssg71
g700
sg64
(lp712
S':'
asbag57
(g78
g59
NtRp713
(dp714
g62
(dp715
sg71
g700
sg64
(lp716
g57
(g58
g59
NtRp717
(dp718
g62
(dp719
g70
I4
ssg71
g713
sg64
(lp720
S'max-age=0'
p721
asbasbasbag57
(g73
g59
NtRp722
(dp723
g62
(dp724
sg71
g452
sg64
(lp725
g57
(g78
g59
NtRp726
(dp727
g62
(dp728
g82
g83
ssg71
g722
sg64
(lp729
S'http_connection'
p730
asbag57
(g78
g59
NtRp731
(dp732
g62
(dp733
g89
g90
ssg71
g722
sg64
(lp734
S':'
asbag57
(g78
g59
NtRp735
(dp736
g62
(dp737
sg71
g722
sg64
(lp738
g57
(g58
g59
NtRp739
(dp740
g62
(dp741
g70
I4
ssg71
g735
sg64
(lp742
S'keep-alive'
p743
asbasbasbag57
(g73
g59
NtRp744
(dp745
g62
(dp746
sg71
g452
sg64
(lp747
g57
(g78
g59
NtRp748
(dp749
g62
(dp750
g82
g83
ssg71
g744
sg64
(lp751
S'http_cookie'
p752
asbag57
(g78
g59
NtRp753
(dp754
g62
(dp755
g89
g90
ssg71
g744
sg64
(lp756
S':'
asbag57
(g78
g59
NtRp757
(dp758
g62
(dp759
sg71
g744
sg64
(lp760
g57
(g58
g59
NtRp761
(dp762
g62
(dp763
g70
I4
ssg71
g757
sg64
(lp764
S'session_id_milo=127.0.0.1-6ea54ce8-d4d4-42e2-9f2c-7c1a0acc789f'
p765
asbasbasbag57
(g73
g59
NtRp766
(dp767
g62
(dp768
sg71
g452
sg64
(lp769
g57
(g78
g59
NtRp770
(dp771
g62
(dp772
g82
g83
ssg71
g766
sg64
(lp773
S'http_host'
p774
asbag57
(g78
g59
NtRp775
(dp776
g62
(dp777
g89
g90
ssg71
g766
sg64
(lp778
S':'
asbag57
(g78
g59
NtRp779
(dp780
g62
(dp781
sg71
g766
sg64
(lp782
g57
(g58
g59
NtRp783
(dp784
g62
(dp785
g70
I4
ssg71
g779
sg64
(lp786
S'localhost:8000'
p787
asbasbasbag57
(g73
g59
NtRp788
(dp789
g62
(dp790
sg71
g452
sg64
(lp791
g57
(g78
g59
NtRp792
(dp793
g62
(dp794
g82
g83
ssg71
g788
sg64
(lp795
S'http_referer'
p796
asbag57
(g78
g59
NtRp797
(dp798
g62
(dp799
g89
g90
ssg71
g788
sg64
(lp800
S':'
asbag57
(g78
g59
NtRp801
(dp802
g62
(dp803
sg71
g788
sg64
(lp804
g57
(g58
g59
NtRp805
(dp806
g62
(dp807
g70
I4
ssg71
g801
sg64
(lp808
S'http://localhost:8000/'
p809
asbasbasbag57
(g73
g59
NtRp810
(dp811
g62
(dp812
sg71
g452
sg64
(lp813
g57
(g78
g59
NtRp814
(dp815
g62
(dp816
g82
g83
ssg71
g810
sg64
(lp817
S'http_user_agent'
p818
asbag57
(g78
g59
NtRp819
(dp820
g62
(dp821
g89
g90
ssg71
g810
sg64
(lp822
S':'
asbag57
(g78
g59
NtRp823
(dp824
g62
(dp825
sg71
g810
sg64
(lp826
g57
(g58
g59
NtRp827
(dp828
g62
(dp829
g70
I4
ssg71
g823
sg64
(lp830
S'Mozilla/5.0 (X11; Linux x86_64) AppleWebKit/535.19 (KHTML, like Gecko) Ubuntu/12.04 Chromium/18.0.1025.168 Chrome/18.0.1025.168 Safari/535.19'
p831
asbasbasbag57
(g73
g59
NtRp832
(dp833
g62
(dp834
sg71
g452
sg64
(lp835
g57
(g78
g59
NtRp836
(dp837
g62
(dp838
g82
g83
ssg71
g832
sg64
(lp839
S'is_jython'
p840
asbag57
(g78
g59
NtRp841
(dp842
g62
(dp843
g89
g90
ssg71
g832
sg64
(lp844
S':'
asbag57
(g78
g59
NtRp845
(dp846
g62
(dp847
sg71
g832
sg64
(lp848
g57
(g58
g59
NtRp849
(dp850
g62
(dp851
g70
I4
ssg71
g845
sg64
(lp852
g100
asbasbasbag57
(g73
g59
NtRp853
(dp854
g62
(dp855
sg71
g452
sg64
(lp856
g57
(g78
g59
NtRp857
(dp858
g62
(dp859
g82
g83
ssg71
g853
sg64
(lp860
S'is_pypy'
p861
asbag57
(g78
g59
NtRp862
(dp863
g62
(dp864
g89
g90
ssg71
g853
sg64
(lp865
S':'
asbag57
(g78
g59
NtRp866
(dp867
g62
(dp868
sg71
g853
sg64
(lp869
g57
(g58
g59
NtRp870
(dp871
g62
(dp872
g70
I4
ssg71
g866
sg64
(lp873
g100
asbasbasbag57
(g73
g59
NtRp874
(dp875
g62
(dp876
sg71
g452
sg64
(lp877
g57
(g78
g59
NtRp878
(dp879
g62
(dp880
g82
g83
ssg71
g874
sg64
(lp881
S'path_info'
p882
asbag57
(g78
g59
NtRp883
(dp884
g62
(dp885
g89
g90
ssg71
g874
sg64
(lp886
S':'
asbag57
(g78
g59
NtRp887
(dp888
g62
(dp889
sg71
g874
sg64
(lp890
g57
(g58
g59
NtRp891
(dp892
g62
(dp893
g70
I4
ssg71
g887
sg64
(lp894
S'/milo/admin/index'
p895
asbasbasbag57
(g73
g59
NtRp896
(dp897
g62
(dp898
sg71
g452
sg64
(lp899
g57
(g78
g59
NtRp900
(dp901
g62
(dp902
g82
g83
ssg71
g896
sg64
(lp903
S'query_string'
p904
asbag57
(g78
g59
NtRp905
(dp906
g62
(dp907
g89
g90
ssg71
g896
sg64
(lp908
S':'
asbag57
(g78
g59
NtRp909
(dp910
g62
(dp911
sg71
g896
sg64
(lp912
g57
(g58
g59
NtRp913
(dp914
g62
(dp915
g70
I4
ssg71
g909
sg64
(lp916
S''
asbasbasbag57
(g73
g59
NtRp917
(dp918
g62
(dp919
sg71
g452
sg64
(lp920
g57
(g78
g59
NtRp921
(dp922
g62
(dp923
g82
g83
ssg71
g917
sg64
(lp924
S'remote_addr'
p925
asbag57
(g78
g59
NtRp926
(dp927
g62
(dp928
g89
g90
ssg71
g917
sg64
(lp929
S':'
asbag57
(g78
g59
NtRp930
(dp931
g62
(dp932
sg71
g917
sg64
(lp933
g57
(g58
g59
NtRp934
(dp935
g62
(dp936
g70
I4
ssg71
g930
sg64
(lp937
g190
asbasbasbag57
(g73
g59
NtRp938
(dp939
g62
(dp940
sg71
g452
sg64
(lp941
g57
(g78
g59
NtRp942
(dp943
g62
(dp944
g82
g83
ssg71
g938
sg64
(lp945
S'remote_port'
p946
asbag57
(g78
g59
NtRp947
(dp948
g62
(dp949
g89
g90
ssg71
g938
sg64
(lp950
S':'
asbag57
(g78
g59
NtRp951
(dp952
g62
(dp953
sg71
g938
sg64
(lp954
g57
(g58
g59
NtRp955
(dp956
g62
(dp957
g70
I4
ssg71
g951
sg64
(lp958
S'36400'
p959
asbasbasbag57
(g73
g59
NtRp960
(dp961
g62
(dp962
sg71
g452
sg64
(lp963
g57
(g78
g59
NtRp964
(dp965
g62
(dp966
g82
g83
ssg71
g960
sg64
(lp967
S'request_method'
p968
asbag57
(g78
g59
NtRp969
(dp970
g62
(dp971
g89
g90
ssg71
g960
sg64
(lp972
S':'
asbag57
(g78
g59
NtRp973
(dp974
g62
(dp975
sg71
g960
sg64
(lp976
g57
(g58
g59
NtRp977
(dp978
g62
(dp979
g70
I4
ssg71
g973
sg64
(lp980
S'GET'
p981
asbasbasbag57
(g73
g59
NtRp982
(dp983
g62
(dp984
sg71
g452
sg64
(lp985
g57
(g78
g59
NtRp986
(dp987
g62
(dp988
g82
g83
ssg71
g982
sg64
(lp989
S'request_uri'
p990
asbag57
(g78
g59
NtRp991
(dp992
g62
(dp993
g89
g90
ssg71
g982
sg64
(lp994
S':'
asbag57
(g78
g59
NtRp995
(dp996
g62
(dp997
sg71
g982
sg64
(lp998
g57
(g58
g59
NtRp999
(dp1000
g62
(dp1001
g70
I4
ssg71
g995
sg64
(lp1002
g895
asbasbasbag57
(g73
g59
NtRp1003
(dp1004
g62
(dp1005
sg71
g452
sg64
(lp1006
g57
(g78
g59
NtRp1007
(dp1008
g62
(dp1009
g82
g83
ssg71
g1003
sg64
(lp1010
S'script_name'
p1011
asbag57
(g78
g59
NtRp1012
(dp1013
g62
(dp1014
g89
g90
ssg71
g1003
sg64
(lp1015
S':'
asbag57
(g78
g59
NtRp1016
(dp1017
g62
(dp1018
sg71
g1003
sg64
(lp1019
g57
(g58
g59
NtRp1020
(dp1021
g62
(dp1022
g70
I4
ssg71
g1016
sg64
(lp1023
S''
asbasbasbag57
(g73
g59
NtRp1024
(dp1025
g62
(dp1026
sg71
g452
sg64
(lp1027
g57
(g78
g59
NtRp1028
(dp1029
g62
(dp1030
g82
g83
ssg71
g1024
sg64
(lp1031
S'server_name'
p1032
asbag57
(g78
g59
NtRp1033
(dp1034
g62
(dp1035
g89
g90
ssg71
g1024
sg64
(lp1036
S':'
asbag57
(g78
g59
NtRp1037
(dp1038
g62
(dp1039
sg71
g1024
sg64
(lp1040
g57
(g58
g59
NtRp1041
(dp1042
g62
(dp1043
g70
I4
ssg71
g1037
sg64
(lp1044
S'whisperer'
p1045
asbasbasbag57
(g73
g59
NtRp1046
(dp1047
g62
(dp1048
sg71
g452
sg64
(lp1049
g57
(g78
g59
NtRp1050
(dp1051
g62
(dp1052
g82
g83
ssg71
g1046
sg64
(lp1053
S'server_port'
p1054
asbag57
(g78
g59
NtRp1055
(dp1056
g62
(dp1057
g89
g90
ssg71
g1046
sg64
(lp1058
S':'
asbag57
(g78
g59
NtRp1059
(dp1060
g62
(dp1061
sg71
g1046
sg64
(lp1062
g57
(g58
g59
NtRp1063
(dp1064
g62
(dp1065
g70
I4
ssg71
g1059
sg64
(lp1066
S'8000'
p1067
asbasbasbag57
(g73
g59
NtRp1068
(dp1069
g62
(dp1070
sg71
g452
sg64
(lp1071
g57
(g78
g59
NtRp1072
(dp1073
g62
(dp1074
g82
g83
ssg71
g1068
sg64
(lp1075
S'server_protocol'
p1076
asbag57
(g78
g59
NtRp1077
(dp1078
g62
(dp1079
g89
g90
ssg71
g1068
sg64
(lp1080
S':'
asbag57
(g78
g59
NtRp1081
(dp1082
g62
(dp1083
sg71
g1068
sg64
(lp1084
g57
(g58
g59
NtRp1085
(dp1086
g62
(dp1087
g70
I4
ssg71
g1081
sg64
(lp1088
S'HTTP/1.1'
p1089
asbasbasbag57
(g73
g59
NtRp1090
(dp1091
g62
(dp1092
sg71
g452
sg64
(lp1093
g57
(g78
g59
NtRp1094
(dp1095
g62
(dp1096
g82
g83
ssg71
g1090
sg64
(lp1097
S'server_software'
p1098
asbag57
(g78
g59
NtRp1099
(dp1100
g62
(dp1101
g89
g90
ssg71
g1090
sg64
(lp1102
S':'
asbag57
(g78
g59
NtRp1103
(dp1104
g62
(dp1105
sg71
g1090
sg64
(lp1106
g57
(g58
g59
NtRp1107
(dp1108
g62
(dp1109
g70
I4
ssg71
g1103
sg64
(lp1110
S'Rocket 1.2.4'
p1111
asbasbasbag57
(g73
g59
NtRp1112
(dp1113
g62
(dp1114
sg71
g452
sg64
(lp1115
g57
(g78
g59
NtRp1116
(dp1117
g62
(dp1118
g82
g83
ssg71
g1112
sg64
(lp1119
S'web2py_crontype'
p1120
asbag57
(g78
g59
NtRp1121
(dp1122
g62
(dp1123
g89
g90
ssg71
g1112
sg64
(lp1124
S':'
asbag57
(g78
g59
NtRp1125
(dp1126
g62
(dp1127
sg71
g1112
sg64
(lp1128
g57
(g58
g59
NtRp1129
(dp1130
g62
(dp1131
g70
I4
ssg71
g1125
sg64
(lp1132
S'hard'
p1133
asbasbasbag57
(g73
g59
NtRp1134
(dp1135
g62
(dp1136
sg71
g452
sg64
(lp1137
g57
(g78
g59
NtRp1138
(dp1139
g62
(dp1140
g82
g83
ssg71
g1134
sg64
(lp1141
S'web2py_original_uri'
p1142
asbag57
(g78
g59
NtRp1143
(dp1144
g62
(dp1145
g89
g90
ssg71
g1134
sg64
(lp1146
S':'
asbag57
(g78
g59
NtRp1147
(dp1148
g62
(dp1149
sg71
g1134
sg64
(lp1150
g57
(g58
g59
NtRp1151
(dp1152
g62
(dp1153
g70
I4
ssg71
g1147
sg64
(lp1154
g895
asbasbasbag57
(g73
g59
NtRp1155
(dp1156
g62
(dp1157
sg71
g452
sg64
(lp1158
g57
(g78
g59
NtRp1159
(dp1160
g62
(dp1161
g82
g83
ssg71
g1155
sg64
(lp1162
S'web2py_path'
p1163
asbag57
(g78
g59
NtRp1164
(dp1165
g62
(dp1166
g89
g90
ssg71
g1155
sg64
(lp1167
S':'
asbag57
(g78
g59
NtRp1168
(dp1169
g62
(dp1170
sg71
g1155
sg64
(lp1171
g57
(g58
g59
NtRp1172
(dp1173
g62
(dp1174
g70
I4
ssg71
g1168
sg64
(lp1175
g499
asbasbasbag57
(g73
g59
NtRp1176
(dp1177
g62
(dp1178
sg71
g452
sg64
(lp1179
g57
(g78
g59
NtRp1180
(dp1181
g62
(dp1182
g82
g83
ssg71
g1176
sg64
(lp1183
S'web2py_version'
p1184
asbag57
(g78
g59
NtRp1185
(dp1186
g62
(dp1187
g89
g90
ssg71
g1176
sg64
(lp1188
S':'
asbag57
(g78
g59
NtRp1189
(dp1190
g62
(dp1191
sg71
g1176
sg64
(lp1192
g57
(g58
g59
NtRp1193
(dp1194
g62
(dp1195
g70
I4
ssg71
g1189
sg64
(lp1196
g57
(g66
g59
NtRp1197
(dp1198
g62
(dp1199
g70
I3
ssg71
Nsg64
(lp1200
g57
(g73
g59
NtRp1201
(dp1202
g62
(dp1203
sg71
g1197
sg64
(lp1204
g57
(g78
g59
NtRp1205
(dp1206
g62
(dp1207
sg71
g1201
sg64
(lp1208
g57
(g58
g59
NtRp1209
(dp1210
g62
(dp1211
g70
I3
ssg71
g1205
sg64
(lp1212
S'1'
asbasbasbag57
(g73
g59
NtRp1213
(dp1214
g62
(dp1215
sg71
g1197
sg64
(lp1216
g57
(g78
g59
NtRp1217
(dp1218
g62
(dp1219
sg71
g1213
sg64
(lp1220
g57
(g58
g59
NtRp1221
(dp1222
g62
(dp1223
g70
I3
ssg71
g1217
sg64
(lp1224
S'99'
p1225
asbasbasbag57
(g73
g59
NtRp1226
(dp1227
g62
(dp1228
sg71
g1197
sg64
(lp1229
g57
(g78
g59
NtRp1230
(dp1231
g62
(dp1232
sg71
g1226
sg64
(lp1233
g57
(g58
g59
NtRp1234
(dp1235
g62
(dp1236
g70
I3
ssg71
g1230
sg64
(lp1237
S'7'
asbasbasbag57
(g73
g59
NtRp1238
(dp1239
g62
(dp1240
sg71
g1197
sg64
(lp1241
g57
(g78
g59
NtRp1242
(dp1243
g62
(dp1244
sg71
g1238
sg64
(lp1245
g57
(g58
g59
NtRp1246
(dp1247
g62
(dp1248
g70
I3
ssg71
g1242
sg64
(lp1249
S'datetime.datetime(2012, 3, 4, 22, 12, 8)'
p1250
asbasbasbag57
(g73
g59
NtRp1251
(dp1252
g62
(dp1253
sg71
g1197
sg64
(lp1254
g57
(g78
g59
NtRp1255
(dp1256
g62
(dp1257
sg71
g1251
sg64
(lp1258
g57
(g58
g59
NtRp1259
(dp1260
g62
(dp1261
g70
I3
ssg71
g1255
sg64
(lp1262
S'stable'
p1263
asbasbasbasbasbasbasbag57
(g73
g59
NtRp1264
(dp1265
g62
(dp1266
sg71
g452
sg64
(lp1267
g57
(g78
g59
NtRp1268
(dp1269
g62
(dp1270
g82
g83
ssg71
g1264
sg64
(lp1271
S'wsgi_errors'
p1272
asbag57
(g78
g59
NtRp1273
(dp1274
g62
(dp1275
g89
g90
ssg71
g1264
sg64
(lp1276
S':'
asbag57
(g78
g59
NtRp1277
(dp1278
g62
(dp1279
sg71
g1264
sg64
(lp1280
g57
(g58
g59
NtRp1281
(dp1282
g62
(dp1283
g70
I4
ssg71
g1277
sg64
(lp1284
S"<open file '<stderr>', mode 'w' at 0x7fa7495e3270>"
p1285
asbasbasbag57
(g73
g59
NtRp1286
(dp1287
g62
(dp1288
sg71
g452
sg64
(lp1289
g57
(g78
g59
NtRp1290
(dp1291
g62
(dp1292
g82
g83
ssg71
g1286
sg64
(lp1293
S'wsgi_file_wrapper'
p1294
asbag57
(g78
g59
NtRp1295
(dp1296
g62
(dp1297
g89
g90
ssg71
g1286
sg64
(lp1298
S':'
asbag57
(g78
g59
NtRp1299
(dp1300
g62
(dp1301
sg71
g1286
sg64
(lp1302
g57
(g58
g59
NtRp1303
(dp1304
g62
(dp1305
g70
I4
ssg71
g1299
sg64
(lp1306
S'<class wsgiref.util.FileWrapper at 0x2f20f58>'
p1307
asbasbasbag57
(g73
g59
NtRp1308
(dp1309
g62
(dp1310
sg71
g452
sg64
(lp1311
g57
(g78
g59
NtRp1312
(dp1313
g62
(dp1314
g82
g83
ssg71
g1308
sg64
(lp1315
S'wsgi_input'
p1316
asbag57
(g78
g59
NtRp1317
(dp1318
g62
(dp1319
g89
g90
ssg71
g1308
sg64
(lp1320
S':'
asbag57
(g78
g59
NtRp1321
(dp1322
g62
(dp1323
sg71
g1308
sg64
(lp1324
g57
(g58
g59
NtRp1325
(dp1326
g62
(dp1327
g70
I4
ssg71
g1321
sg64
(lp1328
S'<socket._fileobject object at 0x7fa735146cd0>'
p1329
asbasbasbag57
(g73
g59
NtRp1330
(dp1331
g62
(dp1332
sg71
g452
sg64
(lp1333
g57
(g78
g59
NtRp1334
(dp1335
g62
(dp1336
g82
g83
ssg71
g1330
sg64
(lp1337
S'wsgi_multiprocess'
p1338
asbag57
(g78
g59
NtRp1339
(dp1340
g62
(dp1341
g89
g90
ssg71
g1330
sg64
(lp1342
S':'
asbag57
(g78
g59
NtRp1343
(dp1344
g62
(dp1345
sg71
g1330
sg64
(lp1346
g57
(g58
g59
NtRp1347
(dp1348
g62
(dp1349
g70
I4
ssg71
g1343
sg64
(lp1350
g100
asbasbasbag57
(g73
g59
NtRp1351
(dp1352
g62
(dp1353
sg71
g452
sg64
(lp1354
g57
(g78
g59
NtRp1355
(dp1356
g62
(dp1357
g82
g83
ssg71
g1351
sg64
(lp1358
S'wsgi_multithread'
p1359
asbag57
(g78
g59
NtRp1360
(dp1361
g62
(dp1362
g89
g90
ssg71
g1351
sg64
(lp1363
S':'
asbag57
(g78
g59
NtRp1364
(dp1365
g62
(dp1366
sg71
g1351
sg64
(lp1367
g57
(g58
g59
NtRp1368
(dp1369
g62
(dp1370
g70
I4
ssg71
g1364
sg64
(lp1371
S'True'
p1372
asbasbasbag57
(g73
g59
NtRp1373
(dp1374
g62
(dp1375
sg71
g452
sg64
(lp1376
g57
(g78
g59
NtRp1377
(dp1378
g62
(dp1379
g82
g83
ssg71
g1373
sg64
(lp1380
S'wsgi_run_once'
p1381
asbag57
(g78
g59
NtRp1382
(dp1383
g62
(dp1384
g89
g90
ssg71
g1373
sg64
(lp1385
S':'
asbag57
(g78
g59
NtRp1386
(dp1387
g62
(dp1388
sg71
g1373
sg64
(lp1389
g57
(g58
g59
NtRp1390
(dp1391
g62
(dp1392
g70
I4
ssg71
g1386
sg64
(lp1393
g100
asbasbasbag57
(g73
g59
NtRp1394
(dp1395
g62
(dp1396
sg71
g452
sg64
(lp1397
g57
(g78
g59
NtRp1398
(dp1399
g62
(dp1400
g82
g83
ssg71
g1394
sg64
(lp1401
S'wsgi_url_scheme'
p1402
asbag57
(g78
g59
NtRp1403
(dp1404
g62
(dp1405
g89
g90
ssg71
g1394
sg64
(lp1406
S':'
asbag57
(g78
g59
NtRp1407
(dp1408
g62
(dp1409
sg71
g1394
sg64
(lp1410
g57
(g58
g59
NtRp1411
(dp1412
g62
(dp1413
g70
I4
ssg71
g1407
sg64
(lp1414
S'http'
p1415
asbasbasbag57
(g73
g59
NtRp1416
(dp1417
g62
(dp1418
sg71
g452
sg64
(lp1419
g57
(g78
g59
NtRp1420
(dp1421
g62
(dp1422
g82
g83
ssg71
g1416
sg64
(lp1423
S'wsgi_version'
p1424
asbag57
(g78
g59
NtRp1425
(dp1426
g62
(dp1427
g89
g90
ssg71
g1416
sg64
(lp1428
S':'
asbag57
(g78
g59
NtRp1429
(dp1430
g62
(dp1431
sg71
g1416
sg64
(lp1432
g57
(g58
g59
NtRp1433
(dp1434
g62
(dp1435
g70
I4
ssg71
g1429
sg64
(lp1436
g57
(g66
g59
NtRp1437
(dp1438
g62
(dp1439
g70
I3
ssg71
Nsg64
(lp1440
g57
(g73
g59
NtRp1441
(dp1442
g62
(dp1443
sg71
g1437
sg64
(lp1444
g57
(g78
g59
NtRp1445
(dp1446
g62
(dp1447
sg71
g1441
sg64
(lp1448
g57
(g58
g59
NtRp1449
(dp1450
g62
(dp1451
g70
I3
ssg71
g1445
sg64
(lp1452
S'1'
asbasbasbag57
(g73
g59
NtRp1453
(dp1454
g62
(dp1455
sg71
g1437
sg64
(lp1456
g57
(g78
g59
NtRp1457
(dp1458
g62
(dp1459
sg71
g1453
sg64
(lp1460
g57
(g58
g59
NtRp1461
(dp1462
g62
(dp1463
g70
I3
ssg71
g1457
sg64
(lp1464
S'0'
asbasbasbasbasbasbasbasbasbasbasbag57
(g73
g59
NtRp1465
(dp1466
g62
(dp1467
sg71
g67
sg64
(lp1468
g57
(g78
g59
NtRp1469
(dp1470
g62
(dp1471
g82
g83
ssg71
g1465
sg64
(lp1472
S'extension'
p1473
asbag57
(g78
g59
NtRp1474
(dp1475
g62
(dp1476
g89
g90
ssg71
g1465
sg64
(lp1477
S':'
asbag57
(g78
g59
NtRp1478
(dp1479
g62
(dp1480
sg71
g1465
sg64
(lp1481
g57
(g58
g59
NtRp1482
(dp1483
g62
(dp1484
g70
I5
ssg71
g1478
sg64
(lp1485
S'html'
p1486
asbasbasbag57
(g73
g59
NtRp1487
(dp1488
g62
(dp1489
sg71
g67
sg64
(lp1490
g57
(g78
g59
NtRp1491
(dp1492
g62
(dp1493
g82
g83
ssg71
g1487
sg64
(lp1494
S'folder'
p1495
asbag57
(g78
g59
NtRp1496
(dp1497
g62
(dp1498
g89
g90
ssg71
g1487
sg64
(lp1499
S':'
asbag57
(g78
g59
NtRp1500
(dp1501
g62
(dp1502
sg71
g1487
sg64
(lp1503
g57
(g58
g59
NtRp1504
(dp1505
g62
(dp1506
g70
I5
ssg71
g1500
sg64
(lp1507
S'/home/goshawk/web2py/applications/milo/'
p1508
asbasbasbag57
(g73
g59
NtRp1509
(dp1510
g62
(dp1511
sg71
g67
sg64
(lp1512
g57
(g78
g59
NtRp1513
(dp1514
g62
(dp1515
g82
g83
ssg71
g1509
sg64
(lp1516
S'function'
p1517
asbag57
(g78
g59
NtRp1518
(dp1519
g62
(dp1520
g89
g90
ssg71
g1509
sg64
(lp1521
S':'
asbag57
(g78
g59
NtRp1522
(dp1523
g62
(dp1524
sg71
g1509
sg64
(lp1525
g57
(g58
g59
NtRp1526
(dp1527
g62
(dp1528
g70
I5
ssg71
g1522
sg64
(lp1529
S'index'
p1530
asbasbasbag57
(g73
g59
NtRp1531
(dp1532
g62
(dp1533
sg71
g67
sg64
(lp1534
g57
(g78
g59
NtRp1535
(dp1536
g62
(dp1537
g82
g83
ssg71
g1531
sg64
(lp1538
S'get_vars'
p1539
asbag57
(g78
g59
NtRp1540
(dp1541
g62
(dp1542
g89
g90
ssg71
g1531
sg64
(lp1543
S':'
asbag57
(g78
g59
NtRp1544
(dp1545
g62
(dp1546
sg71
g1531
sg64
(lp1547
g57
(g58
g59
NtRp1548
(dp1549
g62
(dp1550
g70
I5
ssg71
g1544
sg64
(lp1551
g57
(g66
g59
NtRp1552
(dp1553
g62
(dp1554
g70
I4
ssg71
Nsg64
(lp1555
sbasbasbasbag57
(g73
g59
NtRp1556
(dp1557
g62
(dp1558
sg71
g67
sg64
(lp1559
g57
(g78
g59
NtRp1560
(dp1561
g62
(dp1562
g82
g83
ssg71
g1556
sg64
(lp1563
S'global_settings'
p1564
asbag57
(g78
g59
NtRp1565
(dp1566
g62
(dp1567
g89
g90
ssg71
g1556
sg64
(lp1568
S':'
asbag57
(g78
g59
NtRp1569
(dp1570
g62
(dp1571
sg71
g1556
sg64
(lp1572
g57
(g58
g59
NtRp1573
(dp1574
g62
(dp1575
g70
I5
ssg71
g1569
sg64
(lp1576
g57
(g66
g59
NtRp1577
(dp1578
g62
(dp1579
g70
I4
ssg71
Nsg64
(lp1580
g57
(g73
g59
NtRp1581
(dp1582
g62
(dp1583
sg71
g1577
sg64
(lp1584
g57
(g78
g59
NtRp1585
(dp1586
g62
(dp1587
g82
g83
ssg71
g1581
sg64
(lp1588
g464
asbag57
(g78
g59
NtRp1589
(dp1590
g62
(dp1591
g89
g90
ssg71
g1581
sg64
(lp1592
S':'
asbag57
(g78
g59
NtRp1593
(dp1594
g62
(dp1595
sg71
g1581
sg64
(lp1596
g57
(g58
g59
NtRp1597
(dp1598
g62
(dp1599
g70
I4
ssg71
g1593
sg64
(lp1600
S"set(['/home/goshawk/web2py/applications/milo/', '/home/goshawk/web2py/applications/admin/'])"
p1601
asbasbasbag57
(g73
g59
NtRp1602
(dp1603
g62
(dp1604
sg71
g1577
sg64
(lp1605
g57
(g78
g59
NtRp1606
(dp1607
g62
(dp1608
g82
g83
ssg71
g1602
sg64
(lp1609
g486
asbag57
(g78
g59
NtRp1610
(dp1611
g62
(dp1612
g89
g90
ssg71
g1602
sg64
(lp1613
S':'
asbag57
(g78
g59
NtRp1614
(dp1615
g62
(dp1616
sg71
g1602
sg64
(lp1617
g57
(g58
g59
NtRp1618
(dp1619
g62
(dp1620
g70
I4
ssg71
g1614
sg64
(lp1621
g499
asbasbasbag57
(g73
g59
NtRp1622
(dp1623
g62
(dp1624
sg71
g1577
sg64
(lp1625
g57
(g78
g59
NtRp1626
(dp1627
g62
(dp1628
g82
g83
ssg71
g1622
sg64
(lp1629
g508
asbag57
(g78
g59
NtRp1630
(dp1631
g62
(dp1632
g89
g90
ssg71
g1622
sg64
(lp1633
S':'
asbag57
(g78
g59
NtRp1634
(dp1635
g62
(dp1636
sg71
g1622
sg64
(lp1637
g57
(g58
g59
NtRp1638
(dp1639
g62
(dp1640
g70
I4
ssg71
g1634
sg64
(lp1641
g57
(g66
g59
NtRp1642
(dp1643
g62
(dp1644
g70
I3
ssg71
Nsg64
(lp1645
sbasbasbasbag57
(g73
g59
NtRp1646
(dp1647
g62
(dp1648
sg71
g1577
sg64
(lp1649
g57
(g78
g59
NtRp1650
(dp1651
g62
(dp1652
g82
g83
ssg71
g1646
sg64
(lp1653
g533
asbag57
(g78
g59
NtRp1654
(dp1655
g62
(dp1656
g89
g90
ssg71
g1646
sg64
(lp1657
S':'
asbag57
(g78
g59
NtRp1658
(dp1659
g62
(dp1660
sg71
g1646
sg64
(lp1661
g57
(g58
g59
NtRp1662
(dp1663
g62
(dp1664
g70
I4
ssg71
g1658
sg64
(lp1665
S"<Values at 0x2ff40e0: {'verbose': False, 'ip': '127.0.0.1', 'shutdown_timeout': 5, 'taskbar': False, 'nocron': False, 'pid_filename': 'httpserver.pid', 'maxthreads': None, 'softcron': False, 'server_name': 'whisperer', 'bpython': False, 'nogui': False, 'port': 8000, 'extcron': False, 'debuglevel': 30, 'test': None, 'folder': '/home/goshawk/web2py', 'config': '', 'import_models': False, 'winservice': '', 'shell': None, 'run': '', 'log_filename': 'httpserver.log', 'args': [''], 'socket_timeout': 5, 'ssl_ca_certificate': None, 'scheduler': None, 'profiler_filename': None, 'ssl_private_key': '', 'password': 'admin', 'request_queue_size': 5, 'ssl_certificate': '', 'cronjob': False, 'numthreads': None, 'quiet': False, 'interfaces': None, 'minthreads': None, 'timeout': 10, 'plain': False, 'nobanner': False}>"
p1666
asbasbasbag57
(g73
g59
NtRp1667
(dp1668
g62
(dp1669
sg71
g1577
sg64
(lp1670
g57
(g78
g59
NtRp1671
(dp1672
g62
(dp1673
g82
g83
ssg71
g1667
sg64
(lp1674
g555
asbag57
(g78
g59
NtRp1675
(dp1676
g62
(dp1677
g89
g90
ssg71
g1667
sg64
(lp1678
S':'
asbag57
(g78
g59
NtRp1679
(dp1680
g62
(dp1681
sg71
g1667
sg64
(lp1682
g57
(g58
g59
NtRp1683
(dp1684
g62
(dp1685
g70
I4
ssg71
g1679
sg64
(lp1686
S'set([])'
p1687
asbasbasbag57
(g73
g59
NtRp1688
(dp1689
g62
(dp1690
sg71
g1577
sg64
(lp1691
g57
(g78
g59
NtRp1692
(dp1693
g62
(dp1694
g82
g83
ssg71
g1688
sg64
(lp1695
g577
asbag57
(g78
g59
NtRp1696
(dp1697
g62
(dp1698
g89
g90
ssg71
g1688
sg64
(lp1699
S':'
asbag57
(g78
g59
NtRp1700
(dp1701
g62
(dp1702
sg71
g1688
sg64
(lp1703
g57
(g58
g59
NtRp1704
(dp1705
g62
(dp1706
g70
I4
ssg71
g1700
sg64
(lp1707
g100
asbasbasbag57
(g73
g59
NtRp1708
(dp1709
g62
(dp1710
sg71
g1577
sg64
(lp1711
g57
(g78
g59
NtRp1712
(dp1713
g62
(dp1714
g82
g83
ssg71
g1708
sg64
(lp1715
g598
asbag57
(g78
g59
NtRp1716
(dp1717
g62
(dp1718
g89
g90
ssg71
g1708
sg64
(lp1719
S':'
asbag57
(g78
g59
NtRp1720
(dp1721
g62
(dp1722
sg71
g1708
sg64
(lp1723
g57
(g58
g59
NtRp1724
(dp1725
g62
(dp1726
g70
I4
ssg71
g1720
sg64
(lp1727
g611
asbasbasbag57
(g73
g59
NtRp1728
(dp1729
g62
(dp1730
sg71
g1577
sg64
(lp1731
g57
(g78
g59
NtRp1732
(dp1733
g62
(dp1734
g82
g83
ssg71
g1728
sg64
(lp1735
g840
asbag57
(g78
g59
NtRp1736
(dp1737
g62
(dp1738
g89
g90
ssg71
g1728
sg64
(lp1739
S':'
asbag57
(g78
g59
NtRp1740
(dp1741
g62
(dp1742
sg71
g1728
sg64
(lp1743
g57
(g58
g59
NtRp1744
(dp1745
g62
(dp1746
g70
I4
ssg71
g1740
sg64
(lp1747
g100
asbasbasbag57
(g73
g59
NtRp1748
(dp1749
g62
(dp1750
sg71
g1577
sg64
(lp1751
g57
(g78
g59
NtRp1752
(dp1753
g62
(dp1754
g82
g83
ssg71
g1748
sg64
(lp1755
g861
asbag57
(g78
g59
NtRp1756
(dp1757
g62
(dp1758
g89
g90
ssg71
g1748
sg64
(lp1759
S':'
asbag57
(g78
g59
NtRp1760
(dp1761
g62
(dp1762
sg71
g1748
sg64
(lp1763
g57
(g58
g59
NtRp1764
(dp1765
g62
(dp1766
g70
I4
ssg71
g1760
sg64
(lp1767
g100
asbasbasbag57
(g73
g59
NtRp1768
(dp1769
g62
(dp1770
sg71
g1577
sg64
(lp1771
g57
(g78
g59
NtRp1772
(dp1773
g62
(dp1774
g82
g83
ssg71
g1768
sg64
(lp1775
g1120
asbag57
(g78
g59
NtRp1776
(dp1777
g62
(dp1778
g89
g90
ssg71
g1768
sg64
(lp1779
S':'
asbag57
(g78
g59
NtRp1780
(dp1781
g62
(dp1782
sg71
g1768
sg64
(lp1783
g57
(g58
g59
NtRp1784
(dp1785
g62
(dp1786
g70
I4
ssg71
g1780
sg64
(lp1787
g1133
asbasbasbag57
(g73
g59
NtRp1788
(dp1789
g62
(dp1790
sg71
g1577
sg64
(lp1791
g57
(g78
g59
NtRp1792
(dp1793
g62
(dp1794
g82
g83
ssg71
g1788
sg64
(lp1795
g1184
asbag57
(g78
g59
NtRp1796
(dp1797
g62
(dp1798
g89
g90
ssg71
g1788
sg64
(lp1799
S':'
asbag57
(g78
g59
NtRp1800
(dp1801
g62
(dp1802
sg71
g1788
sg64
(lp1803
g57
(g58
g59
NtRp1804
(dp1805
g62
(dp1806
g70
I4
ssg71
g1800
sg64
(lp1807
g57
(g66
g59
NtRp1808
(dp1809
g62
(dp1810
g70
I3
ssg71
Nsg64
(lp1811
g57
(g73
g59
NtRp1812
(dp1813
g62
(dp1814
sg71
g1808
sg64
(lp1815
g57
(g78
g59
NtRp1816
(dp1817
g62
(dp1818
sg71
g1812
sg64
(lp1819
g57
(g58
g59
NtRp1820
(dp1821
g62
(dp1822
g70
I3
ssg71
g1816
sg64
(lp1823
S'1'
asbasbasbag57
(g73
g59
NtRp1824
(dp1825
g62
(dp1826
sg71
g1808
sg64
(lp1827
g57
(g78
g59
NtRp1828
(dp1829
g62
(dp1830
sg71
g1824
sg64
(lp1831
g57
(g58
g59
NtRp1832
(dp1833
g62
(dp1834
g70
I3
ssg71
g1828
sg64
(lp1835
S'99'
p1836
asbasbasbag57
(g73
g59
NtRp1837
(dp1838
g62
(dp1839
sg71
g1808
sg64
(lp1840
g57
(g78
g59
NtRp1841
(dp1842
g62
(dp1843
sg71
g1837
sg64
(lp1844
g57
(g58
g59
NtRp1845
(dp1846
g62
(dp1847
g70
I3
ssg71
g1841
sg64
(lp1848
S'7'
asbasbasbag57
(g73
g59
NtRp1849
(dp1850
g62
(dp1851
sg71
g1808
sg64
(lp1852
g57
(g78
g59
NtRp1853
(dp1854
g62
(dp1855
sg71
g1849
sg64
(lp1856
g57
(g58
g59
NtRp1857
(dp1858
g62
(dp1859
g70
I3
ssg71
g1853
sg64
(lp1860
S'datetime.datetime(2012, 3, 4, 22, 12, 8)'
p1861
asbasbasbag57
(g73
g59
NtRp1862
(dp1863
g62
(dp1864
sg71
g1808
sg64
(lp1865
g57
(g78
g59
NtRp1866
(dp1867
g62
(dp1868
sg71
g1862
sg64
(lp1869
g57
(g58
g59
NtRp1870
(dp1871
g62
(dp1872
g70
I3
ssg71
g1866
sg64
(lp1873
g1263
asbasbasbasbasbasbasbasbasbasbasbag57
(g73
g59
NtRp1874
(dp1875
g62
(dp1876
sg71
g67
sg64
(lp1877
g57
(g78
g59
NtRp1878
(dp1879
g62
(dp1880
g82
g83
ssg71
g1874
sg64
(lp1881
S'is_https'
p1882
asbag57
(g78
g59
NtRp1883
(dp1884
g62
(dp1885
g89
g90
ssg71
g1874
sg64
(lp1886
S':'
asbag57
(g78
g59
NtRp1887
(dp1888
g62
(dp1889
sg71
g1874
sg64
(lp1890
g57
(g58
g59
NtRp1891
(dp1892
g62
(dp1893
g70
I5
ssg71
g1887
sg64
(lp1894
g100
asbasbasbag57
(g73
g59
NtRp1895
(dp1896
g62
(dp1897
sg71
g67
sg64
(lp1898
g57
(g78
g59
NtRp1899
(dp1900
g62
(dp1901
g82
g83
ssg71
g1895
sg64
(lp1902
S'is_local'
p1903
asbag57
(g78
g59
NtRp1904
(dp1905
g62
(dp1906
g89
g90
ssg71
g1895
sg64
(lp1907
S':'
asbag57
(g78
g59
NtRp1908
(dp1909
g62
(dp1910
sg71
g1895
sg64
(lp1911
g57
(g58
g59
NtRp1912
(dp1913
g62
(dp1914
g70
I5
ssg71
g1908
sg64
(lp1915
g1372
asbasbasbag57
(g73
g59
NtRp1916
(dp1917
g62
(dp1918
sg71
g67
sg64
(lp1919
g57
(g78
g59
NtRp1920
(dp1921
g62
(dp1922
g82
g83
ssg71
g1916
sg64
(lp1923
S'is_restful'
p1924
asbag57
(g78
g59
NtRp1925
(dp1926
g62
(dp1927
g89
g90
ssg71
g1916
sg64
(lp1928
S':'
asbag57
(g78
g59
NtRp1929
(dp1930
g62
(dp1931
sg71
g1916
sg64
(lp1932
g57
(g58
g59
NtRp1933
(dp1934
g62
(dp1935
g70
I5
ssg71
g1929
sg64
(lp1936
g100
asbasbasbag57
(g73
g59
NtRp1937
(dp1938
g62
(dp1939
sg71
g67
sg64
(lp1940
g57
(g78
g59
NtRp1941
(dp1942
g62
(dp1943
g82
g83
ssg71
g1937
sg64
(lp1944
S'now'
p1945
asbag57
(g78
g59
NtRp1946
(dp1947
g62
(dp1948
g89
g90
ssg71
g1937
sg64
(lp1949
S':'
asbag57
(g78
g59
NtRp1950
(dp1951
g62
(dp1952
sg71
g1937
sg64
(lp1953
g57
(g58
g59
NtRp1954
(dp1955
g62
(dp1956
g70
I5
ssg71
g1950
sg64
(lp1957
S'datetime.datetime(2012, 7, 15, 0, 48, 24, 362947)'
p1958
asbasbasbag57
(g73
g59
NtRp1959
(dp1960
g62
(dp1961
sg71
g67
sg64
(lp1962
g57
(g78
g59
NtRp1963
(dp1964
g62
(dp1965
g82
g83
ssg71
g1959
sg64
(lp1966
S'post_vars'
p1967
asbag57
(g78
g59
NtRp1968
(dp1969
g62
(dp1970
g89
g90
ssg71
g1959
sg64
(lp1971
S':'
asbag57
(g78
g59
NtRp1972
(dp1973
g62
(dp1974
sg71
g1959
sg64
(lp1975
g57
(g58
g59
NtRp1976
(dp1977
g62
(dp1978
g70
I5
ssg71
g1972
sg64
(lp1979
g57
(g66
g59
NtRp1980
(dp1981
g62
(dp1982
g70
I4
ssg71
Nsg64
(lp1983
sbasbasbasbag57
(g73
g59
NtRp1984
(dp1985
g62
(dp1986
sg71
g67
sg64
(lp1987
g57
(g78
g59
NtRp1988
(dp1989
g62
(dp1990
g82
g83
ssg71
g1984
sg64
(lp1991
S'url'
p1992
asbag57
(g78
g59
NtRp1993
(dp1994
g62
(dp1995
g89
g90
ssg71
g1984
sg64
(lp1996
S':'
asbag57
(g78
g59
NtRp1997
(dp1998
g62
(dp1999
sg71
g1984
sg64
(lp2000
g57
(g58
g59
NtRp2001
(dp2002
g62
(dp2003
g70
I5
ssg71
g1997
sg64
(lp2004
S'/milo/admin/index'
p2005
asbasbasbag57
(g73
g59
NtRp2006
(dp2007
g62
(dp2008
sg71
g67
sg64
(lp2009
g57
(g78
g59
NtRp2010
(dp2011
g62
(dp2012
g82
g83
ssg71
g2006
sg64
(lp2013
S'utcnow'
p2014
asbag57
(g78
g59
NtRp2015
(dp2016
g62
(dp2017
g89
g90
ssg71
g2006
sg64
(lp2018
S':'
asbag57
(g78
g59
NtRp2019
(dp2020
g62
(dp2021
sg71
g2006
sg64
(lp2022
g57
(g58
g59
NtRp2023
(dp2024
g62
(dp2025
g70
I5
ssg71
g2019
sg64
(lp2026
S'datetime.datetime(2012, 7, 14, 22, 48, 24, 362967)'
p2027
asbasbasbag57
(g73
g59
NtRp2028
(dp2029
g62
(dp2030
sg71
g67
sg64
(lp2031
g57
(g78
g59
NtRp2032
(dp2033
g62
(dp2034
g82
g83
ssg71
g2028
sg64
(lp2035
S'uuid'
p2036
asbag57
(g78
g59
NtRp2037
(dp2038
g62
(dp2039
g89
g90
ssg71
g2028
sg64
(lp2040
S':'
asbag57
(g78
g59
NtRp2041
(dp2042
g62
(dp2043
sg71
g2028
sg64
(lp2044
g57
(g58
g59
NtRp2045
(dp2046
g62
(dp2047
g70
I5
ssg71
g2041
sg64
(lp2048
S'milo/127.0.0.1.2012-07-15.00-48-24.17ecfde1-12ba-48d7-bdea-8b6995de539e'
p2049
asbasbasbag57
(g73
g59
NtRp2050
(dp2051
g62
(dp2052
sg71
g67
sg64
(lp2053
g57
(g78
g59
NtRp2054
(dp2055
g62
(dp2056
g82
g83
ssg71
g2050
sg64
(lp2057
S'vars'
p2058
asbag57
(g78
g59
NtRp2059
(dp2060
g62
(dp2061
g89
g90
ssg71
g2050
sg64
(lp2062
S':'
asbag57
(g78
g59
NtRp2063
(dp2064
g62
(dp2065
sg71
g2050
sg64
(lp2066
g57
(g58
g59
NtRp2067
(dp2068
g62
(dp2069
g70
I5
ssg71
g2063
sg64
(lp2070
g57
(g66
g59
NtRp2071
(dp2072
g62
(dp2073
g70
I4
ssg71
Nsg64
(lp2074
sbasbasbasbag57
(g73
g59
NtRp2075
(dp2076
g62
(dp2077
sg71
g67
sg64
(lp2078
g57
(g78
g59
NtRp2079
(dp2080
g62
(dp2081
g82
g83
ssg71
g2075
sg64
(lp2082
S'wsgi'
p2083
asbag57
(g78
g59
NtRp2084
(dp2085
g62
(dp2086
g89
g90
ssg71
g2075
sg64
(lp2087
S':'
asbag57
(g78
g59
NtRp2088
(dp2089
g62
(dp2090
sg71
g2075
sg64
(lp2091
g57
(g58
g59
NtRp2092
(dp2093
g62
(dp2094
g70
I5
ssg71
g2088
sg64
(lp2095
g57
(g66
g59
NtRp2096
(dp2097
g62
(dp2098
g70
I4
ssg71
Nsg64
(lp2099
g57
(g73
g59
NtRp2100
(dp2101
g62
(dp2102
sg71
g2096
sg64
(lp2103
g57
(g78
g59
NtRp2104
(dp2105
g62
(dp2106
g82
g83
ssg71
g2100
sg64
(lp2107
S'environ'
p2108
asbag57
(g78
g59
NtRp2109
(dp2110
g62
(dp2111
g89
g90
ssg71
g2100
sg64
(lp2112
S':'
asbag57
(g78
g59
NtRp2113
(dp2114
g62
(dp2115
sg71
g2100
sg64
(lp2116
g57
(g58
g59
NtRp2117
(dp2118
g62
(dp2119
g70
I4
ssg71
g2113
sg64
(lp2120
g57
(g66
g59
NtRp2121
(dp2122
g62
(dp2123
g70
I3
ssg71
Nsg64
(lp2124
g57
(g73
g59
NtRp2125
(dp2126
g62
(dp2127
sg71
g2121
sg64
(lp2128
g57
(g78
g59
NtRp2129
(dp2130
g62
(dp2131
g82
g83
ssg71
g2125
sg64
(lp2132
S'HTTP_ACCEPT'
p2133
asbag57
(g78
g59
NtRp2134
(dp2135
g62
(dp2136
g89
g90
ssg71
g2125
sg64
(lp2137
S':'
asbag57
(g78
g59
NtRp2138
(dp2139
g62
(dp2140
sg71
g2125
sg64
(lp2141
g57
(g58
g59
NtRp2142
(dp2143
g62
(dp2144
g70
I3
ssg71
g2138
sg64
(lp2145
g633
asbasbasbag57
(g73
g59
NtRp2146
(dp2147
g62
(dp2148
sg71
g2121
sg64
(lp2149
g57
(g78
g59
NtRp2150
(dp2151
g62
(dp2152
g82
g83
ssg71
g2146
sg64
(lp2153
S'HTTP_ACCEPT_CHARSET'
p2154
asbag57
(g78
g59
NtRp2155
(dp2156
g62
(dp2157
g89
g90
ssg71
g2146
sg64
(lp2158
S':'
asbag57
(g78
g59
NtRp2159
(dp2160
g62
(dp2161
sg71
g2146
sg64
(lp2162
g57
(g58
g59
NtRp2163
(dp2164
g62
(dp2165
g70
I3
ssg71
g2159
sg64
(lp2166
g655
asbasbasbag57
(g73
g59
NtRp2167
(dp2168
g62
(dp2169
sg71
g2121
sg64
(lp2170
g57
(g78
g59
NtRp2171
(dp2172
g62
(dp2173
g82
g83
ssg71
g2167
sg64
(lp2174
S'HTTP_ACCEPT_ENCODING'
p2175
asbag57
(g78
g59
NtRp2176
(dp2177
g62
(dp2178
g89
g90
ssg71
g2167
sg64
(lp2179
S':'
asbag57
(g78
g59
NtRp2180
(dp2181
g62
(dp2182
sg71
g2167
sg64
(lp2183
g57
(g58
g59
NtRp2184
(dp2185
g62
(dp2186
g70
I3
ssg71
g2180
sg64
(lp2187
g677
asbasbasbag57
(g73
g59
NtRp2188
(dp2189
g62
(dp2190
sg71
g2121
sg64
(lp2191
g57
(g78
g59
NtRp2192
(dp2193
g62
(dp2194
g82
g83
ssg71
g2188
sg64
(lp2195
S'HTTP_ACCEPT_LANGUAGE'
p2196
asbag57
(g78
g59
NtRp2197
(dp2198
g62
(dp2199
g89
g90
ssg71
g2188
sg64
(lp2200
S':'
asbag57
(g78
g59
NtRp2201
(dp2202
g62
(dp2203
sg71
g2188
sg64
(lp2204
g57
(g58
g59
NtRp2205
(dp2206
g62
(dp2207
g70
I3
ssg71
g2201
sg64
(lp2208
g699
asbasbasbag57
(g73
g59
NtRp2209
(dp2210
g62
(dp2211
sg71
g2121
sg64
(lp2212
g57
(g78
g59
NtRp2213
(dp2214
g62
(dp2215
g82
g83
ssg71
g2209
sg64
(lp2216
S'HTTP_CACHE_CONTROL'
p2217
asbag57
(g78
g59
NtRp2218
(dp2219
g62
(dp2220
g89
g90
ssg71
g2209
sg64
(lp2221
S':'
asbag57
(g78
g59
NtRp2222
(dp2223
g62
(dp2224
sg71
g2209
sg64
(lp2225
g57
(g58
g59
NtRp2226
(dp2227
g62
(dp2228
g70
I3
ssg71
g2222
sg64
(lp2229
g721
asbasbasbag57
(g73
g59
NtRp2230
(dp2231
g62
(dp2232
sg71
g2121
sg64
(lp2233
g57
(g78
g59
NtRp2234
(dp2235
g62
(dp2236
g82
g83
ssg71
g2230
sg64
(lp2237
S'HTTP_CONNECTION'
p2238
asbag57
(g78
g59
NtRp2239
(dp2240
g62
(dp2241
g89
g90
ssg71
g2230
sg64
(lp2242
S':'
asbag57
(g78
g59
NtRp2243
(dp2244
g62
(dp2245
sg71
g2230
sg64
(lp2246
g57
(g58
g59
NtRp2247
(dp2248
g62
(dp2249
g70
I3
ssg71
g2243
sg64
(lp2250
g743
asbasbasbag57
(g73
g59
NtRp2251
(dp2252
g62
(dp2253
sg71
g2121
sg64
(lp2254
g57
(g78
g59
NtRp2255
(dp2256
g62
(dp2257
g82
g83
ssg71
g2251
sg64
(lp2258
S'HTTP_COOKIE'
p2259
asbag57
(g78
g59
NtRp2260
(dp2261
g62
(dp2262
g89
g90
ssg71
g2251
sg64
(lp2263
S':'
asbag57
(g78
g59
NtRp2264
(dp2265
g62
(dp2266
sg71
g2251
sg64
(lp2267
g57
(g58
g59
NtRp2268
(dp2269
g62
(dp2270
g70
I3
ssg71
g2264
sg64
(lp2271
g765
asbasbasbag57
(g73
g59
NtRp2272
(dp2273
g62
(dp2274
sg71
g2121
sg64
(lp2275
g57
(g78
g59
NtRp2276
(dp2277
g62
(dp2278
g82
g83
ssg71
g2272
sg64
(lp2279
S'HTTP_HOST'
p2280
asbag57
(g78
g59
NtRp2281
(dp2282
g62
(dp2283
g89
g90
ssg71
g2272
sg64
(lp2284
S':'
asbag57
(g78
g59
NtRp2285
(dp2286
g62
(dp2287
sg71
g2272
sg64
(lp2288
g57
(g58
g59
NtRp2289
(dp2290
g62
(dp2291
g70
I3
ssg71
g2285
sg64
(lp2292
g787
asbasbasbag57
(g73
g59
NtRp2293
(dp2294
g62
(dp2295
sg71
g2121
sg64
(lp2296
g57
(g78
g59
NtRp2297
(dp2298
g62
(dp2299
g82
g83
ssg71
g2293
sg64
(lp2300
S'HTTP_REFERER'
p2301
asbag57
(g78
g59
NtRp2302
(dp2303
g62
(dp2304
g89
g90
ssg71
g2293
sg64
(lp2305
S':'
asbag57
(g78
g59
NtRp2306
(dp2307
g62
(dp2308
sg71
g2293
sg64
(lp2309
g57
(g58
g59
NtRp2310
(dp2311
g62
(dp2312
g70
I3
ssg71
g2306
sg64
(lp2313
g809
asbasbasbag57
(g73
g59
NtRp2314
(dp2315
g62
(dp2316
sg71
g2121
sg64
(lp2317
g57
(g78
g59
NtRp2318
(dp2319
g62
(dp2320
g82
g83
ssg71
g2314
sg64
(lp2321
S'HTTP_USER_AGENT'
p2322
asbag57
(g78
g59
NtRp2323
(dp2324
g62
(dp2325
g89
g90
ssg71
g2314
sg64
(lp2326
S':'
asbag57
(g78
g59
NtRp2327
(dp2328
g62
(dp2329
sg71
g2314
sg64
(lp2330
g57
(g58
g59
NtRp2331
(dp2332
g62
(dp2333
g70
I3
ssg71
g2327
sg64
(lp2334
g831
asbasbasbag57
(g73
g59
NtRp2335
(dp2336
g62
(dp2337
sg71
g2121
sg64
(lp2338
g57
(g78
g59
NtRp2339
(dp2340
g62
(dp2341
g82
g83
ssg71
g2335
sg64
(lp2342
S'PATH_INFO'
p2343
asbag57
(g78
g59
NtRp2344
(dp2345
g62
(dp2346
g89
g90
ssg71
g2335
sg64
(lp2347
S':'
asbag57
(g78
g59
NtRp2348
(dp2349
g62
(dp2350
sg71
g2335
sg64
(lp2351
g57
(g58
g59
NtRp2352
(dp2353
g62
(dp2354
g70
I3
ssg71
g2348
sg64
(lp2355
g895
asbasbasbag57
(g73
g59
NtRp2356
(dp2357
g62
(dp2358
sg71
g2121
sg64
(lp2359
g57
(g78
g59
NtRp2360
(dp2361
g62
(dp2362
g82
g83
ssg71
g2356
sg64
(lp2363
S'QUERY_STRING'
p2364
asbag57
(g78
g59
NtRp2365
(dp2366
g62
(dp2367
g89
g90
ssg71
g2356
sg64
(lp2368
S':'
asbag57
(g78
g59
NtRp2369
(dp2370
g62
(dp2371
sg71
g2356
sg64
(lp2372
g57
(g58
g59
NtRp2373
(dp2374
g62
(dp2375
g70
I3
ssg71
g2369
sg64
(lp2376
S''
asbasbasbag57
(g73
g59
NtRp2377
(dp2378
g62
(dp2379
sg71
g2121
sg64
(lp2380
g57
(g78
g59
NtRp2381
(dp2382
g62
(dp2383
g82
g83
ssg71
g2377
sg64
(lp2384
S'REMOTE_ADDR'
p2385
asbag57
(g78
g59
NtRp2386
(dp2387
g62
(dp2388
g89
g90
ssg71
g2377
sg64
(lp2389
S':'
asbag57
(g78
g59
NtRp2390
(dp2391
g62
(dp2392
sg71
g2377
sg64
(lp2393
g57
(g58
g59
NtRp2394
(dp2395
g62
(dp2396
g70
I3
ssg71
g2390
sg64
(lp2397
g190
asbasbasbag57
(g73
g59
NtRp2398
(dp2399
g62
(dp2400
sg71
g2121
sg64
(lp2401
g57
(g78
g59
NtRp2402
(dp2403
g62
(dp2404
g82
g83
ssg71
g2398
sg64
(lp2405
S'REMOTE_PORT'
p2406
asbag57
(g78
g59
NtRp2407
(dp2408
g62
(dp2409
g89
g90
ssg71
g2398
sg64
(lp2410
S':'
asbag57
(g78
g59
NtRp2411
(dp2412
g62
(dp2413
sg71
g2398
sg64
(lp2414
g57
(g58
g59
NtRp2415
(dp2416
g62
(dp2417
g70
I3
ssg71
g2411
sg64
(lp2418
g959
asbasbasbag57
(g73
g59
NtRp2419
(dp2420
g62
(dp2421
sg71
g2121
sg64
(lp2422
g57
(g78
g59
NtRp2423
(dp2424
g62
(dp2425
g82
g83
ssg71
g2419
sg64
(lp2426
S'REQUEST_METHOD'
p2427
asbag57
(g78
g59
NtRp2428
(dp2429
g62
(dp2430
g89
g90
ssg71
g2419
sg64
(lp2431
S':'
asbag57
(g78
g59
NtRp2432
(dp2433
g62
(dp2434
sg71
g2419
sg64
(lp2435
g57
(g58
g59
NtRp2436
(dp2437
g62
(dp2438
g70
I3
ssg71
g2432
sg64
(lp2439
g981
asbasbasbag57
(g73
g59
NtRp2440
(dp2441
g62
(dp2442
sg71
g2121
sg64
(lp2443
g57
(g78
g59
NtRp2444
(dp2445
g62
(dp2446
g82
g83
ssg71
g2440
sg64
(lp2447
S'REQUEST_URI'
p2448
asbag57
(g78
g59
NtRp2449
(dp2450
g62
(dp2451
g89
g90
ssg71
g2440
sg64
(lp2452
S':'
asbag57
(g78
g59
NtRp2453
(dp2454
g62
(dp2455
sg71
g2440
sg64
(lp2456
g57
(g58
g59
NtRp2457
(dp2458
g62
(dp2459
g70
I3
ssg71
g2453
sg64
(lp2460
g895
asbasbasbag57
(g73
g59
NtRp2461
(dp2462
g62
(dp2463
sg71
g2121
sg64
(lp2464
g57
(g78
g59
NtRp2465
(dp2466
g62
(dp2467
g82
g83
ssg71
g2461
sg64
(lp2468
S'SCRIPT_NAME'
p2469
asbag57
(g78
g59
NtRp2470
(dp2471
g62
(dp2472
g89
g90
ssg71
g2461
sg64
(lp2473
S':'
asbag57
(g78
g59
NtRp2474
(dp2475
g62
(dp2476
sg71
g2461
sg64
(lp2477
g57
(g58
g59
NtRp2478
(dp2479
g62
(dp2480
g70
I3
ssg71
g2474
sg64
(lp2481
S''
asbasbasbag57
(g73
g59
NtRp2482
(dp2483
g62
(dp2484
sg71
g2121
sg64
(lp2485
g57
(g78
g59
NtRp2486
(dp2487
g62
(dp2488
g82
g83
ssg71
g2482
sg64
(lp2489
S'SERVER_NAME'
p2490
asbag57
(g78
g59
NtRp2491
(dp2492
g62
(dp2493
g89
g90
ssg71
g2482
sg64
(lp2494
S':'
asbag57
(g78
g59
NtRp2495
(dp2496
g62
(dp2497
sg71
g2482
sg64
(lp2498
g57
(g58
g59
NtRp2499
(dp2500
g62
(dp2501
g70
I3
ssg71
g2495
sg64
(lp2502
g1045
asbasbasbag57
(g73
g59
NtRp2503
(dp2504
g62
(dp2505
sg71
g2121
sg64
(lp2506
g57
(g78
g59
NtRp2507
(dp2508
g62
(dp2509
g82
g83
ssg71
g2503
sg64
(lp2510
S'SERVER_PORT'
p2511
asbag57
(g78
g59
NtRp2512
(dp2513
g62
(dp2514
g89
g90
ssg71
g2503
sg64
(lp2515
S':'
asbag57
(g78
g59
NtRp2516
(dp2517
g62
(dp2518
sg71
g2503
sg64
(lp2519
g57
(g58
g59
NtRp2520
(dp2521
g62
(dp2522
g70
I3
ssg71
g2516
sg64
(lp2523
g1067
asbasbasbag57
(g73
g59
NtRp2524
(dp2525
g62
(dp2526
sg71
g2121
sg64
(lp2527
g57
(g78
g59
NtRp2528
(dp2529
g62
(dp2530
g82
g83
ssg71
g2524
sg64
(lp2531
S'SERVER_PROTOCOL'
p2532
asbag57
(g78
g59
NtRp2533
(dp2534
g62
(dp2535
g89
g90
ssg71
g2524
sg64
(lp2536
S':'
asbag57
(g78
g59
NtRp2537
(dp2538
g62
(dp2539
sg71
g2524
sg64
(lp2540
g57
(g58
g59
NtRp2541
(dp2542
g62
(dp2543
g70
I3
ssg71
g2537
sg64
(lp2544
g1089
asbasbasbag57
(g73
g59
NtRp2545
(dp2546
g62
(dp2547
sg71
g2121
sg64
(lp2548
g57
(g78
g59
NtRp2549
(dp2550
g62
(dp2551
g82
g83
ssg71
g2545
sg64
(lp2552
S'SERVER_SOFTWARE'
p2553
asbag57
(g78
g59
NtRp2554
(dp2555
g62
(dp2556
g89
g90
ssg71
g2545
sg64
(lp2557
S':'
asbag57
(g78
g59
NtRp2558
(dp2559
g62
(dp2560
sg71
g2545
sg64
(lp2561
g57
(g58
g59
NtRp2562
(dp2563
g62
(dp2564
g70
I3
ssg71
g2558
sg64
(lp2565
g1111
asbasbasbag57
(g73
g59
NtRp2566
(dp2567
g62
(dp2568
sg71
g2121
sg64
(lp2569
g57
(g78
g59
NtRp2570
(dp2571
g62
(dp2572
g82
g83
ssg71
g2566
sg64
(lp2573
S'WEB2PY_ORIGINAL_URI'
p2574
asbag57
(g78
g59
NtRp2575
(dp2576
g62
(dp2577
g89
g90
ssg71
g2566
sg64
(lp2578
S':'
asbag57
(g78
g59
NtRp2579
(dp2580
g62
(dp2581
sg71
g2566
sg64
(lp2582
g57
(g58
g59
NtRp2583
(dp2584
g62
(dp2585
g70
I3
ssg71
g2579
sg64
(lp2586
g895
asbasbasbag57
(g73
g59
NtRp2587
(dp2588
g62
(dp2589
sg71
g2121
sg64
(lp2590
g57
(g78
g59
NtRp2591
(dp2592
g62
(dp2593
g82
g83
ssg71
g2587
sg64
(lp2594
S'wsgi.errors'
p2595
asbag57
(g78
g59
NtRp2596
(dp2597
g62
(dp2598
g89
g90
ssg71
g2587
sg64
(lp2599
S':'
asbag57
(g78
g59
NtRp2600
(dp2601
g62
(dp2602
sg71
g2587
sg64
(lp2603
g57
(g58
g59
NtRp2604
(dp2605
g62
(dp2606
g70
I3
ssg71
g2600
sg64
(lp2607
S"<open file '<stderr>', mode 'w' at 0x7fa7495e3270>"
p2608
asbasbasbag57
(g73
g59
NtRp2609
(dp2610
g62
(dp2611
sg71
g2121
sg64
(lp2612
g57
(g78
g59
NtRp2613
(dp2614
g62
(dp2615
g82
g83
ssg71
g2609
sg64
(lp2616
S'wsgi.file_wrapper'
p2617
asbag57
(g78
g59
NtRp2618
(dp2619
g62
(dp2620
g89
g90
ssg71
g2609
sg64
(lp2621
S':'
asbag57
(g78
g59
NtRp2622
(dp2623
g62
(dp2624
sg71
g2609
sg64
(lp2625
g57
(g58
g59
NtRp2626
(dp2627
g62
(dp2628
g70
I3
ssg71
g2622
sg64
(lp2629
S'<class wsgiref.util.FileWrapper at 0x2f20f58>'
p2630
asbasbasbag57
(g73
g59
NtRp2631
(dp2632
g62
(dp2633
sg71
g2121
sg64
(lp2634
g57
(g78
g59
NtRp2635
(dp2636
g62
(dp2637
g82
g83
ssg71
g2631
sg64
(lp2638
S'wsgi.input'
p2639
asbag57
(g78
g59
NtRp2640
(dp2641
g62
(dp2642
g89
g90
ssg71
g2631
sg64
(lp2643
S':'
asbag57
(g78
g59
NtRp2644
(dp2645
g62
(dp2646
sg71
g2631
sg64
(lp2647
g57
(g58
g59
NtRp2648
(dp2649
g62
(dp2650
g70
I3
ssg71
g2644
sg64
(lp2651
S'<cStringIO.StringO object at 0x7fa7203ade68>'
p2652
asbasbasbag57
(g73
g59
NtRp2653
(dp2654
g62
(dp2655
sg71
g2121
sg64
(lp2656
g57
(g78
g59
NtRp2657
(dp2658
g62
(dp2659
g82
g83
ssg71
g2653
sg64
(lp2660
S'wsgi.multiprocess'
p2661
asbag57
(g78
g59
NtRp2662
(dp2663
g62
(dp2664
g89
g90
ssg71
g2653
sg64
(lp2665
S':'
asbag57
(g78
g59
NtRp2666
(dp2667
g62
(dp2668
sg71
g2653
sg64
(lp2669
g57
(g58
g59
NtRp2670
(dp2671
g62
(dp2672
g70
I3
ssg71
g2666
sg64
(lp2673
g100
asbasbasbag57
(g73
g59
NtRp2674
(dp2675
g62
(dp2676
sg71
g2121
sg64
(lp2677
g57
(g78
g59
NtRp2678
(dp2679
g62
(dp2680
g82
g83
ssg71
g2674
sg64
(lp2681
S'wsgi.multithread'
p2682
asbag57
(g78
g59
NtRp2683
(dp2684
g62
(dp2685
g89
g90
ssg71
g2674
sg64
(lp2686
S':'
asbag57
(g78
g59
NtRp2687
(dp2688
g62
(dp2689
sg71
g2674
sg64
(lp2690
g57
(g58
g59
NtRp2691
(dp2692
g62
(dp2693
g70
I3
ssg71
g2687
sg64
(lp2694
g1372
asbasbasbag57
(g73
g59
NtRp2695
(dp2696
g62
(dp2697
sg71
g2121
sg64
(lp2698
g57
(g78
g59
NtRp2699
(dp2700
g62
(dp2701
g82
g83
ssg71
g2695
sg64
(lp2702
S'wsgi.run_once'
p2703
asbag57
(g78
g59
NtRp2704
(dp2705
g62
(dp2706
g89
g90
ssg71
g2695
sg64
(lp2707
S':'
asbag57
(g78
g59
NtRp2708
(dp2709
g62
(dp2710
sg71
g2695
sg64
(lp2711
g57
(g58
g59
NtRp2712
(dp2713
g62
(dp2714
g70
I3
ssg71
g2708
sg64
(lp2715
g100
asbasbasbag57
(g73
g59
NtRp2716
(dp2717
g62
(dp2718
sg71
g2121
sg64
(lp2719
g57
(g78
g59
NtRp2720
(dp2721
g62
(dp2722
g82
g83
ssg71
g2716
sg64
(lp2723
S'wsgi.url_scheme'
p2724
asbag57
(g78
g59
NtRp2725
(dp2726
g62
(dp2727
g89
g90
ssg71
g2716
sg64
(lp2728
S':'
asbag57
(g78
g59
NtRp2729
(dp2730
g62
(dp2731
sg71
g2716
sg64
(lp2732
g57
(g58
g59
NtRp2733
(dp2734
g62
(dp2735
g70
I3
ssg71
g2729
sg64
(lp2736
g1415
asbasbasbag57
(g73
g59
NtRp2737
(dp2738
g62
(dp2739
sg71
g2121
sg64
(lp2740
g57
(g78
g59
NtRp2741
(dp2742
g62
(dp2743
g82
g83
ssg71
g2737
sg64
(lp2744
S'wsgi.version'
p2745
asbag57
(g78
g59
NtRp2746
(dp2747
g62
(dp2748
g89
g90
ssg71
g2737
sg64
(lp2749
S':'
asbag57
(g78
g59
NtRp2750
(dp2751
g62
(dp2752
sg71
g2737
sg64
(lp2753
g57
(g58
g59
NtRp2754
(dp2755
g62
(dp2756
g70
I3
ssg71
g2750
sg64
(lp2757
S'1'
asbasbasbasbasbasbasbasbasbasbasbasbasbsS'frames'
p2758
(lp2759
(dp2760
S'file'
p2761
S'/home/goshawk/web2py/gluon/restricted.py'
p2762
sS'dump'
p2763
(dp2764
S'environment'
p2765
S"{'A': <class 'gluon.html.A'>, 'Auth': <class 'gluon.tools.Auth'>, 'B': <class 'gluon.html.B'>, 'BEAUTIFY': <class 'gluon.html.BEAUTIFY'>, 'BODY': <class 'gluon.html.BODY'>, 'BR': <class 'gluon.html.BR'>, 'BUTTON': <class 'gluon.html.BUTTON'>, 'CAT': <class 'gluon.html.CAT'>, 'CENTER': <class 'gluon.html.CENTER'>, 'CLEANUP': <class 'gluon.validators.CLEANUP'>, ...}"
p2766
sS'ccode'
p2767
S'<code object <module> at 0x7fa7354b07b0, file "/...pplications/milo/views/admin/index.html", line 1>'
p2768
ssS'lnum'
p2769
I205
sS'lines'
p2770
(dp2771
I200
S'    try:'
p2772
sI201
S'        if type(code) == types.CodeType:'
p2773
sI202
S'            ccode = code'
p2774
sI203
S'        else:'
p2775
sI204
S'            ccode = compile2(code,layer)'
p2776
sI205
S'        exec ccode in environment'
p2777
sI206
S'    except HTTP:'
p2778
sI207
S'        raise'
p2779
sI208
S'    except RestrictedError:'
p2780
sI209
S'        # do not encapsulate (obfuscate) the original RestrictedError'
p2781
ssS'call'
p2782
S'(code=\'response.write(\\\'<!DOCTYPE html PUBLIC "-//W3C//D...iv>\\\\n</div>\\\\n\\\\n</body>\\\\n</html>\\\\n\\\', escape=False)\', environment={\'A\': <class \'gluon.html.A\'>, \'Auth\': <class \'gluon.tools.Auth\'>, \'B\': <class \'gluon.html.B\'>, \'BEAUTIFY\': <class \'gluon.html.BEAUTIFY\'>, \'BODY\': <class \'gluon.html.BODY\'>, \'BR\': <class \'gluon.html.BR\'>, \'BUTTON\': <class \'gluon.html.BUTTON\'>, \'CAT\': <class \'gluon.html.CAT\'>, \'CENTER\': <class \'gluon.html.CENTER\'>, \'CLEANUP\': <class \'gluon.validators.CLEANUP\'>, ...}, layer=\'/home/goshawk/web2py/applications/milo/views/admin/index.html\')'
p2783
sS'func'
p2784
S'restricted'
p2785
sa(dp2786
g2761
S'/home/goshawk/web2py/applications/milo/views/admin/index.html'
p2787
sg2763
(dp2788
sg2769
I10
sg2770
(dp2789
I1
S'response.write(\'<!DOCTYPE html PUBLIC "-//W3C//DTD XHTML 1.0 Strict//EN" "http://www.w3.org/TR/xhtml1/DTD/xhtml1-strict.dtd">\\n<html lang="en" xml:lang="en" xmlns="http://www.w3.org/1999/xhtml">\\n<head>\\n\\t<title>Milo manager</title>\\n\\t<meta http-equiv="content-language" content="en" />\\n\\t<meta http-equiv="cache-control" content="no-cache" />\\n\\t<meta http-equiv="Content-Type" content="text/html; charset=utf-8" />\\n    <link rel="shortcut icon" href="\', escape=False)'
p2790
sI2
S"response.write(URL('static','emanager'))"
p2791
sI3
S'response.write(\'/images/favicon.ico" type="image/x-icon"/>\\n    <link href="\', escape=False)'
p2792
sI4
S"response.write(URL('static','emanager'))"
p2793
sI5
S'response.write(\'/css/styles.css" rel="stylesheet" type="text/css" media="screen" />\\n\\t<!--[if lte IE 7]>\\n\\t<link href="css/styles_ie.css" rel="stylesheet" type="text/css" media="screen" />\\n\\t<![endif]-->\\n\\t<!--[if lte IE 6]>\\n\\t<link href="css/styles_ie6.css" rel="stylesheet" type="text/css" media="screen" />\\n\\t<![endif]-->\\n    <script type="text/javascript" src="\', escape=False)'
p2794
sI6
S"response.write(URL('static','emanager'))"
p2795
sI7
S'response.write(\'/js/jquery-1.2.6.min.js"></script>\\n    <script type="text/javascript" src="\', escape=False)'
p2796
sI8
S"response.write(URL('static','emanager'))"
p2797
sI9
S'response.write(\'/js/ui.js"></script>\\n</head>\\n\\n<body>\\n\\n<div id="wrap">\\n\\t<div id="header">\\n\\t\\t<h1><a class="bg" href="#" title="Home"></a>Milo Manager</h1>\\n\\t\\t<p id="status">Logged is as Username, <a href="#" title="Sign Out?">Sign Out?</a></p>\\n\\t\\t<h2><span>Hello, this is the Dashboard</span></h2>\\n\\t\\t<p id="description">A little description explain what Dashboard is in one/two lines.</p>\\n\\t</div>\\n    <div id="sidebar">\\n\\t\\t<ul class="items">\\n            <li class="active">\\n            \\t<a href="#" title="Dashboard">Dashboard</a>\\n            </li>\\n\\t\\t\\t<li class="subitems">\\n\\t\\t\\t\\t<a href="#" title="Shout Box Info">Algorithms Management</a>\\n\\t\\t\\t\\t<ul>\\n\\t\\t\\t\\t\\t\', escape=False)'
p2798
sI10
S'for alg in algorithms:'
p2799
sI11
S'    response.write(\'\\n\\t\\t\\t\\t\\t<li><a href="#" title="\', escape=False)'
p2800
sI12
S'    alg'
p2801
sI13
S'    response.write(\'">\', escape=False)'
p2802
sI14
S'    alg'
p2803
sI15
S"    response.write('</a></li>\\n\\t\\t\\t\\t\\t', escape=False)"
p2804
sI16
S'    pass'
p2805
sI17
S'response.write(\'\\n\\t\\t\\t\\t</ul>\\n\\t\\t\\t</li>\\n\\t\\t\\t<li class="subitems">\\n\\t\\t\\t\\t<a href="#" title="Clan Options">Clan Options</a>\\n\\t\\t\\t\\t<ul>\\n                    <li><a href="#" title="Edit Matches">Edit Matches</a></li>\\n                    <li><a href="#" title="Edit Practices">Edit Practices</a></li>\\n                    <li><a href="#" title="Edit Games">Edit Games</a></li>\\n                    <li><a href="#" title="Edit Servers">Edit Servers</a></li>\\n                    <li><a href="#" title="Edit Media">Edit Media</a></li>\\n                    <li><a href="#" title="Edit Sponsors">Edit Sponsors</a></li>\\n                    <li><a href="#" title="Opposing Clans">Opposing Clans</a></li>\\n\\t\\t\\t\\t</ul>\\n\\t\\t\\t</li>\\n\\t\\t\\t<li><a href="#mp3" title="MP3 Player">MP3 Player</a></li>\\n\\t\\t\\t<li class="subitems">\\n\\t\\t\\t\\t<a href="#" title="Users">Donation Info</a>\\n\\t\\t\\t\\t<ul>\\n\\t\\t\\t\\t\\t<li><a href="#" title="Admin Users">Monthly Goals</a></li>\\n\\t\\t\\t\\t\\t<li><a href="#" title="Add New User">Monthly Donations</a></li>\\n\\n\\t\\t\\t\\t</ul>\\n\\t\\t\\t</li>\\n\\t\\t\\t<li class="subitems">\\n\\t\\t\\t\\t<a href="#" title="Users">Member Info</a>\\n\\t\\t\\t\\t<ul>\\n\\t\\t\\t\\t\\t<li><a href="#" title="Admin Users">Member List</a></li>\\n\\t\\t\\t\\t\\t<li><a href="#" title="Add New User">Mass Message</a></li>\\n\\t\\t\\t\\t\\t<li><a href="#" title="Add New User">Edit Members</a></li>\\n\\t\\t\\t\\t\\t<li><a href="#" title="Add New User">Edit Permissions</a></li>\\n\\t\\t\\t\\t\\t<li><a href="#" title="Add New User">Edit Ranks</a></li>\\n\\t\\t\\t\\t</ul>\\n\\t\\t\\t</li>\\n\\t\\t</ul>\\n\\t\\t<span class="clear"></span>\\n\\t\\t<div id="redbox">\\n\\t\\t\\t<h4>eManager</h4>\\n\\t\\t\\t<p>\\n\\t\\t\\t\\t<big>Copyright 2008</big>\\n\\t\\t\\t\\tScript executed in 0.1568s<br />\\n\\t\\t\\t\\t30 SQL queries used<br />\\n\\t\\t\\t\\tBuild: 20080928\\n\\t\\t\\t</p>\\n\\t\\t</div>\\n\\t</div>\\n\\t<div id="content">\\n\\t\\t<h2>Form fields</h2>\\n\\t\\t<ul class="tabs">\\n\\t\\t\\t<li class="active"><a href="#" title="Item1"><span>This is a tab</span></a></li>\\n\\t\\t\\t<li><a href="#" title="Item2"><span>This is other tab</span></a></li>\\n\\t\\t</ul>\\n\\t\\t<form method="post" action="">\\n\\t\\t<fieldset>\\n\\t\\t\\t<label>Small Input:</label>\\n\\t\\t\\t<span class="small_input"><input class="small" name="" type="text" value="" /></span><br class="hid" />\\n\\t\\t\\t<span class="negative">Negative message!</span><br class="hid" />\\n\\t\\t\\t<label>Medium Input:</label>\\n\\t\\t\\t<span class="medium_input"><input class="medium" name="" type="text" value="" /></span><br class="hid" />\\n\\t\\t\\t<span class="positive">Positive message!</span><br class="hid" />\\n\\t\\t\\t<label>Large Input:</label>\\n\\t\\t\\t<span class="large_input"><input class="large" name="" type="text" value="" /></span><br class="hid" />\\n\\t\\t\\t<p>Lorem Ipsum is simply dummy text of the printing and typesetting industry.</p>\\n\\t\\t\\t<label>Your message?</label><br class="hid" />\\n\\t\\t\\t<span class="textarea"><textarea cols="" rows=""></textarea></span><br class="hid" />\\n\\t\\t\\t<a href="#" class="button" title="Submit"><span>Submit</span></a>\\n\\t\\t\\t<span class="clear"></span>\\n\\t\\t</fieldset>\\n\\t\\t</form>\\n\\t\\t<p class="alert">\\n\\t\\t\\t<span class="txt"><span class="icon"></span><strong>Alert:</strong> This template is going to explote in 10 seconds.</span>\\n\\t\\t\\t<a href="#" class="close" title="Close"><span class="bg"></span>Close</a>\\n\\t\\t</p>\\n\\t\\t<p id="tip" class="alert">\\n\\t\\t\\t<span class="txt"><span class="icon"></span><strong>Tip:</strong> I know, you REALLY love this CMS Skin.</span>\\n\\t\\t\\t<a href="#" class="close" title="Close"><span class="bg"></span>Close</a>\\n\\t\\t</p>\\n\\t\\t<p id="congrats" class="alert">\\n\\t\\t\\t<span class="txt"><span class="icon"></span><strong>Congrats:</strong> The action you just did was made with success.</span>\\n\\t\\t\\t<a href="#" class="close" title="Close"><span class="bg"></span>Close</a>\\n\\t\\t</p>\\n\\t\\t<h2>CSS Table List</h2>\\n\\t\\t<ul class="tabs">\\n\\t\\t\\t<li><a href="#" title="Item1"><span>Nice!</span></a></li>\\n\\t\\t\\t<li class="active"><a href="#" title="Item2"><span>I love this table</span></a></li>\\n\\t\\t</ul>\\n\\t\\t<div class="box">\\n\\t\\t\\t<table>\\n\\t\\t\\t\\t<tr>\\n\\t\\t\\t\\t\\t<th class="col1">Column 1</th>\\n\\t\\t\\t\\t\\t<th class="col2">Column 2</th>\\n\\t\\t\\t\\t\\t<th class="col3">Column 3</th>\\n\\t\\t\\t\\t\\t<th class="col4">Column 4</th>\\n\\t\\t\\t\\t\\t<th class="col5">Column 5</th>\\n\\t\\t\\t\\t</tr>\\n\\t\\t\\t\\t<tr class="highlight">\\n\\t\\t\\t\\t\\t<td><a href="#" title="Lorem ipsum dolor">Lorem ipsum dolor</a></td>\\n\\t\\t\\t\\t\\t<td>Lorem ipsum dolor</td>\\n\\t\\t\\t\\t\\t<td>Lorem ipsum dolor</td>\\n\\t\\t\\t\\t\\t<td>Lorem ipsum dolor</td>\\n\\t\\t\\t\\t\\t<td class="action">\\n\\t\\t\\t\\t\\t\\t<ul>\\n\\t\\t\\t\\t\\t\\t\\t<li><a class="edit" href="#" title="edit"></a></li>\\n\\t\\t\\t\\t\\t\\t\\t<li><a class="add" href="#" title="add"></a></li>\\n\\t\\t\\t\\t\\t\\t\\t<li><a class="delete" href="#" title="delete"></a></li>\\n\\t\\t\\t\\t\\t\\t\\t<li><a class="mark" href="#" title="mark"></a></li>\\n\\t\\t\\t\\t\\t\\t</ul>\\n\\t\\t\\t\\t\\t</td>\\n\\t\\t\\t\\t</tr>\\n\\t\\t\\t\\t<tr>\\n\\t\\t\\t\\t\\t<td><a href="#" title="Lorem ipsum dolor">Lorem ipsum dolor</a></td>\\n\\t\\t\\t\\t\\t<td>Lorem ipsum dolor</td>\\n\\t\\t\\t\\t\\t<td>Lorem ipsum dolor</td>\\n\\t\\t\\t\\t\\t<td>Lorem ipsum dolor</td>\\n\\t\\t\\t\\t\\t<td class="action">\\n\\t\\t\\t\\t\\t\\t<ul>\\n\\t\\t\\t\\t\\t\\t\\t<li><a class="edit" href="#" title="edit"></a></li>\\n\\t\\t\\t\\t\\t\\t\\t<li><a class="add" href="#" title="add"></a></li>\\n\\t\\t\\t\\t\\t\\t\\t<li><a class="delete" href="#" title="delete"></a></li>\\n\\t\\t\\t\\t\\t\\t\\t<li><a class="mark" href="#" title="mark"></a></li>\\n\\t\\t\\t\\t\\t\\t</ul>\\n\\t\\t\\t\\t\\t</td>\\n\\t\\t\\t\\t</tr>\\n\\t\\t\\t\\t<tr class="highlight">\\n\\t\\t\\t\\t\\t<td><a href="#" title="Lorem ipsum dolor">Lorem ipsum dolor</a></td>\\n\\t\\t\\t\\t\\t<td>Lorem ipsum dolor</td>\\n\\t\\t\\t\\t\\t<td>Lorem ipsum dolor</td>\\n\\t\\t\\t\\t\\t<td>Lorem ipsum dolor</td>\\n\\t\\t\\t\\t\\t<td class="action">\\n\\t\\t\\t\\t\\t\\t<ul>\\n\\t\\t\\t\\t\\t\\t\\t<li><a class="edit" href="#" title="edit"></a></li>\\n\\t\\t\\t\\t\\t\\t\\t<li><a class="add" href="#" title="add"></a></li>\\n\\t\\t\\t\\t\\t\\t\\t<li><a class="delete" href="#" title="delete"></a></li>\\n\\t\\t\\t\\t\\t\\t\\t<li><a class="mark" href="#" title="mark"></a></li>\\n\\t\\t\\t\\t\\t\\t</ul>\\n\\t\\t\\t\\t\\t</td>\\n\\t\\t\\t\\t</tr>\\n\\t\\t\\t\\t<tr>\\n\\t\\t\\t\\t\\t<td><a href="#" title="Lorem ipsum dolor">Lorem ipsum dolor</a></td>\\n\\t\\t\\t\\t\\t<td>Lorem ipsum dolor</td>\\n\\t\\t\\t\\t\\t<td>Lorem ipsum dolor</td>\\n\\t\\t\\t\\t\\t<td>Lorem ipsum dolor</td>\\n\\t\\t\\t\\t\\t<td class="action">\\n\\t\\t\\t\\t\\t\\t<ul>\\n\\t\\t\\t\\t\\t\\t\\t<li><a class="edit" href="#" title="edit"></a></li>\\n\\t\\t\\t\\t\\t\\t\\t<li><a class="add" href="#" title="add"></a></li>\\n\\t\\t\\t\\t\\t\\t\\t<li><a class="delete" href="#" title="delete"></a></li>\\n\\t\\t\\t\\t\\t\\t\\t<li><a class="mark" href="#" title="mark"></a></li>\\n\\t\\t\\t\\t\\t\\t</ul>\\n\\t\\t\\t\\t\\t</td>\\n\\t\\t\\t\\t</tr>\\n\\t\\t\\t\\t<tr class="highlight">\\n\\t\\t\\t\\t\\t<td><a href="#" title="Lorem ipsum dolor">Lorem ipsum dolor</a></td>\\n\\t\\t\\t\\t\\t<td>Lorem ipsum dolor</td>\\n\\t\\t\\t\\t\\t<td>Lorem ipsum dolor</td>\\n\\t\\t\\t\\t\\t<td>Lorem ipsum dolor</td>\\n\\t\\t\\t\\t\\t<td class="action">\\n\\t\\t\\t\\t\\t\\t<ul>\\n\\t\\t\\t\\t\\t\\t\\t<li><a class="edit" href="#" title="edit"></a></li>\\n\\t\\t\\t\\t\\t\\t\\t<li><a class="add" href="#" title="add"></a></li>\\n\\t\\t\\t\\t\\t\\t\\t<li><a class="delete" href="#" title="delete"></a></li>\\n\\t\\t\\t\\t\\t\\t\\t<li><a class="mark" href="#" title="mark"></a></li>\\n\\t\\t\\t\\t\\t\\t</ul>\\n\\t\\t\\t\\t\\t</td>\\n\\t\\t\\t\\t</tr>\\n\\t\\t\\t\\t<tr>\\n\\t\\t\\t\\t\\t<td><a href="#" title="Lorem ipsum dolor">Lorem ipsum dolor</a></td>\\n\\t\\t\\t\\t\\t<td>Lorem ipsum dolor</td>\\n\\t\\t\\t\\t\\t<td>Lorem ipsum dolor</td>\\n\\t\\t\\t\\t\\t<td>Lorem ipsum dolor</td>\\n\\t\\t\\t\\t\\t<td class="action">\\n\\t\\t\\t\\t\\t\\t<ul>\\n\\t\\t\\t\\t\\t\\t\\t<li><a class="edit" href="#" title="edit"></a></li>\\n\\t\\t\\t\\t\\t\\t\\t<li><a class="add" href="#" title="add"></a></li>\\n\\t\\t\\t\\t\\t\\t\\t<li><a class="delete" href="#" title="delete"></a></li>\\n\\t\\t\\t\\t\\t\\t\\t<li><a class="mark" href="#" title="mark"></a></li>\\n\\t\\t\\t\\t\\t\\t</ul>\\n\\t\\t\\t\\t\\t</td>\\n\\t\\t\\t\\t</tr>\\n\\t\\t\\t\\t<tr class="highlight">\\n\\t\\t\\t\\t\\t<td><a href="#" title="Lorem ipsum dolor">Lorem ipsum dolor</a></td>\\n\\t\\t\\t\\t\\t<td>Lorem ipsum dolor</td>\\n\\t\\t\\t\\t\\t<td>Lorem ipsum dolor</td>\\n\\t\\t\\t\\t\\t<td>Lorem ipsum dolor</td>\\n\\t\\t\\t\\t\\t<td class="action">\\n\\t\\t\\t\\t\\t\\t<ul>\\n\\t\\t\\t\\t\\t\\t\\t<li><a class="edit" href="#" title="edit"></a></li>\\n\\t\\t\\t\\t\\t\\t\\t<li><a class="add" href="#" title="add"></a></li>\\n\\t\\t\\t\\t\\t\\t\\t<li><a class="delete" href="#" title="delete"></a></li>\\n\\t\\t\\t\\t\\t\\t\\t<li><a class="mark" href="#" title="mark"></a></li>\\n\\t\\t\\t\\t\\t\\t</ul>\\n\\t\\t\\t\\t\\t</td>\\n\\t\\t\\t\\t</tr>\\n\\t\\t\\t\\t<tr>\\n\\t\\t\\t\\t\\t<td><a href="#" title="Lorem ipsum dolor">Lorem ipsum dolor</a></td>\\n\\t\\t\\t\\t\\t<td>Lorem ipsum dolor</td>\\n\\t\\t\\t\\t\\t<td>Lorem ipsum dolor</td>\\n\\t\\t\\t\\t\\t<td>Lorem ipsum dolor</td>\\n\\t\\t\\t\\t\\t<td class="action">\\n\\t\\t\\t\\t\\t\\t<ul>\\n\\t\\t\\t\\t\\t\\t\\t<li><a class="edit" href="#" title="edit"></a></li>\\n\\t\\t\\t\\t\\t\\t\\t<li><a class="add" href="#" title="add"></a></li>\\n\\t\\t\\t\\t\\t\\t\\t<li><a class="delete" href="#" title="delete"></a></li>\\n\\t\\t\\t\\t\\t\\t\\t<li><a class="mark" href="#" title="mark"></a></li>\\n\\t\\t\\t\\t\\t\\t</ul>\\n\\t\\t\\t\\t\\t</td>\\n\\t\\t\\t\\t</tr>\\n\\t\\t\\t\\t<tr class="highlight">\\n\\t\\t\\t\\t\\t<td><a href="#" title="Lorem ipsum dolor">Lorem ipsum dolor</a></td>\\n\\t\\t\\t\\t\\t<td>Lorem ipsum dolor</td>\\n\\t\\t\\t\\t\\t<td>Lorem ipsum dolor</td>\\n\\t\\t\\t\\t\\t<td>Lorem ipsum dolor</td>\\n\\t\\t\\t\\t\\t<td class="action">\\n\\t\\t\\t\\t\\t\\t<ul>\\n\\t\\t\\t\\t\\t\\t\\t<li><a class="edit" href="#" title="edit"></a></li>\\n\\t\\t\\t\\t\\t\\t\\t<li><a class="add" href="#" title="add"></a></li>\\n\\t\\t\\t\\t\\t\\t\\t<li><a class="delete" href="#" title="delete"></a></li>\\n\\t\\t\\t\\t\\t\\t\\t<li><a class="mark" href="#" title="mark"></a></li>\\n\\t\\t\\t\\t\\t\\t</ul>\\n\\t\\t\\t\\t\\t</td>\\n\\t\\t\\t\\t</tr>\\n\\t\\t\\t</table>\\n\\t\\t\\t<p id="pagin">\\n\\t\\t\\t\\t&laquo; <a href="#" title="">previous</a> &ndash;\\n\\t\\t\\t\\t<a href="#" title="">1</a>\\n\\t\\t\\t\\t<a href="#" title="">2</a>\\n\\t\\t\\t\\t<a href="#" title="">3</a>\\n\\t\\t\\t\\t<a href="#" title="">4</a>\\n\\t\\t\\t\\t<a href="#" title="">5</a>\\n\\t\\t\\t\\t<a href="#" title="">6</a>\\n\\t\\t\\t\\t<a href="#" title="">7</a>\\n\\t\\t\\t\\t<a href="#" title="">8</a>\\n\\t\\t\\t\\t<a href="#" title="">9</a>\\n\\t\\t\\t\\t&ndash; <a href="#" title="">next</a> &raquo;\\n\\t\\t\\t</p>\\n\\t\\t</div>\\n\\t</div>\\n\\t<div id="footer">\\n\\t</div>\\n</div>\\n\\n</body>\\n</html>\\n\', escape=False)'
p2806
ssg2782
S'()'
p2807
sg2784
S'<module>'
p2808
sasS'pyver'
p2809
S'Python 2.7.3: /usr/bin/python'
p2810
sS'session'
p2811
g57
(g58
g59
NtRp2812
(dp2813
g62
(dp2814
sg64
(lp2815
g57
(g66
g59
NtRp2816
(dp2817
g62
(dp2818
g70
I5
ssg71
Nsg64
(lp2819
sbasbsS'etype'
p2820
S"<type 'exceptions.NameError'>"
p2821
sS'date'
p2822
S'Sun Jul 15 00:48:24 2012'
p2823
sS'response'
p2824
g57
(g58
g59
NtRp2825
(dp2826
g62
(dp2827
sg64
(lp2828
g57
(g66
g59
NtRp2829
(dp2830
g62
(dp2831
g70
I5
ssg71
Nsg64
(lp2832
g57
(g73
g59
NtRp2833
(dp2834
g62
(dp2835
sg71
g2829
sg64
(lp2836
g57
(g78
g59
NtRp2837
(dp2838
g62
(dp2839
g82
g83
ssg71
g2833
sg64
(lp2840
g155
asbag57
(g78
g59
NtRp2841
(dp2842
g62
(dp2843
g89
g90
ssg71
g2833
sg64
(lp2844
S':'
asbag57
(g78
g59
NtRp2845
(dp2846
g62
(dp2847
sg71
g2833
sg64
(lp2848
g57
(g58
g59
NtRp2849
(dp2850
g62
(dp2851
g70
I5
ssg71
g2845
sg64
(lp2852
S'<cStringIO.StringO object at 0x7fa73527c308>'
p2853
asbasbasbag57
(g73
g59
NtRp2854
(dp2855
g62
(dp2856
sg71
g2829
sg64
(lp2857
g57
(g78
g59
NtRp2858
(dp2859
g62
(dp2860
g82
g83
ssg71
g2854
sg64
(lp2861
g221
asbag57
(g78
g59
NtRp2862
(dp2863
g62
(dp2864
g89
g90
ssg71
g2854
sg64
(lp2865
S':'
asbag57
(g78
g59
NtRp2866
(dp2867
g62
(dp2868
sg71
g2854
sg64
(lp2869
g57
(g58
g59
NtRp2870
(dp2871
g62
(dp2872
g70
I5
ssg71
g2866
sg64
(lp2873
g57
(g66
g59
NtRp2874
(dp2875
g62
(dp2876
g70
I4
ssg71
Nsg64
(lp2877
g57
(g73
g59
NtRp2878
(dp2879
g62
(dp2880
sg71
g2874
sg64
(lp2881
g57
(g78
g59
NtRp2882
(dp2883
g62
(dp2884
g82
g83
ssg71
g2878
sg64
(lp2885
S'session_id_milo'
p2886
asbag57
(g78
g59
NtRp2887
(dp2888
g62
(dp2889
g89
g90
ssg71
g2878
sg64
(lp2890
S':'
asbag57
(g78
g59
NtRp2891
(dp2892
g62
(dp2893
sg71
g2878
sg64
(lp2894
g57
(g58
g59
NtRp2895
(dp2896
g62
(dp2897
g70
I4
ssg71
g2891
sg64
(lp2898
g57
(g66
g59
NtRp2899
(dp2900
g62
(dp2901
g70
I3
ssg71
Nsg64
(lp2902
g57
(g73
g59
NtRp2903
(dp2904
g62
(dp2905
sg71
g2899
sg64
(lp2906
g57
(g78
g59
NtRp2907
(dp2908
g62
(dp2909
g82
g83
ssg71
g2903
sg64
(lp2910
g271
asbag57
(g78
g59
NtRp2911
(dp2912
g62
(dp2913
g89
g90
ssg71
g2903
sg64
(lp2914
S':'
asbag57
(g78
g59
NtRp2915
(dp2916
g62
(dp2917
sg71
g2903
sg64
(lp2918
g57
(g58
g59
NtRp2919
(dp2920
g62
(dp2921
g70
I3
ssg71
g2915
sg64
(lp2922
S''
asbasbasbag57
(g73
g59
NtRp2923
(dp2924
g62
(dp2925
sg71
g2899
sg64
(lp2926
g57
(g78
g59
NtRp2927
(dp2928
g62
(dp2929
g82
g83
ssg71
g2923
sg64
(lp2930
g292
asbag57
(g78
g59
NtRp2931
(dp2932
g62
(dp2933
g89
g90
ssg71
g2923
sg64
(lp2934
S':'
asbag57
(g78
g59
NtRp2935
(dp2936
g62
(dp2937
sg71
g2923
sg64
(lp2938
g57
(g58
g59
NtRp2939
(dp2940
g62
(dp2941
g70
I3
ssg71
g2935
sg64
(lp2942
S''
asbasbasbag57
(g73
g59
NtRp2943
(dp2944
g62
(dp2945
sg71
g2899
sg64
(lp2946
g57
(g78
g59
NtRp2947
(dp2948
g62
(dp2949
g82
g83
ssg71
g2943
sg64
(lp2950
g313
asbag57
(g78
g59
NtRp2951
(dp2952
g62
(dp2953
g89
g90
ssg71
g2943
sg64
(lp2954
S':'
asbag57
(g78
g59
NtRp2955
(dp2956
g62
(dp2957
sg71
g2943
sg64
(lp2958
g57
(g58
g59
NtRp2959
(dp2960
g62
(dp2961
g70
I3
ssg71
g2955
sg64
(lp2962
S''
asbasbasbag57
(g73
g59
NtRp2963
(dp2964
g62
(dp2965
sg71
g2899
sg64
(lp2966
g57
(g78
g59
NtRp2967
(dp2968
g62
(dp2969
g82
g83
ssg71
g2963
sg64
(lp2970
g334
asbag57
(g78
g59
NtRp2971
(dp2972
g62
(dp2973
g89
g90
ssg71
g2963
sg64
(lp2974
S':'
asbag57
(g78
g59
NtRp2975
(dp2976
g62
(dp2977
sg71
g2963
sg64
(lp2978
g57
(g58
g59
NtRp2979
(dp2980
g62
(dp2981
g70
I3
ssg71
g2975
sg64
(lp2982
S''
asbasbasbag57
(g73
g59
NtRp2983
(dp2984
g62
(dp2985
sg71
g2899
sg64
(lp2986
g57
(g78
g59
NtRp2987
(dp2988
g62
(dp2989
g82
g83
ssg71
g2983
sg64
(lp2990
g355
asbag57
(g78
g59
NtRp2991
(dp2992
g62
(dp2993
g89
g90
ssg71
g2983
sg64
(lp2994
S':'
asbag57
(g78
g59
NtRp2995
(dp2996
g62
(dp2997
sg71
g2983
sg64
(lp2998
g57
(g58
g59
NtRp2999
(dp3000
g62
(dp3001
g70
I3
ssg71
g2995
sg64
(lp3002
S''
asbasbasbag57
(g73
g59
NtRp3003
(dp3004
g62
(dp3005
sg71
g2899
sg64
(lp3006
g57
(g78
g59
NtRp3007
(dp3008
g62
(dp3009
g82
g83
ssg71
g3003
sg64
(lp3010
g376
asbag57
(g78
g59
NtRp3011
(dp3012
g62
(dp3013
g89
g90
ssg71
g3003
sg64
(lp3014
S':'
asbag57
(g78
g59
NtRp3015
(dp3016
g62
(dp3017
sg71
g3003
sg64
(lp3018
g57
(g58
g59
NtRp3019
(dp3020
g62
(dp3021
g70
I3
ssg71
g3015
sg64
(lp3022
S'/'
asbasbasbag57
(g73
g59
NtRp3023
(dp3024
g62
(dp3025
sg71
g2899
sg64
(lp3026
g57
(g78
g59
NtRp3027
(dp3028
g62
(dp3029
g82
g83
ssg71
g3023
sg64
(lp3030
g397
asbag57
(g78
g59
NtRp3031
(dp3032
g62
(dp3033
g89
g90
ssg71
g3023
sg64
(lp3034
S':'
asbag57
(g78
g59
NtRp3035
(dp3036
g62
(dp3037
sg71
g3023
sg64
(lp3038
g57
(g58
g59
NtRp3039
(dp3040
g62
(dp3041
g70
I3
ssg71
g3035
sg64
(lp3042
S''
asbasbasbag57
(g73
g59
NtRp3043
(dp3044
g62
(dp3045
sg71
g2899
sg64
(lp3046
g57
(g78
g59
NtRp3047
(dp3048
g62
(dp3049
g82
g83
ssg71
g3043
sg64
(lp3050
g418
asbag57
(g78
g59
NtRp3051
(dp3052
g62
(dp3053
g89
g90
ssg71
g3043
sg64
(lp3054
S':'
asbag57
(g78
g59
NtRp3055
(dp3056
g62
(dp3057
sg71
g3043
sg64
(lp3058
g57
(g58
g59
NtRp3059
(dp3060
g62
(dp3061
g70
I3
ssg71
g3055
sg64
(lp3062
S''
asbasbasbasbasbasbasbasbasbasbasbag57
(g73
g59
NtRp3063
(dp3064
g62
(dp3065
sg71
g2829
sg64
(lp3066
g57
(g78
g59
NtRp3067
(dp3068
g62
(dp3069
g82
g83
ssg71
g3063
sg64
(lp3070
S'delimiters'
p3071
asbag57
(g78
g59
NtRp3072
(dp3073
g62
(dp3074
g89
g90
ssg71
g3063
sg64
(lp3075
S':'
asbag57
(g78
g59
NtRp3076
(dp3077
g62
(dp3078
sg71
g3063
sg64
(lp3079
g57
(g58
g59
NtRp3080
(dp3081
g62
(dp3082
g70
I5
ssg71
g3076
sg64
(lp3083
g57
(g66
g59
NtRp3084
(dp3085
g62
(dp3086
g70
I4
ssg71
Nsg64
(lp3087
g57
(g73
g59
NtRp3088
(dp3089
g62
(dp3090
sg71
g3084
sg64
(lp3091
g57
(g78
g59
NtRp3092
(dp3093
g62
(dp3094
sg71
g3088
sg64
(lp3095
g57
(g58
g59
NtRp3096
(dp3097
g62
(dp3098
g70
I4
ssg71
g3092
sg64
(lp3099
S'{{'
p3100
asbasbasbag57
(g73
g59
NtRp3101
(dp3102
g62
(dp3103
sg71
g3084
sg64
(lp3104
g57
(g78
g59
NtRp3105
(dp3106
g62
(dp3107
sg71
g3101
sg64
(lp3108
g57
(g58
g59
NtRp3109
(dp3110
g62
(dp3111
g70
I4
ssg71
g3105
sg64
(lp3112
S'}}'
p3113
asbasbasbasbasbasbasbag57
(g73
g59
NtRp3114
(dp3115
g62
(dp3116
sg71
g2829
sg64
(lp3117
g57
(g78
g59
NtRp3118
(dp3119
g62
(dp3120
g82
g83
ssg71
g3114
sg64
(lp3121
S'files'
p3122
asbag57
(g78
g59
NtRp3123
(dp3124
g62
(dp3125
g89
g90
ssg71
g3114
sg64
(lp3126
S':'
asbag57
(g78
g59
NtRp3127
(dp3128
g62
(dp3129
sg71
g3114
sg64
(lp3130
g57
(g58
g59
NtRp3131
(dp3132
g62
(dp3133
g70
I5
ssg71
g3127
sg64
(lp3134
g57
(g66
g59
NtRp3135
(dp3136
g62
(dp3137
g70
I4
ssg71
Nsg64
(lp3138
sbasbasbasbag57
(g73
g59
NtRp3139
(dp3140
g62
(dp3141
sg71
g2829
sg64
(lp3142
g57
(g78
g59
NtRp3143
(dp3144
g62
(dp3145
g82
g83
ssg71
g3139
sg64
(lp3146
S'flash'
p3147
asbag57
(g78
g59
NtRp3148
(dp3149
g62
(dp3150
g89
g90
ssg71
g3139
sg64
(lp3151
S':'
asbag57
(g78
g59
NtRp3152
(dp3153
g62
(dp3154
sg71
g3139
sg64
(lp3155
g57
(g58
g59
NtRp3156
(dp3157
g62
(dp3158
g70
I5
ssg71
g3152
sg64
(lp3159
S''
asbasbasbag57
(g73
g59
NtRp3160
(dp3161
g62
(dp3162
sg71
g2829
sg64
(lp3163
g57
(g78
g59
NtRp3164
(dp3165
g62
(dp3166
g82
g83
ssg71
g3160
sg64
(lp3167
S'generic_patterns'
p3168
asbag57
(g78
g59
NtRp3169
(dp3170
g62
(dp3171
g89
g90
ssg71
g3160
sg64
(lp3172
S':'
asbag57
(g78
g59
NtRp3173
(dp3174
g62
(dp3175
sg71
g3160
sg64
(lp3176
g57
(g58
g59
NtRp3177
(dp3178
g62
(dp3179
g70
I5
ssg71
g3173
sg64
(lp3180
g57
(g66
g59
NtRp3181
(dp3182
g62
(dp3183
g70
I4
ssg71
Nsg64
(lp3184
g57
(g73
g59
NtRp3185
(dp3186
g62
(dp3187
sg71
g3181
sg64
(lp3188
g57
(g78
g59
NtRp3189
(dp3190
g62
(dp3191
sg71
g3185
sg64
(lp3192
g57
(g58
g59
NtRp3193
(dp3194
g62
(dp3195
g70
I4
ssg71
g3189
sg64
(lp3196
S'*'
asbasbasbasbasbasbasbag57
(g73
g59
NtRp3197
(dp3198
g62
(dp3199
sg71
g2829
sg64
(lp3200
g57
(g78
g59
NtRp3201
(dp3202
g62
(dp3203
g82
g83
ssg71
g3197
sg64
(lp3204
S'headers'
p3205
asbag57
(g78
g59
NtRp3206
(dp3207
g62
(dp3208
g89
g90
ssg71
g3197
sg64
(lp3209
S':'
asbag57
(g78
g59
NtRp3210
(dp3211
g62
(dp3212
sg71
g3197
sg64
(lp3213
g57
(g58
g59
NtRp3214
(dp3215
g62
(dp3216
g70
I5
ssg71
g3210
sg64
(lp3217
g57
(g66
g59
NtRp3218
(dp3219
g62
(dp3220
g70
I4
ssg71
Nsg64
(lp3221
g57
(g73
g59
NtRp3222
(dp3223
g62
(dp3224
sg71
g3218
sg64
(lp3225
g57
(g78
g59
NtRp3226
(dp3227
g62
(dp3228
g82
g83
ssg71
g3222
sg64
(lp3229
S'Cache-Control'
p3230
asbag57
(g78
g59
NtRp3231
(dp3232
g62
(dp3233
g89
g90
ssg71
g3222
sg64
(lp3234
S':'
asbag57
(g78
g59
NtRp3235
(dp3236
g62
(dp3237
sg71
g3222
sg64
(lp3238
g57
(g58
g59
NtRp3239
(dp3240
g62
(dp3241
g70
I4
ssg71
g3235
sg64
(lp3242
S'no-store, no-cache, must-revalidate, post-check=0, pre-check=0'
p3243
asbasbasbag57
(g73
g59
NtRp3244
(dp3245
g62
(dp3246
sg71
g3218
sg64
(lp3247
g57
(g78
g59
NtRp3248
(dp3249
g62
(dp3250
g82
g83
ssg71
g3244
sg64
(lp3251
S'Content-Type'
p3252
asbag57
(g78
g59
NtRp3253
(dp3254
g62
(dp3255
g89
g90
ssg71
g3244
sg64
(lp3256
S':'
asbag57
(g78
g59
NtRp3257
(dp3258
g62
(dp3259
sg71
g3244
sg64
(lp3260
g57
(g58
g59
NtRp3261
(dp3262
g62
(dp3263
g70
I4
ssg71
g3257
sg64
(lp3264
S'text/html; charset=utf-8'
p3265
asbasbasbag57
(g73
g59
NtRp3266
(dp3267
g62
(dp3268
sg71
g3218
sg64
(lp3269
g57
(g78
g59
NtRp3270
(dp3271
g62
(dp3272
g82
g83
ssg71
g3266
sg64
(lp3273
S'Expires'
p3274
asbag57
(g78
g59
NtRp3275
(dp3276
g62
(dp3277
g89
g90
ssg71
g3266
sg64
(lp3278
S':'
asbag57
(g78
g59
NtRp3279
(dp3280
g62
(dp3281
sg71
g3266
sg64
(lp3282
g57
(g58
g59
NtRp3283
(dp3284
g62
(dp3285
g70
I4
ssg71
g3279
sg64
(lp3286
S'Sat, 14 Jul 2012 22:48:24 GMT'
p3287
asbasbasbag57
(g73
g59
NtRp3288
(dp3289
g62
(dp3290
sg71
g3218
sg64
(lp3291
g57
(g78
g59
NtRp3292
(dp3293
g62
(dp3294
g82
g83
ssg71
g3288
sg64
(lp3295
S'Pragma'
p3296
asbag57
(g78
g59
NtRp3297
(dp3298
g62
(dp3299
g89
g90
ssg71
g3288
sg64
(lp3300
S':'
asbag57
(g78
g59
NtRp3301
(dp3302
g62
(dp3303
sg71
g3288
sg64
(lp3304
g57
(g58
g59
NtRp3305
(dp3306
g62
(dp3307
g70
I4
ssg71
g3301
sg64
(lp3308
S'no-cache'
p3309
asbasbasbag57
(g73
g59
NtRp3310
(dp3311
g62
(dp3312
sg71
g3218
sg64
(lp3313
g57
(g78
g59
NtRp3314
(dp3315
g62
(dp3316
g82
g83
ssg71
g3310
sg64
(lp3317
S'X-Powered-By'
p3318
asbag57
(g78
g59
NtRp3319
(dp3320
g62
(dp3321
g89
g90
ssg71
g3310
sg64
(lp3322
S':'
asbag57
(g78
g59
NtRp3323
(dp3324
g62
(dp3325
sg71
g3310
sg64
(lp3326
g57
(g58
g59
NtRp3327
(dp3328
g62
(dp3329
g70
I4
ssg71
g3323
sg64
(lp3330
S'web2py'
p3331
asbasbasbasbasbasbasbag57
(g73
g59
NtRp3332
(dp3333
g62
(dp3334
sg71
g2829
sg64
(lp3335
g57
(g78
g59
NtRp3336
(dp3337
g62
(dp3338
g82
g83
ssg71
g3332
sg64
(lp3339
S'menu'
p3340
asbag57
(g78
g59
NtRp3341
(dp3342
g62
(dp3343
g89
g90
ssg71
g3332
sg64
(lp3344
S':'
asbag57
(g78
g59
NtRp3345
(dp3346
g62
(dp3347
sg71
g3332
sg64
(lp3348
g57
(g58
g59
NtRp3349
(dp3350
g62
(dp3351
g70
I5
ssg71
g3345
sg64
(lp3352
g57
(g66
g59
NtRp3353
(dp3354
g62
(dp3355
g70
I4
ssg71
Nsg64
(lp3356
g57
(g73
g59
NtRp3357
(dp3358
g62
(dp3359
sg71
g3353
sg64
(lp3360
g57
(g78
g59
NtRp3361
(dp3362
g62
(dp3363
sg71
g3357
sg64
(lp3364
g57
(g58
g59
NtRp3365
(dp3366
g62
(dp3367
g70
I4
ssg71
g3361
sg64
(lp3368
g57
(g66
g59
NtRp3369
(dp3370
g62
(dp3371
g70
I3
ssg71
Nsg64
(lp3372
g57
(g73
g59
NtRp3373
(dp3374
g62
(dp3375
sg71
g3369
sg64
(lp3376
g57
(g78
g59
NtRp3377
(dp3378
g62
(dp3379
sg71
g3373
sg64
(lp3380
g57
(g58
g59
NtRp3381
(dp3382
g62
(dp3383
g70
I3
ssg71
g3377
sg64
(lp3384
cgluon.languages
lazyT_unpickle
p3385
(S't\x04\x00\x00\x00Home'
tRp3386
asbasbasbag57
(g73
g59
NtRp3387
(dp3388
g62
(dp3389
sg71
g3369
sg64
(lp3390
g57
(g78
g59
NtRp3391
(dp3392
g62
(dp3393
sg71
g3387
sg64
(lp3394
g57
(g58
g59
NtRp3395
(dp3396
g62
(dp3397
g70
I3
ssg71
g3391
sg64
(lp3398
g100
asbasbasbag57
(g73
g59
NtRp3399
(dp3400
g62
(dp3401
sg71
g3369
sg64
(lp3402
g57
(g78
g59
NtRp3403
(dp3404
g62
(dp3405
sg71
g3399
sg64
(lp3406
g57
(g58
g59
NtRp3407
(dp3408
g62
(dp3409
g70
I3
ssg71
g3403
sg64
(lp3410
S'/milo/default/index'
p3411
asbasbasbag57
(g73
g59
NtRp3412
(dp3413
g62
(dp3414
sg71
g3369
sg64
(lp3415
g57
(g78
g59
NtRp3416
(dp3417
g62
(dp3418
sg71
g3412
sg64
(lp3419
g57
(g58
g59
NtRp3420
(dp3421
g62
(dp3422
g70
I3
ssg71
g3416
sg64
(lp3423
g57
(g66
g59
NtRp3424
(dp3425
g62
(dp3426
g70
I2
ssg71
Nsg64
(lp3427
sbasbasbasbasbasbasbasbag57
(g73
g59
NtRp3428
(dp3429
g62
(dp3430
sg71
g3353
sg64
(lp3431
g57
(g78
g59
NtRp3432
(dp3433
g62
(dp3434
sg71
g3428
sg64
(lp3435
g57
(g58
g59
NtRp3436
(dp3437
g62
(dp3438
g70
I4
ssg71
g3432
sg64
(lp3439
g57
(g66
g59
NtRp3440
(dp3441
g62
(dp3442
g70
I3
ssg71
Nsg64
(lp3443
g57
(g73
g59
NtRp3444
(dp3445
g62
(dp3446
sg71
g3440
sg64
(lp3447
g57
(g78
g59
NtRp3448
(dp3449
g62
(dp3450
sg71
g3444
sg64
(lp3451
g57
(g58
g59
NtRp3452
(dp3453
g62
(dp3454
g70
I3
ssg71
g3448
sg64
(lp3455
g3385
(S't\x05\x00\x00\x00Admin'
tRp3456
asbasbasbag57
(g73
g59
NtRp3457
(dp3458
g62
(dp3459
sg71
g3440
sg64
(lp3460
g57
(g78
g59
NtRp3461
(dp3462
g62
(dp3463
sg71
g3457
sg64
(lp3464
g57
(g58
g59
NtRp3465
(dp3466
g62
(dp3467
g70
I3
ssg71
g3461
sg64
(lp3468
g100
asbasbasbag57
(g73
g59
NtRp3469
(dp3470
g62
(dp3471
sg71
g3440
sg64
(lp3472
g57
(g78
g59
NtRp3473
(dp3474
g62
(dp3475
sg71
g3469
sg64
(lp3476
g57
(g58
g59
NtRp3477
(dp3478
g62
(dp3479
g70
I3
ssg71
g3473
sg64
(lp3480
S'/milo/admin/index'
p3481
asbasbasbag57
(g73
g59
NtRp3482
(dp3483
g62
(dp3484
sg71
g3440
sg64
(lp3485
g57
(g78
g59
NtRp3486
(dp3487
g62
(dp3488
sg71
g3482
sg64
(lp3489
g57
(g58
g59
NtRp3490
(dp3491
g62
(dp3492
g70
I3
ssg71
g3486
sg64
(lp3493
g57
(g66
g59
NtRp3494
(dp3495
g62
(dp3496
g70
I2
ssg71
Nsg64
(lp3497
sbasbasbasbasbasbasbasbag57
(g73
g59
NtRp3498
(dp3499
g62
(dp3500
sg71
g3353
sg64
(lp3501
g57
(g78
g59
NtRp3502
(dp3503
g62
(dp3504
sg71
g3498
sg64
(lp3505
g57
(g58
g59
NtRp3506
(dp3507
g62
(dp3508
g70
I4
ssg71
g3502
sg64
(lp3509
g57
(g66
g59
NtRp3510
(dp3511
g62
(dp3512
g70
I3
ssg71
Nsg64
(lp3513
g57
(g73
g59
NtRp3514
(dp3515
g62
(dp3516
sg71
g3510
sg64
(lp3517
g57
(g78
g59
NtRp3518
(dp3519
g62
(dp3520
sg71
g3514
sg64
(lp3521
g57
(g58
g59
NtRp3522
(dp3523
g62
(dp3524
g70
I3
ssg71
g3518
sg64
(lp3525
g57
(cgluon.html
SPAN
p3526
g59
NtRp3527
(dp3528
g62
(dp3529
g82
S'color:yellow'
p3530
ssg71
Nsg64
(lp3531
g3331
asbasbasbasbag57
(g73
g59
NtRp3532
(dp3533
g62
(dp3534
sg71
g3510
sg64
(lp3535
g57
(g78
g59
NtRp3536
(dp3537
g62
(dp3538
sg71
g3532
sg64
(lp3539
g57
(g58
g59
NtRp3540
(dp3541
g62
(dp3542
g70
I3
ssg71
g3536
sg64
(lp3543
g100
asbasbasbag57
(g73
g59
NtRp3544
(dp3545
g62
(dp3546
sg71
g3510
sg64
(lp3547
g57
(g78
g59
NtRp3548
(dp3549
g62
(dp3550
sg71
g3544
sg64
(lp3551
g57
(g58
g59
NtRp3552
(dp3553
g62
(dp3554
g70
I3
ssg71
g3548
sg64
(lp3555
S'None'
p3556
asbasbasbag57
(g73
g59
NtRp3557
(dp3558
g62
(dp3559
sg71
g3510
sg64
(lp3560
g57
(g78
g59
NtRp3561
(dp3562
g62
(dp3563
sg71
g3557
sg64
(lp3564
g57
(g58
g59
NtRp3565
(dp3566
g62
(dp3567
g70
I3
ssg71
g3561
sg64
(lp3568
g57
(g66
g59
NtRp3569
(dp3570
g62
(dp3571
g70
I2
ssg71
Nsg64
(lp3572
g57
(g73
g59
NtRp3573
(dp3574
g62
(dp3575
sg71
g3569
sg64
(lp3576
g57
(g78
g59
NtRp3577
(dp3578
g62
(dp3579
sg71
g3573
sg64
(lp3580
g57
(g58
g59
NtRp3581
(dp3582
g62
(dp3583
g70
I2
ssg71
g3577
sg64
(lp3584
g57
(g66
g59
NtRp3585
(dp3586
g62
(dp3587
g70
I1
ssg71
Nsg64
(lp3588
g57
(g73
g59
NtRp3589
(dp3590
g62
(dp3591
sg71
g3585
sg64
(lp3592
g57
(g78
g59
NtRp3593
(dp3594
g62
(dp3595
sg71
g3589
sg64
(lp3596
g57
(g58
g59
NtRp3597
(dp3598
g62
(dp3599
g70
I1
ssg71
g3593
sg64
(lp3600
g3385
(S's\x08\x00\x00\x00My Sites'
tRp3601
asbasbasbag57
(g73
g59
NtRp3602
(dp3603
g62
(dp3604
sg71
g3585
sg64
(lp3605
g57
(g78
g59
NtRp3606
(dp3607
g62
(dp3608
sg71
g3602
sg64
(lp3609
g57
(g58
g59
NtRp3610
(dp3611
g62
(dp3612
g70
I1
ssg71
g3606
sg64
(lp3613
I00
asbasbasbag57
(g73
g59
NtRp3614
(dp3615
g62
(dp3616
sg71
g3585
sg64
(lp3617
g57
(g78
g59
NtRp3618
(dp3619
g62
(dp3620
sg71
g3614
sg64
(lp3621
g57
(g58
g59
NtRp3622
(dp3623
g62
(dp3624
g70
I1
ssg71
g3618
sg64
(lp3625
S'/admin/default/site'
p3626
asbasbasbasbasbasbasbag57
(g73
g59
NtRp3627
(dp3628
g62
(dp3629
sg71
g3569
sg64
(lp3630
g57
(g78
g59
NtRp3631
(dp3632
g62
(dp3633
sg71
g3627
sg64
(lp3634
g57
(g58
g59
NtRp3635
(dp3636
g62
(dp3637
g70
I2
ssg71
g3631
sg64
(lp3638
g57
(g66
g59
NtRp3639
(dp3640
g62
(dp3641
g70
I1
ssg71
Nsg64
(lp3642
g57
(g73
g59
NtRp3643
(dp3644
g62
(dp3645
sg71
g3639
sg64
(lp3646
g57
(g78
g59
NtRp3647
(dp3648
g62
(dp3649
sg71
g3643
sg64
(lp3650
g57
(g58
g59
NtRp3651
(dp3652
g62
(dp3653
g70
I1
ssg71
g3647
sg64
(lp3654
g3385
(S's\x08\x00\x00\x00This App'
tRp3655
asbasbasbag57
(g73
g59
NtRp3656
(dp3657
g62
(dp3658
sg71
g3639
sg64
(lp3659
g57
(g78
g59
NtRp3660
(dp3661
g62
(dp3662
sg71
g3656
sg64
(lp3663
g57
(g58
g59
NtRp3664
(dp3665
g62
(dp3666
g70
I1
ssg71
g3660
sg64
(lp3667
I00
asbasbasbag57
(g73
g59
NtRp3668
(dp3669
g62
(dp3670
sg71
g3639
sg64
(lp3671
g57
(g78
g59
NtRp3672
(dp3673
g62
(dp3674
sg71
g3668
sg64
(lp3675
g57
(g58
g59
NtRp3676
(dp3677
g62
(dp3678
g70
I1
ssg71
g3672
sg64
(lp3679
S'/admin/default/design/milo'
p3680
asbasbasbag57
(g73
g59
NtRp3681
(dp3682
g62
(dp3683
sg71
g3639
sg64
(lp3684
g57
(g78
g59
NtRp3685
(dp3686
g62
(dp3687
sg71
g3681
sg64
(lp3688
g57
(g58
g59
NtRp3689
(dp3690
g62
(dp3691
g70
I1
ssg71
g3685
sg64
(lp3692
(lp3693
(g3385
(S't\n\x00\x00\x00Controller'
tRp3694
I00
S'/admin/default/edit/milo/controllers/admin.py'
tp3695
a(g3385
(S't\x04\x00\x00\x00View'
tRp3696
I00
S'/admin/default/edit/milo/views/admin/index.html'
tp3697
a(g3385
(S't\x06\x00\x00\x00Layout'
tRp3698
I00
S'/admin/default/edit/milo/views/layout.html'
tp3699
a(g3385
(S't\n\x00\x00\x00Stylesheet'
tRp3700
I00
S'/admin/default/edit/milo/static/css/web2py.css'
tp3701
a(g3385
(S's\x08\x00\x00\x00DB Model'
tRp3702
I00
S'/admin/default/edit/milo/models/db.py'
tp3703
a(g3385
(S's\n\x00\x00\x00Menu Model'
tRp3704
I00
S'/admin/default/edit/milo/models/menu.py'
tp3705
a(g3385
(S't\x08\x00\x00\x00Database'
tRp3706
I00
S'/milo/appadmin/index'
tp3707
a(g3385
(S't\x06\x00\x00\x00Errors'
tRp3708
I00
S'/admin/default/errors/milo'
tp3709
a(g3385
(S't\x05\x00\x00\x00About'
tRp3710
I00
S'/admin/default/about/milo'
tp3711
aasbasbasbasbasbasbasbag57
(g73
g59
NtRp3712
(dp3713
g62
(dp3714
sg71
g3569
sg64
(lp3715
g57
(g78
g59
NtRp3716
(dp3717
g62
(dp3718
sg71
g3712
sg64
(lp3719
g57
(g58
g59
NtRp3720
(dp3721
g62
(dp3722
g70
I2
ssg71
g3716
sg64
(lp3723
g57
(g66
g59
NtRp3724
(dp3725
g62
(dp3726
g70
I1
ssg71
Nsg64
(lp3727
g57
(g73
g59
NtRp3728
(dp3729
g62
(dp3730
sg71
g3724
sg64
(lp3731
g57
(g78
g59
NtRp3732
(dp3733
g62
(dp3734
sg71
g3728
sg64
(lp3735
g57
(g58
g59
NtRp3736
(dp3737
g62
(dp3738
g70
I1
ssg71
g3732
sg64
(lp3739
S'web2py.com'
p3740
asbasbasbag57
(g73
g59
NtRp3741
(dp3742
g62
(dp3743
sg71
g3724
sg64
(lp3744
g57
(g78
g59
NtRp3745
(dp3746
g62
(dp3747
sg71
g3741
sg64
(lp3748
g57
(g58
g59
NtRp3749
(dp3750
g62
(dp3751
g70
I1
ssg71
g3745
sg64
(lp3752
I00
asbasbasbag57
(g73
g59
NtRp3753
(dp3754
g62
(dp3755
sg71
g3724
sg64
(lp3756
g57
(g78
g59
NtRp3757
(dp3758
g62
(dp3759
sg71
g3753
sg64
(lp3760
g57
(g58
g59
NtRp3761
(dp3762
g62
(dp3763
g70
I1
ssg71
g3757
sg64
(lp3764
S'http://www.web2py.com'
p3765
asbasbasbag57
(g73
g59
NtRp3766
(dp3767
g62
(dp3768
sg71
g3724
sg64
(lp3769
g57
(g78
g59
NtRp3770
(dp3771
g62
(dp3772
sg71
g3766
sg64
(lp3773
g57
(g58
g59
NtRp3774
(dp3775
g62
(dp3776
g70
I1
ssg71
g3770
sg64
(lp3777
(lp3778
(g3385
(S't\x08\x00\x00\x00Download'
tRp3779
I00
S'http://www.web2py.com/examples/default/download'
p3780
tp3781
a(g3385
(S't\x07\x00\x00\x00Support'
tRp3782
I00
S'http://www.web2py.com/examples/default/support'
p3783
tp3784
a(g3385
(S't\x04\x00\x00\x00Demo'
tRp3785
I00
S'http://web2py.com/demo_admin'
p3786
tp3787
a(g3385
(S's\x0e\x00\x00\x00Quick Examples'
tRp3788
I00
S'http://web2py.com/examples/default/examples'
p3789
tp3790
a(g3385
(S't\x03\x00\x00\x00FAQ'
tRp3791
I00
S'http://web2py.com/AlterEgo'
p3792
tp3793
a(g3385
(S't\x06\x00\x00\x00Videos'
tRp3794
I00
S'http://www.web2py.com/examples/default/videos/'
p3795
tp3796
a(g3385
(S's\x11\x00\x00\x00Free Applications'
tRp3797
I00
S'http://web2py.com/appliances'
p3798
tp3799
a(g3385
(S't\x07\x00\x00\x00Plugins'
tRp3800
I00
S'http://web2py.com/plugins'
p3801
tp3802
a(g3385
(S't\x07\x00\x00\x00Layouts'
tRp3803
I00
S'http://web2py.com/layouts'
p3804
tp3805
a(g3385
(S't\x07\x00\x00\x00Recipes'
tRp3806
I00
S'http://web2pyslices.com/'
p3807
tp3808
a(g3385
(S't\x08\x00\x00\x00Semantic'
tRp3809
I00
S'http://web2py.com/semantic'
p3810
tp3811
aasbasbasbasbasbasbasbag57
(g73
g59
NtRp3812
(dp3813
g62
(dp3814
sg71
g3569
sg64
(lp3815
g57
(g78
g59
NtRp3816
(dp3817
g62
(dp3818
sg71
g3812
sg64
(lp3819
g57
(g58
g59
NtRp3820
(dp3821
g62
(dp3822
g70
I2
ssg71
g3816
sg64
(lp3823
g57
(g66
g59
NtRp3824
(dp3825
g62
(dp3826
g70
I1
ssg71
Nsg64
(lp3827
g57
(g73
g59
NtRp3828
(dp3829
g62
(dp3830
sg71
g3824
sg64
(lp3831
g57
(g78
g59
NtRp3832
(dp3833
g62
(dp3834
sg71
g3828
sg64
(lp3835
g57
(g58
g59
NtRp3836
(dp3837
g62
(dp3838
g70
I1
ssg71
g3832
sg64
(lp3839
g3385
(S't\r\x00\x00\x00Documentation'
tRp3840
asbasbasbag57
(g73
g59
NtRp3841
(dp3842
g62
(dp3843
sg71
g3824
sg64
(lp3844
g57
(g78
g59
NtRp3845
(dp3846
g62
(dp3847
sg71
g3841
sg64
(lp3848
g57
(g58
g59
NtRp3849
(dp3850
g62
(dp3851
g70
I1
ssg71
g3845
sg64
(lp3852
I00
asbasbasbag57
(g73
g59
NtRp3853
(dp3854
g62
(dp3855
sg71
g3824
sg64
(lp3856
g57
(g78
g59
NtRp3857
(dp3858
g62
(dp3859
sg71
g3853
sg64
(lp3860
g57
(g58
g59
NtRp3861
(dp3862
g62
(dp3863
g70
I1
ssg71
g3857
sg64
(lp3864
S'http://www.web2py.com/book'
p3865
asbasbasbag57
(g73
g59
NtRp3866
(dp3867
g62
(dp3868
sg71
g3824
sg64
(lp3869
g57
(g78
g59
NtRp3870
(dp3871
g62
(dp3872
sg71
g3866
sg64
(lp3873
g57
(g58
g59
NtRp3874
(dp3875
g62
(dp3876
g70
I1
ssg71
g3870
sg64
(lp3877
(lp3878
(g3385
(S't\x07\x00\x00\x00Preface'
tRp3879
I00
S'http://www.web2py.com/book/default/chapter/00'
p3880
tp3881
a(g3385
(S't\x0c\x00\x00\x00Introduction'
tRp3882
I00
S'http://www.web2py.com/book/default/chapter/01'
p3883
tp3884
a(g3385
(S't\x06\x00\x00\x00Python'
tRp3885
I00
S'http://www.web2py.com/book/default/chapter/02'
p3886
tp3887
a(g3385
(S't\x08\x00\x00\x00Overview'
tRp3888
I00
S'http://www.web2py.com/book/default/chapter/03'
p3889
tp3890
a(g3385
(S's\x08\x00\x00\x00The Core'
tRp3891
I00
S'http://www.web2py.com/book/default/chapter/04'
p3892
tp3893
a(g3385
(S's\t\x00\x00\x00The Views'
tRp3894
I00
S'http://www.web2py.com/book/default/chapter/05'
p3895
tp3896
a(g3385
(S't\x08\x00\x00\x00Database'
tRp3897
I00
S'http://www.web2py.com/book/default/chapter/06'
p3898
tp3899
a(g3385
(S's\x14\x00\x00\x00Forms and Validators'
tRp3900
I00
S'http://www.web2py.com/book/default/chapter/07'
p3901
tp3902
a(g3385
(S's\r\x00\x00\x00Email and SMS'
tRp3903
I00
S'http://www.web2py.com/book/default/chapter/08'
p3904
tp3905
a(g3385
(S's\x0e\x00\x00\x00Access Control'
tRp3906
I00
S'http://www.web2py.com/book/default/chapter/09'
p3907
tp3908
a(g3385
(S't\x08\x00\x00\x00Services'
tRp3909
I00
S'http://www.web2py.com/book/default/chapter/10'
p3910
tp3911
a(g3385
(S's\x0c\x00\x00\x00Ajax Recipes'
tRp3912
I00
S'http://www.web2py.com/book/default/chapter/11'
p3913
tp3914
a(g3385
(S's\x16\x00\x00\x00Components and Plugins'
tRp3915
I00
S'http://www.web2py.com/book/default/chapter/12'
p3916
tp3917
a(g3385
(S's\x12\x00\x00\x00Deployment Recipes'
tRp3918
I00
S'http://www.web2py.com/book/default/chapter/13'
p3919
tp3920
a(g3385
(S's\r\x00\x00\x00Other Recipes'
tRp3921
I00
S'http://www.web2py.com/book/default/chapter/14'
p3922
tp3923
a(g3385
(S's\r\x00\x00\x00Buy this book'
tRp3924
I00
S'http://stores.lulu.com/web2py'
p3925
tp3926
aasbasbasbasbasbasbasbag57
(g73
g59
NtRp3927
(dp3928
g62
(dp3929
sg71
g3569
sg64
(lp3930
g57
(g78
g59
NtRp3931
(dp3932
g62
(dp3933
sg71
g3927
sg64
(lp3934
g57
(g58
g59
NtRp3935
(dp3936
g62
(dp3937
g70
I2
ssg71
g3931
sg64
(lp3938
g57
(g66
g59
NtRp3939
(dp3940
g62
(dp3941
g70
I1
ssg71
Nsg64
(lp3942
g57
(g73
g59
NtRp3943
(dp3944
g62
(dp3945
sg71
g3939
sg64
(lp3946
g57
(g78
g59
NtRp3947
(dp3948
g62
(dp3949
sg71
g3943
sg64
(lp3950
g57
(g58
g59
NtRp3951
(dp3952
g62
(dp3953
g70
I1
ssg71
g3947
sg64
(lp3954
g3385
(S't\t\x00\x00\x00Community'
tRp3955
asbasbasbag57
(g73
g59
NtRp3956
(dp3957
g62
(dp3958
sg71
g3939
sg64
(lp3959
g57
(g78
g59
NtRp3960
(dp3961
g62
(dp3962
sg71
g3956
sg64
(lp3963
g57
(g58
g59
NtRp3964
(dp3965
g62
(dp3966
g70
I1
ssg71
g3960
sg64
(lp3967
I00
asbasbasbag57
(g73
g59
NtRp3968
(dp3969
g62
(dp3970
sg71
g3939
sg64
(lp3971
g57
(g78
g59
NtRp3972
(dp3973
g62
(dp3974
sg71
g3968
sg64
(lp3975
g57
(g58
g59
NtRp3976
(dp3977
g62
(dp3978
g70
I1
ssg71
g3972
sg64
(lp3979
Nasbasbasbag57
(g73
g59
NtRp3980
(dp3981
g62
(dp3982
sg71
g3939
sg64
(lp3983
g57
(g78
g59
NtRp3984
(dp3985
g62
(dp3986
sg71
g3980
sg64
(lp3987
g57
(g58
g59
NtRp3988
(dp3989
g62
(dp3990
g70
I1
ssg71
g3984
sg64
(lp3991
(lp3992
(g3385
(S't\x06\x00\x00\x00Groups'
tRp3993
I00
S'http://www.web2py.com/examples/default/usergroups'
p3994
tp3995
a(g3385
(S't\x07\x00\x00\x00Twitter'
tRp3996
I00
S'http://twitter.com/web2py'
p3997
tp3998
a(g3385
(S's\t\x00\x00\x00Live Chat'
tRp3999
I00
S'http://webchat.freenode.net/?channels=web2py'
p4000
tp4001
aasbasbasbasbasbasbasbag57
(g73
g59
NtRp4002
(dp4003
g62
(dp4004
sg71
g3569
sg64
(lp4005
g57
(g78
g59
NtRp4006
(dp4007
g62
(dp4008
sg71
g4002
sg64
(lp4009
g57
(g58
g59
NtRp4010
(dp4011
g62
(dp4012
g70
I2
ssg71
g4006
sg64
(lp4013
g57
(g66
g59
NtRp4014
(dp4015
g62
(dp4016
g70
I1
ssg71
Nsg64
(lp4017
g57
(g73
g59
NtRp4018
(dp4019
g62
(dp4020
sg71
g4014
sg64
(lp4021
g57
(g78
g59
NtRp4022
(dp4023
g62
(dp4024
sg71
g4018
sg64
(lp4025
g57
(g58
g59
NtRp4026
(dp4027
g62
(dp4028
g70
I1
ssg71
g4022
sg64
(lp4029
g3385
(S't\x07\x00\x00\x00Plugins'
tRp4030
asbasbasbag57
(g73
g59
NtRp4031
(dp4032
g62
(dp4033
sg71
g4014
sg64
(lp4034
g57
(g78
g59
NtRp4035
(dp4036
g62
(dp4037
sg71
g4031
sg64
(lp4038
g57
(g58
g59
NtRp4039
(dp4040
g62
(dp4041
g70
I1
ssg71
g4035
sg64
(lp4042
I00
asbasbasbag57
(g73
g59
NtRp4043
(dp4044
g62
(dp4045
sg71
g4014
sg64
(lp4046
g57
(g78
g59
NtRp4047
(dp4048
g62
(dp4049
sg71
g4043
sg64
(lp4050
g57
(g58
g59
NtRp4051
(dp4052
g62
(dp4053
g70
I1
ssg71
g4047
sg64
(lp4054
Nasbasbasbag57
(g73
g59
NtRp4055
(dp4056
g62
(dp4057
sg71
g4014
sg64
(lp4058
g57
(g78
g59
NtRp4059
(dp4060
g62
(dp4061
sg71
g4055
sg64
(lp4062
g57
(g58
g59
NtRp4063
(dp4064
g62
(dp4065
g70
I1
ssg71
g4059
sg64
(lp4066
(lp4067
(S'plugin_wiki'
p4068
I00
S'http://web2py.com/examples/default/download'
p4069
tp4070
a(g3385
(S's\r\x00\x00\x00Other Plugins'
tRp4071
I00
g3801
tp4072
a(g3385
(S's\x0e\x00\x00\x00Layout Plugins'
tRp4073
I00
g3804
tp4074
aasbasbasbasbasbasbasbasbasbasbasbasbasbasbasbasbasbasbasbag57
(g73
g59
NtRp4075
(dp4076
g62
(dp4077
sg71
g2829
sg64
(lp4078
g57
(g78
g59
NtRp4079
(dp4080
g62
(dp4081
g82
g83
ssg71
g4075
sg64
(lp4082
S'meta'
p4083
asbag57
(g78
g59
NtRp4084
(dp4085
g62
(dp4086
g89
g90
ssg71
g4075
sg64
(lp4087
S':'
asbag57
(g78
g59
NtRp4088
(dp4089
g62
(dp4090
sg71
g4075
sg64
(lp4091
g57
(g58
g59
NtRp4092
(dp4093
g62
(dp4094
g70
I5
ssg71
g4088
sg64
(lp4095
g57
(g66
g59
NtRp4096
(dp4097
g62
(dp4098
g70
I4
ssg71
Nsg64
(lp4099
g57
(g73
g59
NtRp4100
(dp4101
g62
(dp4102
sg71
g4096
sg64
(lp4103
g57
(g78
g59
NtRp4104
(dp4105
g62
(dp4106
g82
g83
ssg71
g4100
sg64
(lp4107
S'author'
p4108
asbag57
(g78
g59
NtRp4109
(dp4110
g62
(dp4111
g89
g90
ssg71
g4100
sg64
(lp4112
S':'
asbag57
(g78
g59
NtRp4113
(dp4114
g62
(dp4115
sg71
g4100
sg64
(lp4116
g57
(g58
g59
NtRp4117
(dp4118
g62
(dp4119
g70
I4
ssg71
g4113
sg64
(lp4120
S'Vincenzo Ampolo <vincenzo.ampolo@gmail.com>'
p4121
asbasbasbag57
(g73
g59
NtRp4122
(dp4123
g62
(dp4124
sg71
g4096
sg64
(lp4125
g57
(g78
g59
NtRp4126
(dp4127
g62
(dp4128
g82
g83
ssg71
g4122
sg64
(lp4129
S'copyright'
p4130
asbag57
(g78
g59
NtRp4131
(dp4132
g62
(dp4133
g89
g90
ssg71
g4122
sg64
(lp4134
S':'
asbag57
(g78
g59
NtRp4135
(dp4136
g62
(dp4137
sg71
g4122
sg64
(lp4138
g57
(g58
g59
NtRp4139
(dp4140
g62
(dp4141
g70
I4
ssg71
g4135
sg64
(lp4142
S'Copyright 2012'
p4143
asbasbasbag57
(g73
g59
NtRp4144
(dp4145
g62
(dp4146
sg71
g4096
sg64
(lp4147
g57
(g78
g59
NtRp4148
(dp4149
g62
(dp4150
g82
g83
ssg71
g4144
sg64
(lp4151
S'description'
p4152
asbag57
(g78
g59
NtRp4153
(dp4154
g62
(dp4155
g89
g90
ssg71
g4144
sg64
(lp4156
S':'
asbag57
(g78
g59
NtRp4157
(dp4158
g62
(dp4159
sg71
g4144
sg64
(lp4160
g57
(g58
g59
NtRp4161
(dp4162
g62
(dp4163
g70
I4
ssg71
g4157
sg64
(lp4164
S'Milo recommendation system'
p4165
asbasbasbag57
(g73
g59
NtRp4166
(dp4167
g62
(dp4168
sg71
g4096
sg64
(lp4169
g57
(g78
g59
NtRp4170
(dp4171
g62
(dp4172
g82
g83
ssg71
g4166
sg64
(lp4173
S'generator'
p4174
asbag57
(g78
g59
NtRp4175
(dp4176
g62
(dp4177
g89
g90
ssg71
g4166
sg64
(lp4178
S':'
asbag57
(g78
g59
NtRp4179
(dp4180
g62
(dp4181
sg71
g4166
sg64
(lp4182
g57
(g58
g59
NtRp4183
(dp4184
g62
(dp4185
g70
I4
ssg71
g4179
sg64
(lp4186
S'Web2py Web Framework'
p4187
asbasbasbag57
(g73
g59
NtRp4188
(dp4189
g62
(dp4190
sg71
g4096
sg64
(lp4191
g57
(g78
g59
NtRp4192
(dp4193
g62
(dp4194
g82
g83
ssg71
g4188
sg64
(lp4195
S'keywords'
p4196
asbag57
(g78
g59
NtRp4197
(dp4198
g62
(dp4199
g89
g90
ssg71
g4188
sg64
(lp4200
S':'
asbag57
(g78
g59
NtRp4201
(dp4202
g62
(dp4203
sg71
g4188
sg64
(lp4204
g57
(g58
g59
NtRp4205
(dp4206
g62
(dp4207
g70
I4
ssg71
g4201
sg64
(lp4208
S'web2py, python, framework'
p4209
asbasbasbasbasbasbasbag57
(g73
g59
NtRp4210
(dp4211
g62
(dp4212
sg71
g2829
sg64
(lp4213
g57
(g78
g59
NtRp4214
(dp4215
g62
(dp4216
g82
g83
ssg71
g4210
sg64
(lp4217
S'postprocessing'
p4218
asbag57
(g78
g59
NtRp4219
(dp4220
g62
(dp4221
g89
g90
ssg71
g4210
sg64
(lp4222
S':'
asbag57
(g78
g59
NtRp4223
(dp4224
g62
(dp4225
sg71
g4210
sg64
(lp4226
g57
(g58
g59
NtRp4227
(dp4228
g62
(dp4229
g70
I5
ssg71
g4223
sg64
(lp4230
g57
(g66
g59
NtRp4231
(dp4232
g62
(dp4233
g70
I4
ssg71
Nsg64
(lp4234
sbasbasbasbag57
(g73
g59
NtRp4235
(dp4236
g62
(dp4237
sg71
g2829
sg64
(lp4238
g57
(g78
g59
NtRp4239
(dp4240
g62
(dp4241
g82
g83
ssg71
g4235
sg64
(lp4242
S'session_file'
p4243
asbag57
(g78
g59
NtRp4244
(dp4245
g62
(dp4246
g89
g90
ssg71
g4235
sg64
(lp4247
S':'
asbag57
(g78
g59
NtRp4248
(dp4249
g62
(dp4250
sg71
g4235
sg64
(lp4251
g57
(g58
g59
NtRp4252
(dp4253
g62
(dp4254
g70
I5
ssg71
g4248
sg64
(lp4255
S"<open file '/home/goshawk/web2py/applications/milo/sessions/127.0.0.1-6ea54ce8-d4d4-42e2-9f2c-7c1a0acc789f', mode 'rb+' at 0x7fa7352eb660>"
p4256
asbasbasbag57
(g73
g59
NtRp4257
(dp4258
g62
(dp4259
sg71
g2829
sg64
(lp4260
g57
(g78
g59
NtRp4261
(dp4262
g62
(dp4263
g82
g83
ssg71
g4257
sg64
(lp4264
S'session_filename'
p4265
asbag57
(g78
g59
NtRp4266
(dp4267
g62
(dp4268
g89
g90
ssg71
g4257
sg64
(lp4269
S':'
asbag57
(g78
g59
NtRp4270
(dp4271
g62
(dp4272
sg71
g4257
sg64
(lp4273
g57
(g58
g59
NtRp4274
(dp4275
g62
(dp4276
g70
I5
ssg71
g4270
sg64
(lp4277
S'/home/goshawk/web2py/applications/milo/sessions/127.0.0.1-6ea54ce8-d4d4-42e2-9f2c-7c1a0acc789f'
p4278
asbasbasbag57
(g73
g59
NtRp4279
(dp4280
g62
(dp4281
sg71
g2829
sg64
(lp4282
g57
(g78
g59
NtRp4283
(dp4284
g62
(dp4285
g82
g83
ssg71
g4279
sg64
(lp4286
S'session_id'
p4287
asbag57
(g78
g59
NtRp4288
(dp4289
g62
(dp4290
g89
g90
ssg71
g4279
sg64
(lp4291
S':'
asbag57
(g78
g59
NtRp4292
(dp4293
g62
(dp4294
sg71
g4279
sg64
(lp4295
g57
(g58
g59
NtRp4296
(dp4297
g62
(dp4298
g70
I5
ssg71
g4292
sg64
(lp4299
S'127.0.0.1-6ea54ce8-d4d4-42e2-9f2c-7c1a0acc789f'
p4300
asbasbasbag57
(g73
g59
NtRp4301
(dp4302
g62
(dp4303
sg71
g2829
sg64
(lp4304
g57
(g78
g59
NtRp4305
(dp4306
g62
(dp4307
g82
g83
ssg71
g4301
sg64
(lp4308
S'session_id_name'
p4309
asbag57
(g78
g59
NtRp4310
(dp4311
g62
(dp4312
g89
g90
ssg71
g4301
sg64
(lp4313
S':'
asbag57
(g78
g59
NtRp4314
(dp4315
g62
(dp4316
sg71
g4301
sg64
(lp4317
g57
(g58
g59
NtRp4318
(dp4319
g62
(dp4320
g70
I5
ssg71
g4314
sg64
(lp4321
g2886
asbasbasbag57
(g73
g59
NtRp4322
(dp4323
g62
(dp4324
sg71
g2829
sg64
(lp4325
g57
(g78
g59
NtRp4326
(dp4327
g62
(dp4328
g82
g83
ssg71
g4322
sg64
(lp4329
S'session_locked'
p4330
asbag57
(g78
g59
NtRp4331
(dp4332
g62
(dp4333
g89
g90
ssg71
g4322
sg64
(lp4334
S':'
asbag57
(g78
g59
NtRp4335
(dp4336
g62
(dp4337
sg71
g4322
sg64
(lp4338
g57
(g58
g59
NtRp4339
(dp4340
g62
(dp4341
g70
I5
ssg71
g4335
sg64
(lp4342
g1372
asbasbasbag57
(g73
g59
NtRp4343
(dp4344
g62
(dp4345
sg71
g2829
sg64
(lp4346
g57
(g78
g59
NtRp4347
(dp4348
g62
(dp4349
g82
g83
ssg71
g4343
sg64
(lp4350
S'session_new'
p4351
asbag57
(g78
g59
NtRp4352
(dp4353
g62
(dp4354
g89
g90
ssg71
g4343
sg64
(lp4355
S':'
asbag57
(g78
g59
NtRp4356
(dp4357
g62
(dp4358
sg71
g4343
sg64
(lp4359
g57
(g58
g59
NtRp4360
(dp4361
g62
(dp4362
g70
I5
ssg71
g4356
sg64
(lp4363
g100
asbasbasbag57
(g73
g59
NtRp4364
(dp4365
g62
(dp4366
sg71
g2829
sg64
(lp4367
g57
(g78
g59
NtRp4368
(dp4369
g62
(dp4370
g82
g83
ssg71
g4364
sg64
(lp4371
S'status'
p4372
asbag57
(g78
g59
NtRp4373
(dp4374
g62
(dp4375
g89
g90
ssg71
g4364
sg64
(lp4376
S':'
asbag57
(g78
g59
NtRp4377
(dp4378
g62
(dp4379
sg71
g4364
sg64
(lp4380
g57
(g58
g59
NtRp4381
(dp4382
g62
(dp4383
g70
I5
ssg71
g4377
sg64
(lp4384
S'200'
p4385
asbasbasbag57
(g73
g59
NtRp4386
(dp4387
g62
(dp4388
sg71
g2829
sg64
(lp4389
g57
(g78
g59
NtRp4390
(dp4391
g62
(dp4392
g82
g83
ssg71
g4386
sg64
(lp4393
S'title'
p4394
asbag57
(g78
g59
NtRp4395
(dp4396
g62
(dp4397
g89
g90
ssg71
g4386
sg64
(lp4398
S':'
asbag57
(g78
g59
NtRp4399
(dp4400
g62
(dp4401
sg71
g4386
sg64
(lp4402
g57
(g58
g59
NtRp4403
(dp4404
g62
(dp4405
g70
I5
ssg71
g4399
sg64
(lp4406
S'Milo'
p4407
asbasbasbag57
(g73
g59
NtRp4408
(dp4409
g62
(dp4410
sg71
g2829
sg64
(lp4411
g57
(g78
g59
NtRp4412
(dp4413
g62
(dp4414
g82
g83
ssg71
g4408
sg64
(lp4415
g2036
asbag57
(g78
g59
NtRp4416
(dp4417
g62
(dp4418
g89
g90
ssg71
g4408
sg64
(lp4419
S':'
asbag57
(g78
g59
NtRp4420
(dp4421
g62
(dp4422
sg71
g4408
sg64
(lp4423
g57
(g58
g59
NtRp4424
(dp4425
g62
(dp4426
g70
I5
ssg71
g4420
sg64
(lp4427
g2049
asbasbasbag57
(g73
g59
NtRp4428
(dp4429
g62
(dp4430
sg71
g2829
sg64
(lp4431
g57
(g78
g59
NtRp4432
(dp4433
g62
(dp4434
g82
g83
ssg71
g4428
sg64
(lp4435
S'view'
p4436
asbag57
(g78
g59
NtRp4437
(dp4438
g62
(dp4439
g89
g90
ssg71
g4428
sg64
(lp4440
S':'
asbag57
(g78
g59
NtRp4441
(dp4442
g62
(dp4443
sg71
g4428
sg64
(lp4444
g57
(g58
g59
NtRp4445
(dp4446
g62
(dp4447
g70
I5
ssg71
g4441
sg64
(lp4448
S'admin/index.html'
p4449
asbasbasbasbasbsS'locals'
p4450
(dp4451
S'Service'
p4452
S"<class 'gluon.tools.Service'>"
p4453
sS'OBJECT'
p4454
S"<class 'gluon.html.OBJECT'>"
p4455
sS'SQLDB'
p4456
S"<class 'gluon.dal.DAL'>"
p4457
sg2811
S"<Storage {'_Session__hash': '\\xd9\\xaa\\xb6\\xccX\\x...{'version': '18.0.1025.168', 'name': 'Chrome'}}}>"
p4458
sS'LINK'
p4459
S"<class 'gluon.html.LINK'>"
p4460
sS'BR'
p4461
S"<class 'gluon.html.BR'>"
p4462
sS'local_import'
p4463
S'<function <lambda>>'
p4464
sS'OPTGROUP'
p4465
S"<class 'gluon.html.OPTGROUP'>"
p4466
sS'matlab_wrapper'
p4467
S"<module 'applications.milo.modules.matlab_wrappe...m 'applications/milo/modules/matlab_wrapper.pyc'>"
p4468
sS'__package__'
p4469
S'None'
p4470
sS'PRE'
p4471
S"<class 'gluon.html.PRE'>"
p4472
sS'IS_INT_IN_RANGE'
p4473
S"<class 'gluon.validators.IS_INT_IN_RANGE'>"
p4474
sS'IS_LOWER'
p4475
S"<class 'gluon.validators.IS_LOWER'>"
p4476
sS'IS_STRONG'
p4477
S"<class 'gluon.validators.IS_STRONG'>"
p4478
sS'cache'
p4479
S'<gluon.cache.Cache object>'
p4480
sS'IS_IN_DB'
p4481
S"<class 'gluon.validators.IS_IN_DB'>"
p4482
sS'TAG'
p4483
S'<gluon.html.__TAG__ object>'
p4484
sS'Scheduler'
p4485
S"<class 'scheduler.Scheduler'>"
p4486
sS'SQLField'
p4487
S"<class 'gluon.dal.Field'>"
p4488
sS'mail'
p4489
S'<gluon.tools.Mail object>'
p4490
sS'BODY'
p4491
S"<class 'gluon.html.BODY'>"
p4492
sS'IS_DATE_IN_RANGE'
p4493
S"<class 'gluon.validators.IS_DATE_IN_RANGE'>"
p4494
sS'TH'
p4495
S"<class 'gluon.html.TH'>"
p4496
sS'URL'
p4497
S'<function URL>'
p4498
sS'__file__'
p4499
S"'/home/goshawk/web2py/applications/milo/views/admin/index.html'"
p4500
sS'db'
p4501
S"<DAL {'auth_event': <Table {'origin': <gluon.dal...': <gluon.dal.Field object at 0x7fa73561cd90>}>}>"
p4502
sS'auth'
p4503
S'<gluon.tools.Auth object>'
p4504
sS'P'
S"<class 'gluon.html.P'>"
p4505
sS'TFOOT'
p4506
S"<class 'gluon.html.TFOOT'>"
p4507
sS'XHTML'
p4508
S"<class 'gluon.html.XHTML'>"
p4509
sS'ON'
p4510
g1372
sS'OL'
p4511
S"<class 'gluon.html.OL'>"
p4512
sS'TEXTAREA'
p4513
S"<class 'gluon.html.TEXTAREA'>"
p4514
sS'create_features_titles'
p4515
S'<function create_features_titles>'
p4516
sS'MENU'
p4517
S"<class 'gluon.html.MENU'>"
p4518
sS'IS_IMAGE'
p4519
S"<class 'gluon.validators.IS_IMAGE'>"
p4520
sS'db_scheduler'
p4521
S"<DAL {'_migrate_enabled': True, '_lastsql': 'SET...'_uri_hash': 'a7a0edf0512f050b513f67ccc4d20901'}>"
p4522
sS'LOAD'
p4523
S'<function LOAD>'
p4524
sS'CODE'
p4525
S"<class 'gluon.html.CODE'>"
p4526
sS'HTTP'
p4527
S"<class 'gluon.http.HTTP'>"
p4528
sS'HR'
p4529
S"<class 'gluon.html.HR'>"
p4530
sS'IS_DATETIME'
p4531
S"<class 'gluon.validators.IS_DATETIME'>"
p4532
sS'HEAD'
p4533
S"<class 'gluon.html.HEAD'>"
p4534
sS'LABEL'
p4535
S"<class 'gluon.html.LABEL'>"
p4536
sS'META'
p4537
S"<class 'gluon.html.META'>"
p4538
sS'plugins'
p4539
S'<gluon.tools.PluginManager object>'
p4540
sS'SELECT'
p4541
S"<class 'gluon.html.SELECT'>"
p4542
sS'use_janrain'
p4543
S'<function use_janrain>'
p4544
sS'CENTER'
p4545
S"<class 'gluon.html.CENTER'>"
p4546
sS'prettydate'
p4547
S'<function prettydate>'
p4548
sS'Crud'
p4549
S"<class 'gluon.tools.Crud'>"
p4550
sS'Auth'
p4551
S"<class 'gluon.tools.Auth'>"
p4552
sS'IS_EQUAL_TO'
p4553
S"<class 'gluon.validators.IS_EQUAL_TO'>"
p4554
sS'HTML'
p4555
S"<class 'gluon.html.HTML'>"
p4556
sS'SQLFORM'
p4557
S"<class 'gluon.sqlhtml.SQLFORM'>"
p4558
sS'EM'
p4559
S"<class 'gluon.html.EM'>"
p4560
sS'redirect'
p4561
S'<function redirect>'
p4562
sS'FIELDSET'
p4563
S"<class 'gluon.html.FIELDSET'>"
p4564
sS'__builtins__'
p4565
S"{'ArithmeticError': <type 'exceptions.ArithmeticError'>, 'AssertionError': <type 'exceptions.AssertionError'>, 'AttributeError': <type 'exceptions.AttributeError'>, 'BaseException': <type 'exceptions.BaseException'>, 'BufferError': <type 'exceptions.BufferError'>, 'BytesWarning': <type 'exceptions.BytesWarning'>, 'DeprecationWarning': <type 'exceptions.DeprecationWarning'>, 'EOFError': <type 'exceptions.EOFError'>, 'Ellipsis': Ellipsis, 'EnvironmentError': <type 'exceptions.EnvironmentError'>, ...}"
p4566
sS'create_model'
p4567
S'<function create_model>'
p4568
sS'embed64'
p4569
S'<function embed64>'
p4570
sS'IS_LIST_OF'
p4571
S"<class 'gluon.validators.IS_LIST_OF'>"
p4572
sS'INPUT'
p4573
S"<class 'gluon.html.INPUT'>"
p4574
sS'EMBED'
p4575
S"<class 'gluon.html.EMBED'>"
p4576
sS'_'
S'<function _>'
p4577
sS'create_metadata'
p4578
S'<function create_metadata>'
p4579
sS'H2'
p4580
S"<class 'gluon.html.H2'>"
p4581
sS'H3'
p4582
S"<class 'gluon.html.H3'>"
p4583
sS'BUTTON'
p4584
S"<class 'gluon.html.BUTTON'>"
p4585
sS'H1'
p4586
S"<class 'gluon.html.H1'>"
p4587
sS'H6'
p4588
S"<class 'gluon.html.H6'>"
p4589
sS'H4'
p4590
S"<class 'gluon.html.H4'>"
p4591
sS'H5'
p4592
S"<class 'gluon.html.H5'>"
p4593
sS'UL'
p4594
S"<class 'gluon.html.UL'>"
p4595
sS'IS_UPPER'
p4596
S"<class 'gluon.validators.IS_UPPER'>"
p4597
sS'xmlescape'
p4598
S'<function xmlescape>'
p4599
sS'IS_TIME'
p4600
S"<class 'gluon.validators.IS_TIME'>"
p4601
sS'OPTION'
p4602
S"<class 'gluon.html.OPTION'>"
p4603
sS'TITLE'
p4604
S"<class 'gluon.html.TITLE'>"
p4605
sS'CRYPT'
p4606
S"<class 'gluon.validators.CRYPT'>"
p4607
sS'IS_EMPTY_OR'
p4608
S"<class 'gluon.validators.IS_EMPTY_OR'>"
p4609
sS'MARKMIN'
p4610
S"<class 'gluon.html.MARKMIN'>"
p4611
sS'__name__'
p4612
S"'__restricted__'"
p4613
sS'message'
p4614
S"'hello from admin.py'"
p4615
sS'COL'
p4616
S"<class 'gluon.html.COL'>"
p4617
sS'service'
p4618
S'<gluon.tools.Service object>'
p4619
sS'SCRIPT'
p4620
S"<class 'gluon.html.SCRIPT'>"
p4621
sS'TABLE'
p4622
S"<class 'gluon.html.TABLE'>"
p4623
sS'IS_IPV4'
p4624
S"<class 'gluon.validators.IS_IPV4'>"
p4625
sS'IS_LENGTH'
p4626
S"<class 'gluon.validators.IS_LENGTH'>"
p4627
sS'XML'
p4628
S"<class 'gluon.html.XML'>"
p4629
sS'B'
S"<class 'gluon.html.B'>"
p4630
sS'IMG'
p4631
S"<class 'gluon.html.IMG'>"
p4632
sS'SQLTABLE'
p4633
S"<class 'gluon.sqlhtml.SQLTABLE'>"
p4634
sS'IS_MATCH'
p4635
S"<class 'gluon.validators.IS_MATCH'>"
p4636
sS'IS_ALPHANUMERIC'
p4637
S"<class 'gluon.validators.IS_ALPHANUMERIC'>"
p4638
sS'SPAN'
p4639
S"<class 'gluon.html.SPAN'>"
p4640
sS'algotithms'
p4641
S"['AsySVD', 'CosNgbr_II', 'NNCosNgbr_II', 'NNCosNgbr_II_knn', '_CosNgbr_II_knn', 'directContent_knn', 'drII', 'drIIknn', 'lsa_Cosine', 'lsa_NNCosine', 'movieAvg', 'pearsonIIkoren', 'pureSVD', 'random', 'toprated']"
p4642
sS'IS_SLUG'
p4643
S"<class 'gluon.validators.IS_SLUG'>"
p4644
sS'CLEANUP'
p4645
S"<class 'gluon.validators.CLEANUP'>"
p4646
sS'im'
p4647
S'<imdb.parser.sql.IMDbSqlAccessSystem instance>'
p4648
sS'IS_DATE'
p4649
S"<class 'gluon.validators.IS_DATE'>"
p4650
sS'IS_EMAIL'
p4651
S"<class 'gluon.validators.IS_EMAIL'>"
p4652
sS'IS_NOT_EMPTY'
p4653
S"<class 'gluon.validators.IS_NOT_EMPTY'>"
p4654
sg56
S"<Storage {'body': <cStringIO.StringO object at 0..._vars': <Storage {}>, 'post_vars': <Storage {}>}>"
p4655
sS'BEAUTIFY'
p4656
S"<class 'gluon.html.BEAUTIFY'>"
p4657
sS'TBODY'
p4658
S"<class 'gluon.html.TBODY'>"
p4659
sS'CAT'
p4660
S"<class 'gluon.html.CAT'>"
p4661
sS'Field'
p4662
S"<class 'gluon.dal.Field'>"
p4663
sS'imdb'
p4664
S"<module 'imdb' from '/usr/local/lib/python2.7/dist-packages/imdb/__init__.pyc'>"
p4665
sS'DIV'
p4666
S"<class 'gluon.html.DIV'>"
p4667
sS'LEGEND'
p4668
S"<class 'gluon.html.LEGEND'>"
p4669
sS'COLGROUP'
p4670
S"<class 'gluon.html.COLGROUP'>"
p4671
sS'DAL'
p4672
S"<class 'gluon.dal.DAL'>"
p4673
sS'TT'
p4674
S"<class 'gluon.html.TT'>"
p4675
sS'TR'
p4676
S"<class 'gluon.html.TR'>"
p4677
sS'LI'
p4678
S"<class 'gluon.html.LI'>"
p4679
sS'IFRAME'
p4680
S"<class 'gluon.html.IFRAME'>"
p4681
sS'TD'
p4682
S"<class 'gluon.html.TD'>"
p4683
sS'PluginManager'
p4684
S"<class 'gluon.tools.PluginManager'>"
p4685
sS'IS_URL'
p4686
S"<class 'gluon.validators.IS_URL'>"
p4687
sS'A'
S"<class 'gluon.html.A'>"
p4688
sS'STYLE'
p4689
S"<class 'gluon.html.STYLE'>"
p4690
sS'IS_DATETIME_IN_RANGE'
p4691
S"<class 'gluon.validators.IS_DATETIME_IN_RANGE'>"
p4692
sS'FORM'
p4693
S"<class 'gluon.html.FORM'>"
p4694
sS'I'
S"<class 'gluon.html.I'>"
p4695
sS'crud'
p4696
S'<gluon.tools.Crud object>'
p4697
sS'IS_NOT_IN_DB'
p4698
S"<class 'gluon.validators.IS_NOT_IN_DB'>"
p4699
sS'imdb_connection_str'
p4700
S"'postgres://imdb:imdbsecret@localhost/imdb'"
p4701
sg2824
S"<Storage {'body': <cStringIO.StringO object at 0... at 0x7fa7203c21b8>, 'view': 'admin/index.html'}>"
p4702
sS'THEAD'
p4703
S"<class 'gluon.html.THEAD'>"
p4704
sS'IS_NULL_OR'
p4705
S"<class 'gluon.validators.IS_EMPTY_OR'>"
p4706
sS'IS_FLOAT_IN_RANGE'
p4707
S"<class 'gluon.validators.IS_FLOAT_IN_RANGE'>"
p4708
sS'IS_EXPR'
p4709
S"<class 'gluon.validators.IS_EXPR'>"
p4710
sS'T'
S'<gluon.languages.translator object>'
p4711
sS'IS_IN_SET'
p4712
S"<class 'gluon.validators.IS_IN_SET'>"
p4713
sS'IS_UPLOAD_FILENAME'
p4714
S"<class 'gluon.validators.IS_UPLOAD_FILENAME'>"
p4715
sS'milo_scheduler'
p4716
S'<Scheduler(Thread-155, initial daemon)>'
p4717
sS'IS_DECIMAL_IN_RANGE'
p4718
S"<class 'gluon.validators.IS_DECIMAL_IN_RANGE'>"
p4719
sssS'traceback'
p4720
S'Traceback (most recent call last):\n  File "/home/goshawk/web2py/gluon/restricted.py", line 205, in restricted\n    exec ccode in environment\n  File "/home/goshawk/web2py/applications/milo/views/admin/index.html", line 10, in <module>\nNameError: name \'algorithms\' is not defined\n'
p4721
s.