(dp1
S'output'
p2
S"<type 'exceptions.SyntaxError'> primarykey must be a list of fields from table 'ratings "
p3
sS'layer'
p4
S'/home/goshawk/web2py/applications/milo/models/db.py'
p5
sS'code'
p6
S"# -*- coding: utf-8 -*-\n\n#########################################################################\n## This scaffolding model makes your app work on Google App Engine too\n## File is released under public domain and you can use without limitations\n#########################################################################\n\n## if SSL/HTTPS is properly configured and you want all HTTP requests to\n## be redirected to HTTPS, uncomment the line below:\n# request.requires_https()\n\nif not request.env.web2py_runtime_gae:\n    ## if NOT running on Google App Engine use SQLite or other DB\n    db = DAL('postgres://milo:milosecret@localhost/milo-reloaded')\nelse:\n    ## connect to Google BigTable (optional 'google:datastore://namespace')\n    db = DAL('google:datastore')\n    ## store sessions and tickets there\n    session.connect(request, response, db = db)\n    ## or store session in Memcache, Redis, etc.\n    ## from gluon.contrib.memdb import MEMDB\n    ## from google.appengine.api.memcache import Client\n    ## session.connect(request, response, db = MEMDB(Client()))\n\n## by default give a view/generic.extension to all actions from localhost\n## none otherwise. a pattern can be 'controller/function.extension'\nresponse.generic_patterns = ['*'] if request.is_local else []\n## (optional) optimize handling of static files\n# response.optimize_css = 'concat,minify,inline'\n# response.optimize_js = 'concat,minify,inline'\n\n#########################################################################\n## Here is sample code if you need for\n## - email capabilities\n## - authentication (registration, login, logout, ... )\n## - authorization (role based authorization)\n## - services (xml, csv, json, xmlrpc, jsonrpc, amf, rss)\n## - old style crud actions\n## (more options discussed in gluon/tools.py)\n#########################################################################\n\nfrom gluon.tools import Auth, Crud, Service, PluginManager, prettydate\nauth = Auth(db, hmac_key=Auth.get_or_create_key())\ncrud, service, plugins = Crud(db), Service(), PluginManager()\n\n## create all tables needed by auth if not custom tables\nauth.define_tables()\n\n## configure email\nmail=auth.settings.mailer\nmail.settings.server = 'logging' or 'smtp.gmail.com:587'\nmail.settings.sender = 'you@gmail.com'\nmail.settings.login = 'username:password'\n\n## configure auth policy\nauth.settings.registration_requires_verification = False\nauth.settings.registration_requires_approval = False\nauth.settings.reset_password_requires_verification = True\n\n## if you need to use OpenID, Facebook, MySpace, Twitter, Linkedin, etc.\n## register with janrain.com, write your domain:api_key in private/janrain.key\nfrom gluon.contrib.login_methods.rpx_account import use_janrain\nuse_janrain(auth,filename='private/janrain.key')\n\n#########################################################################\n## Define your tables below (or better in another model file) for example\n##\n## >>> db.define_table('mytable',Field('myfield','string'))\n##\n## Fields can be 'string','text','password','integer','double','boolean'\n##       'date','time','datetime','blob','upload', 'reference TABLENAME'\n## There is an implicit 'id integer autoincrement' field\n## Consult manual for more options, validators, etc.\n##\n## More API examples for controllers:\n##\n## >>> db.mytable.insert(myfield='value')\n## >>> rows=db(db.mytable.myfield=='value').select(db.mytable.ALL)\n## >>> for row in rows: print row.id, row.myfield\n#########################################################################\n\nimport imdb\n\nimdb_connection_str = 'postgres://imdb:imdbsecret@localhost/imdb'\n\nim = imdb.IMDb('sql', uri=imdb_connection_str)\n\n\ndb.define_table('users',\n        Field('name'),\n        Field('email'),\n        Field('imdb_id', 'integer')\n        )\n\ndb.define_table('movies',\n        Field('imdb_id', 'integer')\n        )\n\ndb.define_table('ratings',\n        Field('iuser', db.users, requires = IS_IN_DB(db,'users.id',db.users._format)),\n        Field('imovie', db.movies, requires = IS_IN_DB(db,'movies.id',db.movies._format)),\n        Field('rating', 'double'),\n        primarykey=[db.users, db.movies],\n        )\n\n\ndb.define_table('features',\n        Field('name'),\n        Field('type')\n        )\n\ndb.define_table('movies_features',\n        Field('movie', db.movies, requires = IS_IN_DB(db,'movies.id',db.movies._format)),\n        Field('feature', db.features, requires = IS_IN_DB(db,'features.id',db.features._format)),\n        Field('times', 'integer')\n        )\n"
p7
sS'snapshot'
p8
(dp9
S'exception'
p10
(dp11
S'__getslice__'
p12
S"<method-wrapper '__getslice__' of exceptions.SyntaxError object>"
p13
sS'text'
p14
S'None'
p15
sS'__str__'
p16
S"<method-wrapper '__str__' of exceptions.SyntaxError object>"
p17
sS'__reduce__'
p18
S'<built-in method __reduce__ of exceptions.SyntaxError object>'
p19
sS'__dict__'
p20
S'{}'
p21
sS'__sizeof__'
p22
S'<built-in method __sizeof__ of exceptions.SyntaxError object>'
p23
sS'__init__'
p24
S"<method-wrapper '__init__' of exceptions.SyntaxError object>"
p25
sS'__setattr__'
p26
S"<method-wrapper '__setattr__' of exceptions.SyntaxError object>"
p27
sS'__reduce_ex__'
p28
S'<built-in method __reduce_ex__ of exceptions.SyntaxError object>'
p29
sS'__new__'
p30
S'<built-in method __new__ of type object>'
p31
sS'__format__'
p32
S'<built-in method __format__ of exceptions.SyntaxError object>'
p33
sS'__class__'
p34
S"<type 'exceptions.SyntaxError'>"
p35
sS'filename'
p36
S'None'
p37
sS'lineno'
p38
S'None'
p39
sS'msg'
p40
S'"primarykey must be a list of fields from table \'ratings "'
p41
sS'__doc__'
p42
S"'Invalid syntax.'"
p43
sS'__getitem__'
p44
S"<method-wrapper '__getitem__' of exceptions.SyntaxError object>"
p45
sS'__setstate__'
p46
S'<built-in method __setstate__ of exceptions.SyntaxError object>'
p47
sS'__getattribute__'
p48
S"<method-wrapper '__getattribute__' of exceptions.SyntaxError object>"
p49
sS'print_file_and_line'
p50
S'None'
p51
sS'args'
p52
S'("primarykey must be a list of fields from table \'ratings ",)'
p53
sS'__subclasshook__'
p54
S'<built-in method __subclasshook__ of type object>'
p55
sS'offset'
p56
S'None'
p57
sS'__unicode__'
p58
S'<built-in method __unicode__ of exceptions.SyntaxError object>'
p59
sS'__delattr__'
p60
S"<method-wrapper '__delattr__' of exceptions.SyntaxError object>"
p61
sS'__repr__'
p62
S"<method-wrapper '__repr__' of exceptions.SyntaxError object>"
p63
sS'__hash__'
p64
S"<method-wrapper '__hash__' of exceptions.SyntaxError object>"
p65
ssS'evalue'
p66
S"primarykey must be a list of fields from table 'ratings "
p67
sS'request'
p68
ccopy_reg
_reconstructor
p69
(cgluon.html
BEAUTIFY
p70
c__builtin__
object
p71
NtRp72
(dp73
S'attributes'
p74
(dp75
sS'components'
p76
(lp77
g69
(cgluon.html
TABLE
p78
g71
NtRp79
(dp80
g74
(dp81
S'level'
p82
I5
ssS'parent'
p83
Nsg76
(lp84
g69
(cgluon.html
TR
p85
g71
NtRp86
(dp87
g74
(dp88
sg83
g79
sg76
(lp89
g69
(cgluon.html
TD
p90
g71
NtRp91
(dp92
g74
(dp93
S'_style'
p94
S'font-weight:bold;vertical-align:top'
p95
ssg83
g86
sg76
(lp96
S'ajax'
p97
asbag69
(g90
g71
NtRp98
(dp99
g74
(dp100
S'_valign'
p101
S'top'
p102
ssg83
g86
sg76
(lp103
S':'
asbag69
(g90
g71
NtRp104
(dp105
g74
(dp106
sg83
g86
sg76
(lp107
g69
(g70
g71
NtRp108
(dp109
g74
(dp110
g82
I5
ssg83
g104
sg76
(lp111
S'False'
p112
asbasbasbag69
(g85
g71
NtRp113
(dp114
g74
(dp115
sg83
g79
sg76
(lp116
g69
(g90
g71
NtRp117
(dp118
g74
(dp119
g94
g95
ssg83
g113
sg76
(lp120
S'application'
p121
asbag69
(g90
g71
NtRp122
(dp123
g74
(dp124
g101
g102
ssg83
g113
sg76
(lp125
S':'
asbag69
(g90
g71
NtRp126
(dp127
g74
(dp128
sg83
g113
sg76
(lp129
g69
(g70
g71
NtRp130
(dp131
g74
(dp132
g82
I5
ssg83
g126
sg76
(lp133
S'milo'
p134
asbasbasbag69
(g85
g71
NtRp135
(dp136
g74
(dp137
sg83
g79
sg76
(lp138
g69
(g90
g71
NtRp139
(dp140
g74
(dp141
g94
g95
ssg83
g135
sg76
(lp142
g52
asbag69
(g90
g71
NtRp143
(dp144
g74
(dp145
g101
g102
ssg83
g135
sg76
(lp146
S':'
asbag69
(g90
g71
NtRp147
(dp148
g74
(dp149
sg83
g135
sg76
(lp150
g69
(g70
g71
NtRp151
(dp152
g74
(dp153
g82
I5
ssg83
g147
sg76
(lp154
g69
(g78
g71
NtRp155
(dp156
g74
(dp157
g82
I4
ssg83
Nsg76
(lp158
g69
(g85
g71
NtRp159
(dp160
g74
(dp161
sg83
g155
sg76
(lp162
g69
(g90
g71
NtRp163
(dp164
g74
(dp165
sg83
g159
sg76
(lp166
g69
(g70
g71
NtRp167
(dp168
g74
(dp169
g82
I4
ssg83
g163
sg76
(lp170
S'db'
p171
asbasbasbasbasbasbasbag69
(g85
g71
NtRp172
(dp173
g74
(dp174
sg83
g79
sg76
(lp175
g69
(g90
g71
NtRp176
(dp177
g74
(dp178
g94
g95
ssg83
g172
sg76
(lp179
S'body'
p180
asbag69
(g90
g71
NtRp181
(dp182
g74
(dp183
g101
g102
ssg83
g172
sg76
(lp184
S':'
asbag69
(g90
g71
NtRp185
(dp186
g74
(dp187
sg83
g172
sg76
(lp188
g69
(g70
g71
NtRp189
(dp190
g74
(dp191
g82
I5
ssg83
g185
sg76
(lp192
S'<cStringIO.StringO object at 0x7f139c411730>'
p193
asbasbasbag69
(g85
g71
NtRp194
(dp195
g74
(dp196
sg83
g79
sg76
(lp197
g69
(g90
g71
NtRp198
(dp199
g74
(dp200
g94
g95
ssg83
g194
sg76
(lp201
S'client'
p202
asbag69
(g90
g71
NtRp203
(dp204
g74
(dp205
g101
g102
ssg83
g194
sg76
(lp206
S':'
asbag69
(g90
g71
NtRp207
(dp208
g74
(dp209
sg83
g194
sg76
(lp210
g69
(g70
g71
NtRp211
(dp212
g74
(dp213
g82
I5
ssg83
g207
sg76
(lp214
S'127.0.0.1'
p215
asbasbasbag69
(g85
g71
NtRp216
(dp217
g74
(dp218
sg83
g79
sg76
(lp219
g69
(g90
g71
NtRp220
(dp221
g74
(dp222
g94
g95
ssg83
g216
sg76
(lp223
S'controller'
p224
asbag69
(g90
g71
NtRp225
(dp226
g74
(dp227
g101
g102
ssg83
g216
sg76
(lp228
S':'
asbag69
(g90
g71
NtRp229
(dp230
g74
(dp231
sg83
g216
sg76
(lp232
g69
(g70
g71
NtRp233
(dp234
g74
(dp235
g82
I5
ssg83
g229
sg76
(lp236
S'appadmin'
p237
asbasbasbag69
(g85
g71
NtRp238
(dp239
g74
(dp240
sg83
g79
sg76
(lp241
g69
(g90
g71
NtRp242
(dp243
g74
(dp244
g94
g95
ssg83
g238
sg76
(lp245
S'cookies'
p246
asbag69
(g90
g71
NtRp247
(dp248
g74
(dp249
g101
g102
ssg83
g238
sg76
(lp250
S':'
asbag69
(g90
g71
NtRp251
(dp252
g74
(dp253
sg83
g238
sg76
(lp254
g69
(g70
g71
NtRp255
(dp256
g74
(dp257
g82
I5
ssg83
g251
sg76
(lp258
g69
(g78
g71
NtRp259
(dp260
g74
(dp261
g82
I4
ssg83
Nsg76
(lp262
g69
(g85
g71
NtRp263
(dp264
g74
(dp265
sg83
g259
sg76
(lp266
g69
(g90
g71
NtRp267
(dp268
g74
(dp269
g94
g95
ssg83
g263
sg76
(lp270
S'session_id_admin'
p271
asbag69
(g90
g71
NtRp272
(dp273
g74
(dp274
g101
g102
ssg83
g263
sg76
(lp275
S':'
asbag69
(g90
g71
NtRp276
(dp277
g74
(dp278
sg83
g263
sg76
(lp279
g69
(g70
g71
NtRp280
(dp281
g74
(dp282
g82
I4
ssg83
g276
sg76
(lp283
g69
(g78
g71
NtRp284
(dp285
g74
(dp286
g82
I3
ssg83
Nsg76
(lp287
g69
(g85
g71
NtRp288
(dp289
g74
(dp290
sg83
g284
sg76
(lp291
g69
(g90
g71
NtRp292
(dp293
g74
(dp294
g94
g95
ssg83
g288
sg76
(lp295
S'comment'
p296
asbag69
(g90
g71
NtRp297
(dp298
g74
(dp299
g101
g102
ssg83
g288
sg76
(lp300
S':'
asbag69
(g90
g71
NtRp301
(dp302
g74
(dp303
sg83
g288
sg76
(lp304
g69
(g70
g71
NtRp305
(dp306
g74
(dp307
g82
I3
ssg83
g301
sg76
(lp308
S''
asbasbasbag69
(g85
g71
NtRp309
(dp310
g74
(dp311
sg83
g284
sg76
(lp312
g69
(g90
g71
NtRp313
(dp314
g74
(dp315
g94
g95
ssg83
g309
sg76
(lp316
S'domain'
p317
asbag69
(g90
g71
NtRp318
(dp319
g74
(dp320
g101
g102
ssg83
g309
sg76
(lp321
S':'
asbag69
(g90
g71
NtRp322
(dp323
g74
(dp324
sg83
g309
sg76
(lp325
g69
(g70
g71
NtRp326
(dp327
g74
(dp328
g82
I3
ssg83
g322
sg76
(lp329
S''
asbasbasbag69
(g85
g71
NtRp330
(dp331
g74
(dp332
sg83
g284
sg76
(lp333
g69
(g90
g71
NtRp334
(dp335
g74
(dp336
g94
g95
ssg83
g330
sg76
(lp337
S'expires'
p338
asbag69
(g90
g71
NtRp339
(dp340
g74
(dp341
g101
g102
ssg83
g330
sg76
(lp342
S':'
asbag69
(g90
g71
NtRp343
(dp344
g74
(dp345
sg83
g330
sg76
(lp346
g69
(g70
g71
NtRp347
(dp348
g74
(dp349
g82
I3
ssg83
g343
sg76
(lp350
S''
asbasbasbag69
(g85
g71
NtRp351
(dp352
g74
(dp353
sg83
g284
sg76
(lp354
g69
(g90
g71
NtRp355
(dp356
g74
(dp357
g94
g95
ssg83
g351
sg76
(lp358
S'httponly'
p359
asbag69
(g90
g71
NtRp360
(dp361
g74
(dp362
g101
g102
ssg83
g351
sg76
(lp363
S':'
asbag69
(g90
g71
NtRp364
(dp365
g74
(dp366
sg83
g351
sg76
(lp367
g69
(g70
g71
NtRp368
(dp369
g74
(dp370
g82
I3
ssg83
g364
sg76
(lp371
S''
asbasbasbag69
(g85
g71
NtRp372
(dp373
g74
(dp374
sg83
g284
sg76
(lp375
g69
(g90
g71
NtRp376
(dp377
g74
(dp378
g94
g95
ssg83
g372
sg76
(lp379
S'max-age'
p380
asbag69
(g90
g71
NtRp381
(dp382
g74
(dp383
g101
g102
ssg83
g372
sg76
(lp384
S':'
asbag69
(g90
g71
NtRp385
(dp386
g74
(dp387
sg83
g372
sg76
(lp388
g69
(g70
g71
NtRp389
(dp390
g74
(dp391
g82
I3
ssg83
g385
sg76
(lp392
S''
asbasbasbag69
(g85
g71
NtRp393
(dp394
g74
(dp395
sg83
g284
sg76
(lp396
g69
(g90
g71
NtRp397
(dp398
g74
(dp399
g94
g95
ssg83
g393
sg76
(lp400
S'path'
p401
asbag69
(g90
g71
NtRp402
(dp403
g74
(dp404
g101
g102
ssg83
g393
sg76
(lp405
S':'
asbag69
(g90
g71
NtRp406
(dp407
g74
(dp408
sg83
g393
sg76
(lp409
g69
(g70
g71
NtRp410
(dp411
g74
(dp412
g82
I3
ssg83
g406
sg76
(lp413
S''
asbasbasbag69
(g85
g71
NtRp414
(dp415
g74
(dp416
sg83
g284
sg76
(lp417
g69
(g90
g71
NtRp418
(dp419
g74
(dp420
g94
g95
ssg83
g414
sg76
(lp421
S'secure'
p422
asbag69
(g90
g71
NtRp423
(dp424
g74
(dp425
g101
g102
ssg83
g414
sg76
(lp426
S':'
asbag69
(g90
g71
NtRp427
(dp428
g74
(dp429
sg83
g414
sg76
(lp430
g69
(g70
g71
NtRp431
(dp432
g74
(dp433
g82
I3
ssg83
g427
sg76
(lp434
S''
asbasbasbag69
(g85
g71
NtRp435
(dp436
g74
(dp437
sg83
g284
sg76
(lp438
g69
(g90
g71
NtRp439
(dp440
g74
(dp441
g94
g95
ssg83
g435
sg76
(lp442
S'version'
p443
asbag69
(g90
g71
NtRp444
(dp445
g74
(dp446
g101
g102
ssg83
g435
sg76
(lp447
S':'
asbag69
(g90
g71
NtRp448
(dp449
g74
(dp450
sg83
g435
sg76
(lp451
g69
(g70
g71
NtRp452
(dp453
g74
(dp454
g82
I3
ssg83
g448
sg76
(lp455
S''
asbasbasbasbasbasbasbag69
(g85
g71
NtRp456
(dp457
g74
(dp458
sg83
g259
sg76
(lp459
g69
(g90
g71
NtRp460
(dp461
g74
(dp462
g94
g95
ssg83
g456
sg76
(lp463
S'session_id_milo'
p464
asbag69
(g90
g71
NtRp465
(dp466
g74
(dp467
g101
g102
ssg83
g456
sg76
(lp468
S':'
asbag69
(g90
g71
NtRp469
(dp470
g74
(dp471
sg83
g456
sg76
(lp472
g69
(g70
g71
NtRp473
(dp474
g74
(dp475
g82
I4
ssg83
g469
sg76
(lp476
g69
(g78
g71
NtRp477
(dp478
g74
(dp479
g82
I3
ssg83
Nsg76
(lp480
g69
(g85
g71
NtRp481
(dp482
g74
(dp483
sg83
g477
sg76
(lp484
g69
(g90
g71
NtRp485
(dp486
g74
(dp487
g94
g95
ssg83
g481
sg76
(lp488
g296
asbag69
(g90
g71
NtRp489
(dp490
g74
(dp491
g101
g102
ssg83
g481
sg76
(lp492
S':'
asbag69
(g90
g71
NtRp493
(dp494
g74
(dp495
sg83
g481
sg76
(lp496
g69
(g70
g71
NtRp497
(dp498
g74
(dp499
g82
I3
ssg83
g493
sg76
(lp500
S''
asbasbasbag69
(g85
g71
NtRp501
(dp502
g74
(dp503
sg83
g477
sg76
(lp504
g69
(g90
g71
NtRp505
(dp506
g74
(dp507
g94
g95
ssg83
g501
sg76
(lp508
g317
asbag69
(g90
g71
NtRp509
(dp510
g74
(dp511
g101
g102
ssg83
g501
sg76
(lp512
S':'
asbag69
(g90
g71
NtRp513
(dp514
g74
(dp515
sg83
g501
sg76
(lp516
g69
(g70
g71
NtRp517
(dp518
g74
(dp519
g82
I3
ssg83
g513
sg76
(lp520
S''
asbasbasbag69
(g85
g71
NtRp521
(dp522
g74
(dp523
sg83
g477
sg76
(lp524
g69
(g90
g71
NtRp525
(dp526
g74
(dp527
g94
g95
ssg83
g521
sg76
(lp528
g338
asbag69
(g90
g71
NtRp529
(dp530
g74
(dp531
g101
g102
ssg83
g521
sg76
(lp532
S':'
asbag69
(g90
g71
NtRp533
(dp534
g74
(dp535
sg83
g521
sg76
(lp536
g69
(g70
g71
NtRp537
(dp538
g74
(dp539
g82
I3
ssg83
g533
sg76
(lp540
S''
asbasbasbag69
(g85
g71
NtRp541
(dp542
g74
(dp543
sg83
g477
sg76
(lp544
g69
(g90
g71
NtRp545
(dp546
g74
(dp547
g94
g95
ssg83
g541
sg76
(lp548
g359
asbag69
(g90
g71
NtRp549
(dp550
g74
(dp551
g101
g102
ssg83
g541
sg76
(lp552
S':'
asbag69
(g90
g71
NtRp553
(dp554
g74
(dp555
sg83
g541
sg76
(lp556
g69
(g70
g71
NtRp557
(dp558
g74
(dp559
g82
I3
ssg83
g553
sg76
(lp560
S''
asbasbasbag69
(g85
g71
NtRp561
(dp562
g74
(dp563
sg83
g477
sg76
(lp564
g69
(g90
g71
NtRp565
(dp566
g74
(dp567
g94
g95
ssg83
g561
sg76
(lp568
g380
asbag69
(g90
g71
NtRp569
(dp570
g74
(dp571
g101
g102
ssg83
g561
sg76
(lp572
S':'
asbag69
(g90
g71
NtRp573
(dp574
g74
(dp575
sg83
g561
sg76
(lp576
g69
(g70
g71
NtRp577
(dp578
g74
(dp579
g82
I3
ssg83
g573
sg76
(lp580
S''
asbasbasbag69
(g85
g71
NtRp581
(dp582
g74
(dp583
sg83
g477
sg76
(lp584
g69
(g90
g71
NtRp585
(dp586
g74
(dp587
g94
g95
ssg83
g581
sg76
(lp588
g401
asbag69
(g90
g71
NtRp589
(dp590
g74
(dp591
g101
g102
ssg83
g581
sg76
(lp592
S':'
asbag69
(g90
g71
NtRp593
(dp594
g74
(dp595
sg83
g581
sg76
(lp596
g69
(g70
g71
NtRp597
(dp598
g74
(dp599
g82
I3
ssg83
g593
sg76
(lp600
S''
asbasbasbag69
(g85
g71
NtRp601
(dp602
g74
(dp603
sg83
g477
sg76
(lp604
g69
(g90
g71
NtRp605
(dp606
g74
(dp607
g94
g95
ssg83
g601
sg76
(lp608
g422
asbag69
(g90
g71
NtRp609
(dp610
g74
(dp611
g101
g102
ssg83
g601
sg76
(lp612
S':'
asbag69
(g90
g71
NtRp613
(dp614
g74
(dp615
sg83
g601
sg76
(lp616
g69
(g70
g71
NtRp617
(dp618
g74
(dp619
g82
I3
ssg83
g613
sg76
(lp620
S''
asbasbasbag69
(g85
g71
NtRp621
(dp622
g74
(dp623
sg83
g477
sg76
(lp624
g69
(g90
g71
NtRp625
(dp626
g74
(dp627
g94
g95
ssg83
g621
sg76
(lp628
g443
asbag69
(g90
g71
NtRp629
(dp630
g74
(dp631
g101
g102
ssg83
g621
sg76
(lp632
S':'
asbag69
(g90
g71
NtRp633
(dp634
g74
(dp635
sg83
g621
sg76
(lp636
g69
(g70
g71
NtRp637
(dp638
g74
(dp639
g82
I3
ssg83
g633
sg76
(lp640
S''
asbasbasbasbasbasbasbasbasbasbasbag69
(g85
g71
NtRp641
(dp642
g74
(dp643
sg83
g79
sg76
(lp644
g69
(g90
g71
NtRp645
(dp646
g74
(dp647
g94
g95
ssg83
g641
sg76
(lp648
S'env'
p649
asbag69
(g90
g71
NtRp650
(dp651
g74
(dp652
g101
g102
ssg83
g641
sg76
(lp653
S':'
asbag69
(g90
g71
NtRp654
(dp655
g74
(dp656
sg83
g641
sg76
(lp657
g69
(g70
g71
NtRp658
(dp659
g74
(dp660
g82
I5
ssg83
g654
sg76
(lp661
g69
(g78
g71
NtRp662
(dp663
g74
(dp664
g82
I4
ssg83
Nsg76
(lp665
g69
(g85
g71
NtRp666
(dp667
g74
(dp668
sg83
g662
sg76
(lp669
g69
(g90
g71
NtRp670
(dp671
g74
(dp672
g94
g95
ssg83
g666
sg76
(lp673
S'app_folders'
p674
asbag69
(g90
g71
NtRp675
(dp676
g74
(dp677
g101
g102
ssg83
g666
sg76
(lp678
S':'
asbag69
(g90
g71
NtRp679
(dp680
g74
(dp681
sg83
g666
sg76
(lp682
g69
(g70
g71
NtRp683
(dp684
g74
(dp685
g82
I4
ssg83
g679
sg76
(lp686
S"set(['/home/goshawk/web2py/applications/milo/', '/home/goshawk/web2py/applications/admin/'])"
p687
asbasbasbag69
(g85
g71
NtRp688
(dp689
g74
(dp690
sg83
g662
sg76
(lp691
g69
(g90
g71
NtRp692
(dp693
g74
(dp694
g94
g95
ssg83
g688
sg76
(lp695
S'applications_parent'
p696
asbag69
(g90
g71
NtRp697
(dp698
g74
(dp699
g101
g102
ssg83
g688
sg76
(lp700
S':'
asbag69
(g90
g71
NtRp701
(dp702
g74
(dp703
sg83
g688
sg76
(lp704
g69
(g70
g71
NtRp705
(dp706
g74
(dp707
g82
I4
ssg83
g701
sg76
(lp708
S'/home/goshawk/web2py'
p709
asbasbasbag69
(g85
g71
NtRp710
(dp711
g74
(dp712
sg83
g662
sg76
(lp713
g69
(g90
g71
NtRp714
(dp715
g74
(dp716
g94
g95
ssg83
g710
sg76
(lp717
S'cmd_args'
p718
asbag69
(g90
g71
NtRp719
(dp720
g74
(dp721
g101
g102
ssg83
g710
sg76
(lp722
S':'
asbag69
(g90
g71
NtRp723
(dp724
g74
(dp725
sg83
g710
sg76
(lp726
g69
(g70
g71
NtRp727
(dp728
g74
(dp729
g82
I4
ssg83
g723
sg76
(lp730
g69
(g78
g71
NtRp731
(dp732
g74
(dp733
g82
I3
ssg83
Nsg76
(lp734
sbasbasbasbag69
(g85
g71
NtRp735
(dp736
g74
(dp737
sg83
g662
sg76
(lp738
g69
(g90
g71
NtRp739
(dp740
g74
(dp741
g94
g95
ssg83
g735
sg76
(lp742
S'cmd_options'
p743
asbag69
(g90
g71
NtRp744
(dp745
g74
(dp746
g101
g102
ssg83
g735
sg76
(lp747
S':'
asbag69
(g90
g71
NtRp748
(dp749
g74
(dp750
sg83
g735
sg76
(lp751
g69
(g70
g71
NtRp752
(dp753
g74
(dp754
g82
I4
ssg83
g748
sg76
(lp755
S"<Values at 0x14d30e0: {'verbose': False, 'ip': '127.0.0.1', 'shutdown_timeout': 5, 'taskbar': False, 'nocron': False, 'pid_filename': 'httpserver.pid', 'maxthreads': None, 'softcron': False, 'server_name': 'whisperer', 'bpython': False, 'nogui': False, 'port': 8000, 'extcron': False, 'debuglevel': 30, 'test': None, 'folder': '/home/goshawk/web2py', 'config': '', 'import_models': False, 'winservice': '', 'shell': None, 'run': '', 'log_filename': 'httpserver.log', 'args': [''], 'socket_timeout': 5, 'ssl_ca_certificate': None, 'scheduler': None, 'profiler_filename': None, 'ssl_private_key': '', 'password': 'admin', 'request_queue_size': 5, 'ssl_certificate': '', 'cronjob': False, 'numthreads': None, 'quiet': False, 'interfaces': None, 'minthreads': None, 'timeout': 10, 'plain': False, 'nobanner': False}>"
p756
asbasbasbag69
(g85
g71
NtRp757
(dp758
g74
(dp759
sg83
g662
sg76
(lp760
g69
(g90
g71
NtRp761
(dp762
g74
(dp763
g94
g95
ssg83
g757
sg76
(lp764
S'db_sessions'
p765
asbag69
(g90
g71
NtRp766
(dp767
g74
(dp768
g101
g102
ssg83
g757
sg76
(lp769
S':'
asbag69
(g90
g71
NtRp770
(dp771
g74
(dp772
sg83
g757
sg76
(lp773
g69
(g70
g71
NtRp774
(dp775
g74
(dp776
g82
I4
ssg83
g770
sg76
(lp777
S'set([])'
p778
asbasbasbag69
(g85
g71
NtRp779
(dp780
g74
(dp781
sg83
g662
sg76
(lp782
g69
(g90
g71
NtRp783
(dp784
g74
(dp785
g94
g95
ssg83
g779
sg76
(lp786
S'debugging'
p787
asbag69
(g90
g71
NtRp788
(dp789
g74
(dp790
g101
g102
ssg83
g779
sg76
(lp791
S':'
asbag69
(g90
g71
NtRp792
(dp793
g74
(dp794
sg83
g779
sg76
(lp795
g69
(g70
g71
NtRp796
(dp797
g74
(dp798
g82
I4
ssg83
g792
sg76
(lp799
g112
asbasbasbag69
(g85
g71
NtRp800
(dp801
g74
(dp802
sg83
g662
sg76
(lp803
g69
(g90
g71
NtRp804
(dp805
g74
(dp806
g94
g95
ssg83
g800
sg76
(lp807
S'gluon_parent'
p808
asbag69
(g90
g71
NtRp809
(dp810
g74
(dp811
g101
g102
ssg83
g800
sg76
(lp812
S':'
asbag69
(g90
g71
NtRp813
(dp814
g74
(dp815
sg83
g800
sg76
(lp816
g69
(g70
g71
NtRp817
(dp818
g74
(dp819
g82
I4
ssg83
g813
sg76
(lp820
S'/home/goshawk/web2py'
p821
asbasbasbag69
(g85
g71
NtRp822
(dp823
g74
(dp824
sg83
g662
sg76
(lp825
g69
(g90
g71
NtRp826
(dp827
g74
(dp828
g94
g95
ssg83
g822
sg76
(lp829
S'http_accept'
p830
asbag69
(g90
g71
NtRp831
(dp832
g74
(dp833
g101
g102
ssg83
g822
sg76
(lp834
S':'
asbag69
(g90
g71
NtRp835
(dp836
g74
(dp837
sg83
g822
sg76
(lp838
g69
(g70
g71
NtRp839
(dp840
g74
(dp841
g82
I4
ssg83
g835
sg76
(lp842
S'text/html,application/xhtml+xml,application/xml;q=0.9,*/*;q=0.8'
p843
asbasbasbag69
(g85
g71
NtRp844
(dp845
g74
(dp846
sg83
g662
sg76
(lp847
g69
(g90
g71
NtRp848
(dp849
g74
(dp850
g94
g95
ssg83
g844
sg76
(lp851
S'http_accept_charset'
p852
asbag69
(g90
g71
NtRp853
(dp854
g74
(dp855
g101
g102
ssg83
g844
sg76
(lp856
S':'
asbag69
(g90
g71
NtRp857
(dp858
g74
(dp859
sg83
g844
sg76
(lp860
g69
(g70
g71
NtRp861
(dp862
g74
(dp863
g82
I4
ssg83
g857
sg76
(lp864
S'ISO-8859-1,utf-8;q=0.7,*;q=0.3'
p865
asbasbasbag69
(g85
g71
NtRp866
(dp867
g74
(dp868
sg83
g662
sg76
(lp869
g69
(g90
g71
NtRp870
(dp871
g74
(dp872
g94
g95
ssg83
g866
sg76
(lp873
S'http_accept_encoding'
p874
asbag69
(g90
g71
NtRp875
(dp876
g74
(dp877
g101
g102
ssg83
g866
sg76
(lp878
S':'
asbag69
(g90
g71
NtRp879
(dp880
g74
(dp881
sg83
g866
sg76
(lp882
g69
(g70
g71
NtRp883
(dp884
g74
(dp885
g82
I4
ssg83
g879
sg76
(lp886
S'gzip,deflate,sdch'
p887
asbasbasbag69
(g85
g71
NtRp888
(dp889
g74
(dp890
sg83
g662
sg76
(lp891
g69
(g90
g71
NtRp892
(dp893
g74
(dp894
g94
g95
ssg83
g888
sg76
(lp895
S'http_accept_language'
p896
asbag69
(g90
g71
NtRp897
(dp898
g74
(dp899
g101
g102
ssg83
g888
sg76
(lp900
S':'
asbag69
(g90
g71
NtRp901
(dp902
g74
(dp903
sg83
g888
sg76
(lp904
g69
(g70
g71
NtRp905
(dp906
g74
(dp907
g82
I4
ssg83
g901
sg76
(lp908
S'en-US,en;q=0.8'
p909
asbasbasbag69
(g85
g71
NtRp910
(dp911
g74
(dp912
sg83
g662
sg76
(lp913
g69
(g90
g71
NtRp914
(dp915
g74
(dp916
g94
g95
ssg83
g910
sg76
(lp917
S'http_cache_control'
p918
asbag69
(g90
g71
NtRp919
(dp920
g74
(dp921
g101
g102
ssg83
g910
sg76
(lp922
S':'
asbag69
(g90
g71
NtRp923
(dp924
g74
(dp925
sg83
g910
sg76
(lp926
g69
(g70
g71
NtRp927
(dp928
g74
(dp929
g82
I4
ssg83
g923
sg76
(lp930
S'max-age=0'
p931
asbasbasbag69
(g85
g71
NtRp932
(dp933
g74
(dp934
sg83
g662
sg76
(lp935
g69
(g90
g71
NtRp936
(dp937
g74
(dp938
g94
g95
ssg83
g932
sg76
(lp939
S'http_connection'
p940
asbag69
(g90
g71
NtRp941
(dp942
g74
(dp943
g101
g102
ssg83
g932
sg76
(lp944
S':'
asbag69
(g90
g71
NtRp945
(dp946
g74
(dp947
sg83
g932
sg76
(lp948
g69
(g70
g71
NtRp949
(dp950
g74
(dp951
g82
I4
ssg83
g945
sg76
(lp952
S'keep-alive'
p953
asbasbasbag69
(g85
g71
NtRp954
(dp955
g74
(dp956
sg83
g662
sg76
(lp957
g69
(g90
g71
NtRp958
(dp959
g74
(dp960
g94
g95
ssg83
g954
sg76
(lp961
S'http_cookie'
p962
asbag69
(g90
g71
NtRp963
(dp964
g74
(dp965
g101
g102
ssg83
g954
sg76
(lp966
S':'
asbag69
(g90
g71
NtRp967
(dp968
g74
(dp969
sg83
g954
sg76
(lp970
g69
(g70
g71
NtRp971
(dp972
g74
(dp973
g82
I4
ssg83
g967
sg76
(lp974
S'session_id_milo=127.0.0.1-19614cfd-e191-4bce-bf28-2da4d735c3fb; session_id_admin=127.0.0.1-d48f224c-3229-4026-85e5-6400c20fa8bb'
p975
asbasbasbag69
(g85
g71
NtRp976
(dp977
g74
(dp978
sg83
g662
sg76
(lp979
g69
(g90
g71
NtRp980
(dp981
g74
(dp982
g94
g95
ssg83
g976
sg76
(lp983
S'http_host'
p984
asbag69
(g90
g71
NtRp985
(dp986
g74
(dp987
g101
g102
ssg83
g976
sg76
(lp988
S':'
asbag69
(g90
g71
NtRp989
(dp990
g74
(dp991
sg83
g976
sg76
(lp992
g69
(g70
g71
NtRp993
(dp994
g74
(dp995
g82
I4
ssg83
g989
sg76
(lp996
S'localhost:8000'
p997
asbasbasbag69
(g85
g71
NtRp998
(dp999
g74
(dp1000
sg83
g662
sg76
(lp1001
g69
(g90
g71
NtRp1002
(dp1003
g74
(dp1004
g94
g95
ssg83
g998
sg76
(lp1005
S'http_user_agent'
p1006
asbag69
(g90
g71
NtRp1007
(dp1008
g74
(dp1009
g101
g102
ssg83
g998
sg76
(lp1010
S':'
asbag69
(g90
g71
NtRp1011
(dp1012
g74
(dp1013
sg83
g998
sg76
(lp1014
g69
(g70
g71
NtRp1015
(dp1016
g74
(dp1017
g82
I4
ssg83
g1011
sg76
(lp1018
S'Mozilla/5.0 (X11; Linux x86_64) AppleWebKit/535.19 (KHTML, like Gecko) Ubuntu/12.04 Chromium/18.0.1025.168 Chrome/18.0.1025.168 Safari/535.19'
p1019
asbasbasbag69
(g85
g71
NtRp1020
(dp1021
g74
(dp1022
sg83
g662
sg76
(lp1023
g69
(g90
g71
NtRp1024
(dp1025
g74
(dp1026
g94
g95
ssg83
g1020
sg76
(lp1027
S'is_jython'
p1028
asbag69
(g90
g71
NtRp1029
(dp1030
g74
(dp1031
g101
g102
ssg83
g1020
sg76
(lp1032
S':'
asbag69
(g90
g71
NtRp1033
(dp1034
g74
(dp1035
sg83
g1020
sg76
(lp1036
g69
(g70
g71
NtRp1037
(dp1038
g74
(dp1039
g82
I4
ssg83
g1033
sg76
(lp1040
g112
asbasbasbag69
(g85
g71
NtRp1041
(dp1042
g74
(dp1043
sg83
g662
sg76
(lp1044
g69
(g90
g71
NtRp1045
(dp1046
g74
(dp1047
g94
g95
ssg83
g1041
sg76
(lp1048
S'is_pypy'
p1049
asbag69
(g90
g71
NtRp1050
(dp1051
g74
(dp1052
g101
g102
ssg83
g1041
sg76
(lp1053
S':'
asbag69
(g90
g71
NtRp1054
(dp1055
g74
(dp1056
sg83
g1041
sg76
(lp1057
g69
(g70
g71
NtRp1058
(dp1059
g74
(dp1060
g82
I4
ssg83
g1054
sg76
(lp1061
g112
asbasbasbag69
(g85
g71
NtRp1062
(dp1063
g74
(dp1064
sg83
g662
sg76
(lp1065
g69
(g90
g71
NtRp1066
(dp1067
g74
(dp1068
g94
g95
ssg83
g1062
sg76
(lp1069
S'path_info'
p1070
asbag69
(g90
g71
NtRp1071
(dp1072
g74
(dp1073
g101
g102
ssg83
g1062
sg76
(lp1074
S':'
asbag69
(g90
g71
NtRp1075
(dp1076
g74
(dp1077
sg83
g1062
sg76
(lp1078
g69
(g70
g71
NtRp1079
(dp1080
g74
(dp1081
g82
I4
ssg83
g1075
sg76
(lp1082
S'/milo/appadmin/select/db'
p1083
asbasbasbag69
(g85
g71
NtRp1084
(dp1085
g74
(dp1086
sg83
g662
sg76
(lp1087
g69
(g90
g71
NtRp1088
(dp1089
g74
(dp1090
g94
g95
ssg83
g1084
sg76
(lp1091
S'query_string'
p1092
asbag69
(g90
g71
NtRp1093
(dp1094
g74
(dp1095
g101
g102
ssg83
g1084
sg76
(lp1096
S':'
asbag69
(g90
g71
NtRp1097
(dp1098
g74
(dp1099
sg83
g1084
sg76
(lp1100
g69
(g70
g71
NtRp1101
(dp1102
g74
(dp1103
g82
I4
ssg83
g1097
sg76
(lp1104
S''
asbasbasbag69
(g85
g71
NtRp1105
(dp1106
g74
(dp1107
sg83
g662
sg76
(lp1108
g69
(g90
g71
NtRp1109
(dp1110
g74
(dp1111
g94
g95
ssg83
g1105
sg76
(lp1112
S'remote_addr'
p1113
asbag69
(g90
g71
NtRp1114
(dp1115
g74
(dp1116
g101
g102
ssg83
g1105
sg76
(lp1117
S':'
asbag69
(g90
g71
NtRp1118
(dp1119
g74
(dp1120
sg83
g1105
sg76
(lp1121
g69
(g70
g71
NtRp1122
(dp1123
g74
(dp1124
g82
I4
ssg83
g1118
sg76
(lp1125
g215
asbasbasbag69
(g85
g71
NtRp1126
(dp1127
g74
(dp1128
sg83
g662
sg76
(lp1129
g69
(g90
g71
NtRp1130
(dp1131
g74
(dp1132
g94
g95
ssg83
g1126
sg76
(lp1133
S'remote_port'
p1134
asbag69
(g90
g71
NtRp1135
(dp1136
g74
(dp1137
g101
g102
ssg83
g1126
sg76
(lp1138
S':'
asbag69
(g90
g71
NtRp1139
(dp1140
g74
(dp1141
sg83
g1126
sg76
(lp1142
g69
(g70
g71
NtRp1143
(dp1144
g74
(dp1145
g82
I4
ssg83
g1139
sg76
(lp1146
S'35788'
p1147
asbasbasbag69
(g85
g71
NtRp1148
(dp1149
g74
(dp1150
sg83
g662
sg76
(lp1151
g69
(g90
g71
NtRp1152
(dp1153
g74
(dp1154
g94
g95
ssg83
g1148
sg76
(lp1155
S'request_method'
p1156
asbag69
(g90
g71
NtRp1157
(dp1158
g74
(dp1159
g101
g102
ssg83
g1148
sg76
(lp1160
S':'
asbag69
(g90
g71
NtRp1161
(dp1162
g74
(dp1163
sg83
g1148
sg76
(lp1164
g69
(g70
g71
NtRp1165
(dp1166
g74
(dp1167
g82
I4
ssg83
g1161
sg76
(lp1168
S'GET'
p1169
asbasbasbag69
(g85
g71
NtRp1170
(dp1171
g74
(dp1172
sg83
g662
sg76
(lp1173
g69
(g90
g71
NtRp1174
(dp1175
g74
(dp1176
g94
g95
ssg83
g1170
sg76
(lp1177
S'request_uri'
p1178
asbag69
(g90
g71
NtRp1179
(dp1180
g74
(dp1181
g101
g102
ssg83
g1170
sg76
(lp1182
S':'
asbag69
(g90
g71
NtRp1183
(dp1184
g74
(dp1185
sg83
g1170
sg76
(lp1186
g69
(g70
g71
NtRp1187
(dp1188
g74
(dp1189
g82
I4
ssg83
g1183
sg76
(lp1190
g1083
asbasbasbag69
(g85
g71
NtRp1191
(dp1192
g74
(dp1193
sg83
g662
sg76
(lp1194
g69
(g90
g71
NtRp1195
(dp1196
g74
(dp1197
g94
g95
ssg83
g1191
sg76
(lp1198
S'script_name'
p1199
asbag69
(g90
g71
NtRp1200
(dp1201
g74
(dp1202
g101
g102
ssg83
g1191
sg76
(lp1203
S':'
asbag69
(g90
g71
NtRp1204
(dp1205
g74
(dp1206
sg83
g1191
sg76
(lp1207
g69
(g70
g71
NtRp1208
(dp1209
g74
(dp1210
g82
I4
ssg83
g1204
sg76
(lp1211
S''
asbasbasbag69
(g85
g71
NtRp1212
(dp1213
g74
(dp1214
sg83
g662
sg76
(lp1215
g69
(g90
g71
NtRp1216
(dp1217
g74
(dp1218
g94
g95
ssg83
g1212
sg76
(lp1219
S'server_name'
p1220
asbag69
(g90
g71
NtRp1221
(dp1222
g74
(dp1223
g101
g102
ssg83
g1212
sg76
(lp1224
S':'
asbag69
(g90
g71
NtRp1225
(dp1226
g74
(dp1227
sg83
g1212
sg76
(lp1228
g69
(g70
g71
NtRp1229
(dp1230
g74
(dp1231
g82
I4
ssg83
g1225
sg76
(lp1232
S'whisperer'
p1233
asbasbasbag69
(g85
g71
NtRp1234
(dp1235
g74
(dp1236
sg83
g662
sg76
(lp1237
g69
(g90
g71
NtRp1238
(dp1239
g74
(dp1240
g94
g95
ssg83
g1234
sg76
(lp1241
S'server_port'
p1242
asbag69
(g90
g71
NtRp1243
(dp1244
g74
(dp1245
g101
g102
ssg83
g1234
sg76
(lp1246
S':'
asbag69
(g90
g71
NtRp1247
(dp1248
g74
(dp1249
sg83
g1234
sg76
(lp1250
g69
(g70
g71
NtRp1251
(dp1252
g74
(dp1253
g82
I4
ssg83
g1247
sg76
(lp1254
S'8000'
p1255
asbasbasbag69
(g85
g71
NtRp1256
(dp1257
g74
(dp1258
sg83
g662
sg76
(lp1259
g69
(g90
g71
NtRp1260
(dp1261
g74
(dp1262
g94
g95
ssg83
g1256
sg76
(lp1263
S'server_protocol'
p1264
asbag69
(g90
g71
NtRp1265
(dp1266
g74
(dp1267
g101
g102
ssg83
g1256
sg76
(lp1268
S':'
asbag69
(g90
g71
NtRp1269
(dp1270
g74
(dp1271
sg83
g1256
sg76
(lp1272
g69
(g70
g71
NtRp1273
(dp1274
g74
(dp1275
g82
I4
ssg83
g1269
sg76
(lp1276
S'HTTP/1.1'
p1277
asbasbasbag69
(g85
g71
NtRp1278
(dp1279
g74
(dp1280
sg83
g662
sg76
(lp1281
g69
(g90
g71
NtRp1282
(dp1283
g74
(dp1284
g94
g95
ssg83
g1278
sg76
(lp1285
S'server_software'
p1286
asbag69
(g90
g71
NtRp1287
(dp1288
g74
(dp1289
g101
g102
ssg83
g1278
sg76
(lp1290
S':'
asbag69
(g90
g71
NtRp1291
(dp1292
g74
(dp1293
sg83
g1278
sg76
(lp1294
g69
(g70
g71
NtRp1295
(dp1296
g74
(dp1297
g82
I4
ssg83
g1291
sg76
(lp1298
S'Rocket 1.2.4'
p1299
asbasbasbag69
(g85
g71
NtRp1300
(dp1301
g74
(dp1302
sg83
g662
sg76
(lp1303
g69
(g90
g71
NtRp1304
(dp1305
g74
(dp1306
g94
g95
ssg83
g1300
sg76
(lp1307
S'web2py_crontype'
p1308
asbag69
(g90
g71
NtRp1309
(dp1310
g74
(dp1311
g101
g102
ssg83
g1300
sg76
(lp1312
S':'
asbag69
(g90
g71
NtRp1313
(dp1314
g74
(dp1315
sg83
g1300
sg76
(lp1316
g69
(g70
g71
NtRp1317
(dp1318
g74
(dp1319
g82
I4
ssg83
g1313
sg76
(lp1320
S'hard'
p1321
asbasbasbag69
(g85
g71
NtRp1322
(dp1323
g74
(dp1324
sg83
g662
sg76
(lp1325
g69
(g90
g71
NtRp1326
(dp1327
g74
(dp1328
g94
g95
ssg83
g1322
sg76
(lp1329
S'web2py_original_uri'
p1330
asbag69
(g90
g71
NtRp1331
(dp1332
g74
(dp1333
g101
g102
ssg83
g1322
sg76
(lp1334
S':'
asbag69
(g90
g71
NtRp1335
(dp1336
g74
(dp1337
sg83
g1322
sg76
(lp1338
g69
(g70
g71
NtRp1339
(dp1340
g74
(dp1341
g82
I4
ssg83
g1335
sg76
(lp1342
g1083
asbasbasbag69
(g85
g71
NtRp1343
(dp1344
g74
(dp1345
sg83
g662
sg76
(lp1346
g69
(g90
g71
NtRp1347
(dp1348
g74
(dp1349
g94
g95
ssg83
g1343
sg76
(lp1350
S'web2py_path'
p1351
asbag69
(g90
g71
NtRp1352
(dp1353
g74
(dp1354
g101
g102
ssg83
g1343
sg76
(lp1355
S':'
asbag69
(g90
g71
NtRp1356
(dp1357
g74
(dp1358
sg83
g1343
sg76
(lp1359
g69
(g70
g71
NtRp1360
(dp1361
g74
(dp1362
g82
I4
ssg83
g1356
sg76
(lp1363
g709
asbasbasbag69
(g85
g71
NtRp1364
(dp1365
g74
(dp1366
sg83
g662
sg76
(lp1367
g69
(g90
g71
NtRp1368
(dp1369
g74
(dp1370
g94
g95
ssg83
g1364
sg76
(lp1371
S'web2py_version'
p1372
asbag69
(g90
g71
NtRp1373
(dp1374
g74
(dp1375
g101
g102
ssg83
g1364
sg76
(lp1376
S':'
asbag69
(g90
g71
NtRp1377
(dp1378
g74
(dp1379
sg83
g1364
sg76
(lp1380
g69
(g70
g71
NtRp1381
(dp1382
g74
(dp1383
g82
I4
ssg83
g1377
sg76
(lp1384
g69
(g78
g71
NtRp1385
(dp1386
g74
(dp1387
g82
I3
ssg83
Nsg76
(lp1388
g69
(g85
g71
NtRp1389
(dp1390
g74
(dp1391
sg83
g1385
sg76
(lp1392
g69
(g90
g71
NtRp1393
(dp1394
g74
(dp1395
sg83
g1389
sg76
(lp1396
g69
(g70
g71
NtRp1397
(dp1398
g74
(dp1399
g82
I3
ssg83
g1393
sg76
(lp1400
S'1'
asbasbasbag69
(g85
g71
NtRp1401
(dp1402
g74
(dp1403
sg83
g1385
sg76
(lp1404
g69
(g90
g71
NtRp1405
(dp1406
g74
(dp1407
sg83
g1401
sg76
(lp1408
g69
(g70
g71
NtRp1409
(dp1410
g74
(dp1411
g82
I3
ssg83
g1405
sg76
(lp1412
S'99'
p1413
asbasbasbag69
(g85
g71
NtRp1414
(dp1415
g74
(dp1416
sg83
g1385
sg76
(lp1417
g69
(g90
g71
NtRp1418
(dp1419
g74
(dp1420
sg83
g1414
sg76
(lp1421
g69
(g70
g71
NtRp1422
(dp1423
g74
(dp1424
g82
I3
ssg83
g1418
sg76
(lp1425
S'7'
asbasbasbag69
(g85
g71
NtRp1426
(dp1427
g74
(dp1428
sg83
g1385
sg76
(lp1429
g69
(g90
g71
NtRp1430
(dp1431
g74
(dp1432
sg83
g1426
sg76
(lp1433
g69
(g70
g71
NtRp1434
(dp1435
g74
(dp1436
g82
I3
ssg83
g1430
sg76
(lp1437
S'datetime.datetime(2012, 3, 4, 22, 12, 8)'
p1438
asbasbasbag69
(g85
g71
NtRp1439
(dp1440
g74
(dp1441
sg83
g1385
sg76
(lp1442
g69
(g90
g71
NtRp1443
(dp1444
g74
(dp1445
sg83
g1439
sg76
(lp1446
g69
(g70
g71
NtRp1447
(dp1448
g74
(dp1449
g82
I3
ssg83
g1443
sg76
(lp1450
S'stable'
p1451
asbasbasbasbasbasbasbag69
(g85
g71
NtRp1452
(dp1453
g74
(dp1454
sg83
g662
sg76
(lp1455
g69
(g90
g71
NtRp1456
(dp1457
g74
(dp1458
g94
g95
ssg83
g1452
sg76
(lp1459
S'wsgi_errors'
p1460
asbag69
(g90
g71
NtRp1461
(dp1462
g74
(dp1463
g101
g102
ssg83
g1452
sg76
(lp1464
S':'
asbag69
(g90
g71
NtRp1465
(dp1466
g74
(dp1467
sg83
g1452
sg76
(lp1468
g69
(g70
g71
NtRp1469
(dp1470
g74
(dp1471
g82
I4
ssg83
g1465
sg76
(lp1472
S"<open file '<stderr>', mode 'w' at 0x7f13cb382270>"
p1473
asbasbasbag69
(g85
g71
NtRp1474
(dp1475
g74
(dp1476
sg83
g662
sg76
(lp1477
g69
(g90
g71
NtRp1478
(dp1479
g74
(dp1480
g94
g95
ssg83
g1474
sg76
(lp1481
S'wsgi_file_wrapper'
p1482
asbag69
(g90
g71
NtRp1483
(dp1484
g74
(dp1485
g101
g102
ssg83
g1474
sg76
(lp1486
S':'
asbag69
(g90
g71
NtRp1487
(dp1488
g74
(dp1489
sg83
g1474
sg76
(lp1490
g69
(g70
g71
NtRp1491
(dp1492
g74
(dp1493
g82
I4
ssg83
g1487
sg76
(lp1494
S'<class wsgiref.util.FileWrapper at 0x13fff58>'
p1495
asbasbasbag69
(g85
g71
NtRp1496
(dp1497
g74
(dp1498
sg83
g662
sg76
(lp1499
g69
(g90
g71
NtRp1500
(dp1501
g74
(dp1502
g94
g95
ssg83
g1496
sg76
(lp1503
S'wsgi_input'
p1504
asbag69
(g90
g71
NtRp1505
(dp1506
g74
(dp1507
g101
g102
ssg83
g1496
sg76
(lp1508
S':'
asbag69
(g90
g71
NtRp1509
(dp1510
g74
(dp1511
sg83
g1496
sg76
(lp1512
g69
(g70
g71
NtRp1513
(dp1514
g74
(dp1515
g82
I4
ssg83
g1509
sg76
(lp1516
S'<socket._fileobject object at 0x7f13b066a7d0>'
p1517
asbasbasbag69
(g85
g71
NtRp1518
(dp1519
g74
(dp1520
sg83
g662
sg76
(lp1521
g69
(g90
g71
NtRp1522
(dp1523
g74
(dp1524
g94
g95
ssg83
g1518
sg76
(lp1525
S'wsgi_multiprocess'
p1526
asbag69
(g90
g71
NtRp1527
(dp1528
g74
(dp1529
g101
g102
ssg83
g1518
sg76
(lp1530
S':'
asbag69
(g90
g71
NtRp1531
(dp1532
g74
(dp1533
sg83
g1518
sg76
(lp1534
g69
(g70
g71
NtRp1535
(dp1536
g74
(dp1537
g82
I4
ssg83
g1531
sg76
(lp1538
g112
asbasbasbag69
(g85
g71
NtRp1539
(dp1540
g74
(dp1541
sg83
g662
sg76
(lp1542
g69
(g90
g71
NtRp1543
(dp1544
g74
(dp1545
g94
g95
ssg83
g1539
sg76
(lp1546
S'wsgi_multithread'
p1547
asbag69
(g90
g71
NtRp1548
(dp1549
g74
(dp1550
g101
g102
ssg83
g1539
sg76
(lp1551
S':'
asbag69
(g90
g71
NtRp1552
(dp1553
g74
(dp1554
sg83
g1539
sg76
(lp1555
g69
(g70
g71
NtRp1556
(dp1557
g74
(dp1558
g82
I4
ssg83
g1552
sg76
(lp1559
S'True'
p1560
asbasbasbag69
(g85
g71
NtRp1561
(dp1562
g74
(dp1563
sg83
g662
sg76
(lp1564
g69
(g90
g71
NtRp1565
(dp1566
g74
(dp1567
g94
g95
ssg83
g1561
sg76
(lp1568
S'wsgi_run_once'
p1569
asbag69
(g90
g71
NtRp1570
(dp1571
g74
(dp1572
g101
g102
ssg83
g1561
sg76
(lp1573
S':'
asbag69
(g90
g71
NtRp1574
(dp1575
g74
(dp1576
sg83
g1561
sg76
(lp1577
g69
(g70
g71
NtRp1578
(dp1579
g74
(dp1580
g82
I4
ssg83
g1574
sg76
(lp1581
g112
asbasbasbag69
(g85
g71
NtRp1582
(dp1583
g74
(dp1584
sg83
g662
sg76
(lp1585
g69
(g90
g71
NtRp1586
(dp1587
g74
(dp1588
g94
g95
ssg83
g1582
sg76
(lp1589
S'wsgi_url_scheme'
p1590
asbag69
(g90
g71
NtRp1591
(dp1592
g74
(dp1593
g101
g102
ssg83
g1582
sg76
(lp1594
S':'
asbag69
(g90
g71
NtRp1595
(dp1596
g74
(dp1597
sg83
g1582
sg76
(lp1598
g69
(g70
g71
NtRp1599
(dp1600
g74
(dp1601
g82
I4
ssg83
g1595
sg76
(lp1602
S'http'
p1603
asbasbasbag69
(g85
g71
NtRp1604
(dp1605
g74
(dp1606
sg83
g662
sg76
(lp1607
g69
(g90
g71
NtRp1608
(dp1609
g74
(dp1610
g94
g95
ssg83
g1604
sg76
(lp1611
S'wsgi_version'
p1612
asbag69
(g90
g71
NtRp1613
(dp1614
g74
(dp1615
g101
g102
ssg83
g1604
sg76
(lp1616
S':'
asbag69
(g90
g71
NtRp1617
(dp1618
g74
(dp1619
sg83
g1604
sg76
(lp1620
g69
(g70
g71
NtRp1621
(dp1622
g74
(dp1623
g82
I4
ssg83
g1617
sg76
(lp1624
g69
(g78
g71
NtRp1625
(dp1626
g74
(dp1627
g82
I3
ssg83
Nsg76
(lp1628
g69
(g85
g71
NtRp1629
(dp1630
g74
(dp1631
sg83
g1625
sg76
(lp1632
g69
(g90
g71
NtRp1633
(dp1634
g74
(dp1635
sg83
g1629
sg76
(lp1636
g69
(g70
g71
NtRp1637
(dp1638
g74
(dp1639
g82
I3
ssg83
g1633
sg76
(lp1640
S'1'
asbasbasbag69
(g85
g71
NtRp1641
(dp1642
g74
(dp1643
sg83
g1625
sg76
(lp1644
g69
(g90
g71
NtRp1645
(dp1646
g74
(dp1647
sg83
g1641
sg76
(lp1648
g69
(g70
g71
NtRp1649
(dp1650
g74
(dp1651
g82
I3
ssg83
g1645
sg76
(lp1652
S'0'
asbasbasbasbasbasbasbasbasbasbasbag69
(g85
g71
NtRp1653
(dp1654
g74
(dp1655
sg83
g79
sg76
(lp1656
g69
(g90
g71
NtRp1657
(dp1658
g74
(dp1659
g94
g95
ssg83
g1653
sg76
(lp1660
S'extension'
p1661
asbag69
(g90
g71
NtRp1662
(dp1663
g74
(dp1664
g101
g102
ssg83
g1653
sg76
(lp1665
S':'
asbag69
(g90
g71
NtRp1666
(dp1667
g74
(dp1668
sg83
g1653
sg76
(lp1669
g69
(g70
g71
NtRp1670
(dp1671
g74
(dp1672
g82
I5
ssg83
g1666
sg76
(lp1673
S'html'
p1674
asbasbasbag69
(g85
g71
NtRp1675
(dp1676
g74
(dp1677
sg83
g79
sg76
(lp1678
g69
(g90
g71
NtRp1679
(dp1680
g74
(dp1681
g94
g95
ssg83
g1675
sg76
(lp1682
S'folder'
p1683
asbag69
(g90
g71
NtRp1684
(dp1685
g74
(dp1686
g101
g102
ssg83
g1675
sg76
(lp1687
S':'
asbag69
(g90
g71
NtRp1688
(dp1689
g74
(dp1690
sg83
g1675
sg76
(lp1691
g69
(g70
g71
NtRp1692
(dp1693
g74
(dp1694
g82
I5
ssg83
g1688
sg76
(lp1695
S'/home/goshawk/web2py/applications/milo/'
p1696
asbasbasbag69
(g85
g71
NtRp1697
(dp1698
g74
(dp1699
sg83
g79
sg76
(lp1700
g69
(g90
g71
NtRp1701
(dp1702
g74
(dp1703
g94
g95
ssg83
g1697
sg76
(lp1704
S'function'
p1705
asbag69
(g90
g71
NtRp1706
(dp1707
g74
(dp1708
g101
g102
ssg83
g1697
sg76
(lp1709
S':'
asbag69
(g90
g71
NtRp1710
(dp1711
g74
(dp1712
sg83
g1697
sg76
(lp1713
g69
(g70
g71
NtRp1714
(dp1715
g74
(dp1716
g82
I5
ssg83
g1710
sg76
(lp1717
S'select'
p1718
asbasbasbag69
(g85
g71
NtRp1719
(dp1720
g74
(dp1721
sg83
g79
sg76
(lp1722
g69
(g90
g71
NtRp1723
(dp1724
g74
(dp1725
g94
g95
ssg83
g1719
sg76
(lp1726
S'get_vars'
p1727
asbag69
(g90
g71
NtRp1728
(dp1729
g74
(dp1730
g101
g102
ssg83
g1719
sg76
(lp1731
S':'
asbag69
(g90
g71
NtRp1732
(dp1733
g74
(dp1734
sg83
g1719
sg76
(lp1735
g69
(g70
g71
NtRp1736
(dp1737
g74
(dp1738
g82
I5
ssg83
g1732
sg76
(lp1739
g69
(g78
g71
NtRp1740
(dp1741
g74
(dp1742
g82
I4
ssg83
Nsg76
(lp1743
sbasbasbasbag69
(g85
g71
NtRp1744
(dp1745
g74
(dp1746
sg83
g79
sg76
(lp1747
g69
(g90
g71
NtRp1748
(dp1749
g74
(dp1750
g94
g95
ssg83
g1744
sg76
(lp1751
S'global_settings'
p1752
asbag69
(g90
g71
NtRp1753
(dp1754
g74
(dp1755
g101
g102
ssg83
g1744
sg76
(lp1756
S':'
asbag69
(g90
g71
NtRp1757
(dp1758
g74
(dp1759
sg83
g1744
sg76
(lp1760
g69
(g70
g71
NtRp1761
(dp1762
g74
(dp1763
g82
I5
ssg83
g1757
sg76
(lp1764
g69
(g78
g71
NtRp1765
(dp1766
g74
(dp1767
g82
I4
ssg83
Nsg76
(lp1768
g69
(g85
g71
NtRp1769
(dp1770
g74
(dp1771
sg83
g1765
sg76
(lp1772
g69
(g90
g71
NtRp1773
(dp1774
g74
(dp1775
g94
g95
ssg83
g1769
sg76
(lp1776
g674
asbag69
(g90
g71
NtRp1777
(dp1778
g74
(dp1779
g101
g102
ssg83
g1769
sg76
(lp1780
S':'
asbag69
(g90
g71
NtRp1781
(dp1782
g74
(dp1783
sg83
g1769
sg76
(lp1784
g69
(g70
g71
NtRp1785
(dp1786
g74
(dp1787
g82
I4
ssg83
g1781
sg76
(lp1788
S"set(['/home/goshawk/web2py/applications/milo/', '/home/goshawk/web2py/applications/admin/'])"
p1789
asbasbasbag69
(g85
g71
NtRp1790
(dp1791
g74
(dp1792
sg83
g1765
sg76
(lp1793
g69
(g90
g71
NtRp1794
(dp1795
g74
(dp1796
g94
g95
ssg83
g1790
sg76
(lp1797
g696
asbag69
(g90
g71
NtRp1798
(dp1799
g74
(dp1800
g101
g102
ssg83
g1790
sg76
(lp1801
S':'
asbag69
(g90
g71
NtRp1802
(dp1803
g74
(dp1804
sg83
g1790
sg76
(lp1805
g69
(g70
g71
NtRp1806
(dp1807
g74
(dp1808
g82
I4
ssg83
g1802
sg76
(lp1809
g709
asbasbasbag69
(g85
g71
NtRp1810
(dp1811
g74
(dp1812
sg83
g1765
sg76
(lp1813
g69
(g90
g71
NtRp1814
(dp1815
g74
(dp1816
g94
g95
ssg83
g1810
sg76
(lp1817
g718
asbag69
(g90
g71
NtRp1818
(dp1819
g74
(dp1820
g101
g102
ssg83
g1810
sg76
(lp1821
S':'
asbag69
(g90
g71
NtRp1822
(dp1823
g74
(dp1824
sg83
g1810
sg76
(lp1825
g69
(g70
g71
NtRp1826
(dp1827
g74
(dp1828
g82
I4
ssg83
g1822
sg76
(lp1829
g69
(g78
g71
NtRp1830
(dp1831
g74
(dp1832
g82
I3
ssg83
Nsg76
(lp1833
sbasbasbasbag69
(g85
g71
NtRp1834
(dp1835
g74
(dp1836
sg83
g1765
sg76
(lp1837
g69
(g90
g71
NtRp1838
(dp1839
g74
(dp1840
g94
g95
ssg83
g1834
sg76
(lp1841
g743
asbag69
(g90
g71
NtRp1842
(dp1843
g74
(dp1844
g101
g102
ssg83
g1834
sg76
(lp1845
S':'
asbag69
(g90
g71
NtRp1846
(dp1847
g74
(dp1848
sg83
g1834
sg76
(lp1849
g69
(g70
g71
NtRp1850
(dp1851
g74
(dp1852
g82
I4
ssg83
g1846
sg76
(lp1853
S"<Values at 0x14d30e0: {'verbose': False, 'ip': '127.0.0.1', 'shutdown_timeout': 5, 'taskbar': False, 'nocron': False, 'pid_filename': 'httpserver.pid', 'maxthreads': None, 'softcron': False, 'server_name': 'whisperer', 'bpython': False, 'nogui': False, 'port': 8000, 'extcron': False, 'debuglevel': 30, 'test': None, 'folder': '/home/goshawk/web2py', 'config': '', 'import_models': False, 'winservice': '', 'shell': None, 'run': '', 'log_filename': 'httpserver.log', 'args': [''], 'socket_timeout': 5, 'ssl_ca_certificate': None, 'scheduler': None, 'profiler_filename': None, 'ssl_private_key': '', 'password': 'admin', 'request_queue_size': 5, 'ssl_certificate': '', 'cronjob': False, 'numthreads': None, 'quiet': False, 'interfaces': None, 'minthreads': None, 'timeout': 10, 'plain': False, 'nobanner': False}>"
p1854
asbasbasbag69
(g85
g71
NtRp1855
(dp1856
g74
(dp1857
sg83
g1765
sg76
(lp1858
g69
(g90
g71
NtRp1859
(dp1860
g74
(dp1861
g94
g95
ssg83
g1855
sg76
(lp1862
g765
asbag69
(g90
g71
NtRp1863
(dp1864
g74
(dp1865
g101
g102
ssg83
g1855
sg76
(lp1866
S':'
asbag69
(g90
g71
NtRp1867
(dp1868
g74
(dp1869
sg83
g1855
sg76
(lp1870
g69
(g70
g71
NtRp1871
(dp1872
g74
(dp1873
g82
I4
ssg83
g1867
sg76
(lp1874
S'set([])'
p1875
asbasbasbag69
(g85
g71
NtRp1876
(dp1877
g74
(dp1878
sg83
g1765
sg76
(lp1879
g69
(g90
g71
NtRp1880
(dp1881
g74
(dp1882
g94
g95
ssg83
g1876
sg76
(lp1883
g787
asbag69
(g90
g71
NtRp1884
(dp1885
g74
(dp1886
g101
g102
ssg83
g1876
sg76
(lp1887
S':'
asbag69
(g90
g71
NtRp1888
(dp1889
g74
(dp1890
sg83
g1876
sg76
(lp1891
g69
(g70
g71
NtRp1892
(dp1893
g74
(dp1894
g82
I4
ssg83
g1888
sg76
(lp1895
g112
asbasbasbag69
(g85
g71
NtRp1896
(dp1897
g74
(dp1898
sg83
g1765
sg76
(lp1899
g69
(g90
g71
NtRp1900
(dp1901
g74
(dp1902
g94
g95
ssg83
g1896
sg76
(lp1903
g808
asbag69
(g90
g71
NtRp1904
(dp1905
g74
(dp1906
g101
g102
ssg83
g1896
sg76
(lp1907
S':'
asbag69
(g90
g71
NtRp1908
(dp1909
g74
(dp1910
sg83
g1896
sg76
(lp1911
g69
(g70
g71
NtRp1912
(dp1913
g74
(dp1914
g82
I4
ssg83
g1908
sg76
(lp1915
g821
asbasbasbag69
(g85
g71
NtRp1916
(dp1917
g74
(dp1918
sg83
g1765
sg76
(lp1919
g69
(g90
g71
NtRp1920
(dp1921
g74
(dp1922
g94
g95
ssg83
g1916
sg76
(lp1923
g1028
asbag69
(g90
g71
NtRp1924
(dp1925
g74
(dp1926
g101
g102
ssg83
g1916
sg76
(lp1927
S':'
asbag69
(g90
g71
NtRp1928
(dp1929
g74
(dp1930
sg83
g1916
sg76
(lp1931
g69
(g70
g71
NtRp1932
(dp1933
g74
(dp1934
g82
I4
ssg83
g1928
sg76
(lp1935
g112
asbasbasbag69
(g85
g71
NtRp1936
(dp1937
g74
(dp1938
sg83
g1765
sg76
(lp1939
g69
(g90
g71
NtRp1940
(dp1941
g74
(dp1942
g94
g95
ssg83
g1936
sg76
(lp1943
g1049
asbag69
(g90
g71
NtRp1944
(dp1945
g74
(dp1946
g101
g102
ssg83
g1936
sg76
(lp1947
S':'
asbag69
(g90
g71
NtRp1948
(dp1949
g74
(dp1950
sg83
g1936
sg76
(lp1951
g69
(g70
g71
NtRp1952
(dp1953
g74
(dp1954
g82
I4
ssg83
g1948
sg76
(lp1955
g112
asbasbasbag69
(g85
g71
NtRp1956
(dp1957
g74
(dp1958
sg83
g1765
sg76
(lp1959
g69
(g90
g71
NtRp1960
(dp1961
g74
(dp1962
g94
g95
ssg83
g1956
sg76
(lp1963
g1308
asbag69
(g90
g71
NtRp1964
(dp1965
g74
(dp1966
g101
g102
ssg83
g1956
sg76
(lp1967
S':'
asbag69
(g90
g71
NtRp1968
(dp1969
g74
(dp1970
sg83
g1956
sg76
(lp1971
g69
(g70
g71
NtRp1972
(dp1973
g74
(dp1974
g82
I4
ssg83
g1968
sg76
(lp1975
g1321
asbasbasbag69
(g85
g71
NtRp1976
(dp1977
g74
(dp1978
sg83
g1765
sg76
(lp1979
g69
(g90
g71
NtRp1980
(dp1981
g74
(dp1982
g94
g95
ssg83
g1976
sg76
(lp1983
g1372
asbag69
(g90
g71
NtRp1984
(dp1985
g74
(dp1986
g101
g102
ssg83
g1976
sg76
(lp1987
S':'
asbag69
(g90
g71
NtRp1988
(dp1989
g74
(dp1990
sg83
g1976
sg76
(lp1991
g69
(g70
g71
NtRp1992
(dp1993
g74
(dp1994
g82
I4
ssg83
g1988
sg76
(lp1995
g69
(g78
g71
NtRp1996
(dp1997
g74
(dp1998
g82
I3
ssg83
Nsg76
(lp1999
g69
(g85
g71
NtRp2000
(dp2001
g74
(dp2002
sg83
g1996
sg76
(lp2003
g69
(g90
g71
NtRp2004
(dp2005
g74
(dp2006
sg83
g2000
sg76
(lp2007
g69
(g70
g71
NtRp2008
(dp2009
g74
(dp2010
g82
I3
ssg83
g2004
sg76
(lp2011
S'1'
asbasbasbag69
(g85
g71
NtRp2012
(dp2013
g74
(dp2014
sg83
g1996
sg76
(lp2015
g69
(g90
g71
NtRp2016
(dp2017
g74
(dp2018
sg83
g2012
sg76
(lp2019
g69
(g70
g71
NtRp2020
(dp2021
g74
(dp2022
g82
I3
ssg83
g2016
sg76
(lp2023
S'99'
p2024
asbasbasbag69
(g85
g71
NtRp2025
(dp2026
g74
(dp2027
sg83
g1996
sg76
(lp2028
g69
(g90
g71
NtRp2029
(dp2030
g74
(dp2031
sg83
g2025
sg76
(lp2032
g69
(g70
g71
NtRp2033
(dp2034
g74
(dp2035
g82
I3
ssg83
g2029
sg76
(lp2036
S'7'
asbasbasbag69
(g85
g71
NtRp2037
(dp2038
g74
(dp2039
sg83
g1996
sg76
(lp2040
g69
(g90
g71
NtRp2041
(dp2042
g74
(dp2043
sg83
g2037
sg76
(lp2044
g69
(g70
g71
NtRp2045
(dp2046
g74
(dp2047
g82
I3
ssg83
g2041
sg76
(lp2048
S'datetime.datetime(2012, 3, 4, 22, 12, 8)'
p2049
asbasbasbag69
(g85
g71
NtRp2050
(dp2051
g74
(dp2052
sg83
g1996
sg76
(lp2053
g69
(g90
g71
NtRp2054
(dp2055
g74
(dp2056
sg83
g2050
sg76
(lp2057
g69
(g70
g71
NtRp2058
(dp2059
g74
(dp2060
g82
I3
ssg83
g2054
sg76
(lp2061
g1451
asbasbasbasbasbasbasbasbasbasbasbag69
(g85
g71
NtRp2062
(dp2063
g74
(dp2064
sg83
g79
sg76
(lp2065
g69
(g90
g71
NtRp2066
(dp2067
g74
(dp2068
g94
g95
ssg83
g2062
sg76
(lp2069
S'is_https'
p2070
asbag69
(g90
g71
NtRp2071
(dp2072
g74
(dp2073
g101
g102
ssg83
g2062
sg76
(lp2074
S':'
asbag69
(g90
g71
NtRp2075
(dp2076
g74
(dp2077
sg83
g2062
sg76
(lp2078
g69
(g70
g71
NtRp2079
(dp2080
g74
(dp2081
g82
I5
ssg83
g2075
sg76
(lp2082
g112
asbasbasbag69
(g85
g71
NtRp2083
(dp2084
g74
(dp2085
sg83
g79
sg76
(lp2086
g69
(g90
g71
NtRp2087
(dp2088
g74
(dp2089
g94
g95
ssg83
g2083
sg76
(lp2090
S'is_local'
p2091
asbag69
(g90
g71
NtRp2092
(dp2093
g74
(dp2094
g101
g102
ssg83
g2083
sg76
(lp2095
S':'
asbag69
(g90
g71
NtRp2096
(dp2097
g74
(dp2098
sg83
g2083
sg76
(lp2099
g69
(g70
g71
NtRp2100
(dp2101
g74
(dp2102
g82
I5
ssg83
g2096
sg76
(lp2103
g1560
asbasbasbag69
(g85
g71
NtRp2104
(dp2105
g74
(dp2106
sg83
g79
sg76
(lp2107
g69
(g90
g71
NtRp2108
(dp2109
g74
(dp2110
g94
g95
ssg83
g2104
sg76
(lp2111
S'is_restful'
p2112
asbag69
(g90
g71
NtRp2113
(dp2114
g74
(dp2115
g101
g102
ssg83
g2104
sg76
(lp2116
S':'
asbag69
(g90
g71
NtRp2117
(dp2118
g74
(dp2119
sg83
g2104
sg76
(lp2120
g69
(g70
g71
NtRp2121
(dp2122
g74
(dp2123
g82
I5
ssg83
g2117
sg76
(lp2124
g112
asbasbasbag69
(g85
g71
NtRp2125
(dp2126
g74
(dp2127
sg83
g79
sg76
(lp2128
g69
(g90
g71
NtRp2129
(dp2130
g74
(dp2131
g94
g95
ssg83
g2125
sg76
(lp2132
S'now'
p2133
asbag69
(g90
g71
NtRp2134
(dp2135
g74
(dp2136
g101
g102
ssg83
g2125
sg76
(lp2137
S':'
asbag69
(g90
g71
NtRp2138
(dp2139
g74
(dp2140
sg83
g2125
sg76
(lp2141
g69
(g70
g71
NtRp2142
(dp2143
g74
(dp2144
g82
I5
ssg83
g2138
sg76
(lp2145
S'datetime.datetime(2012, 7, 9, 1, 24, 17, 160643)'
p2146
asbasbasbag69
(g85
g71
NtRp2147
(dp2148
g74
(dp2149
sg83
g79
sg76
(lp2150
g69
(g90
g71
NtRp2151
(dp2152
g74
(dp2153
g94
g95
ssg83
g2147
sg76
(lp2154
S'post_vars'
p2155
asbag69
(g90
g71
NtRp2156
(dp2157
g74
(dp2158
g101
g102
ssg83
g2147
sg76
(lp2159
S':'
asbag69
(g90
g71
NtRp2160
(dp2161
g74
(dp2162
sg83
g2147
sg76
(lp2163
g69
(g70
g71
NtRp2164
(dp2165
g74
(dp2166
g82
I5
ssg83
g2160
sg76
(lp2167
g69
(g78
g71
NtRp2168
(dp2169
g74
(dp2170
g82
I4
ssg83
Nsg76
(lp2171
sbasbasbasbag69
(g85
g71
NtRp2172
(dp2173
g74
(dp2174
sg83
g79
sg76
(lp2175
g69
(g90
g71
NtRp2176
(dp2177
g74
(dp2178
g94
g95
ssg83
g2172
sg76
(lp2179
S'raw_args'
p2180
asbag69
(g90
g71
NtRp2181
(dp2182
g74
(dp2183
g101
g102
ssg83
g2172
sg76
(lp2184
S':'
asbag69
(g90
g71
NtRp2185
(dp2186
g74
(dp2187
sg83
g2172
sg76
(lp2188
g69
(g70
g71
NtRp2189
(dp2190
g74
(dp2191
g82
I5
ssg83
g2185
sg76
(lp2192
g171
asbasbasbag69
(g85
g71
NtRp2193
(dp2194
g74
(dp2195
sg83
g79
sg76
(lp2196
g69
(g90
g71
NtRp2197
(dp2198
g74
(dp2199
g94
g95
ssg83
g2193
sg76
(lp2200
S'url'
p2201
asbag69
(g90
g71
NtRp2202
(dp2203
g74
(dp2204
g101
g102
ssg83
g2193
sg76
(lp2205
S':'
asbag69
(g90
g71
NtRp2206
(dp2207
g74
(dp2208
sg83
g2193
sg76
(lp2209
g69
(g70
g71
NtRp2210
(dp2211
g74
(dp2212
g82
I5
ssg83
g2206
sg76
(lp2213
S'/milo/appadmin/select/db'
p2214
asbasbasbag69
(g85
g71
NtRp2215
(dp2216
g74
(dp2217
sg83
g79
sg76
(lp2218
g69
(g90
g71
NtRp2219
(dp2220
g74
(dp2221
g94
g95
ssg83
g2215
sg76
(lp2222
S'utcnow'
p2223
asbag69
(g90
g71
NtRp2224
(dp2225
g74
(dp2226
g101
g102
ssg83
g2215
sg76
(lp2227
S':'
asbag69
(g90
g71
NtRp2228
(dp2229
g74
(dp2230
sg83
g2215
sg76
(lp2231
g69
(g70
g71
NtRp2232
(dp2233
g74
(dp2234
g82
I5
ssg83
g2228
sg76
(lp2235
S'datetime.datetime(2012, 7, 8, 23, 24, 17, 160664)'
p2236
asbasbasbag69
(g85
g71
NtRp2237
(dp2238
g74
(dp2239
sg83
g79
sg76
(lp2240
g69
(g90
g71
NtRp2241
(dp2242
g74
(dp2243
g94
g95
ssg83
g2237
sg76
(lp2244
S'uuid'
p2245
asbag69
(g90
g71
NtRp2246
(dp2247
g74
(dp2248
g101
g102
ssg83
g2237
sg76
(lp2249
S':'
asbag69
(g90
g71
NtRp2250
(dp2251
g74
(dp2252
sg83
g2237
sg76
(lp2253
g69
(g70
g71
NtRp2254
(dp2255
g74
(dp2256
g82
I5
ssg83
g2250
sg76
(lp2257
S'milo/127.0.0.1.2012-07-09.01-24-17.1f613cc5-7cca-4807-bf68-5ed5654a76d5'
p2258
asbasbasbag69
(g85
g71
NtRp2259
(dp2260
g74
(dp2261
sg83
g79
sg76
(lp2262
g69
(g90
g71
NtRp2263
(dp2264
g74
(dp2265
g94
g95
ssg83
g2259
sg76
(lp2266
S'vars'
p2267
asbag69
(g90
g71
NtRp2268
(dp2269
g74
(dp2270
g101
g102
ssg83
g2259
sg76
(lp2271
S':'
asbag69
(g90
g71
NtRp2272
(dp2273
g74
(dp2274
sg83
g2259
sg76
(lp2275
g69
(g70
g71
NtRp2276
(dp2277
g74
(dp2278
g82
I5
ssg83
g2272
sg76
(lp2279
g69
(g78
g71
NtRp2280
(dp2281
g74
(dp2282
g82
I4
ssg83
Nsg76
(lp2283
sbasbasbasbag69
(g85
g71
NtRp2284
(dp2285
g74
(dp2286
sg83
g79
sg76
(lp2287
g69
(g90
g71
NtRp2288
(dp2289
g74
(dp2290
g94
g95
ssg83
g2284
sg76
(lp2291
S'wsgi'
p2292
asbag69
(g90
g71
NtRp2293
(dp2294
g74
(dp2295
g101
g102
ssg83
g2284
sg76
(lp2296
S':'
asbag69
(g90
g71
NtRp2297
(dp2298
g74
(dp2299
sg83
g2284
sg76
(lp2300
g69
(g70
g71
NtRp2301
(dp2302
g74
(dp2303
g82
I5
ssg83
g2297
sg76
(lp2304
g69
(g78
g71
NtRp2305
(dp2306
g74
(dp2307
g82
I4
ssg83
Nsg76
(lp2308
g69
(g85
g71
NtRp2309
(dp2310
g74
(dp2311
sg83
g2305
sg76
(lp2312
g69
(g90
g71
NtRp2313
(dp2314
g74
(dp2315
g94
g95
ssg83
g2309
sg76
(lp2316
S'environ'
p2317
asbag69
(g90
g71
NtRp2318
(dp2319
g74
(dp2320
g101
g102
ssg83
g2309
sg76
(lp2321
S':'
asbag69
(g90
g71
NtRp2322
(dp2323
g74
(dp2324
sg83
g2309
sg76
(lp2325
g69
(g70
g71
NtRp2326
(dp2327
g74
(dp2328
g82
I4
ssg83
g2322
sg76
(lp2329
g69
(g78
g71
NtRp2330
(dp2331
g74
(dp2332
g82
I3
ssg83
Nsg76
(lp2333
g69
(g85
g71
NtRp2334
(dp2335
g74
(dp2336
sg83
g2330
sg76
(lp2337
g69
(g90
g71
NtRp2338
(dp2339
g74
(dp2340
g94
g95
ssg83
g2334
sg76
(lp2341
S'HTTP_ACCEPT'
p2342
asbag69
(g90
g71
NtRp2343
(dp2344
g74
(dp2345
g101
g102
ssg83
g2334
sg76
(lp2346
S':'
asbag69
(g90
g71
NtRp2347
(dp2348
g74
(dp2349
sg83
g2334
sg76
(lp2350
g69
(g70
g71
NtRp2351
(dp2352
g74
(dp2353
g82
I3
ssg83
g2347
sg76
(lp2354
g843
asbasbasbag69
(g85
g71
NtRp2355
(dp2356
g74
(dp2357
sg83
g2330
sg76
(lp2358
g69
(g90
g71
NtRp2359
(dp2360
g74
(dp2361
g94
g95
ssg83
g2355
sg76
(lp2362
S'HTTP_ACCEPT_CHARSET'
p2363
asbag69
(g90
g71
NtRp2364
(dp2365
g74
(dp2366
g101
g102
ssg83
g2355
sg76
(lp2367
S':'
asbag69
(g90
g71
NtRp2368
(dp2369
g74
(dp2370
sg83
g2355
sg76
(lp2371
g69
(g70
g71
NtRp2372
(dp2373
g74
(dp2374
g82
I3
ssg83
g2368
sg76
(lp2375
g865
asbasbasbag69
(g85
g71
NtRp2376
(dp2377
g74
(dp2378
sg83
g2330
sg76
(lp2379
g69
(g90
g71
NtRp2380
(dp2381
g74
(dp2382
g94
g95
ssg83
g2376
sg76
(lp2383
S'HTTP_ACCEPT_ENCODING'
p2384
asbag69
(g90
g71
NtRp2385
(dp2386
g74
(dp2387
g101
g102
ssg83
g2376
sg76
(lp2388
S':'
asbag69
(g90
g71
NtRp2389
(dp2390
g74
(dp2391
sg83
g2376
sg76
(lp2392
g69
(g70
g71
NtRp2393
(dp2394
g74
(dp2395
g82
I3
ssg83
g2389
sg76
(lp2396
g887
asbasbasbag69
(g85
g71
NtRp2397
(dp2398
g74
(dp2399
sg83
g2330
sg76
(lp2400
g69
(g90
g71
NtRp2401
(dp2402
g74
(dp2403
g94
g95
ssg83
g2397
sg76
(lp2404
S'HTTP_ACCEPT_LANGUAGE'
p2405
asbag69
(g90
g71
NtRp2406
(dp2407
g74
(dp2408
g101
g102
ssg83
g2397
sg76
(lp2409
S':'
asbag69
(g90
g71
NtRp2410
(dp2411
g74
(dp2412
sg83
g2397
sg76
(lp2413
g69
(g70
g71
NtRp2414
(dp2415
g74
(dp2416
g82
I3
ssg83
g2410
sg76
(lp2417
g909
asbasbasbag69
(g85
g71
NtRp2418
(dp2419
g74
(dp2420
sg83
g2330
sg76
(lp2421
g69
(g90
g71
NtRp2422
(dp2423
g74
(dp2424
g94
g95
ssg83
g2418
sg76
(lp2425
S'HTTP_CACHE_CONTROL'
p2426
asbag69
(g90
g71
NtRp2427
(dp2428
g74
(dp2429
g101
g102
ssg83
g2418
sg76
(lp2430
S':'
asbag69
(g90
g71
NtRp2431
(dp2432
g74
(dp2433
sg83
g2418
sg76
(lp2434
g69
(g70
g71
NtRp2435
(dp2436
g74
(dp2437
g82
I3
ssg83
g2431
sg76
(lp2438
g931
asbasbasbag69
(g85
g71
NtRp2439
(dp2440
g74
(dp2441
sg83
g2330
sg76
(lp2442
g69
(g90
g71
NtRp2443
(dp2444
g74
(dp2445
g94
g95
ssg83
g2439
sg76
(lp2446
S'HTTP_CONNECTION'
p2447
asbag69
(g90
g71
NtRp2448
(dp2449
g74
(dp2450
g101
g102
ssg83
g2439
sg76
(lp2451
S':'
asbag69
(g90
g71
NtRp2452
(dp2453
g74
(dp2454
sg83
g2439
sg76
(lp2455
g69
(g70
g71
NtRp2456
(dp2457
g74
(dp2458
g82
I3
ssg83
g2452
sg76
(lp2459
g953
asbasbasbag69
(g85
g71
NtRp2460
(dp2461
g74
(dp2462
sg83
g2330
sg76
(lp2463
g69
(g90
g71
NtRp2464
(dp2465
g74
(dp2466
g94
g95
ssg83
g2460
sg76
(lp2467
S'HTTP_COOKIE'
p2468
asbag69
(g90
g71
NtRp2469
(dp2470
g74
(dp2471
g101
g102
ssg83
g2460
sg76
(lp2472
S':'
asbag69
(g90
g71
NtRp2473
(dp2474
g74
(dp2475
sg83
g2460
sg76
(lp2476
g69
(g70
g71
NtRp2477
(dp2478
g74
(dp2479
g82
I3
ssg83
g2473
sg76
(lp2480
g975
asbasbasbag69
(g85
g71
NtRp2481
(dp2482
g74
(dp2483
sg83
g2330
sg76
(lp2484
g69
(g90
g71
NtRp2485
(dp2486
g74
(dp2487
g94
g95
ssg83
g2481
sg76
(lp2488
S'HTTP_HOST'
p2489
asbag69
(g90
g71
NtRp2490
(dp2491
g74
(dp2492
g101
g102
ssg83
g2481
sg76
(lp2493
S':'
asbag69
(g90
g71
NtRp2494
(dp2495
g74
(dp2496
sg83
g2481
sg76
(lp2497
g69
(g70
g71
NtRp2498
(dp2499
g74
(dp2500
g82
I3
ssg83
g2494
sg76
(lp2501
g997
asbasbasbag69
(g85
g71
NtRp2502
(dp2503
g74
(dp2504
sg83
g2330
sg76
(lp2505
g69
(g90
g71
NtRp2506
(dp2507
g74
(dp2508
g94
g95
ssg83
g2502
sg76
(lp2509
S'HTTP_USER_AGENT'
p2510
asbag69
(g90
g71
NtRp2511
(dp2512
g74
(dp2513
g101
g102
ssg83
g2502
sg76
(lp2514
S':'
asbag69
(g90
g71
NtRp2515
(dp2516
g74
(dp2517
sg83
g2502
sg76
(lp2518
g69
(g70
g71
NtRp2519
(dp2520
g74
(dp2521
g82
I3
ssg83
g2515
sg76
(lp2522
g1019
asbasbasbag69
(g85
g71
NtRp2523
(dp2524
g74
(dp2525
sg83
g2330
sg76
(lp2526
g69
(g90
g71
NtRp2527
(dp2528
g74
(dp2529
g94
g95
ssg83
g2523
sg76
(lp2530
S'PATH_INFO'
p2531
asbag69
(g90
g71
NtRp2532
(dp2533
g74
(dp2534
g101
g102
ssg83
g2523
sg76
(lp2535
S':'
asbag69
(g90
g71
NtRp2536
(dp2537
g74
(dp2538
sg83
g2523
sg76
(lp2539
g69
(g70
g71
NtRp2540
(dp2541
g74
(dp2542
g82
I3
ssg83
g2536
sg76
(lp2543
g1083
asbasbasbag69
(g85
g71
NtRp2544
(dp2545
g74
(dp2546
sg83
g2330
sg76
(lp2547
g69
(g90
g71
NtRp2548
(dp2549
g74
(dp2550
g94
g95
ssg83
g2544
sg76
(lp2551
S'QUERY_STRING'
p2552
asbag69
(g90
g71
NtRp2553
(dp2554
g74
(dp2555
g101
g102
ssg83
g2544
sg76
(lp2556
S':'
asbag69
(g90
g71
NtRp2557
(dp2558
g74
(dp2559
sg83
g2544
sg76
(lp2560
g69
(g70
g71
NtRp2561
(dp2562
g74
(dp2563
g82
I3
ssg83
g2557
sg76
(lp2564
S''
asbasbasbag69
(g85
g71
NtRp2565
(dp2566
g74
(dp2567
sg83
g2330
sg76
(lp2568
g69
(g90
g71
NtRp2569
(dp2570
g74
(dp2571
g94
g95
ssg83
g2565
sg76
(lp2572
S'REMOTE_ADDR'
p2573
asbag69
(g90
g71
NtRp2574
(dp2575
g74
(dp2576
g101
g102
ssg83
g2565
sg76
(lp2577
S':'
asbag69
(g90
g71
NtRp2578
(dp2579
g74
(dp2580
sg83
g2565
sg76
(lp2581
g69
(g70
g71
NtRp2582
(dp2583
g74
(dp2584
g82
I3
ssg83
g2578
sg76
(lp2585
g215
asbasbasbag69
(g85
g71
NtRp2586
(dp2587
g74
(dp2588
sg83
g2330
sg76
(lp2589
g69
(g90
g71
NtRp2590
(dp2591
g74
(dp2592
g94
g95
ssg83
g2586
sg76
(lp2593
S'REMOTE_PORT'
p2594
asbag69
(g90
g71
NtRp2595
(dp2596
g74
(dp2597
g101
g102
ssg83
g2586
sg76
(lp2598
S':'
asbag69
(g90
g71
NtRp2599
(dp2600
g74
(dp2601
sg83
g2586
sg76
(lp2602
g69
(g70
g71
NtRp2603
(dp2604
g74
(dp2605
g82
I3
ssg83
g2599
sg76
(lp2606
g1147
asbasbasbag69
(g85
g71
NtRp2607
(dp2608
g74
(dp2609
sg83
g2330
sg76
(lp2610
g69
(g90
g71
NtRp2611
(dp2612
g74
(dp2613
g94
g95
ssg83
g2607
sg76
(lp2614
S'REQUEST_METHOD'
p2615
asbag69
(g90
g71
NtRp2616
(dp2617
g74
(dp2618
g101
g102
ssg83
g2607
sg76
(lp2619
S':'
asbag69
(g90
g71
NtRp2620
(dp2621
g74
(dp2622
sg83
g2607
sg76
(lp2623
g69
(g70
g71
NtRp2624
(dp2625
g74
(dp2626
g82
I3
ssg83
g2620
sg76
(lp2627
g1169
asbasbasbag69
(g85
g71
NtRp2628
(dp2629
g74
(dp2630
sg83
g2330
sg76
(lp2631
g69
(g90
g71
NtRp2632
(dp2633
g74
(dp2634
g94
g95
ssg83
g2628
sg76
(lp2635
S'REQUEST_URI'
p2636
asbag69
(g90
g71
NtRp2637
(dp2638
g74
(dp2639
g101
g102
ssg83
g2628
sg76
(lp2640
S':'
asbag69
(g90
g71
NtRp2641
(dp2642
g74
(dp2643
sg83
g2628
sg76
(lp2644
g69
(g70
g71
NtRp2645
(dp2646
g74
(dp2647
g82
I3
ssg83
g2641
sg76
(lp2648
g1083
asbasbasbag69
(g85
g71
NtRp2649
(dp2650
g74
(dp2651
sg83
g2330
sg76
(lp2652
g69
(g90
g71
NtRp2653
(dp2654
g74
(dp2655
g94
g95
ssg83
g2649
sg76
(lp2656
S'SCRIPT_NAME'
p2657
asbag69
(g90
g71
NtRp2658
(dp2659
g74
(dp2660
g101
g102
ssg83
g2649
sg76
(lp2661
S':'
asbag69
(g90
g71
NtRp2662
(dp2663
g74
(dp2664
sg83
g2649
sg76
(lp2665
g69
(g70
g71
NtRp2666
(dp2667
g74
(dp2668
g82
I3
ssg83
g2662
sg76
(lp2669
S''
asbasbasbag69
(g85
g71
NtRp2670
(dp2671
g74
(dp2672
sg83
g2330
sg76
(lp2673
g69
(g90
g71
NtRp2674
(dp2675
g74
(dp2676
g94
g95
ssg83
g2670
sg76
(lp2677
S'SERVER_NAME'
p2678
asbag69
(g90
g71
NtRp2679
(dp2680
g74
(dp2681
g101
g102
ssg83
g2670
sg76
(lp2682
S':'
asbag69
(g90
g71
NtRp2683
(dp2684
g74
(dp2685
sg83
g2670
sg76
(lp2686
g69
(g70
g71
NtRp2687
(dp2688
g74
(dp2689
g82
I3
ssg83
g2683
sg76
(lp2690
g1233
asbasbasbag69
(g85
g71
NtRp2691
(dp2692
g74
(dp2693
sg83
g2330
sg76
(lp2694
g69
(g90
g71
NtRp2695
(dp2696
g74
(dp2697
g94
g95
ssg83
g2691
sg76
(lp2698
S'SERVER_PORT'
p2699
asbag69
(g90
g71
NtRp2700
(dp2701
g74
(dp2702
g101
g102
ssg83
g2691
sg76
(lp2703
S':'
asbag69
(g90
g71
NtRp2704
(dp2705
g74
(dp2706
sg83
g2691
sg76
(lp2707
g69
(g70
g71
NtRp2708
(dp2709
g74
(dp2710
g82
I3
ssg83
g2704
sg76
(lp2711
g1255
asbasbasbag69
(g85
g71
NtRp2712
(dp2713
g74
(dp2714
sg83
g2330
sg76
(lp2715
g69
(g90
g71
NtRp2716
(dp2717
g74
(dp2718
g94
g95
ssg83
g2712
sg76
(lp2719
S'SERVER_PROTOCOL'
p2720
asbag69
(g90
g71
NtRp2721
(dp2722
g74
(dp2723
g101
g102
ssg83
g2712
sg76
(lp2724
S':'
asbag69
(g90
g71
NtRp2725
(dp2726
g74
(dp2727
sg83
g2712
sg76
(lp2728
g69
(g70
g71
NtRp2729
(dp2730
g74
(dp2731
g82
I3
ssg83
g2725
sg76
(lp2732
g1277
asbasbasbag69
(g85
g71
NtRp2733
(dp2734
g74
(dp2735
sg83
g2330
sg76
(lp2736
g69
(g90
g71
NtRp2737
(dp2738
g74
(dp2739
g94
g95
ssg83
g2733
sg76
(lp2740
S'SERVER_SOFTWARE'
p2741
asbag69
(g90
g71
NtRp2742
(dp2743
g74
(dp2744
g101
g102
ssg83
g2733
sg76
(lp2745
S':'
asbag69
(g90
g71
NtRp2746
(dp2747
g74
(dp2748
sg83
g2733
sg76
(lp2749
g69
(g70
g71
NtRp2750
(dp2751
g74
(dp2752
g82
I3
ssg83
g2746
sg76
(lp2753
g1299
asbasbasbag69
(g85
g71
NtRp2754
(dp2755
g74
(dp2756
sg83
g2330
sg76
(lp2757
g69
(g90
g71
NtRp2758
(dp2759
g74
(dp2760
g94
g95
ssg83
g2754
sg76
(lp2761
S'WEB2PY_ORIGINAL_URI'
p2762
asbag69
(g90
g71
NtRp2763
(dp2764
g74
(dp2765
g101
g102
ssg83
g2754
sg76
(lp2766
S':'
asbag69
(g90
g71
NtRp2767
(dp2768
g74
(dp2769
sg83
g2754
sg76
(lp2770
g69
(g70
g71
NtRp2771
(dp2772
g74
(dp2773
g82
I3
ssg83
g2767
sg76
(lp2774
g1083
asbasbasbag69
(g85
g71
NtRp2775
(dp2776
g74
(dp2777
sg83
g2330
sg76
(lp2778
g69
(g90
g71
NtRp2779
(dp2780
g74
(dp2781
g94
g95
ssg83
g2775
sg76
(lp2782
S'wsgi.errors'
p2783
asbag69
(g90
g71
NtRp2784
(dp2785
g74
(dp2786
g101
g102
ssg83
g2775
sg76
(lp2787
S':'
asbag69
(g90
g71
NtRp2788
(dp2789
g74
(dp2790
sg83
g2775
sg76
(lp2791
g69
(g70
g71
NtRp2792
(dp2793
g74
(dp2794
g82
I3
ssg83
g2788
sg76
(lp2795
S"<open file '<stderr>', mode 'w' at 0x7f13cb382270>"
p2796
asbasbasbag69
(g85
g71
NtRp2797
(dp2798
g74
(dp2799
sg83
g2330
sg76
(lp2800
g69
(g90
g71
NtRp2801
(dp2802
g74
(dp2803
g94
g95
ssg83
g2797
sg76
(lp2804
S'wsgi.file_wrapper'
p2805
asbag69
(g90
g71
NtRp2806
(dp2807
g74
(dp2808
g101
g102
ssg83
g2797
sg76
(lp2809
S':'
asbag69
(g90
g71
NtRp2810
(dp2811
g74
(dp2812
sg83
g2797
sg76
(lp2813
g69
(g70
g71
NtRp2814
(dp2815
g74
(dp2816
g82
I3
ssg83
g2810
sg76
(lp2817
S'<class wsgiref.util.FileWrapper at 0x13fff58>'
p2818
asbasbasbag69
(g85
g71
NtRp2819
(dp2820
g74
(dp2821
sg83
g2330
sg76
(lp2822
g69
(g90
g71
NtRp2823
(dp2824
g74
(dp2825
g94
g95
ssg83
g2819
sg76
(lp2826
S'wsgi.input'
p2827
asbag69
(g90
g71
NtRp2828
(dp2829
g74
(dp2830
g101
g102
ssg83
g2819
sg76
(lp2831
S':'
asbag69
(g90
g71
NtRp2832
(dp2833
g74
(dp2834
sg83
g2819
sg76
(lp2835
g69
(g70
g71
NtRp2836
(dp2837
g74
(dp2838
g82
I3
ssg83
g2832
sg76
(lp2839
S'<cStringIO.StringO object at 0x7f139c411730>'
p2840
asbasbasbag69
(g85
g71
NtRp2841
(dp2842
g74
(dp2843
sg83
g2330
sg76
(lp2844
g69
(g90
g71
NtRp2845
(dp2846
g74
(dp2847
g94
g95
ssg83
g2841
sg76
(lp2848
S'wsgi.multiprocess'
p2849
asbag69
(g90
g71
NtRp2850
(dp2851
g74
(dp2852
g101
g102
ssg83
g2841
sg76
(lp2853
S':'
asbag69
(g90
g71
NtRp2854
(dp2855
g74
(dp2856
sg83
g2841
sg76
(lp2857
g69
(g70
g71
NtRp2858
(dp2859
g74
(dp2860
g82
I3
ssg83
g2854
sg76
(lp2861
g112
asbasbasbag69
(g85
g71
NtRp2862
(dp2863
g74
(dp2864
sg83
g2330
sg76
(lp2865
g69
(g90
g71
NtRp2866
(dp2867
g74
(dp2868
g94
g95
ssg83
g2862
sg76
(lp2869
S'wsgi.multithread'
p2870
asbag69
(g90
g71
NtRp2871
(dp2872
g74
(dp2873
g101
g102
ssg83
g2862
sg76
(lp2874
S':'
asbag69
(g90
g71
NtRp2875
(dp2876
g74
(dp2877
sg83
g2862
sg76
(lp2878
g69
(g70
g71
NtRp2879
(dp2880
g74
(dp2881
g82
I3
ssg83
g2875
sg76
(lp2882
g1560
asbasbasbag69
(g85
g71
NtRp2883
(dp2884
g74
(dp2885
sg83
g2330
sg76
(lp2886
g69
(g90
g71
NtRp2887
(dp2888
g74
(dp2889
g94
g95
ssg83
g2883
sg76
(lp2890
S'wsgi.run_once'
p2891
asbag69
(g90
g71
NtRp2892
(dp2893
g74
(dp2894
g101
g102
ssg83
g2883
sg76
(lp2895
S':'
asbag69
(g90
g71
NtRp2896
(dp2897
g74
(dp2898
sg83
g2883
sg76
(lp2899
g69
(g70
g71
NtRp2900
(dp2901
g74
(dp2902
g82
I3
ssg83
g2896
sg76
(lp2903
g112
asbasbasbag69
(g85
g71
NtRp2904
(dp2905
g74
(dp2906
sg83
g2330
sg76
(lp2907
g69
(g90
g71
NtRp2908
(dp2909
g74
(dp2910
g94
g95
ssg83
g2904
sg76
(lp2911
S'wsgi.url_scheme'
p2912
asbag69
(g90
g71
NtRp2913
(dp2914
g74
(dp2915
g101
g102
ssg83
g2904
sg76
(lp2916
S':'
asbag69
(g90
g71
NtRp2917
(dp2918
g74
(dp2919
sg83
g2904
sg76
(lp2920
g69
(g70
g71
NtRp2921
(dp2922
g74
(dp2923
g82
I3
ssg83
g2917
sg76
(lp2924
g1603
asbasbasbag69
(g85
g71
NtRp2925
(dp2926
g74
(dp2927
sg83
g2330
sg76
(lp2928
g69
(g90
g71
NtRp2929
(dp2930
g74
(dp2931
g94
g95
ssg83
g2925
sg76
(lp2932
S'wsgi.version'
p2933
asbag69
(g90
g71
NtRp2934
(dp2935
g74
(dp2936
g101
g102
ssg83
g2925
sg76
(lp2937
S':'
asbag69
(g90
g71
NtRp2938
(dp2939
g74
(dp2940
sg83
g2925
sg76
(lp2941
g69
(g70
g71
NtRp2942
(dp2943
g74
(dp2944
g82
I3
ssg83
g2938
sg76
(lp2945
S'1'
asbasbasbasbasbasbasbasbasbasbasbasbasbsS'frames'
p2946
(lp2947
(dp2948
S'file'
p2949
S'/home/goshawk/web2py/gluon/restricted.py'
p2950
sS'dump'
p2951
(dp2952
S'environment'
p2953
S"{'A': <class 'gluon.html.A'>, 'Auth': <class 'gluon.tools.Auth'>, 'B': <class 'gluon.html.B'>, 'BEAUTIFY': <class 'gluon.html.BEAUTIFY'>, 'BODY': <class 'gluon.html.BODY'>, 'BR': <class 'gluon.html.BR'>, 'BUTTON': <class 'gluon.html.BUTTON'>, 'CAT': <class 'gluon.html.CAT'>, 'CENTER': <class 'gluon.html.CENTER'>, 'CLEANUP': <class 'gluon.validators.CLEANUP'>, ...}"
p2954
sS'ccode'
p2955
S'<code object <module> at 0x7f13ac42a430, file "/.../web2py/applications/milo/models/db.py", line 12>'
p2956
ssS'lnum'
p2957
I205
sS'lines'
p2958
(dp2959
I200
S'    try:'
p2960
sI201
S'        if type(code) == types.CodeType:'
p2961
sI202
S'            ccode = code'
p2962
sI203
S'        else:'
p2963
sI204
S'            ccode = compile2(code,layer)'
p2964
sI205
S'        exec ccode in environment'
p2965
sI206
S'    except HTTP:'
p2966
sI207
S'        raise'
p2967
sI208
S'    except RestrictedError:'
p2968
sI209
S'        # do not encapsulate (obfuscate) the original RestrictedError'
p2969
ssS'call'
p2970
S'(code="# -*- coding: utf-8 -*-\\n\\n#######################...t)),\\n        Field(\'times\', \'integer\')\\n        )\\n", environment={\'A\': <class \'gluon.html.A\'>, \'Auth\': <class \'gluon.tools.Auth\'>, \'B\': <class \'gluon.html.B\'>, \'BEAUTIFY\': <class \'gluon.html.BEAUTIFY\'>, \'BODY\': <class \'gluon.html.BODY\'>, \'BR\': <class \'gluon.html.BR\'>, \'BUTTON\': <class \'gluon.html.BUTTON\'>, \'CAT\': <class \'gluon.html.CAT\'>, \'CENTER\': <class \'gluon.html.CENTER\'>, \'CLEANUP\': <class \'gluon.validators.CLEANUP\'>, ...}, layer=\'/home/goshawk/web2py/applications/milo/models/db.py\')'
p2971
sS'func'
p2972
S'restricted'
p2973
sa(dp2974
g2949
S'/home/goshawk/web2py/applications/milo/models/db.py'
p2975
sg2951
(dp2976
S'db.users'
p2977
S"<Table {'ALL': <gluon.dal.SQLALL object at 0x7f1...id': <gluon.dal.Field object at 0x7f13948eef10>}>"
p2978
sS'db.movies'
p2979
S"<Table {'ALL': <gluon.dal.SQLALL object at 0x7f1...id': <gluon.dal.Field object at 0x7f13948d2fd0>}>"
p2980
sS'db'
p2981
S"<DAL {'auth_event': <Table {'origin': <gluon.dal...': <gluon.dal.Field object at 0x7f13948ef410>}>}>"
p2982
sS'primarykey'
p2983
S'undefined'
p2984
ssg2957
I103
sg2958
(dp2985
I98
S''
sI99
S"db.define_table('ratings',"
p2986
sI100
S"        Field('iuser', db.users, requires = IS_IN_DB(db,'users.id',db.users._format)),"
p2987
sI101
S"        Field('imovie', db.movies, requires = IS_IN_DB(db,'movies.id',db.movies._format)),"
p2988
sI102
S"        Field('rating', 'double'),"
p2989
sI103
S'        primarykey=[db.users, db.movies],'
p2990
sI104
S'        )'
p2991
sI105
S''
sI106
S''
sI107
S"db.define_table('features',"
p2992
ssg2970
S'()'
p2993
sg2972
S'<module>'
p2994
sa(dp2995
g2949
S'/home/goshawk/web2py/gluon/dal.py'
p2996
sg2951
(dp2997
S'common_filter'
p2998
S'None'
p2999
ssg2957
I6307
sg2958
(dp3000
I6304
S'                                          **dict(primarykey=primarykey,'
p3001
sI6305
S'                                                 trigger_name=trigger_name,'
p3002
sI6306
S'                                                 sequence_name=sequence_name,'
p3003
sI6307
S'                                                 common_filter=common_filter))'
p3004
sI6308
S''
sI6309
S'        # db magic'
p3005
sI6310
S"        if self._uri in (None,'None'):"
p3006
sI6311
S'            return t'
p3007
sI6302
S''
sI6303
S'        t = self[tablename] = table_class(self, tablename, *fields,'
p3008
ssg2970
S"(self=<DAL {'auth_event': <Table {'origin': <gluon.dal...': <gluon.dal.Field object at 0x7f13948ef410>}>}>, tablename='ratings', *fields=(<gluon.dal.Field object>, <gluon.dal.Field object>, <gluon.dal.Field object>), **args={'primarykey': [<Table {'ALL': <gluon.dal.SQLALL object at 0x7f1...id': <gluon.dal.Field object at 0x7f13948eef10>}>, <Table {'ALL': <gluon.dal.SQLALL object at 0x7f1...id': <gluon.dal.Field object at 0x7f13948d2fd0>}>]})"
p3009
sg2972
S'define_table'
p3010
sa(dp3011
g2949
S'/home/goshawk/web2py/gluon/dal.py'
p3012
sg2951
(dp3013
S'tablename'
p3014
S"'ratings'"
p3015
ssg2957
I6635
sg2958
(dp3016
I6630
S''
sI6631
S"        if hasattr(self,'_primarykey'):"
p3017
sI6632
S'            for k in self._primarykey:'
p3018
sI6633
S'                if k not in self.fields:'
p3019
sI6634
S'                    raise SyntaxError, \\'
p3020
sI6635
S'                        "primarykey must be a list of fields from table \'%s " % tablename'
p3021
sI6636
S'                else:'
p3022
sI6637
S'                    self[k].notnull = True'
p3023
sI6638
S''
sI6639
S'    @property'
p3024
ssg2970
S"(self=<Table {'rating': <gluon.dal.Field object at 0x7...er': <gluon.dal.Field object at 0x7f13948d2b50>}>, db=<DAL {'auth_event': <Table {'origin': <gluon.dal...': <gluon.dal.Field object at 0x7f13948ef410>}>}>, tablename='ratings', *fields=[<gluon.dal.Field object>, <gluon.dal.Field object>, <gluon.dal.Field object>], **args={'common_filter': None, 'primarykey': [<Table {'ALL': <gluon.dal.SQLALL object at 0x7f1...id': <gluon.dal.Field object at 0x7f13948eef10>}>, <Table {'ALL': <gluon.dal.SQLALL object at 0x7f1...id': <gluon.dal.Field object at 0x7f13948d2fd0>}>], 'sequence_name': None, 'trigger_name': None})"
p3025
sg2972
g24
sasS'pyver'
p3026
S'Python 2.7.3: /usr/bin/python'
p3027
sS'session'
p3028
g69
(g70
g71
NtRp3029
(dp3030
g74
(dp3031
sg76
(lp3032
g69
(g78
g71
NtRp3033
(dp3034
g74
(dp3035
g82
I5
ssg83
Nsg76
(lp3036
g69
(g85
g71
NtRp3037
(dp3038
g74
(dp3039
sg83
g3033
sg76
(lp3040
g69
(g90
g71
NtRp3041
(dp3042
g74
(dp3043
g94
g95
ssg83
g3037
sg76
(lp3044
S'last_query'
p3045
asbag69
(g90
g71
NtRp3046
(dp3047
g74
(dp3048
g101
g102
ssg83
g3037
sg76
(lp3049
S':'
asbag69
(g90
g71
NtRp3050
(dp3051
g74
(dp3052
sg83
g3037
sg76
(lp3053
g69
(g70
g71
NtRp3054
(dp3055
g74
(dp3056
g82
I5
ssg83
g3050
sg76
(lp3057
S'(db.ratings.id>0)&(db.ratings.iuser==4)&(db.ratings.imovie==4505)'
p3058
asbasbasbasbasbsS'etype'
p3059
S"<type 'exceptions.SyntaxError'>"
p3060
sS'date'
p3061
S'Mon Jul  9 01:24:17 2012'
p3062
sS'response'
p3063
g69
(g70
g71
NtRp3064
(dp3065
g74
(dp3066
sg76
(lp3067
g69
(g78
g71
NtRp3068
(dp3069
g74
(dp3070
g82
I5
ssg83
Nsg76
(lp3071
g69
(g85
g71
NtRp3072
(dp3073
g74
(dp3074
sg83
g3068
sg76
(lp3075
g69
(g90
g71
NtRp3076
(dp3077
g74
(dp3078
g94
g95
ssg83
g3072
sg76
(lp3079
g180
asbag69
(g90
g71
NtRp3080
(dp3081
g74
(dp3082
g101
g102
ssg83
g3072
sg76
(lp3083
S':'
asbag69
(g90
g71
NtRp3084
(dp3085
g74
(dp3086
sg83
g3072
sg76
(lp3087
g69
(g70
g71
NtRp3088
(dp3089
g74
(dp3090
g82
I5
ssg83
g3084
sg76
(lp3091
S'<cStringIO.StringO object at 0x7f13943aae68>'
p3092
asbasbasbag69
(g85
g71
NtRp3093
(dp3094
g74
(dp3095
sg83
g3068
sg76
(lp3096
g69
(g90
g71
NtRp3097
(dp3098
g74
(dp3099
g94
g95
ssg83
g3093
sg76
(lp3100
g246
asbag69
(g90
g71
NtRp3101
(dp3102
g74
(dp3103
g101
g102
ssg83
g3093
sg76
(lp3104
S':'
asbag69
(g90
g71
NtRp3105
(dp3106
g74
(dp3107
sg83
g3093
sg76
(lp3108
g69
(g70
g71
NtRp3109
(dp3110
g74
(dp3111
g82
I5
ssg83
g3105
sg76
(lp3112
g69
(g78
g71
NtRp3113
(dp3114
g74
(dp3115
g82
I4
ssg83
Nsg76
(lp3116
g69
(g85
g71
NtRp3117
(dp3118
g74
(dp3119
sg83
g3113
sg76
(lp3120
g69
(g90
g71
NtRp3121
(dp3122
g74
(dp3123
g94
g95
ssg83
g3117
sg76
(lp3124
S'session_id_milo'
p3125
asbag69
(g90
g71
NtRp3126
(dp3127
g74
(dp3128
g101
g102
ssg83
g3117
sg76
(lp3129
S':'
asbag69
(g90
g71
NtRp3130
(dp3131
g74
(dp3132
sg83
g3117
sg76
(lp3133
g69
(g70
g71
NtRp3134
(dp3135
g74
(dp3136
g82
I4
ssg83
g3130
sg76
(lp3137
g69
(g78
g71
NtRp3138
(dp3139
g74
(dp3140
g82
I3
ssg83
Nsg76
(lp3141
g69
(g85
g71
NtRp3142
(dp3143
g74
(dp3144
sg83
g3138
sg76
(lp3145
g69
(g90
g71
NtRp3146
(dp3147
g74
(dp3148
g94
g95
ssg83
g3142
sg76
(lp3149
g296
asbag69
(g90
g71
NtRp3150
(dp3151
g74
(dp3152
g101
g102
ssg83
g3142
sg76
(lp3153
S':'
asbag69
(g90
g71
NtRp3154
(dp3155
g74
(dp3156
sg83
g3142
sg76
(lp3157
g69
(g70
g71
NtRp3158
(dp3159
g74
(dp3160
g82
I3
ssg83
g3154
sg76
(lp3161
S''
asbasbasbag69
(g85
g71
NtRp3162
(dp3163
g74
(dp3164
sg83
g3138
sg76
(lp3165
g69
(g90
g71
NtRp3166
(dp3167
g74
(dp3168
g94
g95
ssg83
g3162
sg76
(lp3169
g317
asbag69
(g90
g71
NtRp3170
(dp3171
g74
(dp3172
g101
g102
ssg83
g3162
sg76
(lp3173
S':'
asbag69
(g90
g71
NtRp3174
(dp3175
g74
(dp3176
sg83
g3162
sg76
(lp3177
g69
(g70
g71
NtRp3178
(dp3179
g74
(dp3180
g82
I3
ssg83
g3174
sg76
(lp3181
S''
asbasbasbag69
(g85
g71
NtRp3182
(dp3183
g74
(dp3184
sg83
g3138
sg76
(lp3185
g69
(g90
g71
NtRp3186
(dp3187
g74
(dp3188
g94
g95
ssg83
g3182
sg76
(lp3189
g338
asbag69
(g90
g71
NtRp3190
(dp3191
g74
(dp3192
g101
g102
ssg83
g3182
sg76
(lp3193
S':'
asbag69
(g90
g71
NtRp3194
(dp3195
g74
(dp3196
sg83
g3182
sg76
(lp3197
g69
(g70
g71
NtRp3198
(dp3199
g74
(dp3200
g82
I3
ssg83
g3194
sg76
(lp3201
S''
asbasbasbag69
(g85
g71
NtRp3202
(dp3203
g74
(dp3204
sg83
g3138
sg76
(lp3205
g69
(g90
g71
NtRp3206
(dp3207
g74
(dp3208
g94
g95
ssg83
g3202
sg76
(lp3209
g359
asbag69
(g90
g71
NtRp3210
(dp3211
g74
(dp3212
g101
g102
ssg83
g3202
sg76
(lp3213
S':'
asbag69
(g90
g71
NtRp3214
(dp3215
g74
(dp3216
sg83
g3202
sg76
(lp3217
g69
(g70
g71
NtRp3218
(dp3219
g74
(dp3220
g82
I3
ssg83
g3214
sg76
(lp3221
S''
asbasbasbag69
(g85
g71
NtRp3222
(dp3223
g74
(dp3224
sg83
g3138
sg76
(lp3225
g69
(g90
g71
NtRp3226
(dp3227
g74
(dp3228
g94
g95
ssg83
g3222
sg76
(lp3229
g380
asbag69
(g90
g71
NtRp3230
(dp3231
g74
(dp3232
g101
g102
ssg83
g3222
sg76
(lp3233
S':'
asbag69
(g90
g71
NtRp3234
(dp3235
g74
(dp3236
sg83
g3222
sg76
(lp3237
g69
(g70
g71
NtRp3238
(dp3239
g74
(dp3240
g82
I3
ssg83
g3234
sg76
(lp3241
S''
asbasbasbag69
(g85
g71
NtRp3242
(dp3243
g74
(dp3244
sg83
g3138
sg76
(lp3245
g69
(g90
g71
NtRp3246
(dp3247
g74
(dp3248
g94
g95
ssg83
g3242
sg76
(lp3249
g401
asbag69
(g90
g71
NtRp3250
(dp3251
g74
(dp3252
g101
g102
ssg83
g3242
sg76
(lp3253
S':'
asbag69
(g90
g71
NtRp3254
(dp3255
g74
(dp3256
sg83
g3242
sg76
(lp3257
g69
(g70
g71
NtRp3258
(dp3259
g74
(dp3260
g82
I3
ssg83
g3254
sg76
(lp3261
S'/'
asbasbasbag69
(g85
g71
NtRp3262
(dp3263
g74
(dp3264
sg83
g3138
sg76
(lp3265
g69
(g90
g71
NtRp3266
(dp3267
g74
(dp3268
g94
g95
ssg83
g3262
sg76
(lp3269
g422
asbag69
(g90
g71
NtRp3270
(dp3271
g74
(dp3272
g101
g102
ssg83
g3262
sg76
(lp3273
S':'
asbag69
(g90
g71
NtRp3274
(dp3275
g74
(dp3276
sg83
g3262
sg76
(lp3277
g69
(g70
g71
NtRp3278
(dp3279
g74
(dp3280
g82
I3
ssg83
g3274
sg76
(lp3281
S''
asbasbasbag69
(g85
g71
NtRp3282
(dp3283
g74
(dp3284
sg83
g3138
sg76
(lp3285
g69
(g90
g71
NtRp3286
(dp3287
g74
(dp3288
g94
g95
ssg83
g3282
sg76
(lp3289
g443
asbag69
(g90
g71
NtRp3290
(dp3291
g74
(dp3292
g101
g102
ssg83
g3282
sg76
(lp3293
S':'
asbag69
(g90
g71
NtRp3294
(dp3295
g74
(dp3296
sg83
g3282
sg76
(lp3297
g69
(g70
g71
NtRp3298
(dp3299
g74
(dp3300
g82
I3
ssg83
g3294
sg76
(lp3301
S''
asbasbasbasbasbasbasbasbasbasbasbag69
(g85
g71
NtRp3302
(dp3303
g74
(dp3304
sg83
g3068
sg76
(lp3305
g69
(g90
g71
NtRp3306
(dp3307
g74
(dp3308
g94
g95
ssg83
g3302
sg76
(lp3309
S'delimiters'
p3310
asbag69
(g90
g71
NtRp3311
(dp3312
g74
(dp3313
g101
g102
ssg83
g3302
sg76
(lp3314
S':'
asbag69
(g90
g71
NtRp3315
(dp3316
g74
(dp3317
sg83
g3302
sg76
(lp3318
g69
(g70
g71
NtRp3319
(dp3320
g74
(dp3321
g82
I5
ssg83
g3315
sg76
(lp3322
g69
(g78
g71
NtRp3323
(dp3324
g74
(dp3325
g82
I4
ssg83
Nsg76
(lp3326
g69
(g85
g71
NtRp3327
(dp3328
g74
(dp3329
sg83
g3323
sg76
(lp3330
g69
(g90
g71
NtRp3331
(dp3332
g74
(dp3333
sg83
g3327
sg76
(lp3334
g69
(g70
g71
NtRp3335
(dp3336
g74
(dp3337
g82
I4
ssg83
g3331
sg76
(lp3338
S'{{'
p3339
asbasbasbag69
(g85
g71
NtRp3340
(dp3341
g74
(dp3342
sg83
g3323
sg76
(lp3343
g69
(g90
g71
NtRp3344
(dp3345
g74
(dp3346
sg83
g3340
sg76
(lp3347
g69
(g70
g71
NtRp3348
(dp3349
g74
(dp3350
g82
I4
ssg83
g3344
sg76
(lp3351
S'}}'
p3352
asbasbasbasbasbasbasbag69
(g85
g71
NtRp3353
(dp3354
g74
(dp3355
sg83
g3068
sg76
(lp3356
g69
(g90
g71
NtRp3357
(dp3358
g74
(dp3359
g94
g95
ssg83
g3353
sg76
(lp3360
S'files'
p3361
asbag69
(g90
g71
NtRp3362
(dp3363
g74
(dp3364
g101
g102
ssg83
g3353
sg76
(lp3365
S':'
asbag69
(g90
g71
NtRp3366
(dp3367
g74
(dp3368
sg83
g3353
sg76
(lp3369
g69
(g70
g71
NtRp3370
(dp3371
g74
(dp3372
g82
I5
ssg83
g3366
sg76
(lp3373
g69
(g78
g71
NtRp3374
(dp3375
g74
(dp3376
g82
I4
ssg83
Nsg76
(lp3377
sbasbasbasbag69
(g85
g71
NtRp3378
(dp3379
g74
(dp3380
sg83
g3068
sg76
(lp3381
g69
(g90
g71
NtRp3382
(dp3383
g74
(dp3384
g94
g95
ssg83
g3378
sg76
(lp3385
S'flash'
p3386
asbag69
(g90
g71
NtRp3387
(dp3388
g74
(dp3389
g101
g102
ssg83
g3378
sg76
(lp3390
S':'
asbag69
(g90
g71
NtRp3391
(dp3392
g74
(dp3393
sg83
g3378
sg76
(lp3394
g69
(g70
g71
NtRp3395
(dp3396
g74
(dp3397
g82
I5
ssg83
g3391
sg76
(lp3398
S''
asbasbasbag69
(g85
g71
NtRp3399
(dp3400
g74
(dp3401
sg83
g3068
sg76
(lp3402
g69
(g90
g71
NtRp3403
(dp3404
g74
(dp3405
g94
g95
ssg83
g3399
sg76
(lp3406
S'generic_patterns'
p3407
asbag69
(g90
g71
NtRp3408
(dp3409
g74
(dp3410
g101
g102
ssg83
g3399
sg76
(lp3411
S':'
asbag69
(g90
g71
NtRp3412
(dp3413
g74
(dp3414
sg83
g3399
sg76
(lp3415
g69
(g70
g71
NtRp3416
(dp3417
g74
(dp3418
g82
I5
ssg83
g3412
sg76
(lp3419
g69
(g78
g71
NtRp3420
(dp3421
g74
(dp3422
g82
I4
ssg83
Nsg76
(lp3423
g69
(g85
g71
NtRp3424
(dp3425
g74
(dp3426
sg83
g3420
sg76
(lp3427
g69
(g90
g71
NtRp3428
(dp3429
g74
(dp3430
sg83
g3424
sg76
(lp3431
g69
(g70
g71
NtRp3432
(dp3433
g74
(dp3434
g82
I4
ssg83
g3428
sg76
(lp3435
S'*'
asbasbasbasbasbasbasbag69
(g85
g71
NtRp3436
(dp3437
g74
(dp3438
sg83
g3068
sg76
(lp3439
g69
(g90
g71
NtRp3440
(dp3441
g74
(dp3442
g94
g95
ssg83
g3436
sg76
(lp3443
S'headers'
p3444
asbag69
(g90
g71
NtRp3445
(dp3446
g74
(dp3447
g101
g102
ssg83
g3436
sg76
(lp3448
S':'
asbag69
(g90
g71
NtRp3449
(dp3450
g74
(dp3451
sg83
g3436
sg76
(lp3452
g69
(g70
g71
NtRp3453
(dp3454
g74
(dp3455
g82
I5
ssg83
g3449
sg76
(lp3456
g69
(g78
g71
NtRp3457
(dp3458
g74
(dp3459
g82
I4
ssg83
Nsg76
(lp3460
g69
(g85
g71
NtRp3461
(dp3462
g74
(dp3463
sg83
g3457
sg76
(lp3464
g69
(g90
g71
NtRp3465
(dp3466
g74
(dp3467
g94
g95
ssg83
g3461
sg76
(lp3468
S'Cache-Control'
p3469
asbag69
(g90
g71
NtRp3470
(dp3471
g74
(dp3472
g101
g102
ssg83
g3461
sg76
(lp3473
S':'
asbag69
(g90
g71
NtRp3474
(dp3475
g74
(dp3476
sg83
g3461
sg76
(lp3477
g69
(g70
g71
NtRp3478
(dp3479
g74
(dp3480
g82
I4
ssg83
g3474
sg76
(lp3481
S'no-store, no-cache, must-revalidate, post-check=0, pre-check=0'
p3482
asbasbasbag69
(g85
g71
NtRp3483
(dp3484
g74
(dp3485
sg83
g3457
sg76
(lp3486
g69
(g90
g71
NtRp3487
(dp3488
g74
(dp3489
g94
g95
ssg83
g3483
sg76
(lp3490
S'Content-Type'
p3491
asbag69
(g90
g71
NtRp3492
(dp3493
g74
(dp3494
g101
g102
ssg83
g3483
sg76
(lp3495
S':'
asbag69
(g90
g71
NtRp3496
(dp3497
g74
(dp3498
sg83
g3483
sg76
(lp3499
g69
(g70
g71
NtRp3500
(dp3501
g74
(dp3502
g82
I4
ssg83
g3496
sg76
(lp3503
S'text/html; charset=utf-8'
p3504
asbasbasbag69
(g85
g71
NtRp3505
(dp3506
g74
(dp3507
sg83
g3457
sg76
(lp3508
g69
(g90
g71
NtRp3509
(dp3510
g74
(dp3511
g94
g95
ssg83
g3505
sg76
(lp3512
S'Expires'
p3513
asbag69
(g90
g71
NtRp3514
(dp3515
g74
(dp3516
g101
g102
ssg83
g3505
sg76
(lp3517
S':'
asbag69
(g90
g71
NtRp3518
(dp3519
g74
(dp3520
sg83
g3505
sg76
(lp3521
g69
(g70
g71
NtRp3522
(dp3523
g74
(dp3524
g82
I4
ssg83
g3518
sg76
(lp3525
S'Sun, 08 Jul 2012 23:24:17 GMT'
p3526
asbasbasbag69
(g85
g71
NtRp3527
(dp3528
g74
(dp3529
sg83
g3457
sg76
(lp3530
g69
(g90
g71
NtRp3531
(dp3532
g74
(dp3533
g94
g95
ssg83
g3527
sg76
(lp3534
S'Pragma'
p3535
asbag69
(g90
g71
NtRp3536
(dp3537
g74
(dp3538
g101
g102
ssg83
g3527
sg76
(lp3539
S':'
asbag69
(g90
g71
NtRp3540
(dp3541
g74
(dp3542
sg83
g3527
sg76
(lp3543
g69
(g70
g71
NtRp3544
(dp3545
g74
(dp3546
g82
I4
ssg83
g3540
sg76
(lp3547
S'no-cache'
p3548
asbasbasbag69
(g85
g71
NtRp3549
(dp3550
g74
(dp3551
sg83
g3457
sg76
(lp3552
g69
(g90
g71
NtRp3553
(dp3554
g74
(dp3555
g94
g95
ssg83
g3549
sg76
(lp3556
S'X-Powered-By'
p3557
asbag69
(g90
g71
NtRp3558
(dp3559
g74
(dp3560
g101
g102
ssg83
g3549
sg76
(lp3561
S':'
asbag69
(g90
g71
NtRp3562
(dp3563
g74
(dp3564
sg83
g3549
sg76
(lp3565
g69
(g70
g71
NtRp3566
(dp3567
g74
(dp3568
g82
I4
ssg83
g3562
sg76
(lp3569
S'web2py'
p3570
asbasbasbasbasbasbasbag69
(g85
g71
NtRp3571
(dp3572
g74
(dp3573
sg83
g3068
sg76
(lp3574
g69
(g90
g71
NtRp3575
(dp3576
g74
(dp3577
g94
g95
ssg83
g3571
sg76
(lp3578
S'menu'
p3579
asbag69
(g90
g71
NtRp3580
(dp3581
g74
(dp3582
g101
g102
ssg83
g3571
sg76
(lp3583
S':'
asbag69
(g90
g71
NtRp3584
(dp3585
g74
(dp3586
sg83
g3571
sg76
(lp3587
g69
(g70
g71
NtRp3588
(dp3589
g74
(dp3590
g82
I5
ssg83
g3584
sg76
(lp3591
g69
(g78
g71
NtRp3592
(dp3593
g74
(dp3594
g82
I4
ssg83
Nsg76
(lp3595
sbasbasbasbag69
(g85
g71
NtRp3596
(dp3597
g74
(dp3598
sg83
g3068
sg76
(lp3599
g69
(g90
g71
NtRp3600
(dp3601
g74
(dp3602
g94
g95
ssg83
g3596
sg76
(lp3603
S'meta'
p3604
asbag69
(g90
g71
NtRp3605
(dp3606
g74
(dp3607
g101
g102
ssg83
g3596
sg76
(lp3608
S':'
asbag69
(g90
g71
NtRp3609
(dp3610
g74
(dp3611
sg83
g3596
sg76
(lp3612
g69
(g70
g71
NtRp3613
(dp3614
g74
(dp3615
g82
I5
ssg83
g3609
sg76
(lp3616
g69
(g78
g71
NtRp3617
(dp3618
g74
(dp3619
g82
I4
ssg83
Nsg76
(lp3620
sbasbasbasbag69
(g85
g71
NtRp3621
(dp3622
g74
(dp3623
sg83
g3068
sg76
(lp3624
g69
(g90
g71
NtRp3625
(dp3626
g74
(dp3627
g94
g95
ssg83
g3621
sg76
(lp3628
S'postprocessing'
p3629
asbag69
(g90
g71
NtRp3630
(dp3631
g74
(dp3632
g101
g102
ssg83
g3621
sg76
(lp3633
S':'
asbag69
(g90
g71
NtRp3634
(dp3635
g74
(dp3636
sg83
g3621
sg76
(lp3637
g69
(g70
g71
NtRp3638
(dp3639
g74
(dp3640
g82
I5
ssg83
g3634
sg76
(lp3641
g69
(g78
g71
NtRp3642
(dp3643
g74
(dp3644
g82
I4
ssg83
Nsg76
(lp3645
sbasbasbasbag69
(g85
g71
NtRp3646
(dp3647
g74
(dp3648
sg83
g3068
sg76
(lp3649
g69
(g90
g71
NtRp3650
(dp3651
g74
(dp3652
g94
g95
ssg83
g3646
sg76
(lp3653
S'session_file'
p3654
asbag69
(g90
g71
NtRp3655
(dp3656
g74
(dp3657
g101
g102
ssg83
g3646
sg76
(lp3658
S':'
asbag69
(g90
g71
NtRp3659
(dp3660
g74
(dp3661
sg83
g3646
sg76
(lp3662
g69
(g70
g71
NtRp3663
(dp3664
g74
(dp3665
g82
I5
ssg83
g3659
sg76
(lp3666
S"<open file '/home/goshawk/web2py/applications/milo/sessions/127.0.0.1-19614cfd-e191-4bce-bf28-2da4d735c3fb', mode 'rb+' at 0x7f13b05ded20>"
p3667
asbasbasbag69
(g85
g71
NtRp3668
(dp3669
g74
(dp3670
sg83
g3068
sg76
(lp3671
g69
(g90
g71
NtRp3672
(dp3673
g74
(dp3674
g94
g95
ssg83
g3668
sg76
(lp3675
S'session_filename'
p3676
asbag69
(g90
g71
NtRp3677
(dp3678
g74
(dp3679
g101
g102
ssg83
g3668
sg76
(lp3680
S':'
asbag69
(g90
g71
NtRp3681
(dp3682
g74
(dp3683
sg83
g3668
sg76
(lp3684
g69
(g70
g71
NtRp3685
(dp3686
g74
(dp3687
g82
I5
ssg83
g3681
sg76
(lp3688
S'/home/goshawk/web2py/applications/milo/sessions/127.0.0.1-19614cfd-e191-4bce-bf28-2da4d735c3fb'
p3689
asbasbasbag69
(g85
g71
NtRp3690
(dp3691
g74
(dp3692
sg83
g3068
sg76
(lp3693
g69
(g90
g71
NtRp3694
(dp3695
g74
(dp3696
g94
g95
ssg83
g3690
sg76
(lp3697
S'session_id'
p3698
asbag69
(g90
g71
NtRp3699
(dp3700
g74
(dp3701
g101
g102
ssg83
g3690
sg76
(lp3702
S':'
asbag69
(g90
g71
NtRp3703
(dp3704
g74
(dp3705
sg83
g3690
sg76
(lp3706
g69
(g70
g71
NtRp3707
(dp3708
g74
(dp3709
g82
I5
ssg83
g3703
sg76
(lp3710
S'127.0.0.1-19614cfd-e191-4bce-bf28-2da4d735c3fb'
p3711
asbasbasbag69
(g85
g71
NtRp3712
(dp3713
g74
(dp3714
sg83
g3068
sg76
(lp3715
g69
(g90
g71
NtRp3716
(dp3717
g74
(dp3718
g94
g95
ssg83
g3712
sg76
(lp3719
S'session_id_name'
p3720
asbag69
(g90
g71
NtRp3721
(dp3722
g74
(dp3723
g101
g102
ssg83
g3712
sg76
(lp3724
S':'
asbag69
(g90
g71
NtRp3725
(dp3726
g74
(dp3727
sg83
g3712
sg76
(lp3728
g69
(g70
g71
NtRp3729
(dp3730
g74
(dp3731
g82
I5
ssg83
g3725
sg76
(lp3732
g3125
asbasbasbag69
(g85
g71
NtRp3733
(dp3734
g74
(dp3735
sg83
g3068
sg76
(lp3736
g69
(g90
g71
NtRp3737
(dp3738
g74
(dp3739
g94
g95
ssg83
g3733
sg76
(lp3740
S'session_locked'
p3741
asbag69
(g90
g71
NtRp3742
(dp3743
g74
(dp3744
g101
g102
ssg83
g3733
sg76
(lp3745
S':'
asbag69
(g90
g71
NtRp3746
(dp3747
g74
(dp3748
sg83
g3733
sg76
(lp3749
g69
(g70
g71
NtRp3750
(dp3751
g74
(dp3752
g82
I5
ssg83
g3746
sg76
(lp3753
g1560
asbasbasbag69
(g85
g71
NtRp3754
(dp3755
g74
(dp3756
sg83
g3068
sg76
(lp3757
g69
(g90
g71
NtRp3758
(dp3759
g74
(dp3760
g94
g95
ssg83
g3754
sg76
(lp3761
S'session_new'
p3762
asbag69
(g90
g71
NtRp3763
(dp3764
g74
(dp3765
g101
g102
ssg83
g3754
sg76
(lp3766
S':'
asbag69
(g90
g71
NtRp3767
(dp3768
g74
(dp3769
sg83
g3754
sg76
(lp3770
g69
(g70
g71
NtRp3771
(dp3772
g74
(dp3773
g82
I5
ssg83
g3767
sg76
(lp3774
g112
asbasbasbag69
(g85
g71
NtRp3775
(dp3776
g74
(dp3777
sg83
g3068
sg76
(lp3778
g69
(g90
g71
NtRp3779
(dp3780
g74
(dp3781
g94
g95
ssg83
g3775
sg76
(lp3782
S'status'
p3783
asbag69
(g90
g71
NtRp3784
(dp3785
g74
(dp3786
g101
g102
ssg83
g3775
sg76
(lp3787
S':'
asbag69
(g90
g71
NtRp3788
(dp3789
g74
(dp3790
sg83
g3775
sg76
(lp3791
g69
(g70
g71
NtRp3792
(dp3793
g74
(dp3794
g82
I5
ssg83
g3788
sg76
(lp3795
S'200'
p3796
asbasbasbag69
(g85
g71
NtRp3797
(dp3798
g74
(dp3799
sg83
g3068
sg76
(lp3800
g69
(g90
g71
NtRp3801
(dp3802
g74
(dp3803
g94
g95
ssg83
g3797
sg76
(lp3804
g2245
asbag69
(g90
g71
NtRp3805
(dp3806
g74
(dp3807
g101
g102
ssg83
g3797
sg76
(lp3808
S':'
asbag69
(g90
g71
NtRp3809
(dp3810
g74
(dp3811
sg83
g3797
sg76
(lp3812
g69
(g70
g71
NtRp3813
(dp3814
g74
(dp3815
g82
I5
ssg83
g3809
sg76
(lp3816
g2258
asbasbasbag69
(g85
g71
NtRp3817
(dp3818
g74
(dp3819
sg83
g3068
sg76
(lp3820
g69
(g90
g71
NtRp3821
(dp3822
g74
(dp3823
g94
g95
ssg83
g3817
sg76
(lp3824
S'view'
p3825
asbag69
(g90
g71
NtRp3826
(dp3827
g74
(dp3828
g101
g102
ssg83
g3817
sg76
(lp3829
S':'
asbag69
(g90
g71
NtRp3830
(dp3831
g74
(dp3832
sg83
g3817
sg76
(lp3833
g69
(g70
g71
NtRp3834
(dp3835
g74
(dp3836
g82
I5
ssg83
g3830
sg76
(lp3837
S'appadmin/select.html'
p3838
asbasbasbasbasbsS'locals'
p3839
(dp3840
S'lower_fieldnames'
p3841
S"set(['imovie', 'iuser', 'rating'])"
p3842
sS'reserved'
p3843
S"['__call__', '__class__', '__cmp__', '__contains__', '__delattr__', '__delitem__', '__dict__', '__doc__', '__eq__', '__format__', '__ge__', '__getattr__', '__getattribute__', '__getitem__', '__gt__', '__hash__', '__init__', '__iter__', '__le__', '__len__', ...]"
p3844
sS'fields'
p3845
S'[<gluon.dal.Field object>, <gluon.dal.Field object>, <gluon.dal.Field object>]'
p3846
sS'k'
S"<Table {'ALL': <gluon.dal.SQLALL object at 0x7f1...id': <gluon.dal.Field object at 0x7f13948eef10>}>"
p3847
sg52
S"{'common_filter': None, 'primarykey': [<Table {'ALL': <gluon.dal.SQLALL object at 0x7f1...id': <gluon.dal.Field object at 0x7f13948eef10>}>, <Table {'ALL': <gluon.dal.SQLALL object at 0x7f1...id': <gluon.dal.Field object at 0x7f13948d2fd0>}>], 'sequence_name': None, 'trigger_name': None}"
p3848
sS'tablename'
p3849
S"'ratings'"
p3850
sS'fieldnames'
p3851
S"set(['imovie', 'iuser', 'rating'])"
p3852
sS'primarykey'
p3853
S"[<Table {'ALL': <gluon.dal.SQLALL object at 0x7f1...id': <gluon.dal.Field object at 0x7f13948eef10>}>, <Table {'ALL': <gluon.dal.SQLALL object at 0x7f1...id': <gluon.dal.Field object at 0x7f13948d2fd0>}>]"
p3854
sS'newfields'
p3855
S'[<gluon.dal.Field object>, <gluon.dal.Field object>, <gluon.dal.Field object>]'
p3856
sS'field'
p3857
S'<gluon.dal.Field object>'
p3858
sS'db'
p3859
S"<DAL {'auth_event': <Table {'origin': <gluon.dal...': <gluon.dal.Field object at 0x7f13948ef410>}>}>"
p3860
sS'self'
p3861
S"<Table {'rating': <gluon.dal.Field object at 0x7...er': <gluon.dal.Field object at 0x7f13948d2b50>}>"
p3862
sssS'traceback'
p3863
S'Traceback (most recent call last):\n  File "/home/goshawk/web2py/gluon/restricted.py", line 205, in restricted\n    exec ccode in environment\n  File "/home/goshawk/web2py/applications/milo/models/db.py", line 103, in <module>\n    primarykey=[db.users, db.movies],\n  File "/home/goshawk/web2py/gluon/dal.py", line 6307, in define_table\n    common_filter=common_filter))\n  File "/home/goshawk/web2py/gluon/dal.py", line 6635, in __init__\n    "primarykey must be a list of fields from table \'%s " % tablename\nSyntaxError: primarykey must be a list of fields from table \'ratings \n'
p3864
s.