(dp1
S'output'
p2
S"<type 'exceptions.NameError'> name 'matrices' is not defined"
p3
sS'layer'
p4
S'/home/goshawk/web2py/applications/milo/views/admin/index.html'
p5
sS'code'
p6
S'response.write(\'<!DOCTYPE html PUBLIC "-//W3C//DTD XHTML 1.0 Strict//EN" "http://www.w3.org/TR/xhtml1/DTD/xhtml1-strict.dtd">\\n<html lang="en" xml:lang="en" xmlns="http://www.w3.org/1999/xhtml">\\n<head>\\n\\t<title>Milo manager</title>\\n\\t<meta http-equiv="content-language" content="en" />\\n\\t<meta http-equiv="cache-control" content="no-cache" />\\n\\t<meta http-equiv="Content-Type" content="text/html; charset=utf-8" />\\n    <link rel="shortcut icon" href="\', escape=False)\nresponse.write(URL(\'static\',\'emanager\'))\nresponse.write(\'/images/favicon.ico" type="image/x-icon"/>\\n    <link href="\', escape=False)\nresponse.write(URL(\'static\',\'emanager\'))\nresponse.write(\'/css/styles.css" rel="stylesheet" type="text/css" media="screen" />\\n\\t<!--[if lte IE 7]>\\n\\t<link href="css/styles_ie.css" rel="stylesheet" type="text/css" media="screen" />\\n\\t<![endif]-->\\n\\t<!--[if lte IE 6]>\\n\\t<link href="css/styles_ie6.css" rel="stylesheet" type="text/css" media="screen" />\\n\\t<![endif]-->\\n    <script type="text/javascript" src="\', escape=False)\nresponse.write(URL(\'static\',\'emanager\'))\nresponse.write(\'/js/jquery-1.2.6.min.js"></script>\\n    <script type="text/javascript" src="\', escape=False)\nresponse.write(URL(\'static\',\'emanager\'))\nresponse.write(\'/js/ui.js"></script>\\n</head>\\n\\n<body>\\n\\n<div id="wrap">\\n\\t<div id="header">\\n\\t\\t<h1><a class="bg" href="#" title="Home"></a>Milo Manager</h1>\\n\\t\\t<p id="status">Logged is as Username, <a href="#" title="Sign Out?">Sign Out?</a></p>\\n\\t\\t<h2><span>Hello, this is the Dashboard</span></h2>\\n\\t\\t<p id="description">A little description explain what Dashboard is in one/two lines.</p>\\n\\t</div>\\n    <div id="sidebar">\\n\\t\\t<ul class="items">\\n            <li class="active">\\n            \\t<a href="#" title="Dashboard">Dashboard</a>\\n            </li>\\n\\t\\t\\t<li class="subitems">\\n\\t\\t\\t\\t<a href="#" title="Shout Box Info">Algorithms Management</a>\\n\\t\\t\\t\\t<ul>\\n\\t\\t\\t\\t\\t\', escape=False)\nfor alg in algorithms:\n    response.write(\'\\n\\t\\t\\t\\t\\t<li><a href="#" title="\', escape=False)\n    response.write(alg)\n    response.write(\'">\', escape=False)\n    response.write(alg)\n    response.write(\'</a></li>\\n\\t\\t\\t\\t\\t\', escape=False)\n    pass\nresponse.write(\'\\n\\t\\t\\t\\t</ul>\\n\\t\\t\\t</li>\\n<!-- \\t\\t\\t<li class="subitems">\\n\\t\\t\\t\\t<a href="#" title="Clan Options">Clan Options</a>\\n\\t\\t\\t\\t<ul>\\n                    <li><a href="#" title="Edit Matches">Edit Matches</a></li>\\n                    <li><a href="#" title="Edit Practices">Edit Practices</a></li>\\n                    <li><a href="#" title="Edit Games">Edit Games</a></li>\\n                    <li><a href="#" title="Edit Servers">Edit Servers</a></li>\\n                    <li><a href="#" title="Edit Media">Edit Media</a></li>\\n                    <li><a href="#" title="Edit Sponsors">Edit Sponsors</a></li>\\n                    <li><a href="#" title="Opposing Clans">Opposing Clans</a></li>\\n\\t\\t\\t\\t</ul>\\n\\t\\t\\t</li>\\n\\t\\t\\t<li><a href="#mp3" title="MP3 Player">MP3 Player</a></li>\\n\\t\\t\\t<li class="subitems">\\n\\t\\t\\t\\t<a href="#" title="Users">Donation Info</a>\\n\\t\\t\\t\\t<ul>\\n\\t\\t\\t\\t\\t<li><a href="#" title="Admin Users">Monthly Goals</a></li>\\n\\t\\t\\t\\t\\t<li><a href="#" title="Add New User">Monthly Donations</a></li>\\n\\n\\t\\t\\t\\t</ul>\\n\\t\\t\\t</li>\\n\\t\\t\\t<li class="subitems">\\n\\t\\t\\t\\t<a href="#" title="Users">Member Info</a>\\n\\t\\t\\t\\t<ul>\\n\\t\\t\\t\\t\\t<li><a href="#" title="Admin Users">Member List</a></li>\\n\\t\\t\\t\\t\\t<li><a href="#" title="Add New User">Mass Message</a></li>\\n\\t\\t\\t\\t\\t<li><a href="#" title="Add New User">Edit Members</a></li>\\n\\t\\t\\t\\t\\t<li><a href="#" title="Add New User">Edit Permissions</a></li>\\n\\t\\t\\t\\t\\t<li><a href="#" title="Add New User">Edit Ranks</a></li>\\n\\t\\t\\t\\t</ul>\\n\\t\\t\\t</li> -->\\n\\t\\t</ul>\\n\\t\\t<span class="clear"></span>\\n\\t\\t<div id="redbox">\\n\\t\\t\\t<h4>Info</h4>\\n\\t\\t\\t<p>\\n\\t\\t\\t\\tScript executed in 0.1568s<br />\\n\\t\\t\\t\\tURM created on \', escape=False)\nresponse.write(matrices.get(\'urm\', \'Unknown\'))\nresponse.write(\'<br />\\n\\t\\t\\t\\tICM created on \', escape=False)\nresponse.write(matrices.get(\'icm\',\'Unknown\'))\nresponse.write(\'<br />\\n\\t\\t\\t\\t\\n\\t\\t\\t</p>\\n\\t\\t</div>\\n\\t</div>\\n\\t<div id="content">\\n\\t\\t<h2>Form fields</h2>\\n\\t\\t<ul class="tabs">\\n\\t\\t\\t<li class="active"><a href="#" title="Item1"><span>This is a tab</span></a></li>\\n\\t\\t\\t<li><a href="#" title="Item2"><span>This is other tab</span></a></li>\\n\\t\\t</ul>\\n\\t\\t<form method="post" action="">\\n\\t\\t<fieldset>\\n\\t\\t\\t<label>Small Input:</label>\\n\\t\\t\\t<span class="small_input"><input class="small" name="" type="text" value="" /></span><br class="hid" />\\n\\t\\t\\t<span class="negative">Negative message!</span><br class="hid" />\\n\\t\\t\\t<label>Medium Input:</label>\\n\\t\\t\\t<span class="medium_input"><input class="medium" name="" type="text" value="" /></span><br class="hid" />\\n\\t\\t\\t<span class="positive">Positive message!</span><br class="hid" />\\n\\t\\t\\t<label>Large Input:</label>\\n\\t\\t\\t<span class="large_input"><input class="large" name="" type="text" value="" /></span><br class="hid" />\\n\\t\\t\\t<p>Lorem Ipsum is simply dummy text of the printing and typesetting industry.</p>\\n\\t\\t\\t<label>Your message?</label><br class="hid" />\\n\\t\\t\\t<span class="textarea"><textarea cols="" rows=""></textarea></span><br class="hid" />\\n\\t\\t\\t<a href="#" class="button" title="Submit"><span>Submit</span></a>\\n\\t\\t\\t<span class="clear"></span>\\n\\t\\t</fieldset>\\n\\t\\t</form>\\n\\t\\t<p class="alert">\\n\\t\\t\\t<span class="txt"><span class="icon"></span><strong>Alert:</strong> This template is going to explote in 10 seconds.</span>\\n\\t\\t\\t<a href="#" class="close" title="Close"><span class="bg"></span>Close</a>\\n\\t\\t</p>\\n\\t\\t<p id="tip" class="alert">\\n\\t\\t\\t<span class="txt"><span class="icon"></span><strong>Tip:</strong> I know, you REALLY love this CMS Skin.</span>\\n\\t\\t\\t<a href="#" class="close" title="Close"><span class="bg"></span>Close</a>\\n\\t\\t</p>\\n\\t\\t<p id="congrats" class="alert">\\n\\t\\t\\t<span class="txt"><span class="icon"></span><strong>Congrats:</strong> The action you just did was made with success.</span>\\n\\t\\t\\t<a href="#" class="close" title="Close"><span class="bg"></span>Close</a>\\n\\t\\t</p>\\n\\t\\t<h2>CSS Table List</h2>\\n\\t\\t<ul class="tabs">\\n\\t\\t\\t<li><a href="#" title="Item1"><span>Nice!</span></a></li>\\n\\t\\t\\t<li class="active"><a href="#" title="Item2"><span>I love this table</span></a></li>\\n\\t\\t</ul>\\n\\t\\t<div class="box">\\n\\t\\t\\t<table>\\n\\t\\t\\t\\t<tr>\\n\\t\\t\\t\\t\\t<th class="col1">Column 1</th>\\n\\t\\t\\t\\t\\t<th class="col2">Column 2</th>\\n\\t\\t\\t\\t\\t<th class="col3">Column 3</th>\\n\\t\\t\\t\\t\\t<th class="col4">Column 4</th>\\n\\t\\t\\t\\t\\t<th class="col5">Column 5</th>\\n\\t\\t\\t\\t</tr>\\n\\t\\t\\t\\t<tr class="highlight">\\n\\t\\t\\t\\t\\t<td><a href="#" title="Lorem ipsum dolor">Lorem ipsum dolor</a></td>\\n\\t\\t\\t\\t\\t<td>Lorem ipsum dolor</td>\\n\\t\\t\\t\\t\\t<td>Lorem ipsum dolor</td>\\n\\t\\t\\t\\t\\t<td>Lorem ipsum dolor</td>\\n\\t\\t\\t\\t\\t<td class="action">\\n\\t\\t\\t\\t\\t\\t<ul>\\n\\t\\t\\t\\t\\t\\t\\t<li><a class="edit" href="#" title="edit"></a></li>\\n\\t\\t\\t\\t\\t\\t\\t<li><a class="add" href="#" title="add"></a></li>\\n\\t\\t\\t\\t\\t\\t\\t<li><a class="delete" href="#" title="delete"></a></li>\\n\\t\\t\\t\\t\\t\\t\\t<li><a class="mark" href="#" title="mark"></a></li>\\n\\t\\t\\t\\t\\t\\t</ul>\\n\\t\\t\\t\\t\\t</td>\\n\\t\\t\\t\\t</tr>\\n\\t\\t\\t\\t<tr>\\n\\t\\t\\t\\t\\t<td><a href="#" title="Lorem ipsum dolor">Lorem ipsum dolor</a></td>\\n\\t\\t\\t\\t\\t<td>Lorem ipsum dolor</td>\\n\\t\\t\\t\\t\\t<td>Lorem ipsum dolor</td>\\n\\t\\t\\t\\t\\t<td>Lorem ipsum dolor</td>\\n\\t\\t\\t\\t\\t<td class="action">\\n\\t\\t\\t\\t\\t\\t<ul>\\n\\t\\t\\t\\t\\t\\t\\t<li><a class="edit" href="#" title="edit"></a></li>\\n\\t\\t\\t\\t\\t\\t\\t<li><a class="add" href="#" title="add"></a></li>\\n\\t\\t\\t\\t\\t\\t\\t<li><a class="delete" href="#" title="delete"></a></li>\\n\\t\\t\\t\\t\\t\\t\\t<li><a class="mark" href="#" title="mark"></a></li>\\n\\t\\t\\t\\t\\t\\t</ul>\\n\\t\\t\\t\\t\\t</td>\\n\\t\\t\\t\\t</tr>\\n\\t\\t\\t\\t<tr class="highlight">\\n\\t\\t\\t\\t\\t<td><a href="#" title="Lorem ipsum dolor">Lorem ipsum dolor</a></td>\\n\\t\\t\\t\\t\\t<td>Lorem ipsum dolor</td>\\n\\t\\t\\t\\t\\t<td>Lorem ipsum dolor</td>\\n\\t\\t\\t\\t\\t<td>Lorem ipsum dolor</td>\\n\\t\\t\\t\\t\\t<td class="action">\\n\\t\\t\\t\\t\\t\\t<ul>\\n\\t\\t\\t\\t\\t\\t\\t<li><a class="edit" href="#" title="edit"></a></li>\\n\\t\\t\\t\\t\\t\\t\\t<li><a class="add" href="#" title="add"></a></li>\\n\\t\\t\\t\\t\\t\\t\\t<li><a class="delete" href="#" title="delete"></a></li>\\n\\t\\t\\t\\t\\t\\t\\t<li><a class="mark" href="#" title="mark"></a></li>\\n\\t\\t\\t\\t\\t\\t</ul>\\n\\t\\t\\t\\t\\t</td>\\n\\t\\t\\t\\t</tr>\\n\\t\\t\\t\\t<tr>\\n\\t\\t\\t\\t\\t<td><a href="#" title="Lorem ipsum dolor">Lorem ipsum dolor</a></td>\\n\\t\\t\\t\\t\\t<td>Lorem ipsum dolor</td>\\n\\t\\t\\t\\t\\t<td>Lorem ipsum dolor</td>\\n\\t\\t\\t\\t\\t<td>Lorem ipsum dolor</td>\\n\\t\\t\\t\\t\\t<td class="action">\\n\\t\\t\\t\\t\\t\\t<ul>\\n\\t\\t\\t\\t\\t\\t\\t<li><a class="edit" href="#" title="edit"></a></li>\\n\\t\\t\\t\\t\\t\\t\\t<li><a class="add" href="#" title="add"></a></li>\\n\\t\\t\\t\\t\\t\\t\\t<li><a class="delete" href="#" title="delete"></a></li>\\n\\t\\t\\t\\t\\t\\t\\t<li><a class="mark" href="#" title="mark"></a></li>\\n\\t\\t\\t\\t\\t\\t</ul>\\n\\t\\t\\t\\t\\t</td>\\n\\t\\t\\t\\t</tr>\\n\\t\\t\\t\\t<tr class="highlight">\\n\\t\\t\\t\\t\\t<td><a href="#" title="Lorem ipsum dolor">Lorem ipsum dolor</a></td>\\n\\t\\t\\t\\t\\t<td>Lorem ipsum dolor</td>\\n\\t\\t\\t\\t\\t<td>Lorem ipsum dolor</td>\\n\\t\\t\\t\\t\\t<td>Lorem ipsum dolor</td>\\n\\t\\t\\t\\t\\t<td class="action">\\n\\t\\t\\t\\t\\t\\t<ul>\\n\\t\\t\\t\\t\\t\\t\\t<li><a class="edit" href="#" title="edit"></a></li>\\n\\t\\t\\t\\t\\t\\t\\t<li><a class="add" href="#" title="add"></a></li>\\n\\t\\t\\t\\t\\t\\t\\t<li><a class="delete" href="#" title="delete"></a></li>\\n\\t\\t\\t\\t\\t\\t\\t<li><a class="mark" href="#" title="mark"></a></li>\\n\\t\\t\\t\\t\\t\\t</ul>\\n\\t\\t\\t\\t\\t</td>\\n\\t\\t\\t\\t</tr>\\n\\t\\t\\t\\t<tr>\\n\\t\\t\\t\\t\\t<td><a href="#" title="Lorem ipsum dolor">Lorem ipsum dolor</a></td>\\n\\t\\t\\t\\t\\t<td>Lorem ipsum dolor</td>\\n\\t\\t\\t\\t\\t<td>Lorem ipsum dolor</td>\\n\\t\\t\\t\\t\\t<td>Lorem ipsum dolor</td>\\n\\t\\t\\t\\t\\t<td class="action">\\n\\t\\t\\t\\t\\t\\t<ul>\\n\\t\\t\\t\\t\\t\\t\\t<li><a class="edit" href="#" title="edit"></a></li>\\n\\t\\t\\t\\t\\t\\t\\t<li><a class="add" href="#" title="add"></a></li>\\n\\t\\t\\t\\t\\t\\t\\t<li><a class="delete" href="#" title="delete"></a></li>\\n\\t\\t\\t\\t\\t\\t\\t<li><a class="mark" href="#" title="mark"></a></li>\\n\\t\\t\\t\\t\\t\\t</ul>\\n\\t\\t\\t\\t\\t</td>\\n\\t\\t\\t\\t</tr>\\n\\t\\t\\t\\t<tr class="highlight">\\n\\t\\t\\t\\t\\t<td><a href="#" title="Lorem ipsum dolor">Lorem ipsum dolor</a></td>\\n\\t\\t\\t\\t\\t<td>Lorem ipsum dolor</td>\\n\\t\\t\\t\\t\\t<td>Lorem ipsum dolor</td>\\n\\t\\t\\t\\t\\t<td>Lorem ipsum dolor</td>\\n\\t\\t\\t\\t\\t<td class="action">\\n\\t\\t\\t\\t\\t\\t<ul>\\n\\t\\t\\t\\t\\t\\t\\t<li><a class="edit" href="#" title="edit"></a></li>\\n\\t\\t\\t\\t\\t\\t\\t<li><a class="add" href="#" title="add"></a></li>\\n\\t\\t\\t\\t\\t\\t\\t<li><a class="delete" href="#" title="delete"></a></li>\\n\\t\\t\\t\\t\\t\\t\\t<li><a class="mark" href="#" title="mark"></a></li>\\n\\t\\t\\t\\t\\t\\t</ul>\\n\\t\\t\\t\\t\\t</td>\\n\\t\\t\\t\\t</tr>\\n\\t\\t\\t\\t<tr>\\n\\t\\t\\t\\t\\t<td><a href="#" title="Lorem ipsum dolor">Lorem ipsum dolor</a></td>\\n\\t\\t\\t\\t\\t<td>Lorem ipsum dolor</td>\\n\\t\\t\\t\\t\\t<td>Lorem ipsum dolor</td>\\n\\t\\t\\t\\t\\t<td>Lorem ipsum dolor</td>\\n\\t\\t\\t\\t\\t<td class="action">\\n\\t\\t\\t\\t\\t\\t<ul>\\n\\t\\t\\t\\t\\t\\t\\t<li><a class="edit" href="#" title="edit"></a></li>\\n\\t\\t\\t\\t\\t\\t\\t<li><a class="add" href="#" title="add"></a></li>\\n\\t\\t\\t\\t\\t\\t\\t<li><a class="delete" href="#" title="delete"></a></li>\\n\\t\\t\\t\\t\\t\\t\\t<li><a class="mark" href="#" title="mark"></a></li>\\n\\t\\t\\t\\t\\t\\t</ul>\\n\\t\\t\\t\\t\\t</td>\\n\\t\\t\\t\\t</tr>\\n\\t\\t\\t\\t<tr class="highlight">\\n\\t\\t\\t\\t\\t<td><a href="#" title="Lorem ipsum dolor">Lorem ipsum dolor</a></td>\\n\\t\\t\\t\\t\\t<td>Lorem ipsum dolor</td>\\n\\t\\t\\t\\t\\t<td>Lorem ipsum dolor</td>\\n\\t\\t\\t\\t\\t<td>Lorem ipsum dolor</td>\\n\\t\\t\\t\\t\\t<td class="action">\\n\\t\\t\\t\\t\\t\\t<ul>\\n\\t\\t\\t\\t\\t\\t\\t<li><a class="edit" href="#" title="edit"></a></li>\\n\\t\\t\\t\\t\\t\\t\\t<li><a class="add" href="#" title="add"></a></li>\\n\\t\\t\\t\\t\\t\\t\\t<li><a class="delete" href="#" title="delete"></a></li>\\n\\t\\t\\t\\t\\t\\t\\t<li><a class="mark" href="#" title="mark"></a></li>\\n\\t\\t\\t\\t\\t\\t</ul>\\n\\t\\t\\t\\t\\t</td>\\n\\t\\t\\t\\t</tr>\\n\\t\\t\\t</table>\\n\\t\\t\\t<p id="pagin">\\n\\t\\t\\t\\t&laquo; <a href="#" title="">previous</a> &ndash;\\n\\t\\t\\t\\t<a href="#" title="">1</a>\\n\\t\\t\\t\\t<a href="#" title="">2</a>\\n\\t\\t\\t\\t<a href="#" title="">3</a>\\n\\t\\t\\t\\t<a href="#" title="">4</a>\\n\\t\\t\\t\\t<a href="#" title="">5</a>\\n\\t\\t\\t\\t<a href="#" title="">6</a>\\n\\t\\t\\t\\t<a href="#" title="">7</a>\\n\\t\\t\\t\\t<a href="#" title="">8</a>\\n\\t\\t\\t\\t<a href="#" title="">9</a>\\n\\t\\t\\t\\t&ndash; <a href="#" title="">next</a> &raquo;\\n\\t\\t\\t</p>\\n\\t\\t</div>\\n\\t</div>\\n\\t<div id="footer">\\n\\t</div>\\n</div>\\n\\n</body>\\n</html>\\n\', escape=False)'
p7
sS'snapshot'
p8
(dp9
S'exception'
p10
(dp11
S'__hash__'
p12
S"<method-wrapper '__hash__' of exceptions.NameError object>"
p13
sS'__setattr__'
p14
S"<method-wrapper '__setattr__' of exceptions.NameError object>"
p15
sS'__reduce_ex__'
p16
S'<built-in method __reduce_ex__ of exceptions.NameError object>'
p17
sS'__getslice__'
p18
S"<method-wrapper '__getslice__' of exceptions.NameError object>"
p19
sS'__getitem__'
p20
S"<method-wrapper '__getitem__' of exceptions.NameError object>"
p21
sS'__setstate__'
p22
S'<built-in method __setstate__ of exceptions.NameError object>'
p23
sS'args'
p24
S'("name \'matrices\' is not defined",)'
p25
sS'__reduce__'
p26
S'<built-in method __reduce__ of exceptions.NameError object>'
p27
sS'__str__'
p28
S"<method-wrapper '__str__' of exceptions.NameError object>"
p29
sS'__format__'
p30
S'<built-in method __format__ of exceptions.NameError object>'
p31
sS'__getattribute__'
p32
S"<method-wrapper '__getattribute__' of exceptions.NameError object>"
p33
sS'__class__'
p34
S"<type 'exceptions.NameError'>"
p35
sS'__unicode__'
p36
S'<built-in method __unicode__ of exceptions.NameError object>'
p37
sS'__delattr__'
p38
S"<method-wrapper '__delattr__' of exceptions.NameError object>"
p39
sS'__subclasshook__'
p40
S'<built-in method __subclasshook__ of type object>'
p41
sS'__repr__'
p42
S"<method-wrapper '__repr__' of exceptions.NameError object>"
p43
sS'__dict__'
p44
S'{}'
p45
sS'__sizeof__'
p46
S'<built-in method __sizeof__ of exceptions.NameError object>'
p47
sS'__doc__'
p48
S"'Name not found globally.'"
p49
sS'__init__'
p50
S"<method-wrapper '__init__' of exceptions.NameError object>"
p51
sS'__new__'
p52
S'<built-in method __new__ of type object>'
p53
ssS'evalue'
p54
S"name 'matrices' is not defined"
p55
sS'request'
p56
ccopy_reg
_reconstructor
p57
(cgluon.html
BEAUTIFY
p58
c__builtin__
object
p59
NtRp60
(dp61
S'attributes'
p62
(dp63
sS'components'
p64
(lp65
g57
(cgluon.html
TABLE
p66
g59
NtRp67
(dp68
g62
(dp69
S'level'
p70
I5
ssS'parent'
p71
Nsg64
(lp72
g57
(cgluon.html
TR
p73
g59
NtRp74
(dp75
g62
(dp76
sg71
g67
sg64
(lp77
g57
(cgluon.html
TD
p78
g59
NtRp79
(dp80
g62
(dp81
S'_style'
p82
S'font-weight:bold;vertical-align:top'
p83
ssg71
g74
sg64
(lp84
S'ajax'
p85
asbag57
(g78
g59
NtRp86
(dp87
g62
(dp88
S'_valign'
p89
S'top'
p90
ssg71
g74
sg64
(lp91
S':'
asbag57
(g78
g59
NtRp92
(dp93
g62
(dp94
sg71
g74
sg64
(lp95
g57
(g58
g59
NtRp96
(dp97
g62
(dp98
g70
I5
ssg71
g92
sg64
(lp99
S'False'
p100
asbasbasbag57
(g73
g59
NtRp101
(dp102
g62
(dp103
sg71
g67
sg64
(lp104
g57
(g78
g59
NtRp105
(dp106
g62
(dp107
g82
g83
ssg71
g101
sg64
(lp108
S'application'
p109
asbag57
(g78
g59
NtRp110
(dp111
g62
(dp112
g89
g90
ssg71
g101
sg64
(lp113
S':'
asbag57
(g78
g59
NtRp114
(dp115
g62
(dp116
sg71
g101
sg64
(lp117
g57
(g58
g59
NtRp118
(dp119
g62
(dp120
g70
I5
ssg71
g114
sg64
(lp121
S'milo'
p122
asbasbasbag57
(g73
g59
NtRp123
(dp124
g62
(dp125
sg71
g67
sg64
(lp126
g57
(g78
g59
NtRp127
(dp128
g62
(dp129
g82
g83
ssg71
g123
sg64
(lp130
g24
asbag57
(g78
g59
NtRp131
(dp132
g62
(dp133
g89
g90
ssg71
g123
sg64
(lp134
S':'
asbag57
(g78
g59
NtRp135
(dp136
g62
(dp137
sg71
g123
sg64
(lp138
g57
(g58
g59
NtRp139
(dp140
g62
(dp141
g70
I5
ssg71
g135
sg64
(lp142
g57
(g66
g59
NtRp143
(dp144
g62
(dp145
g70
I4
ssg71
Nsg64
(lp146
sbasbasbasbag57
(g73
g59
NtRp147
(dp148
g62
(dp149
sg71
g67
sg64
(lp150
g57
(g78
g59
NtRp151
(dp152
g62
(dp153
g82
g83
ssg71
g147
sg64
(lp154
S'body'
p155
asbag57
(g78
g59
NtRp156
(dp157
g62
(dp158
g89
g90
ssg71
g147
sg64
(lp159
S':'
asbag57
(g78
g59
NtRp160
(dp161
g62
(dp162
sg71
g147
sg64
(lp163
g57
(g58
g59
NtRp164
(dp165
g62
(dp166
g70
I5
ssg71
g160
sg64
(lp167
S'<cStringIO.StringO object at 0x347b650>'
p168
asbasbasbag57
(g73
g59
NtRp169
(dp170
g62
(dp171
sg71
g67
sg64
(lp172
g57
(g78
g59
NtRp173
(dp174
g62
(dp175
g82
g83
ssg71
g169
sg64
(lp176
S'client'
p177
asbag57
(g78
g59
NtRp178
(dp179
g62
(dp180
g89
g90
ssg71
g169
sg64
(lp181
S':'
asbag57
(g78
g59
NtRp182
(dp183
g62
(dp184
sg71
g169
sg64
(lp185
g57
(g58
g59
NtRp186
(dp187
g62
(dp188
g70
I5
ssg71
g182
sg64
(lp189
S'127.0.0.1'
p190
asbasbasbag57
(g73
g59
NtRp191
(dp192
g62
(dp193
sg71
g67
sg64
(lp194
g57
(g78
g59
NtRp195
(dp196
g62
(dp197
g82
g83
ssg71
g191
sg64
(lp198
S'controller'
p199
asbag57
(g78
g59
NtRp200
(dp201
g62
(dp202
g89
g90
ssg71
g191
sg64
(lp203
S':'
asbag57
(g78
g59
NtRp204
(dp205
g62
(dp206
sg71
g191
sg64
(lp207
g57
(g58
g59
NtRp208
(dp209
g62
(dp210
g70
I5
ssg71
g204
sg64
(lp211
S'admin'
p212
asbasbasbag57
(g73
g59
NtRp213
(dp214
g62
(dp215
sg71
g67
sg64
(lp216
g57
(g78
g59
NtRp217
(dp218
g62
(dp219
g82
g83
ssg71
g213
sg64
(lp220
S'cookies'
p221
asbag57
(g78
g59
NtRp222
(dp223
g62
(dp224
g89
g90
ssg71
g213
sg64
(lp225
S':'
asbag57
(g78
g59
NtRp226
(dp227
g62
(dp228
sg71
g213
sg64
(lp229
g57
(g58
g59
NtRp230
(dp231
g62
(dp232
g70
I5
ssg71
g226
sg64
(lp233
g57
(g66
g59
NtRp234
(dp235
g62
(dp236
g70
I4
ssg71
Nsg64
(lp237
g57
(g73
g59
NtRp238
(dp239
g62
(dp240
sg71
g234
sg64
(lp241
g57
(g78
g59
NtRp242
(dp243
g62
(dp244
g82
g83
ssg71
g238
sg64
(lp245
S'session_id_admin'
p246
asbag57
(g78
g59
NtRp247
(dp248
g62
(dp249
g89
g90
ssg71
g238
sg64
(lp250
S':'
asbag57
(g78
g59
NtRp251
(dp252
g62
(dp253
sg71
g238
sg64
(lp254
g57
(g58
g59
NtRp255
(dp256
g62
(dp257
g70
I4
ssg71
g251
sg64
(lp258
g57
(g66
g59
NtRp259
(dp260
g62
(dp261
g70
I3
ssg71
Nsg64
(lp262
g57
(g73
g59
NtRp263
(dp264
g62
(dp265
sg71
g259
sg64
(lp266
g57
(g78
g59
NtRp267
(dp268
g62
(dp269
g82
g83
ssg71
g263
sg64
(lp270
S'comment'
p271
asbag57
(g78
g59
NtRp272
(dp273
g62
(dp274
g89
g90
ssg71
g263
sg64
(lp275
S':'
asbag57
(g78
g59
NtRp276
(dp277
g62
(dp278
sg71
g263
sg64
(lp279
g57
(g58
g59
NtRp280
(dp281
g62
(dp282
g70
I3
ssg71
g276
sg64
(lp283
S''
asbasbasbag57
(g73
g59
NtRp284
(dp285
g62
(dp286
sg71
g259
sg64
(lp287
g57
(g78
g59
NtRp288
(dp289
g62
(dp290
g82
g83
ssg71
g284
sg64
(lp291
S'domain'
p292
asbag57
(g78
g59
NtRp293
(dp294
g62
(dp295
g89
g90
ssg71
g284
sg64
(lp296
S':'
asbag57
(g78
g59
NtRp297
(dp298
g62
(dp299
sg71
g284
sg64
(lp300
g57
(g58
g59
NtRp301
(dp302
g62
(dp303
g70
I3
ssg71
g297
sg64
(lp304
S''
asbasbasbag57
(g73
g59
NtRp305
(dp306
g62
(dp307
sg71
g259
sg64
(lp308
g57
(g78
g59
NtRp309
(dp310
g62
(dp311
g82
g83
ssg71
g305
sg64
(lp312
S'expires'
p313
asbag57
(g78
g59
NtRp314
(dp315
g62
(dp316
g89
g90
ssg71
g305
sg64
(lp317
S':'
asbag57
(g78
g59
NtRp318
(dp319
g62
(dp320
sg71
g305
sg64
(lp321
g57
(g58
g59
NtRp322
(dp323
g62
(dp324
g70
I3
ssg71
g318
sg64
(lp325
S''
asbasbasbag57
(g73
g59
NtRp326
(dp327
g62
(dp328
sg71
g259
sg64
(lp329
g57
(g78
g59
NtRp330
(dp331
g62
(dp332
g82
g83
ssg71
g326
sg64
(lp333
S'httponly'
p334
asbag57
(g78
g59
NtRp335
(dp336
g62
(dp337
g89
g90
ssg71
g326
sg64
(lp338
S':'
asbag57
(g78
g59
NtRp339
(dp340
g62
(dp341
sg71
g326
sg64
(lp342
g57
(g58
g59
NtRp343
(dp344
g62
(dp345
g70
I3
ssg71
g339
sg64
(lp346
S''
asbasbasbag57
(g73
g59
NtRp347
(dp348
g62
(dp349
sg71
g259
sg64
(lp350
g57
(g78
g59
NtRp351
(dp352
g62
(dp353
g82
g83
ssg71
g347
sg64
(lp354
S'max-age'
p355
asbag57
(g78
g59
NtRp356
(dp357
g62
(dp358
g89
g90
ssg71
g347
sg64
(lp359
S':'
asbag57
(g78
g59
NtRp360
(dp361
g62
(dp362
sg71
g347
sg64
(lp363
g57
(g58
g59
NtRp364
(dp365
g62
(dp366
g70
I3
ssg71
g360
sg64
(lp367
S''
asbasbasbag57
(g73
g59
NtRp368
(dp369
g62
(dp370
sg71
g259
sg64
(lp371
g57
(g78
g59
NtRp372
(dp373
g62
(dp374
g82
g83
ssg71
g368
sg64
(lp375
S'path'
p376
asbag57
(g78
g59
NtRp377
(dp378
g62
(dp379
g89
g90
ssg71
g368
sg64
(lp380
S':'
asbag57
(g78
g59
NtRp381
(dp382
g62
(dp383
sg71
g368
sg64
(lp384
g57
(g58
g59
NtRp385
(dp386
g62
(dp387
g70
I3
ssg71
g381
sg64
(lp388
S''
asbasbasbag57
(g73
g59
NtRp389
(dp390
g62
(dp391
sg71
g259
sg64
(lp392
g57
(g78
g59
NtRp393
(dp394
g62
(dp395
g82
g83
ssg71
g389
sg64
(lp396
S'secure'
p397
asbag57
(g78
g59
NtRp398
(dp399
g62
(dp400
g89
g90
ssg71
g389
sg64
(lp401
S':'
asbag57
(g78
g59
NtRp402
(dp403
g62
(dp404
sg71
g389
sg64
(lp405
g57
(g58
g59
NtRp406
(dp407
g62
(dp408
g70
I3
ssg71
g402
sg64
(lp409
S''
asbasbasbag57
(g73
g59
NtRp410
(dp411
g62
(dp412
sg71
g259
sg64
(lp413
g57
(g78
g59
NtRp414
(dp415
g62
(dp416
g82
g83
ssg71
g410
sg64
(lp417
S'version'
p418
asbag57
(g78
g59
NtRp419
(dp420
g62
(dp421
g89
g90
ssg71
g410
sg64
(lp422
S':'
asbag57
(g78
g59
NtRp423
(dp424
g62
(dp425
sg71
g410
sg64
(lp426
g57
(g58
g59
NtRp427
(dp428
g62
(dp429
g70
I3
ssg71
g423
sg64
(lp430
S''
asbasbasbasbasbasbasbag57
(g73
g59
NtRp431
(dp432
g62
(dp433
sg71
g234
sg64
(lp434
g57
(g78
g59
NtRp435
(dp436
g62
(dp437
g82
g83
ssg71
g431
sg64
(lp438
S'session_id_milo'
p439
asbag57
(g78
g59
NtRp440
(dp441
g62
(dp442
g89
g90
ssg71
g431
sg64
(lp443
S':'
asbag57
(g78
g59
NtRp444
(dp445
g62
(dp446
sg71
g431
sg64
(lp447
g57
(g58
g59
NtRp448
(dp449
g62
(dp450
g70
I4
ssg71
g444
sg64
(lp451
g57
(g66
g59
NtRp452
(dp453
g62
(dp454
g70
I3
ssg71
Nsg64
(lp455
g57
(g73
g59
NtRp456
(dp457
g62
(dp458
sg71
g452
sg64
(lp459
g57
(g78
g59
NtRp460
(dp461
g62
(dp462
g82
g83
ssg71
g456
sg64
(lp463
g271
asbag57
(g78
g59
NtRp464
(dp465
g62
(dp466
g89
g90
ssg71
g456
sg64
(lp467
S':'
asbag57
(g78
g59
NtRp468
(dp469
g62
(dp470
sg71
g456
sg64
(lp471
g57
(g58
g59
NtRp472
(dp473
g62
(dp474
g70
I3
ssg71
g468
sg64
(lp475
S''
asbasbasbag57
(g73
g59
NtRp476
(dp477
g62
(dp478
sg71
g452
sg64
(lp479
g57
(g78
g59
NtRp480
(dp481
g62
(dp482
g82
g83
ssg71
g476
sg64
(lp483
g292
asbag57
(g78
g59
NtRp484
(dp485
g62
(dp486
g89
g90
ssg71
g476
sg64
(lp487
S':'
asbag57
(g78
g59
NtRp488
(dp489
g62
(dp490
sg71
g476
sg64
(lp491
g57
(g58
g59
NtRp492
(dp493
g62
(dp494
g70
I3
ssg71
g488
sg64
(lp495
S''
asbasbasbag57
(g73
g59
NtRp496
(dp497
g62
(dp498
sg71
g452
sg64
(lp499
g57
(g78
g59
NtRp500
(dp501
g62
(dp502
g82
g83
ssg71
g496
sg64
(lp503
g313
asbag57
(g78
g59
NtRp504
(dp505
g62
(dp506
g89
g90
ssg71
g496
sg64
(lp507
S':'
asbag57
(g78
g59
NtRp508
(dp509
g62
(dp510
sg71
g496
sg64
(lp511
g57
(g58
g59
NtRp512
(dp513
g62
(dp514
g70
I3
ssg71
g508
sg64
(lp515
S''
asbasbasbag57
(g73
g59
NtRp516
(dp517
g62
(dp518
sg71
g452
sg64
(lp519
g57
(g78
g59
NtRp520
(dp521
g62
(dp522
g82
g83
ssg71
g516
sg64
(lp523
g334
asbag57
(g78
g59
NtRp524
(dp525
g62
(dp526
g89
g90
ssg71
g516
sg64
(lp527
S':'
asbag57
(g78
g59
NtRp528
(dp529
g62
(dp530
sg71
g516
sg64
(lp531
g57
(g58
g59
NtRp532
(dp533
g62
(dp534
g70
I3
ssg71
g528
sg64
(lp535
S''
asbasbasbag57
(g73
g59
NtRp536
(dp537
g62
(dp538
sg71
g452
sg64
(lp539
g57
(g78
g59
NtRp540
(dp541
g62
(dp542
g82
g83
ssg71
g536
sg64
(lp543
g355
asbag57
(g78
g59
NtRp544
(dp545
g62
(dp546
g89
g90
ssg71
g536
sg64
(lp547
S':'
asbag57
(g78
g59
NtRp548
(dp549
g62
(dp550
sg71
g536
sg64
(lp551
g57
(g58
g59
NtRp552
(dp553
g62
(dp554
g70
I3
ssg71
g548
sg64
(lp555
S''
asbasbasbag57
(g73
g59
NtRp556
(dp557
g62
(dp558
sg71
g452
sg64
(lp559
g57
(g78
g59
NtRp560
(dp561
g62
(dp562
g82
g83
ssg71
g556
sg64
(lp563
g376
asbag57
(g78
g59
NtRp564
(dp565
g62
(dp566
g89
g90
ssg71
g556
sg64
(lp567
S':'
asbag57
(g78
g59
NtRp568
(dp569
g62
(dp570
sg71
g556
sg64
(lp571
g57
(g58
g59
NtRp572
(dp573
g62
(dp574
g70
I3
ssg71
g568
sg64
(lp575
S''
asbasbasbag57
(g73
g59
NtRp576
(dp577
g62
(dp578
sg71
g452
sg64
(lp579
g57
(g78
g59
NtRp580
(dp581
g62
(dp582
g82
g83
ssg71
g576
sg64
(lp583
g397
asbag57
(g78
g59
NtRp584
(dp585
g62
(dp586
g89
g90
ssg71
g576
sg64
(lp587
S':'
asbag57
(g78
g59
NtRp588
(dp589
g62
(dp590
sg71
g576
sg64
(lp591
g57
(g58
g59
NtRp592
(dp593
g62
(dp594
g70
I3
ssg71
g588
sg64
(lp595
S''
asbasbasbag57
(g73
g59
NtRp596
(dp597
g62
(dp598
sg71
g452
sg64
(lp599
g57
(g78
g59
NtRp600
(dp601
g62
(dp602
g82
g83
ssg71
g596
sg64
(lp603
g418
asbag57
(g78
g59
NtRp604
(dp605
g62
(dp606
g89
g90
ssg71
g596
sg64
(lp607
S':'
asbag57
(g78
g59
NtRp608
(dp609
g62
(dp610
sg71
g596
sg64
(lp611
g57
(g58
g59
NtRp612
(dp613
g62
(dp614
g70
I3
ssg71
g608
sg64
(lp615
S''
asbasbasbasbasbasbasbasbasbasbasbag57
(g73
g59
NtRp616
(dp617
g62
(dp618
sg71
g67
sg64
(lp619
g57
(g78
g59
NtRp620
(dp621
g62
(dp622
g82
g83
ssg71
g616
sg64
(lp623
S'env'
p624
asbag57
(g78
g59
NtRp625
(dp626
g62
(dp627
g89
g90
ssg71
g616
sg64
(lp628
S':'
asbag57
(g78
g59
NtRp629
(dp630
g62
(dp631
sg71
g616
sg64
(lp632
g57
(g58
g59
NtRp633
(dp634
g62
(dp635
g70
I5
ssg71
g629
sg64
(lp636
g57
(g66
g59
NtRp637
(dp638
g62
(dp639
g70
I4
ssg71
Nsg64
(lp640
g57
(g73
g59
NtRp641
(dp642
g62
(dp643
sg71
g637
sg64
(lp644
g57
(g78
g59
NtRp645
(dp646
g62
(dp647
g82
g83
ssg71
g641
sg64
(lp648
S'app_folders'
p649
asbag57
(g78
g59
NtRp650
(dp651
g62
(dp652
g89
g90
ssg71
g641
sg64
(lp653
S':'
asbag57
(g78
g59
NtRp654
(dp655
g62
(dp656
sg71
g641
sg64
(lp657
g57
(g58
g59
NtRp658
(dp659
g62
(dp660
g70
I4
ssg71
g654
sg64
(lp661
S"set(['/home/goshawk/web2py/applications/milo/'])"
p662
asbasbasbag57
(g73
g59
NtRp663
(dp664
g62
(dp665
sg71
g637
sg64
(lp666
g57
(g78
g59
NtRp667
(dp668
g62
(dp669
g82
g83
ssg71
g663
sg64
(lp670
S'applications_parent'
p671
asbag57
(g78
g59
NtRp672
(dp673
g62
(dp674
g89
g90
ssg71
g663
sg64
(lp675
S':'
asbag57
(g78
g59
NtRp676
(dp677
g62
(dp678
sg71
g663
sg64
(lp679
g57
(g58
g59
NtRp680
(dp681
g62
(dp682
g70
I4
ssg71
g676
sg64
(lp683
S'/home/goshawk/web2py'
p684
asbasbasbag57
(g73
g59
NtRp685
(dp686
g62
(dp687
sg71
g637
sg64
(lp688
g57
(g78
g59
NtRp689
(dp690
g62
(dp691
g82
g83
ssg71
g685
sg64
(lp692
S'cmd_args'
p693
asbag57
(g78
g59
NtRp694
(dp695
g62
(dp696
g89
g90
ssg71
g685
sg64
(lp697
S':'
asbag57
(g78
g59
NtRp698
(dp699
g62
(dp700
sg71
g685
sg64
(lp701
g57
(g58
g59
NtRp702
(dp703
g62
(dp704
g70
I4
ssg71
g698
sg64
(lp705
g57
(g66
g59
NtRp706
(dp707
g62
(dp708
g70
I3
ssg71
Nsg64
(lp709
sbasbasbasbag57
(g73
g59
NtRp710
(dp711
g62
(dp712
sg71
g637
sg64
(lp713
g57
(g78
g59
NtRp714
(dp715
g62
(dp716
g82
g83
ssg71
g710
sg64
(lp717
S'cmd_options'
p718
asbag57
(g78
g59
NtRp719
(dp720
g62
(dp721
g89
g90
ssg71
g710
sg64
(lp722
S':'
asbag57
(g78
g59
NtRp723
(dp724
g62
(dp725
sg71
g710
sg64
(lp726
g57
(g58
g59
NtRp727
(dp728
g62
(dp729
g70
I4
ssg71
g723
sg64
(lp730
S"<Values at 0x34150e0: {'verbose': False, 'ip': '127.0.0.1', 'shutdown_timeout': 5, 'taskbar': False, 'nocron': False, 'pid_filename': 'httpserver.pid', 'maxthreads': None, 'softcron': False, 'server_name': 'whisperer', 'bpython': False, 'nogui': False, 'port': 8000, 'extcron': False, 'debuglevel': 30, 'test': None, 'folder': '/home/goshawk/web2py', 'config': '', 'import_models': False, 'winservice': '', 'shell': None, 'run': '', 'log_filename': 'httpserver.log', 'args': [''], 'socket_timeout': 5, 'ssl_ca_certificate': None, 'scheduler': None, 'profiler_filename': None, 'ssl_private_key': '', 'password': 'admin', 'request_queue_size': 5, 'ssl_certificate': '', 'cronjob': False, 'numthreads': None, 'quiet': False, 'interfaces': None, 'minthreads': None, 'timeout': 10, 'plain': False, 'nobanner': False}>"
p731
asbasbasbag57
(g73
g59
NtRp732
(dp733
g62
(dp734
sg71
g637
sg64
(lp735
g57
(g78
g59
NtRp736
(dp737
g62
(dp738
g82
g83
ssg71
g732
sg64
(lp739
S'db_sessions'
p740
asbag57
(g78
g59
NtRp741
(dp742
g62
(dp743
g89
g90
ssg71
g732
sg64
(lp744
S':'
asbag57
(g78
g59
NtRp745
(dp746
g62
(dp747
sg71
g732
sg64
(lp748
g57
(g58
g59
NtRp749
(dp750
g62
(dp751
g70
I4
ssg71
g745
sg64
(lp752
S'set([])'
p753
asbasbasbag57
(g73
g59
NtRp754
(dp755
g62
(dp756
sg71
g637
sg64
(lp757
g57
(g78
g59
NtRp758
(dp759
g62
(dp760
g82
g83
ssg71
g754
sg64
(lp761
S'debugging'
p762
asbag57
(g78
g59
NtRp763
(dp764
g62
(dp765
g89
g90
ssg71
g754
sg64
(lp766
S':'
asbag57
(g78
g59
NtRp767
(dp768
g62
(dp769
sg71
g754
sg64
(lp770
g57
(g58
g59
NtRp771
(dp772
g62
(dp773
g70
I4
ssg71
g767
sg64
(lp774
g100
asbasbasbag57
(g73
g59
NtRp775
(dp776
g62
(dp777
sg71
g637
sg64
(lp778
g57
(g78
g59
NtRp779
(dp780
g62
(dp781
g82
g83
ssg71
g775
sg64
(lp782
S'gluon_parent'
p783
asbag57
(g78
g59
NtRp784
(dp785
g62
(dp786
g89
g90
ssg71
g775
sg64
(lp787
S':'
asbag57
(g78
g59
NtRp788
(dp789
g62
(dp790
sg71
g775
sg64
(lp791
g57
(g58
g59
NtRp792
(dp793
g62
(dp794
g70
I4
ssg71
g788
sg64
(lp795
S'/home/goshawk/web2py'
p796
asbasbasbag57
(g73
g59
NtRp797
(dp798
g62
(dp799
sg71
g637
sg64
(lp800
g57
(g78
g59
NtRp801
(dp802
g62
(dp803
g82
g83
ssg71
g797
sg64
(lp804
S'http_accept'
p805
asbag57
(g78
g59
NtRp806
(dp807
g62
(dp808
g89
g90
ssg71
g797
sg64
(lp809
S':'
asbag57
(g78
g59
NtRp810
(dp811
g62
(dp812
sg71
g797
sg64
(lp813
g57
(g58
g59
NtRp814
(dp815
g62
(dp816
g70
I4
ssg71
g810
sg64
(lp817
S'text/html,application/xhtml+xml,application/xml;q=0.9,*/*;q=0.8'
p818
asbasbasbag57
(g73
g59
NtRp819
(dp820
g62
(dp821
sg71
g637
sg64
(lp822
g57
(g78
g59
NtRp823
(dp824
g62
(dp825
g82
g83
ssg71
g819
sg64
(lp826
S'http_accept_charset'
p827
asbag57
(g78
g59
NtRp828
(dp829
g62
(dp830
g89
g90
ssg71
g819
sg64
(lp831
S':'
asbag57
(g78
g59
NtRp832
(dp833
g62
(dp834
sg71
g819
sg64
(lp835
g57
(g58
g59
NtRp836
(dp837
g62
(dp838
g70
I4
ssg71
g832
sg64
(lp839
S'ISO-8859-1,utf-8;q=0.7,*;q=0.3'
p840
asbasbasbag57
(g73
g59
NtRp841
(dp842
g62
(dp843
sg71
g637
sg64
(lp844
g57
(g78
g59
NtRp845
(dp846
g62
(dp847
g82
g83
ssg71
g841
sg64
(lp848
S'http_accept_encoding'
p849
asbag57
(g78
g59
NtRp850
(dp851
g62
(dp852
g89
g90
ssg71
g841
sg64
(lp853
S':'
asbag57
(g78
g59
NtRp854
(dp855
g62
(dp856
sg71
g841
sg64
(lp857
g57
(g58
g59
NtRp858
(dp859
g62
(dp860
g70
I4
ssg71
g854
sg64
(lp861
S'gzip,deflate,sdch'
p862
asbasbasbag57
(g73
g59
NtRp863
(dp864
g62
(dp865
sg71
g637
sg64
(lp866
g57
(g78
g59
NtRp867
(dp868
g62
(dp869
g82
g83
ssg71
g863
sg64
(lp870
S'http_accept_language'
p871
asbag57
(g78
g59
NtRp872
(dp873
g62
(dp874
g89
g90
ssg71
g863
sg64
(lp875
S':'
asbag57
(g78
g59
NtRp876
(dp877
g62
(dp878
sg71
g863
sg64
(lp879
g57
(g58
g59
NtRp880
(dp881
g62
(dp882
g70
I4
ssg71
g876
sg64
(lp883
S'en-US,en;q=0.8'
p884
asbasbasbag57
(g73
g59
NtRp885
(dp886
g62
(dp887
sg71
g637
sg64
(lp888
g57
(g78
g59
NtRp889
(dp890
g62
(dp891
g82
g83
ssg71
g885
sg64
(lp892
S'http_cache_control'
p893
asbag57
(g78
g59
NtRp894
(dp895
g62
(dp896
g89
g90
ssg71
g885
sg64
(lp897
S':'
asbag57
(g78
g59
NtRp898
(dp899
g62
(dp900
sg71
g885
sg64
(lp901
g57
(g58
g59
NtRp902
(dp903
g62
(dp904
g70
I4
ssg71
g898
sg64
(lp905
S'max-age=0'
p906
asbasbasbag57
(g73
g59
NtRp907
(dp908
g62
(dp909
sg71
g637
sg64
(lp910
g57
(g78
g59
NtRp911
(dp912
g62
(dp913
g82
g83
ssg71
g907
sg64
(lp914
S'http_connection'
p915
asbag57
(g78
g59
NtRp916
(dp917
g62
(dp918
g89
g90
ssg71
g907
sg64
(lp919
S':'
asbag57
(g78
g59
NtRp920
(dp921
g62
(dp922
sg71
g907
sg64
(lp923
g57
(g58
g59
NtRp924
(dp925
g62
(dp926
g70
I4
ssg71
g920
sg64
(lp927
S'keep-alive'
p928
asbasbasbag57
(g73
g59
NtRp929
(dp930
g62
(dp931
sg71
g637
sg64
(lp932
g57
(g78
g59
NtRp933
(dp934
g62
(dp935
g82
g83
ssg71
g929
sg64
(lp936
S'http_cookie'
p937
asbag57
(g78
g59
NtRp938
(dp939
g62
(dp940
g89
g90
ssg71
g929
sg64
(lp941
S':'
asbag57
(g78
g59
NtRp942
(dp943
g62
(dp944
sg71
g929
sg64
(lp945
g57
(g58
g59
NtRp946
(dp947
g62
(dp948
g70
I4
ssg71
g942
sg64
(lp949
S'session_id_milo=127.0.0.1-6ea54ce8-d4d4-42e2-9f2c-7c1a0acc789f; session_id_admin=127.0.0.1-15ce088f-ba26-4e86-8b5e-a24ec37269b4'
p950
asbasbasbag57
(g73
g59
NtRp951
(dp952
g62
(dp953
sg71
g637
sg64
(lp954
g57
(g78
g59
NtRp955
(dp956
g62
(dp957
g82
g83
ssg71
g951
sg64
(lp958
S'http_host'
p959
asbag57
(g78
g59
NtRp960
(dp961
g62
(dp962
g89
g90
ssg71
g951
sg64
(lp963
S':'
asbag57
(g78
g59
NtRp964
(dp965
g62
(dp966
sg71
g951
sg64
(lp967
g57
(g58
g59
NtRp968
(dp969
g62
(dp970
g70
I4
ssg71
g964
sg64
(lp971
S'localhost:8000'
p972
asbasbasbag57
(g73
g59
NtRp973
(dp974
g62
(dp975
sg71
g637
sg64
(lp976
g57
(g78
g59
NtRp977
(dp978
g62
(dp979
g82
g83
ssg71
g973
sg64
(lp980
S'http_referer'
p981
asbag57
(g78
g59
NtRp982
(dp983
g62
(dp984
g89
g90
ssg71
g973
sg64
(lp985
S':'
asbag57
(g78
g59
NtRp986
(dp987
g62
(dp988
sg71
g973
sg64
(lp989
g57
(g58
g59
NtRp990
(dp991
g62
(dp992
g70
I4
ssg71
g986
sg64
(lp993
S'http://localhost:8000/'
p994
asbasbasbag57
(g73
g59
NtRp995
(dp996
g62
(dp997
sg71
g637
sg64
(lp998
g57
(g78
g59
NtRp999
(dp1000
g62
(dp1001
g82
g83
ssg71
g995
sg64
(lp1002
S'http_user_agent'
p1003
asbag57
(g78
g59
NtRp1004
(dp1005
g62
(dp1006
g89
g90
ssg71
g995
sg64
(lp1007
S':'
asbag57
(g78
g59
NtRp1008
(dp1009
g62
(dp1010
sg71
g995
sg64
(lp1011
g57
(g58
g59
NtRp1012
(dp1013
g62
(dp1014
g70
I4
ssg71
g1008
sg64
(lp1015
S'Mozilla/5.0 (X11; Linux x86_64) AppleWebKit/535.19 (KHTML, like Gecko) Ubuntu/12.04 Chromium/18.0.1025.168 Chrome/18.0.1025.168 Safari/535.19'
p1016
asbasbasbag57
(g73
g59
NtRp1017
(dp1018
g62
(dp1019
sg71
g637
sg64
(lp1020
g57
(g78
g59
NtRp1021
(dp1022
g62
(dp1023
g82
g83
ssg71
g1017
sg64
(lp1024
S'is_jython'
p1025
asbag57
(g78
g59
NtRp1026
(dp1027
g62
(dp1028
g89
g90
ssg71
g1017
sg64
(lp1029
S':'
asbag57
(g78
g59
NtRp1030
(dp1031
g62
(dp1032
sg71
g1017
sg64
(lp1033
g57
(g58
g59
NtRp1034
(dp1035
g62
(dp1036
g70
I4
ssg71
g1030
sg64
(lp1037
g100
asbasbasbag57
(g73
g59
NtRp1038
(dp1039
g62
(dp1040
sg71
g637
sg64
(lp1041
g57
(g78
g59
NtRp1042
(dp1043
g62
(dp1044
g82
g83
ssg71
g1038
sg64
(lp1045
S'is_pypy'
p1046
asbag57
(g78
g59
NtRp1047
(dp1048
g62
(dp1049
g89
g90
ssg71
g1038
sg64
(lp1050
S':'
asbag57
(g78
g59
NtRp1051
(dp1052
g62
(dp1053
sg71
g1038
sg64
(lp1054
g57
(g58
g59
NtRp1055
(dp1056
g62
(dp1057
g70
I4
ssg71
g1051
sg64
(lp1058
g100
asbasbasbag57
(g73
g59
NtRp1059
(dp1060
g62
(dp1061
sg71
g637
sg64
(lp1062
g57
(g78
g59
NtRp1063
(dp1064
g62
(dp1065
g82
g83
ssg71
g1059
sg64
(lp1066
S'path_info'
p1067
asbag57
(g78
g59
NtRp1068
(dp1069
g62
(dp1070
g89
g90
ssg71
g1059
sg64
(lp1071
S':'
asbag57
(g78
g59
NtRp1072
(dp1073
g62
(dp1074
sg71
g1059
sg64
(lp1075
g57
(g58
g59
NtRp1076
(dp1077
g62
(dp1078
g70
I4
ssg71
g1072
sg64
(lp1079
S'/milo/admin/index'
p1080
asbasbasbag57
(g73
g59
NtRp1081
(dp1082
g62
(dp1083
sg71
g637
sg64
(lp1084
g57
(g78
g59
NtRp1085
(dp1086
g62
(dp1087
g82
g83
ssg71
g1081
sg64
(lp1088
S'query_string'
p1089
asbag57
(g78
g59
NtRp1090
(dp1091
g62
(dp1092
g89
g90
ssg71
g1081
sg64
(lp1093
S':'
asbag57
(g78
g59
NtRp1094
(dp1095
g62
(dp1096
sg71
g1081
sg64
(lp1097
g57
(g58
g59
NtRp1098
(dp1099
g62
(dp1100
g70
I4
ssg71
g1094
sg64
(lp1101
S''
asbasbasbag57
(g73
g59
NtRp1102
(dp1103
g62
(dp1104
sg71
g637
sg64
(lp1105
g57
(g78
g59
NtRp1106
(dp1107
g62
(dp1108
g82
g83
ssg71
g1102
sg64
(lp1109
S'remote_addr'
p1110
asbag57
(g78
g59
NtRp1111
(dp1112
g62
(dp1113
g89
g90
ssg71
g1102
sg64
(lp1114
S':'
asbag57
(g78
g59
NtRp1115
(dp1116
g62
(dp1117
sg71
g1102
sg64
(lp1118
g57
(g58
g59
NtRp1119
(dp1120
g62
(dp1121
g70
I4
ssg71
g1115
sg64
(lp1122
g190
asbasbasbag57
(g73
g59
NtRp1123
(dp1124
g62
(dp1125
sg71
g637
sg64
(lp1126
g57
(g78
g59
NtRp1127
(dp1128
g62
(dp1129
g82
g83
ssg71
g1123
sg64
(lp1130
S'remote_port'
p1131
asbag57
(g78
g59
NtRp1132
(dp1133
g62
(dp1134
g89
g90
ssg71
g1123
sg64
(lp1135
S':'
asbag57
(g78
g59
NtRp1136
(dp1137
g62
(dp1138
sg71
g1123
sg64
(lp1139
g57
(g58
g59
NtRp1140
(dp1141
g62
(dp1142
g70
I4
ssg71
g1136
sg64
(lp1143
S'36479'
p1144
asbasbasbag57
(g73
g59
NtRp1145
(dp1146
g62
(dp1147
sg71
g637
sg64
(lp1148
g57
(g78
g59
NtRp1149
(dp1150
g62
(dp1151
g82
g83
ssg71
g1145
sg64
(lp1152
S'request_method'
p1153
asbag57
(g78
g59
NtRp1154
(dp1155
g62
(dp1156
g89
g90
ssg71
g1145
sg64
(lp1157
S':'
asbag57
(g78
g59
NtRp1158
(dp1159
g62
(dp1160
sg71
g1145
sg64
(lp1161
g57
(g58
g59
NtRp1162
(dp1163
g62
(dp1164
g70
I4
ssg71
g1158
sg64
(lp1165
S'GET'
p1166
asbasbasbag57
(g73
g59
NtRp1167
(dp1168
g62
(dp1169
sg71
g637
sg64
(lp1170
g57
(g78
g59
NtRp1171
(dp1172
g62
(dp1173
g82
g83
ssg71
g1167
sg64
(lp1174
S'request_uri'
p1175
asbag57
(g78
g59
NtRp1176
(dp1177
g62
(dp1178
g89
g90
ssg71
g1167
sg64
(lp1179
S':'
asbag57
(g78
g59
NtRp1180
(dp1181
g62
(dp1182
sg71
g1167
sg64
(lp1183
g57
(g58
g59
NtRp1184
(dp1185
g62
(dp1186
g70
I4
ssg71
g1180
sg64
(lp1187
g1080
asbasbasbag57
(g73
g59
NtRp1188
(dp1189
g62
(dp1190
sg71
g637
sg64
(lp1191
g57
(g78
g59
NtRp1192
(dp1193
g62
(dp1194
g82
g83
ssg71
g1188
sg64
(lp1195
S'script_name'
p1196
asbag57
(g78
g59
NtRp1197
(dp1198
g62
(dp1199
g89
g90
ssg71
g1188
sg64
(lp1200
S':'
asbag57
(g78
g59
NtRp1201
(dp1202
g62
(dp1203
sg71
g1188
sg64
(lp1204
g57
(g58
g59
NtRp1205
(dp1206
g62
(dp1207
g70
I4
ssg71
g1201
sg64
(lp1208
S''
asbasbasbag57
(g73
g59
NtRp1209
(dp1210
g62
(dp1211
sg71
g637
sg64
(lp1212
g57
(g78
g59
NtRp1213
(dp1214
g62
(dp1215
g82
g83
ssg71
g1209
sg64
(lp1216
S'server_name'
p1217
asbag57
(g78
g59
NtRp1218
(dp1219
g62
(dp1220
g89
g90
ssg71
g1209
sg64
(lp1221
S':'
asbag57
(g78
g59
NtRp1222
(dp1223
g62
(dp1224
sg71
g1209
sg64
(lp1225
g57
(g58
g59
NtRp1226
(dp1227
g62
(dp1228
g70
I4
ssg71
g1222
sg64
(lp1229
S'whisperer'
p1230
asbasbasbag57
(g73
g59
NtRp1231
(dp1232
g62
(dp1233
sg71
g637
sg64
(lp1234
g57
(g78
g59
NtRp1235
(dp1236
g62
(dp1237
g82
g83
ssg71
g1231
sg64
(lp1238
S'server_port'
p1239
asbag57
(g78
g59
NtRp1240
(dp1241
g62
(dp1242
g89
g90
ssg71
g1231
sg64
(lp1243
S':'
asbag57
(g78
g59
NtRp1244
(dp1245
g62
(dp1246
sg71
g1231
sg64
(lp1247
g57
(g58
g59
NtRp1248
(dp1249
g62
(dp1250
g70
I4
ssg71
g1244
sg64
(lp1251
S'8000'
p1252
asbasbasbag57
(g73
g59
NtRp1253
(dp1254
g62
(dp1255
sg71
g637
sg64
(lp1256
g57
(g78
g59
NtRp1257
(dp1258
g62
(dp1259
g82
g83
ssg71
g1253
sg64
(lp1260
S'server_protocol'
p1261
asbag57
(g78
g59
NtRp1262
(dp1263
g62
(dp1264
g89
g90
ssg71
g1253
sg64
(lp1265
S':'
asbag57
(g78
g59
NtRp1266
(dp1267
g62
(dp1268
sg71
g1253
sg64
(lp1269
g57
(g58
g59
NtRp1270
(dp1271
g62
(dp1272
g70
I4
ssg71
g1266
sg64
(lp1273
S'HTTP/1.1'
p1274
asbasbasbag57
(g73
g59
NtRp1275
(dp1276
g62
(dp1277
sg71
g637
sg64
(lp1278
g57
(g78
g59
NtRp1279
(dp1280
g62
(dp1281
g82
g83
ssg71
g1275
sg64
(lp1282
S'server_software'
p1283
asbag57
(g78
g59
NtRp1284
(dp1285
g62
(dp1286
g89
g90
ssg71
g1275
sg64
(lp1287
S':'
asbag57
(g78
g59
NtRp1288
(dp1289
g62
(dp1290
sg71
g1275
sg64
(lp1291
g57
(g58
g59
NtRp1292
(dp1293
g62
(dp1294
g70
I4
ssg71
g1288
sg64
(lp1295
S'Rocket 1.2.4'
p1296
asbasbasbag57
(g73
g59
NtRp1297
(dp1298
g62
(dp1299
sg71
g637
sg64
(lp1300
g57
(g78
g59
NtRp1301
(dp1302
g62
(dp1303
g82
g83
ssg71
g1297
sg64
(lp1304
S'web2py_crontype'
p1305
asbag57
(g78
g59
NtRp1306
(dp1307
g62
(dp1308
g89
g90
ssg71
g1297
sg64
(lp1309
S':'
asbag57
(g78
g59
NtRp1310
(dp1311
g62
(dp1312
sg71
g1297
sg64
(lp1313
g57
(g58
g59
NtRp1314
(dp1315
g62
(dp1316
g70
I4
ssg71
g1310
sg64
(lp1317
S'hard'
p1318
asbasbasbag57
(g73
g59
NtRp1319
(dp1320
g62
(dp1321
sg71
g637
sg64
(lp1322
g57
(g78
g59
NtRp1323
(dp1324
g62
(dp1325
g82
g83
ssg71
g1319
sg64
(lp1326
S'web2py_original_uri'
p1327
asbag57
(g78
g59
NtRp1328
(dp1329
g62
(dp1330
g89
g90
ssg71
g1319
sg64
(lp1331
S':'
asbag57
(g78
g59
NtRp1332
(dp1333
g62
(dp1334
sg71
g1319
sg64
(lp1335
g57
(g58
g59
NtRp1336
(dp1337
g62
(dp1338
g70
I4
ssg71
g1332
sg64
(lp1339
g1080
asbasbasbag57
(g73
g59
NtRp1340
(dp1341
g62
(dp1342
sg71
g637
sg64
(lp1343
g57
(g78
g59
NtRp1344
(dp1345
g62
(dp1346
g82
g83
ssg71
g1340
sg64
(lp1347
S'web2py_path'
p1348
asbag57
(g78
g59
NtRp1349
(dp1350
g62
(dp1351
g89
g90
ssg71
g1340
sg64
(lp1352
S':'
asbag57
(g78
g59
NtRp1353
(dp1354
g62
(dp1355
sg71
g1340
sg64
(lp1356
g57
(g58
g59
NtRp1357
(dp1358
g62
(dp1359
g70
I4
ssg71
g1353
sg64
(lp1360
g684
asbasbasbag57
(g73
g59
NtRp1361
(dp1362
g62
(dp1363
sg71
g637
sg64
(lp1364
g57
(g78
g59
NtRp1365
(dp1366
g62
(dp1367
g82
g83
ssg71
g1361
sg64
(lp1368
S'web2py_version'
p1369
asbag57
(g78
g59
NtRp1370
(dp1371
g62
(dp1372
g89
g90
ssg71
g1361
sg64
(lp1373
S':'
asbag57
(g78
g59
NtRp1374
(dp1375
g62
(dp1376
sg71
g1361
sg64
(lp1377
g57
(g58
g59
NtRp1378
(dp1379
g62
(dp1380
g70
I4
ssg71
g1374
sg64
(lp1381
g57
(g66
g59
NtRp1382
(dp1383
g62
(dp1384
g70
I3
ssg71
Nsg64
(lp1385
g57
(g73
g59
NtRp1386
(dp1387
g62
(dp1388
sg71
g1382
sg64
(lp1389
g57
(g78
g59
NtRp1390
(dp1391
g62
(dp1392
sg71
g1386
sg64
(lp1393
g57
(g58
g59
NtRp1394
(dp1395
g62
(dp1396
g70
I3
ssg71
g1390
sg64
(lp1397
S'1'
asbasbasbag57
(g73
g59
NtRp1398
(dp1399
g62
(dp1400
sg71
g1382
sg64
(lp1401
g57
(g78
g59
NtRp1402
(dp1403
g62
(dp1404
sg71
g1398
sg64
(lp1405
g57
(g58
g59
NtRp1406
(dp1407
g62
(dp1408
g70
I3
ssg71
g1402
sg64
(lp1409
S'99'
p1410
asbasbasbag57
(g73
g59
NtRp1411
(dp1412
g62
(dp1413
sg71
g1382
sg64
(lp1414
g57
(g78
g59
NtRp1415
(dp1416
g62
(dp1417
sg71
g1411
sg64
(lp1418
g57
(g58
g59
NtRp1419
(dp1420
g62
(dp1421
g70
I3
ssg71
g1415
sg64
(lp1422
S'7'
asbasbasbag57
(g73
g59
NtRp1423
(dp1424
g62
(dp1425
sg71
g1382
sg64
(lp1426
g57
(g78
g59
NtRp1427
(dp1428
g62
(dp1429
sg71
g1423
sg64
(lp1430
g57
(g58
g59
NtRp1431
(dp1432
g62
(dp1433
g70
I3
ssg71
g1427
sg64
(lp1434
S'datetime.datetime(2012, 3, 4, 22, 12, 8)'
p1435
asbasbasbag57
(g73
g59
NtRp1436
(dp1437
g62
(dp1438
sg71
g1382
sg64
(lp1439
g57
(g78
g59
NtRp1440
(dp1441
g62
(dp1442
sg71
g1436
sg64
(lp1443
g57
(g58
g59
NtRp1444
(dp1445
g62
(dp1446
g70
I3
ssg71
g1440
sg64
(lp1447
S'stable'
p1448
asbasbasbasbasbasbasbag57
(g73
g59
NtRp1449
(dp1450
g62
(dp1451
sg71
g637
sg64
(lp1452
g57
(g78
g59
NtRp1453
(dp1454
g62
(dp1455
g82
g83
ssg71
g1449
sg64
(lp1456
S'wsgi_errors'
p1457
asbag57
(g78
g59
NtRp1458
(dp1459
g62
(dp1460
g89
g90
ssg71
g1449
sg64
(lp1461
S':'
asbag57
(g78
g59
NtRp1462
(dp1463
g62
(dp1464
sg71
g1449
sg64
(lp1465
g57
(g58
g59
NtRp1466
(dp1467
g62
(dp1468
g70
I4
ssg71
g1462
sg64
(lp1469
S"<open file '<stderr>', mode 'w' at 0x7f43fec2c270>"
p1470
asbasbasbag57
(g73
g59
NtRp1471
(dp1472
g62
(dp1473
sg71
g637
sg64
(lp1474
g57
(g78
g59
NtRp1475
(dp1476
g62
(dp1477
g82
g83
ssg71
g1471
sg64
(lp1478
S'wsgi_file_wrapper'
p1479
asbag57
(g78
g59
NtRp1480
(dp1481
g62
(dp1482
g89
g90
ssg71
g1471
sg64
(lp1483
S':'
asbag57
(g78
g59
NtRp1484
(dp1485
g62
(dp1486
sg71
g1471
sg64
(lp1487
g57
(g58
g59
NtRp1488
(dp1489
g62
(dp1490
g70
I4
ssg71
g1484
sg64
(lp1491
S'<class wsgiref.util.FileWrapper at 0x3341f58>'
p1492
asbasbasbag57
(g73
g59
NtRp1493
(dp1494
g62
(dp1495
sg71
g637
sg64
(lp1496
g57
(g78
g59
NtRp1497
(dp1498
g62
(dp1499
g82
g83
ssg71
g1493
sg64
(lp1500
S'wsgi_input'
p1501
asbag57
(g78
g59
NtRp1502
(dp1503
g62
(dp1504
g89
g90
ssg71
g1493
sg64
(lp1505
S':'
asbag57
(g78
g59
NtRp1506
(dp1507
g62
(dp1508
sg71
g1493
sg64
(lp1509
g57
(g58
g59
NtRp1510
(dp1511
g62
(dp1512
g70
I4
ssg71
g1506
sg64
(lp1513
S'<socket._fileobject object at 0x3475450>'
p1514
asbasbasbag57
(g73
g59
NtRp1515
(dp1516
g62
(dp1517
sg71
g637
sg64
(lp1518
g57
(g78
g59
NtRp1519
(dp1520
g62
(dp1521
g82
g83
ssg71
g1515
sg64
(lp1522
S'wsgi_multiprocess'
p1523
asbag57
(g78
g59
NtRp1524
(dp1525
g62
(dp1526
g89
g90
ssg71
g1515
sg64
(lp1527
S':'
asbag57
(g78
g59
NtRp1528
(dp1529
g62
(dp1530
sg71
g1515
sg64
(lp1531
g57
(g58
g59
NtRp1532
(dp1533
g62
(dp1534
g70
I4
ssg71
g1528
sg64
(lp1535
g100
asbasbasbag57
(g73
g59
NtRp1536
(dp1537
g62
(dp1538
sg71
g637
sg64
(lp1539
g57
(g78
g59
NtRp1540
(dp1541
g62
(dp1542
g82
g83
ssg71
g1536
sg64
(lp1543
S'wsgi_multithread'
p1544
asbag57
(g78
g59
NtRp1545
(dp1546
g62
(dp1547
g89
g90
ssg71
g1536
sg64
(lp1548
S':'
asbag57
(g78
g59
NtRp1549
(dp1550
g62
(dp1551
sg71
g1536
sg64
(lp1552
g57
(g58
g59
NtRp1553
(dp1554
g62
(dp1555
g70
I4
ssg71
g1549
sg64
(lp1556
S'True'
p1557
asbasbasbag57
(g73
g59
NtRp1558
(dp1559
g62
(dp1560
sg71
g637
sg64
(lp1561
g57
(g78
g59
NtRp1562
(dp1563
g62
(dp1564
g82
g83
ssg71
g1558
sg64
(lp1565
S'wsgi_run_once'
p1566
asbag57
(g78
g59
NtRp1567
(dp1568
g62
(dp1569
g89
g90
ssg71
g1558
sg64
(lp1570
S':'
asbag57
(g78
g59
NtRp1571
(dp1572
g62
(dp1573
sg71
g1558
sg64
(lp1574
g57
(g58
g59
NtRp1575
(dp1576
g62
(dp1577
g70
I4
ssg71
g1571
sg64
(lp1578
g100
asbasbasbag57
(g73
g59
NtRp1579
(dp1580
g62
(dp1581
sg71
g637
sg64
(lp1582
g57
(g78
g59
NtRp1583
(dp1584
g62
(dp1585
g82
g83
ssg71
g1579
sg64
(lp1586
S'wsgi_url_scheme'
p1587
asbag57
(g78
g59
NtRp1588
(dp1589
g62
(dp1590
g89
g90
ssg71
g1579
sg64
(lp1591
S':'
asbag57
(g78
g59
NtRp1592
(dp1593
g62
(dp1594
sg71
g1579
sg64
(lp1595
g57
(g58
g59
NtRp1596
(dp1597
g62
(dp1598
g70
I4
ssg71
g1592
sg64
(lp1599
S'http'
p1600
asbasbasbag57
(g73
g59
NtRp1601
(dp1602
g62
(dp1603
sg71
g637
sg64
(lp1604
g57
(g78
g59
NtRp1605
(dp1606
g62
(dp1607
g82
g83
ssg71
g1601
sg64
(lp1608
S'wsgi_version'
p1609
asbag57
(g78
g59
NtRp1610
(dp1611
g62
(dp1612
g89
g90
ssg71
g1601
sg64
(lp1613
S':'
asbag57
(g78
g59
NtRp1614
(dp1615
g62
(dp1616
sg71
g1601
sg64
(lp1617
g57
(g58
g59
NtRp1618
(dp1619
g62
(dp1620
g70
I4
ssg71
g1614
sg64
(lp1621
g57
(g66
g59
NtRp1622
(dp1623
g62
(dp1624
g70
I3
ssg71
Nsg64
(lp1625
g57
(g73
g59
NtRp1626
(dp1627
g62
(dp1628
sg71
g1622
sg64
(lp1629
g57
(g78
g59
NtRp1630
(dp1631
g62
(dp1632
sg71
g1626
sg64
(lp1633
g57
(g58
g59
NtRp1634
(dp1635
g62
(dp1636
g70
I3
ssg71
g1630
sg64
(lp1637
S'1'
asbasbasbag57
(g73
g59
NtRp1638
(dp1639
g62
(dp1640
sg71
g1622
sg64
(lp1641
g57
(g78
g59
NtRp1642
(dp1643
g62
(dp1644
sg71
g1638
sg64
(lp1645
g57
(g58
g59
NtRp1646
(dp1647
g62
(dp1648
g70
I3
ssg71
g1642
sg64
(lp1649
S'0'
asbasbasbasbasbasbasbasbasbasbasbag57
(g73
g59
NtRp1650
(dp1651
g62
(dp1652
sg71
g67
sg64
(lp1653
g57
(g78
g59
NtRp1654
(dp1655
g62
(dp1656
g82
g83
ssg71
g1650
sg64
(lp1657
S'extension'
p1658
asbag57
(g78
g59
NtRp1659
(dp1660
g62
(dp1661
g89
g90
ssg71
g1650
sg64
(lp1662
S':'
asbag57
(g78
g59
NtRp1663
(dp1664
g62
(dp1665
sg71
g1650
sg64
(lp1666
g57
(g58
g59
NtRp1667
(dp1668
g62
(dp1669
g70
I5
ssg71
g1663
sg64
(lp1670
S'html'
p1671
asbasbasbag57
(g73
g59
NtRp1672
(dp1673
g62
(dp1674
sg71
g67
sg64
(lp1675
g57
(g78
g59
NtRp1676
(dp1677
g62
(dp1678
g82
g83
ssg71
g1672
sg64
(lp1679
S'folder'
p1680
asbag57
(g78
g59
NtRp1681
(dp1682
g62
(dp1683
g89
g90
ssg71
g1672
sg64
(lp1684
S':'
asbag57
(g78
g59
NtRp1685
(dp1686
g62
(dp1687
sg71
g1672
sg64
(lp1688
g57
(g58
g59
NtRp1689
(dp1690
g62
(dp1691
g70
I5
ssg71
g1685
sg64
(lp1692
S'/home/goshawk/web2py/applications/milo/'
p1693
asbasbasbag57
(g73
g59
NtRp1694
(dp1695
g62
(dp1696
sg71
g67
sg64
(lp1697
g57
(g78
g59
NtRp1698
(dp1699
g62
(dp1700
g82
g83
ssg71
g1694
sg64
(lp1701
S'function'
p1702
asbag57
(g78
g59
NtRp1703
(dp1704
g62
(dp1705
g89
g90
ssg71
g1694
sg64
(lp1706
S':'
asbag57
(g78
g59
NtRp1707
(dp1708
g62
(dp1709
sg71
g1694
sg64
(lp1710
g57
(g58
g59
NtRp1711
(dp1712
g62
(dp1713
g70
I5
ssg71
g1707
sg64
(lp1714
S'index'
p1715
asbasbasbag57
(g73
g59
NtRp1716
(dp1717
g62
(dp1718
sg71
g67
sg64
(lp1719
g57
(g78
g59
NtRp1720
(dp1721
g62
(dp1722
g82
g83
ssg71
g1716
sg64
(lp1723
S'get_vars'
p1724
asbag57
(g78
g59
NtRp1725
(dp1726
g62
(dp1727
g89
g90
ssg71
g1716
sg64
(lp1728
S':'
asbag57
(g78
g59
NtRp1729
(dp1730
g62
(dp1731
sg71
g1716
sg64
(lp1732
g57
(g58
g59
NtRp1733
(dp1734
g62
(dp1735
g70
I5
ssg71
g1729
sg64
(lp1736
g57
(g66
g59
NtRp1737
(dp1738
g62
(dp1739
g70
I4
ssg71
Nsg64
(lp1740
sbasbasbasbag57
(g73
g59
NtRp1741
(dp1742
g62
(dp1743
sg71
g67
sg64
(lp1744
g57
(g78
g59
NtRp1745
(dp1746
g62
(dp1747
g82
g83
ssg71
g1741
sg64
(lp1748
S'global_settings'
p1749
asbag57
(g78
g59
NtRp1750
(dp1751
g62
(dp1752
g89
g90
ssg71
g1741
sg64
(lp1753
S':'
asbag57
(g78
g59
NtRp1754
(dp1755
g62
(dp1756
sg71
g1741
sg64
(lp1757
g57
(g58
g59
NtRp1758
(dp1759
g62
(dp1760
g70
I5
ssg71
g1754
sg64
(lp1761
g57
(g66
g59
NtRp1762
(dp1763
g62
(dp1764
g70
I4
ssg71
Nsg64
(lp1765
g57
(g73
g59
NtRp1766
(dp1767
g62
(dp1768
sg71
g1762
sg64
(lp1769
g57
(g78
g59
NtRp1770
(dp1771
g62
(dp1772
g82
g83
ssg71
g1766
sg64
(lp1773
g649
asbag57
(g78
g59
NtRp1774
(dp1775
g62
(dp1776
g89
g90
ssg71
g1766
sg64
(lp1777
S':'
asbag57
(g78
g59
NtRp1778
(dp1779
g62
(dp1780
sg71
g1766
sg64
(lp1781
g57
(g58
g59
NtRp1782
(dp1783
g62
(dp1784
g70
I4
ssg71
g1778
sg64
(lp1785
S"set(['/home/goshawk/web2py/applications/milo/'])"
p1786
asbasbasbag57
(g73
g59
NtRp1787
(dp1788
g62
(dp1789
sg71
g1762
sg64
(lp1790
g57
(g78
g59
NtRp1791
(dp1792
g62
(dp1793
g82
g83
ssg71
g1787
sg64
(lp1794
g671
asbag57
(g78
g59
NtRp1795
(dp1796
g62
(dp1797
g89
g90
ssg71
g1787
sg64
(lp1798
S':'
asbag57
(g78
g59
NtRp1799
(dp1800
g62
(dp1801
sg71
g1787
sg64
(lp1802
g57
(g58
g59
NtRp1803
(dp1804
g62
(dp1805
g70
I4
ssg71
g1799
sg64
(lp1806
g684
asbasbasbag57
(g73
g59
NtRp1807
(dp1808
g62
(dp1809
sg71
g1762
sg64
(lp1810
g57
(g78
g59
NtRp1811
(dp1812
g62
(dp1813
g82
g83
ssg71
g1807
sg64
(lp1814
g693
asbag57
(g78
g59
NtRp1815
(dp1816
g62
(dp1817
g89
g90
ssg71
g1807
sg64
(lp1818
S':'
asbag57
(g78
g59
NtRp1819
(dp1820
g62
(dp1821
sg71
g1807
sg64
(lp1822
g57
(g58
g59
NtRp1823
(dp1824
g62
(dp1825
g70
I4
ssg71
g1819
sg64
(lp1826
g57
(g66
g59
NtRp1827
(dp1828
g62
(dp1829
g70
I3
ssg71
Nsg64
(lp1830
sbasbasbasbag57
(g73
g59
NtRp1831
(dp1832
g62
(dp1833
sg71
g1762
sg64
(lp1834
g57
(g78
g59
NtRp1835
(dp1836
g62
(dp1837
g82
g83
ssg71
g1831
sg64
(lp1838
g718
asbag57
(g78
g59
NtRp1839
(dp1840
g62
(dp1841
g89
g90
ssg71
g1831
sg64
(lp1842
S':'
asbag57
(g78
g59
NtRp1843
(dp1844
g62
(dp1845
sg71
g1831
sg64
(lp1846
g57
(g58
g59
NtRp1847
(dp1848
g62
(dp1849
g70
I4
ssg71
g1843
sg64
(lp1850
S"<Values at 0x34150e0: {'verbose': False, 'ip': '127.0.0.1', 'shutdown_timeout': 5, 'taskbar': False, 'nocron': False, 'pid_filename': 'httpserver.pid', 'maxthreads': None, 'softcron': False, 'server_name': 'whisperer', 'bpython': False, 'nogui': False, 'port': 8000, 'extcron': False, 'debuglevel': 30, 'test': None, 'folder': '/home/goshawk/web2py', 'config': '', 'import_models': False, 'winservice': '', 'shell': None, 'run': '', 'log_filename': 'httpserver.log', 'args': [''], 'socket_timeout': 5, 'ssl_ca_certificate': None, 'scheduler': None, 'profiler_filename': None, 'ssl_private_key': '', 'password': 'admin', 'request_queue_size': 5, 'ssl_certificate': '', 'cronjob': False, 'numthreads': None, 'quiet': False, 'interfaces': None, 'minthreads': None, 'timeout': 10, 'plain': False, 'nobanner': False}>"
p1851
asbasbasbag57
(g73
g59
NtRp1852
(dp1853
g62
(dp1854
sg71
g1762
sg64
(lp1855
g57
(g78
g59
NtRp1856
(dp1857
g62
(dp1858
g82
g83
ssg71
g1852
sg64
(lp1859
g740
asbag57
(g78
g59
NtRp1860
(dp1861
g62
(dp1862
g89
g90
ssg71
g1852
sg64
(lp1863
S':'
asbag57
(g78
g59
NtRp1864
(dp1865
g62
(dp1866
sg71
g1852
sg64
(lp1867
g57
(g58
g59
NtRp1868
(dp1869
g62
(dp1870
g70
I4
ssg71
g1864
sg64
(lp1871
S'set([])'
p1872
asbasbasbag57
(g73
g59
NtRp1873
(dp1874
g62
(dp1875
sg71
g1762
sg64
(lp1876
g57
(g78
g59
NtRp1877
(dp1878
g62
(dp1879
g82
g83
ssg71
g1873
sg64
(lp1880
g762
asbag57
(g78
g59
NtRp1881
(dp1882
g62
(dp1883
g89
g90
ssg71
g1873
sg64
(lp1884
S':'
asbag57
(g78
g59
NtRp1885
(dp1886
g62
(dp1887
sg71
g1873
sg64
(lp1888
g57
(g58
g59
NtRp1889
(dp1890
g62
(dp1891
g70
I4
ssg71
g1885
sg64
(lp1892
g100
asbasbasbag57
(g73
g59
NtRp1893
(dp1894
g62
(dp1895
sg71
g1762
sg64
(lp1896
g57
(g78
g59
NtRp1897
(dp1898
g62
(dp1899
g82
g83
ssg71
g1893
sg64
(lp1900
g783
asbag57
(g78
g59
NtRp1901
(dp1902
g62
(dp1903
g89
g90
ssg71
g1893
sg64
(lp1904
S':'
asbag57
(g78
g59
NtRp1905
(dp1906
g62
(dp1907
sg71
g1893
sg64
(lp1908
g57
(g58
g59
NtRp1909
(dp1910
g62
(dp1911
g70
I4
ssg71
g1905
sg64
(lp1912
g796
asbasbasbag57
(g73
g59
NtRp1913
(dp1914
g62
(dp1915
sg71
g1762
sg64
(lp1916
g57
(g78
g59
NtRp1917
(dp1918
g62
(dp1919
g82
g83
ssg71
g1913
sg64
(lp1920
g1025
asbag57
(g78
g59
NtRp1921
(dp1922
g62
(dp1923
g89
g90
ssg71
g1913
sg64
(lp1924
S':'
asbag57
(g78
g59
NtRp1925
(dp1926
g62
(dp1927
sg71
g1913
sg64
(lp1928
g57
(g58
g59
NtRp1929
(dp1930
g62
(dp1931
g70
I4
ssg71
g1925
sg64
(lp1932
g100
asbasbasbag57
(g73
g59
NtRp1933
(dp1934
g62
(dp1935
sg71
g1762
sg64
(lp1936
g57
(g78
g59
NtRp1937
(dp1938
g62
(dp1939
g82
g83
ssg71
g1933
sg64
(lp1940
g1046
asbag57
(g78
g59
NtRp1941
(dp1942
g62
(dp1943
g89
g90
ssg71
g1933
sg64
(lp1944
S':'
asbag57
(g78
g59
NtRp1945
(dp1946
g62
(dp1947
sg71
g1933
sg64
(lp1948
g57
(g58
g59
NtRp1949
(dp1950
g62
(dp1951
g70
I4
ssg71
g1945
sg64
(lp1952
g100
asbasbasbag57
(g73
g59
NtRp1953
(dp1954
g62
(dp1955
sg71
g1762
sg64
(lp1956
g57
(g78
g59
NtRp1957
(dp1958
g62
(dp1959
g82
g83
ssg71
g1953
sg64
(lp1960
g1305
asbag57
(g78
g59
NtRp1961
(dp1962
g62
(dp1963
g89
g90
ssg71
g1953
sg64
(lp1964
S':'
asbag57
(g78
g59
NtRp1965
(dp1966
g62
(dp1967
sg71
g1953
sg64
(lp1968
g57
(g58
g59
NtRp1969
(dp1970
g62
(dp1971
g70
I4
ssg71
g1965
sg64
(lp1972
g1318
asbasbasbag57
(g73
g59
NtRp1973
(dp1974
g62
(dp1975
sg71
g1762
sg64
(lp1976
g57
(g78
g59
NtRp1977
(dp1978
g62
(dp1979
g82
g83
ssg71
g1973
sg64
(lp1980
g1369
asbag57
(g78
g59
NtRp1981
(dp1982
g62
(dp1983
g89
g90
ssg71
g1973
sg64
(lp1984
S':'
asbag57
(g78
g59
NtRp1985
(dp1986
g62
(dp1987
sg71
g1973
sg64
(lp1988
g57
(g58
g59
NtRp1989
(dp1990
g62
(dp1991
g70
I4
ssg71
g1985
sg64
(lp1992
g57
(g66
g59
NtRp1993
(dp1994
g62
(dp1995
g70
I3
ssg71
Nsg64
(lp1996
g57
(g73
g59
NtRp1997
(dp1998
g62
(dp1999
sg71
g1993
sg64
(lp2000
g57
(g78
g59
NtRp2001
(dp2002
g62
(dp2003
sg71
g1997
sg64
(lp2004
g57
(g58
g59
NtRp2005
(dp2006
g62
(dp2007
g70
I3
ssg71
g2001
sg64
(lp2008
S'1'
asbasbasbag57
(g73
g59
NtRp2009
(dp2010
g62
(dp2011
sg71
g1993
sg64
(lp2012
g57
(g78
g59
NtRp2013
(dp2014
g62
(dp2015
sg71
g2009
sg64
(lp2016
g57
(g58
g59
NtRp2017
(dp2018
g62
(dp2019
g70
I3
ssg71
g2013
sg64
(lp2020
S'99'
p2021
asbasbasbag57
(g73
g59
NtRp2022
(dp2023
g62
(dp2024
sg71
g1993
sg64
(lp2025
g57
(g78
g59
NtRp2026
(dp2027
g62
(dp2028
sg71
g2022
sg64
(lp2029
g57
(g58
g59
NtRp2030
(dp2031
g62
(dp2032
g70
I3
ssg71
g2026
sg64
(lp2033
S'7'
asbasbasbag57
(g73
g59
NtRp2034
(dp2035
g62
(dp2036
sg71
g1993
sg64
(lp2037
g57
(g78
g59
NtRp2038
(dp2039
g62
(dp2040
sg71
g2034
sg64
(lp2041
g57
(g58
g59
NtRp2042
(dp2043
g62
(dp2044
g70
I3
ssg71
g2038
sg64
(lp2045
S'datetime.datetime(2012, 3, 4, 22, 12, 8)'
p2046
asbasbasbag57
(g73
g59
NtRp2047
(dp2048
g62
(dp2049
sg71
g1993
sg64
(lp2050
g57
(g78
g59
NtRp2051
(dp2052
g62
(dp2053
sg71
g2047
sg64
(lp2054
g57
(g58
g59
NtRp2055
(dp2056
g62
(dp2057
g70
I3
ssg71
g2051
sg64
(lp2058
g1448
asbasbasbasbasbasbasbasbasbasbasbag57
(g73
g59
NtRp2059
(dp2060
g62
(dp2061
sg71
g67
sg64
(lp2062
g57
(g78
g59
NtRp2063
(dp2064
g62
(dp2065
g82
g83
ssg71
g2059
sg64
(lp2066
S'is_https'
p2067
asbag57
(g78
g59
NtRp2068
(dp2069
g62
(dp2070
g89
g90
ssg71
g2059
sg64
(lp2071
S':'
asbag57
(g78
g59
NtRp2072
(dp2073
g62
(dp2074
sg71
g2059
sg64
(lp2075
g57
(g58
g59
NtRp2076
(dp2077
g62
(dp2078
g70
I5
ssg71
g2072
sg64
(lp2079
g100
asbasbasbag57
(g73
g59
NtRp2080
(dp2081
g62
(dp2082
sg71
g67
sg64
(lp2083
g57
(g78
g59
NtRp2084
(dp2085
g62
(dp2086
g82
g83
ssg71
g2080
sg64
(lp2087
S'is_local'
p2088
asbag57
(g78
g59
NtRp2089
(dp2090
g62
(dp2091
g89
g90
ssg71
g2080
sg64
(lp2092
S':'
asbag57
(g78
g59
NtRp2093
(dp2094
g62
(dp2095
sg71
g2080
sg64
(lp2096
g57
(g58
g59
NtRp2097
(dp2098
g62
(dp2099
g70
I5
ssg71
g2093
sg64
(lp2100
g1557
asbasbasbag57
(g73
g59
NtRp2101
(dp2102
g62
(dp2103
sg71
g67
sg64
(lp2104
g57
(g78
g59
NtRp2105
(dp2106
g62
(dp2107
g82
g83
ssg71
g2101
sg64
(lp2108
S'is_restful'
p2109
asbag57
(g78
g59
NtRp2110
(dp2111
g62
(dp2112
g89
g90
ssg71
g2101
sg64
(lp2113
S':'
asbag57
(g78
g59
NtRp2114
(dp2115
g62
(dp2116
sg71
g2101
sg64
(lp2117
g57
(g58
g59
NtRp2118
(dp2119
g62
(dp2120
g70
I5
ssg71
g2114
sg64
(lp2121
g100
asbasbasbag57
(g73
g59
NtRp2122
(dp2123
g62
(dp2124
sg71
g67
sg64
(lp2125
g57
(g78
g59
NtRp2126
(dp2127
g62
(dp2128
g82
g83
ssg71
g2122
sg64
(lp2129
S'now'
p2130
asbag57
(g78
g59
NtRp2131
(dp2132
g62
(dp2133
g89
g90
ssg71
g2122
sg64
(lp2134
S':'
asbag57
(g78
g59
NtRp2135
(dp2136
g62
(dp2137
sg71
g2122
sg64
(lp2138
g57
(g58
g59
NtRp2139
(dp2140
g62
(dp2141
g70
I5
ssg71
g2135
sg64
(lp2142
S'datetime.datetime(2012, 7, 15, 1, 12, 28, 407364)'
p2143
asbasbasbag57
(g73
g59
NtRp2144
(dp2145
g62
(dp2146
sg71
g67
sg64
(lp2147
g57
(g78
g59
NtRp2148
(dp2149
g62
(dp2150
g82
g83
ssg71
g2144
sg64
(lp2151
S'post_vars'
p2152
asbag57
(g78
g59
NtRp2153
(dp2154
g62
(dp2155
g89
g90
ssg71
g2144
sg64
(lp2156
S':'
asbag57
(g78
g59
NtRp2157
(dp2158
g62
(dp2159
sg71
g2144
sg64
(lp2160
g57
(g58
g59
NtRp2161
(dp2162
g62
(dp2163
g70
I5
ssg71
g2157
sg64
(lp2164
g57
(g66
g59
NtRp2165
(dp2166
g62
(dp2167
g70
I4
ssg71
Nsg64
(lp2168
sbasbasbasbag57
(g73
g59
NtRp2169
(dp2170
g62
(dp2171
sg71
g67
sg64
(lp2172
g57
(g78
g59
NtRp2173
(dp2174
g62
(dp2175
g82
g83
ssg71
g2169
sg64
(lp2176
S'url'
p2177
asbag57
(g78
g59
NtRp2178
(dp2179
g62
(dp2180
g89
g90
ssg71
g2169
sg64
(lp2181
S':'
asbag57
(g78
g59
NtRp2182
(dp2183
g62
(dp2184
sg71
g2169
sg64
(lp2185
g57
(g58
g59
NtRp2186
(dp2187
g62
(dp2188
g70
I5
ssg71
g2182
sg64
(lp2189
S'/milo/admin/index'
p2190
asbasbasbag57
(g73
g59
NtRp2191
(dp2192
g62
(dp2193
sg71
g67
sg64
(lp2194
g57
(g78
g59
NtRp2195
(dp2196
g62
(dp2197
g82
g83
ssg71
g2191
sg64
(lp2198
S'utcnow'
p2199
asbag57
(g78
g59
NtRp2200
(dp2201
g62
(dp2202
g89
g90
ssg71
g2191
sg64
(lp2203
S':'
asbag57
(g78
g59
NtRp2204
(dp2205
g62
(dp2206
sg71
g2191
sg64
(lp2207
g57
(g58
g59
NtRp2208
(dp2209
g62
(dp2210
g70
I5
ssg71
g2204
sg64
(lp2211
S'datetime.datetime(2012, 7, 14, 23, 12, 28, 407382)'
p2212
asbasbasbag57
(g73
g59
NtRp2213
(dp2214
g62
(dp2215
sg71
g67
sg64
(lp2216
g57
(g78
g59
NtRp2217
(dp2218
g62
(dp2219
g82
g83
ssg71
g2213
sg64
(lp2220
S'uuid'
p2221
asbag57
(g78
g59
NtRp2222
(dp2223
g62
(dp2224
g89
g90
ssg71
g2213
sg64
(lp2225
S':'
asbag57
(g78
g59
NtRp2226
(dp2227
g62
(dp2228
sg71
g2213
sg64
(lp2229
g57
(g58
g59
NtRp2230
(dp2231
g62
(dp2232
g70
I5
ssg71
g2226
sg64
(lp2233
S'milo/127.0.0.1.2012-07-15.01-12-28.af88af27-27d6-4d90-bfde-5cfcdb2cd43a'
p2234
asbasbasbag57
(g73
g59
NtRp2235
(dp2236
g62
(dp2237
sg71
g67
sg64
(lp2238
g57
(g78
g59
NtRp2239
(dp2240
g62
(dp2241
g82
g83
ssg71
g2235
sg64
(lp2242
S'vars'
p2243
asbag57
(g78
g59
NtRp2244
(dp2245
g62
(dp2246
g89
g90
ssg71
g2235
sg64
(lp2247
S':'
asbag57
(g78
g59
NtRp2248
(dp2249
g62
(dp2250
sg71
g2235
sg64
(lp2251
g57
(g58
g59
NtRp2252
(dp2253
g62
(dp2254
g70
I5
ssg71
g2248
sg64
(lp2255
g57
(g66
g59
NtRp2256
(dp2257
g62
(dp2258
g70
I4
ssg71
Nsg64
(lp2259
sbasbasbasbag57
(g73
g59
NtRp2260
(dp2261
g62
(dp2262
sg71
g67
sg64
(lp2263
g57
(g78
g59
NtRp2264
(dp2265
g62
(dp2266
g82
g83
ssg71
g2260
sg64
(lp2267
S'wsgi'
p2268
asbag57
(g78
g59
NtRp2269
(dp2270
g62
(dp2271
g89
g90
ssg71
g2260
sg64
(lp2272
S':'
asbag57
(g78
g59
NtRp2273
(dp2274
g62
(dp2275
sg71
g2260
sg64
(lp2276
g57
(g58
g59
NtRp2277
(dp2278
g62
(dp2279
g70
I5
ssg71
g2273
sg64
(lp2280
g57
(g66
g59
NtRp2281
(dp2282
g62
(dp2283
g70
I4
ssg71
Nsg64
(lp2284
g57
(g73
g59
NtRp2285
(dp2286
g62
(dp2287
sg71
g2281
sg64
(lp2288
g57
(g78
g59
NtRp2289
(dp2290
g62
(dp2291
g82
g83
ssg71
g2285
sg64
(lp2292
S'environ'
p2293
asbag57
(g78
g59
NtRp2294
(dp2295
g62
(dp2296
g89
g90
ssg71
g2285
sg64
(lp2297
S':'
asbag57
(g78
g59
NtRp2298
(dp2299
g62
(dp2300
sg71
g2285
sg64
(lp2301
g57
(g58
g59
NtRp2302
(dp2303
g62
(dp2304
g70
I4
ssg71
g2298
sg64
(lp2305
g57
(g66
g59
NtRp2306
(dp2307
g62
(dp2308
g70
I3
ssg71
Nsg64
(lp2309
g57
(g73
g59
NtRp2310
(dp2311
g62
(dp2312
sg71
g2306
sg64
(lp2313
g57
(g78
g59
NtRp2314
(dp2315
g62
(dp2316
g82
g83
ssg71
g2310
sg64
(lp2317
S'HTTP_ACCEPT'
p2318
asbag57
(g78
g59
NtRp2319
(dp2320
g62
(dp2321
g89
g90
ssg71
g2310
sg64
(lp2322
S':'
asbag57
(g78
g59
NtRp2323
(dp2324
g62
(dp2325
sg71
g2310
sg64
(lp2326
g57
(g58
g59
NtRp2327
(dp2328
g62
(dp2329
g70
I3
ssg71
g2323
sg64
(lp2330
g818
asbasbasbag57
(g73
g59
NtRp2331
(dp2332
g62
(dp2333
sg71
g2306
sg64
(lp2334
g57
(g78
g59
NtRp2335
(dp2336
g62
(dp2337
g82
g83
ssg71
g2331
sg64
(lp2338
S'HTTP_ACCEPT_CHARSET'
p2339
asbag57
(g78
g59
NtRp2340
(dp2341
g62
(dp2342
g89
g90
ssg71
g2331
sg64
(lp2343
S':'
asbag57
(g78
g59
NtRp2344
(dp2345
g62
(dp2346
sg71
g2331
sg64
(lp2347
g57
(g58
g59
NtRp2348
(dp2349
g62
(dp2350
g70
I3
ssg71
g2344
sg64
(lp2351
g840
asbasbasbag57
(g73
g59
NtRp2352
(dp2353
g62
(dp2354
sg71
g2306
sg64
(lp2355
g57
(g78
g59
NtRp2356
(dp2357
g62
(dp2358
g82
g83
ssg71
g2352
sg64
(lp2359
S'HTTP_ACCEPT_ENCODING'
p2360
asbag57
(g78
g59
NtRp2361
(dp2362
g62
(dp2363
g89
g90
ssg71
g2352
sg64
(lp2364
S':'
asbag57
(g78
g59
NtRp2365
(dp2366
g62
(dp2367
sg71
g2352
sg64
(lp2368
g57
(g58
g59
NtRp2369
(dp2370
g62
(dp2371
g70
I3
ssg71
g2365
sg64
(lp2372
g862
asbasbasbag57
(g73
g59
NtRp2373
(dp2374
g62
(dp2375
sg71
g2306
sg64
(lp2376
g57
(g78
g59
NtRp2377
(dp2378
g62
(dp2379
g82
g83
ssg71
g2373
sg64
(lp2380
S'HTTP_ACCEPT_LANGUAGE'
p2381
asbag57
(g78
g59
NtRp2382
(dp2383
g62
(dp2384
g89
g90
ssg71
g2373
sg64
(lp2385
S':'
asbag57
(g78
g59
NtRp2386
(dp2387
g62
(dp2388
sg71
g2373
sg64
(lp2389
g57
(g58
g59
NtRp2390
(dp2391
g62
(dp2392
g70
I3
ssg71
g2386
sg64
(lp2393
g884
asbasbasbag57
(g73
g59
NtRp2394
(dp2395
g62
(dp2396
sg71
g2306
sg64
(lp2397
g57
(g78
g59
NtRp2398
(dp2399
g62
(dp2400
g82
g83
ssg71
g2394
sg64
(lp2401
S'HTTP_CACHE_CONTROL'
p2402
asbag57
(g78
g59
NtRp2403
(dp2404
g62
(dp2405
g89
g90
ssg71
g2394
sg64
(lp2406
S':'
asbag57
(g78
g59
NtRp2407
(dp2408
g62
(dp2409
sg71
g2394
sg64
(lp2410
g57
(g58
g59
NtRp2411
(dp2412
g62
(dp2413
g70
I3
ssg71
g2407
sg64
(lp2414
g906
asbasbasbag57
(g73
g59
NtRp2415
(dp2416
g62
(dp2417
sg71
g2306
sg64
(lp2418
g57
(g78
g59
NtRp2419
(dp2420
g62
(dp2421
g82
g83
ssg71
g2415
sg64
(lp2422
S'HTTP_CONNECTION'
p2423
asbag57
(g78
g59
NtRp2424
(dp2425
g62
(dp2426
g89
g90
ssg71
g2415
sg64
(lp2427
S':'
asbag57
(g78
g59
NtRp2428
(dp2429
g62
(dp2430
sg71
g2415
sg64
(lp2431
g57
(g58
g59
NtRp2432
(dp2433
g62
(dp2434
g70
I3
ssg71
g2428
sg64
(lp2435
g928
asbasbasbag57
(g73
g59
NtRp2436
(dp2437
g62
(dp2438
sg71
g2306
sg64
(lp2439
g57
(g78
g59
NtRp2440
(dp2441
g62
(dp2442
g82
g83
ssg71
g2436
sg64
(lp2443
S'HTTP_COOKIE'
p2444
asbag57
(g78
g59
NtRp2445
(dp2446
g62
(dp2447
g89
g90
ssg71
g2436
sg64
(lp2448
S':'
asbag57
(g78
g59
NtRp2449
(dp2450
g62
(dp2451
sg71
g2436
sg64
(lp2452
g57
(g58
g59
NtRp2453
(dp2454
g62
(dp2455
g70
I3
ssg71
g2449
sg64
(lp2456
g950
asbasbasbag57
(g73
g59
NtRp2457
(dp2458
g62
(dp2459
sg71
g2306
sg64
(lp2460
g57
(g78
g59
NtRp2461
(dp2462
g62
(dp2463
g82
g83
ssg71
g2457
sg64
(lp2464
S'HTTP_HOST'
p2465
asbag57
(g78
g59
NtRp2466
(dp2467
g62
(dp2468
g89
g90
ssg71
g2457
sg64
(lp2469
S':'
asbag57
(g78
g59
NtRp2470
(dp2471
g62
(dp2472
sg71
g2457
sg64
(lp2473
g57
(g58
g59
NtRp2474
(dp2475
g62
(dp2476
g70
I3
ssg71
g2470
sg64
(lp2477
g972
asbasbasbag57
(g73
g59
NtRp2478
(dp2479
g62
(dp2480
sg71
g2306
sg64
(lp2481
g57
(g78
g59
NtRp2482
(dp2483
g62
(dp2484
g82
g83
ssg71
g2478
sg64
(lp2485
S'HTTP_REFERER'
p2486
asbag57
(g78
g59
NtRp2487
(dp2488
g62
(dp2489
g89
g90
ssg71
g2478
sg64
(lp2490
S':'
asbag57
(g78
g59
NtRp2491
(dp2492
g62
(dp2493
sg71
g2478
sg64
(lp2494
g57
(g58
g59
NtRp2495
(dp2496
g62
(dp2497
g70
I3
ssg71
g2491
sg64
(lp2498
g994
asbasbasbag57
(g73
g59
NtRp2499
(dp2500
g62
(dp2501
sg71
g2306
sg64
(lp2502
g57
(g78
g59
NtRp2503
(dp2504
g62
(dp2505
g82
g83
ssg71
g2499
sg64
(lp2506
S'HTTP_USER_AGENT'
p2507
asbag57
(g78
g59
NtRp2508
(dp2509
g62
(dp2510
g89
g90
ssg71
g2499
sg64
(lp2511
S':'
asbag57
(g78
g59
NtRp2512
(dp2513
g62
(dp2514
sg71
g2499
sg64
(lp2515
g57
(g58
g59
NtRp2516
(dp2517
g62
(dp2518
g70
I3
ssg71
g2512
sg64
(lp2519
g1016
asbasbasbag57
(g73
g59
NtRp2520
(dp2521
g62
(dp2522
sg71
g2306
sg64
(lp2523
g57
(g78
g59
NtRp2524
(dp2525
g62
(dp2526
g82
g83
ssg71
g2520
sg64
(lp2527
S'PATH_INFO'
p2528
asbag57
(g78
g59
NtRp2529
(dp2530
g62
(dp2531
g89
g90
ssg71
g2520
sg64
(lp2532
S':'
asbag57
(g78
g59
NtRp2533
(dp2534
g62
(dp2535
sg71
g2520
sg64
(lp2536
g57
(g58
g59
NtRp2537
(dp2538
g62
(dp2539
g70
I3
ssg71
g2533
sg64
(lp2540
g1080
asbasbasbag57
(g73
g59
NtRp2541
(dp2542
g62
(dp2543
sg71
g2306
sg64
(lp2544
g57
(g78
g59
NtRp2545
(dp2546
g62
(dp2547
g82
g83
ssg71
g2541
sg64
(lp2548
S'QUERY_STRING'
p2549
asbag57
(g78
g59
NtRp2550
(dp2551
g62
(dp2552
g89
g90
ssg71
g2541
sg64
(lp2553
S':'
asbag57
(g78
g59
NtRp2554
(dp2555
g62
(dp2556
sg71
g2541
sg64
(lp2557
g57
(g58
g59
NtRp2558
(dp2559
g62
(dp2560
g70
I3
ssg71
g2554
sg64
(lp2561
S''
asbasbasbag57
(g73
g59
NtRp2562
(dp2563
g62
(dp2564
sg71
g2306
sg64
(lp2565
g57
(g78
g59
NtRp2566
(dp2567
g62
(dp2568
g82
g83
ssg71
g2562
sg64
(lp2569
S'REMOTE_ADDR'
p2570
asbag57
(g78
g59
NtRp2571
(dp2572
g62
(dp2573
g89
g90
ssg71
g2562
sg64
(lp2574
S':'
asbag57
(g78
g59
NtRp2575
(dp2576
g62
(dp2577
sg71
g2562
sg64
(lp2578
g57
(g58
g59
NtRp2579
(dp2580
g62
(dp2581
g70
I3
ssg71
g2575
sg64
(lp2582
g190
asbasbasbag57
(g73
g59
NtRp2583
(dp2584
g62
(dp2585
sg71
g2306
sg64
(lp2586
g57
(g78
g59
NtRp2587
(dp2588
g62
(dp2589
g82
g83
ssg71
g2583
sg64
(lp2590
S'REMOTE_PORT'
p2591
asbag57
(g78
g59
NtRp2592
(dp2593
g62
(dp2594
g89
g90
ssg71
g2583
sg64
(lp2595
S':'
asbag57
(g78
g59
NtRp2596
(dp2597
g62
(dp2598
sg71
g2583
sg64
(lp2599
g57
(g58
g59
NtRp2600
(dp2601
g62
(dp2602
g70
I3
ssg71
g2596
sg64
(lp2603
g1144
asbasbasbag57
(g73
g59
NtRp2604
(dp2605
g62
(dp2606
sg71
g2306
sg64
(lp2607
g57
(g78
g59
NtRp2608
(dp2609
g62
(dp2610
g82
g83
ssg71
g2604
sg64
(lp2611
S'REQUEST_METHOD'
p2612
asbag57
(g78
g59
NtRp2613
(dp2614
g62
(dp2615
g89
g90
ssg71
g2604
sg64
(lp2616
S':'
asbag57
(g78
g59
NtRp2617
(dp2618
g62
(dp2619
sg71
g2604
sg64
(lp2620
g57
(g58
g59
NtRp2621
(dp2622
g62
(dp2623
g70
I3
ssg71
g2617
sg64
(lp2624
g1166
asbasbasbag57
(g73
g59
NtRp2625
(dp2626
g62
(dp2627
sg71
g2306
sg64
(lp2628
g57
(g78
g59
NtRp2629
(dp2630
g62
(dp2631
g82
g83
ssg71
g2625
sg64
(lp2632
S'REQUEST_URI'
p2633
asbag57
(g78
g59
NtRp2634
(dp2635
g62
(dp2636
g89
g90
ssg71
g2625
sg64
(lp2637
S':'
asbag57
(g78
g59
NtRp2638
(dp2639
g62
(dp2640
sg71
g2625
sg64
(lp2641
g57
(g58
g59
NtRp2642
(dp2643
g62
(dp2644
g70
I3
ssg71
g2638
sg64
(lp2645
g1080
asbasbasbag57
(g73
g59
NtRp2646
(dp2647
g62
(dp2648
sg71
g2306
sg64
(lp2649
g57
(g78
g59
NtRp2650
(dp2651
g62
(dp2652
g82
g83
ssg71
g2646
sg64
(lp2653
S'SCRIPT_NAME'
p2654
asbag57
(g78
g59
NtRp2655
(dp2656
g62
(dp2657
g89
g90
ssg71
g2646
sg64
(lp2658
S':'
asbag57
(g78
g59
NtRp2659
(dp2660
g62
(dp2661
sg71
g2646
sg64
(lp2662
g57
(g58
g59
NtRp2663
(dp2664
g62
(dp2665
g70
I3
ssg71
g2659
sg64
(lp2666
S''
asbasbasbag57
(g73
g59
NtRp2667
(dp2668
g62
(dp2669
sg71
g2306
sg64
(lp2670
g57
(g78
g59
NtRp2671
(dp2672
g62
(dp2673
g82
g83
ssg71
g2667
sg64
(lp2674
S'SERVER_NAME'
p2675
asbag57
(g78
g59
NtRp2676
(dp2677
g62
(dp2678
g89
g90
ssg71
g2667
sg64
(lp2679
S':'
asbag57
(g78
g59
NtRp2680
(dp2681
g62
(dp2682
sg71
g2667
sg64
(lp2683
g57
(g58
g59
NtRp2684
(dp2685
g62
(dp2686
g70
I3
ssg71
g2680
sg64
(lp2687
g1230
asbasbasbag57
(g73
g59
NtRp2688
(dp2689
g62
(dp2690
sg71
g2306
sg64
(lp2691
g57
(g78
g59
NtRp2692
(dp2693
g62
(dp2694
g82
g83
ssg71
g2688
sg64
(lp2695
S'SERVER_PORT'
p2696
asbag57
(g78
g59
NtRp2697
(dp2698
g62
(dp2699
g89
g90
ssg71
g2688
sg64
(lp2700
S':'
asbag57
(g78
g59
NtRp2701
(dp2702
g62
(dp2703
sg71
g2688
sg64
(lp2704
g57
(g58
g59
NtRp2705
(dp2706
g62
(dp2707
g70
I3
ssg71
g2701
sg64
(lp2708
g1252
asbasbasbag57
(g73
g59
NtRp2709
(dp2710
g62
(dp2711
sg71
g2306
sg64
(lp2712
g57
(g78
g59
NtRp2713
(dp2714
g62
(dp2715
g82
g83
ssg71
g2709
sg64
(lp2716
S'SERVER_PROTOCOL'
p2717
asbag57
(g78
g59
NtRp2718
(dp2719
g62
(dp2720
g89
g90
ssg71
g2709
sg64
(lp2721
S':'
asbag57
(g78
g59
NtRp2722
(dp2723
g62
(dp2724
sg71
g2709
sg64
(lp2725
g57
(g58
g59
NtRp2726
(dp2727
g62
(dp2728
g70
I3
ssg71
g2722
sg64
(lp2729
g1274
asbasbasbag57
(g73
g59
NtRp2730
(dp2731
g62
(dp2732
sg71
g2306
sg64
(lp2733
g57
(g78
g59
NtRp2734
(dp2735
g62
(dp2736
g82
g83
ssg71
g2730
sg64
(lp2737
S'SERVER_SOFTWARE'
p2738
asbag57
(g78
g59
NtRp2739
(dp2740
g62
(dp2741
g89
g90
ssg71
g2730
sg64
(lp2742
S':'
asbag57
(g78
g59
NtRp2743
(dp2744
g62
(dp2745
sg71
g2730
sg64
(lp2746
g57
(g58
g59
NtRp2747
(dp2748
g62
(dp2749
g70
I3
ssg71
g2743
sg64
(lp2750
g1296
asbasbasbag57
(g73
g59
NtRp2751
(dp2752
g62
(dp2753
sg71
g2306
sg64
(lp2754
g57
(g78
g59
NtRp2755
(dp2756
g62
(dp2757
g82
g83
ssg71
g2751
sg64
(lp2758
S'WEB2PY_ORIGINAL_URI'
p2759
asbag57
(g78
g59
NtRp2760
(dp2761
g62
(dp2762
g89
g90
ssg71
g2751
sg64
(lp2763
S':'
asbag57
(g78
g59
NtRp2764
(dp2765
g62
(dp2766
sg71
g2751
sg64
(lp2767
g57
(g58
g59
NtRp2768
(dp2769
g62
(dp2770
g70
I3
ssg71
g2764
sg64
(lp2771
g1080
asbasbasbag57
(g73
g59
NtRp2772
(dp2773
g62
(dp2774
sg71
g2306
sg64
(lp2775
g57
(g78
g59
NtRp2776
(dp2777
g62
(dp2778
g82
g83
ssg71
g2772
sg64
(lp2779
S'wsgi.errors'
p2780
asbag57
(g78
g59
NtRp2781
(dp2782
g62
(dp2783
g89
g90
ssg71
g2772
sg64
(lp2784
S':'
asbag57
(g78
g59
NtRp2785
(dp2786
g62
(dp2787
sg71
g2772
sg64
(lp2788
g57
(g58
g59
NtRp2789
(dp2790
g62
(dp2791
g70
I3
ssg71
g2785
sg64
(lp2792
S"<open file '<stderr>', mode 'w' at 0x7f43fec2c270>"
p2793
asbasbasbag57
(g73
g59
NtRp2794
(dp2795
g62
(dp2796
sg71
g2306
sg64
(lp2797
g57
(g78
g59
NtRp2798
(dp2799
g62
(dp2800
g82
g83
ssg71
g2794
sg64
(lp2801
S'wsgi.file_wrapper'
p2802
asbag57
(g78
g59
NtRp2803
(dp2804
g62
(dp2805
g89
g90
ssg71
g2794
sg64
(lp2806
S':'
asbag57
(g78
g59
NtRp2807
(dp2808
g62
(dp2809
sg71
g2794
sg64
(lp2810
g57
(g58
g59
NtRp2811
(dp2812
g62
(dp2813
g70
I3
ssg71
g2807
sg64
(lp2814
S'<class wsgiref.util.FileWrapper at 0x3341f58>'
p2815
asbasbasbag57
(g73
g59
NtRp2816
(dp2817
g62
(dp2818
sg71
g2306
sg64
(lp2819
g57
(g78
g59
NtRp2820
(dp2821
g62
(dp2822
g82
g83
ssg71
g2816
sg64
(lp2823
S'wsgi.input'
p2824
asbag57
(g78
g59
NtRp2825
(dp2826
g62
(dp2827
g89
g90
ssg71
g2816
sg64
(lp2828
S':'
asbag57
(g78
g59
NtRp2829
(dp2830
g62
(dp2831
sg71
g2816
sg64
(lp2832
g57
(g58
g59
NtRp2833
(dp2834
g62
(dp2835
g70
I3
ssg71
g2829
sg64
(lp2836
S'<cStringIO.StringO object at 0x347b650>'
p2837
asbasbasbag57
(g73
g59
NtRp2838
(dp2839
g62
(dp2840
sg71
g2306
sg64
(lp2841
g57
(g78
g59
NtRp2842
(dp2843
g62
(dp2844
g82
g83
ssg71
g2838
sg64
(lp2845
S'wsgi.multiprocess'
p2846
asbag57
(g78
g59
NtRp2847
(dp2848
g62
(dp2849
g89
g90
ssg71
g2838
sg64
(lp2850
S':'
asbag57
(g78
g59
NtRp2851
(dp2852
g62
(dp2853
sg71
g2838
sg64
(lp2854
g57
(g58
g59
NtRp2855
(dp2856
g62
(dp2857
g70
I3
ssg71
g2851
sg64
(lp2858
g100
asbasbasbag57
(g73
g59
NtRp2859
(dp2860
g62
(dp2861
sg71
g2306
sg64
(lp2862
g57
(g78
g59
NtRp2863
(dp2864
g62
(dp2865
g82
g83
ssg71
g2859
sg64
(lp2866
S'wsgi.multithread'
p2867
asbag57
(g78
g59
NtRp2868
(dp2869
g62
(dp2870
g89
g90
ssg71
g2859
sg64
(lp2871
S':'
asbag57
(g78
g59
NtRp2872
(dp2873
g62
(dp2874
sg71
g2859
sg64
(lp2875
g57
(g58
g59
NtRp2876
(dp2877
g62
(dp2878
g70
I3
ssg71
g2872
sg64
(lp2879
g1557
asbasbasbag57
(g73
g59
NtRp2880
(dp2881
g62
(dp2882
sg71
g2306
sg64
(lp2883
g57
(g78
g59
NtRp2884
(dp2885
g62
(dp2886
g82
g83
ssg71
g2880
sg64
(lp2887
S'wsgi.run_once'
p2888
asbag57
(g78
g59
NtRp2889
(dp2890
g62
(dp2891
g89
g90
ssg71
g2880
sg64
(lp2892
S':'
asbag57
(g78
g59
NtRp2893
(dp2894
g62
(dp2895
sg71
g2880
sg64
(lp2896
g57
(g58
g59
NtRp2897
(dp2898
g62
(dp2899
g70
I3
ssg71
g2893
sg64
(lp2900
g100
asbasbasbag57
(g73
g59
NtRp2901
(dp2902
g62
(dp2903
sg71
g2306
sg64
(lp2904
g57
(g78
g59
NtRp2905
(dp2906
g62
(dp2907
g82
g83
ssg71
g2901
sg64
(lp2908
S'wsgi.url_scheme'
p2909
asbag57
(g78
g59
NtRp2910
(dp2911
g62
(dp2912
g89
g90
ssg71
g2901
sg64
(lp2913
S':'
asbag57
(g78
g59
NtRp2914
(dp2915
g62
(dp2916
sg71
g2901
sg64
(lp2917
g57
(g58
g59
NtRp2918
(dp2919
g62
(dp2920
g70
I3
ssg71
g2914
sg64
(lp2921
g1600
asbasbasbag57
(g73
g59
NtRp2922
(dp2923
g62
(dp2924
sg71
g2306
sg64
(lp2925
g57
(g78
g59
NtRp2926
(dp2927
g62
(dp2928
g82
g83
ssg71
g2922
sg64
(lp2929
S'wsgi.version'
p2930
asbag57
(g78
g59
NtRp2931
(dp2932
g62
(dp2933
g89
g90
ssg71
g2922
sg64
(lp2934
S':'
asbag57
(g78
g59
NtRp2935
(dp2936
g62
(dp2937
sg71
g2922
sg64
(lp2938
g57
(g58
g59
NtRp2939
(dp2940
g62
(dp2941
g70
I3
ssg71
g2935
sg64
(lp2942
S'1'
asbasbasbasbasbasbasbasbasbasbasbasbasbsS'frames'
p2943
(lp2944
(dp2945
S'file'
p2946
S'/home/goshawk/web2py/gluon/restricted.py'
p2947
sS'dump'
p2948
(dp2949
S'environment'
p2950
S"{'A': <class 'gluon.html.A'>, 'Auth': <class 'gluon.tools.Auth'>, 'B': <class 'gluon.html.B'>, 'BEAUTIFY': <class 'gluon.html.BEAUTIFY'>, 'BODY': <class 'gluon.html.BODY'>, 'BR': <class 'gluon.html.BR'>, 'BUTTON': <class 'gluon.html.BUTTON'>, 'CAT': <class 'gluon.html.CAT'>, 'CENTER': <class 'gluon.html.CENTER'>, 'CLEANUP': <class 'gluon.validators.CLEANUP'>, ...}"
p2951
sS'ccode'
p2952
S'<code object <module> at 0x7f43e8bf71b0, file "/...pplications/milo/views/admin/index.html", line 1>'
p2953
ssS'lnum'
p2954
I205
sS'lines'
p2955
(dp2956
I200
S'    try:'
p2957
sI201
S'        if type(code) == types.CodeType:'
p2958
sI202
S'            ccode = code'
p2959
sI203
S'        else:'
p2960
sI204
S'            ccode = compile2(code,layer)'
p2961
sI205
S'        exec ccode in environment'
p2962
sI206
S'    except HTTP:'
p2963
sI207
S'        raise'
p2964
sI208
S'    except RestrictedError:'
p2965
sI209
S'        # do not encapsulate (obfuscate) the original RestrictedError'
p2966
ssS'call'
p2967
S'(code=\'response.write(\\\'<!DOCTYPE html PUBLIC "-//W3C//D...iv>\\\\n</div>\\\\n\\\\n</body>\\\\n</html>\\\\n\\\', escape=False)\', environment={\'A\': <class \'gluon.html.A\'>, \'Auth\': <class \'gluon.tools.Auth\'>, \'B\': <class \'gluon.html.B\'>, \'BEAUTIFY\': <class \'gluon.html.BEAUTIFY\'>, \'BODY\': <class \'gluon.html.BODY\'>, \'BR\': <class \'gluon.html.BR\'>, \'BUTTON\': <class \'gluon.html.BUTTON\'>, \'CAT\': <class \'gluon.html.CAT\'>, \'CENTER\': <class \'gluon.html.CENTER\'>, \'CLEANUP\': <class \'gluon.validators.CLEANUP\'>, ...}, layer=\'/home/goshawk/web2py/applications/milo/views/admin/index.html\')'
p2968
sS'func'
p2969
S'restricted'
p2970
sa(dp2971
g2946
S'/home/goshawk/web2py/applications/milo/views/admin/index.html'
p2972
sg2948
(dp2973
sg2954
I18
sg2955
(dp2974
I9
S'response.write(\'/js/ui.js"></script>\\n</head>\\n\\n<body>\\n\\n<div id="wrap">\\n\\t<div id="header">\\n\\t\\t<h1><a class="bg" href="#" title="Home"></a>Milo Manager</h1>\\n\\t\\t<p id="status">Logged is as Username, <a href="#" title="Sign Out?">Sign Out?</a></p>\\n\\t\\t<h2><span>Hello, this is the Dashboard</span></h2>\\n\\t\\t<p id="description">A little description explain what Dashboard is in one/two lines.</p>\\n\\t</div>\\n    <div id="sidebar">\\n\\t\\t<ul class="items">\\n            <li class="active">\\n            \\t<a href="#" title="Dashboard">Dashboard</a>\\n            </li>\\n\\t\\t\\t<li class="subitems">\\n\\t\\t\\t\\t<a href="#" title="Shout Box Info">Algorithms Management</a>\\n\\t\\t\\t\\t<ul>\\n\\t\\t\\t\\t\\t\', escape=False)'
p2975
sI10
S'for alg in algorithms:'
p2976
sI11
S'    response.write(\'\\n\\t\\t\\t\\t\\t<li><a href="#" title="\', escape=False)'
p2977
sI12
S'    response.write(alg)'
p2978
sI13
S'    response.write(\'">\', escape=False)'
p2979
sI14
S'    response.write(alg)'
p2980
sI15
S"    response.write('</a></li>\\n\\t\\t\\t\\t\\t', escape=False)"
p2981
sI16
S'    pass'
p2982
sI17
S'response.write(\'\\n\\t\\t\\t\\t</ul>\\n\\t\\t\\t</li>\\n<!-- \\t\\t\\t<li class="subitems">\\n\\t\\t\\t\\t<a href="#" title="Clan Options">Clan Options</a>\\n\\t\\t\\t\\t<ul>\\n                    <li><a href="#" title="Edit Matches">Edit Matches</a></li>\\n                    <li><a href="#" title="Edit Practices">Edit Practices</a></li>\\n                    <li><a href="#" title="Edit Games">Edit Games</a></li>\\n                    <li><a href="#" title="Edit Servers">Edit Servers</a></li>\\n                    <li><a href="#" title="Edit Media">Edit Media</a></li>\\n                    <li><a href="#" title="Edit Sponsors">Edit Sponsors</a></li>\\n                    <li><a href="#" title="Opposing Clans">Opposing Clans</a></li>\\n\\t\\t\\t\\t</ul>\\n\\t\\t\\t</li>\\n\\t\\t\\t<li><a href="#mp3" title="MP3 Player">MP3 Player</a></li>\\n\\t\\t\\t<li class="subitems">\\n\\t\\t\\t\\t<a href="#" title="Users">Donation Info</a>\\n\\t\\t\\t\\t<ul>\\n\\t\\t\\t\\t\\t<li><a href="#" title="Admin Users">Monthly Goals</a></li>\\n\\t\\t\\t\\t\\t<li><a href="#" title="Add New User">Monthly Donations</a></li>\\n\\n\\t\\t\\t\\t</ul>\\n\\t\\t\\t</li>\\n\\t\\t\\t<li class="subitems">\\n\\t\\t\\t\\t<a href="#" title="Users">Member Info</a>\\n\\t\\t\\t\\t<ul>\\n\\t\\t\\t\\t\\t<li><a href="#" title="Admin Users">Member List</a></li>\\n\\t\\t\\t\\t\\t<li><a href="#" title="Add New User">Mass Message</a></li>\\n\\t\\t\\t\\t\\t<li><a href="#" title="Add New User">Edit Members</a></li>\\n\\t\\t\\t\\t\\t<li><a href="#" title="Add New User">Edit Permissions</a></li>\\n\\t\\t\\t\\t\\t<li><a href="#" title="Add New User">Edit Ranks</a></li>\\n\\t\\t\\t\\t</ul>\\n\\t\\t\\t</li> -->\\n\\t\\t</ul>\\n\\t\\t<span class="clear"></span>\\n\\t\\t<div id="redbox">\\n\\t\\t\\t<h4>Info</h4>\\n\\t\\t\\t<p>\\n\\t\\t\\t\\tScript executed in 0.1568s<br />\\n\\t\\t\\t\\tURM created on \', escape=False)'
p2983
sI18
S"response.write(matrices.get('urm', 'Unknown'))"
p2984
sI19
S"response.write('<br />\\n\\t\\t\\t\\tICM created on ', escape=False)"
p2985
sI20
S"response.write(matrices.get('icm','Unknown'))"
p2986
sI21
S'response.write(\'<br />\\n\\t\\t\\t\\t\\n\\t\\t\\t</p>\\n\\t\\t</div>\\n\\t</div>\\n\\t<div id="content">\\n\\t\\t<h2>Form fields</h2>\\n\\t\\t<ul class="tabs">\\n\\t\\t\\t<li class="active"><a href="#" title="Item1"><span>This is a tab</span></a></li>\\n\\t\\t\\t<li><a href="#" title="Item2"><span>This is other tab</span></a></li>\\n\\t\\t</ul>\\n\\t\\t<form method="post" action="">\\n\\t\\t<fieldset>\\n\\t\\t\\t<label>Small Input:</label>\\n\\t\\t\\t<span class="small_input"><input class="small" name="" type="text" value="" /></span><br class="hid" />\\n\\t\\t\\t<span class="negative">Negative message!</span><br class="hid" />\\n\\t\\t\\t<label>Medium Input:</label>\\n\\t\\t\\t<span class="medium_input"><input class="medium" name="" type="text" value="" /></span><br class="hid" />\\n\\t\\t\\t<span class="positive">Positive message!</span><br class="hid" />\\n\\t\\t\\t<label>Large Input:</label>\\n\\t\\t\\t<span class="large_input"><input class="large" name="" type="text" value="" /></span><br class="hid" />\\n\\t\\t\\t<p>Lorem Ipsum is simply dummy text of the printing and typesetting industry.</p>\\n\\t\\t\\t<label>Your message?</label><br class="hid" />\\n\\t\\t\\t<span class="textarea"><textarea cols="" rows=""></textarea></span><br class="hid" />\\n\\t\\t\\t<a href="#" class="button" title="Submit"><span>Submit</span></a>\\n\\t\\t\\t<span class="clear"></span>\\n\\t\\t</fieldset>\\n\\t\\t</form>\\n\\t\\t<p class="alert">\\n\\t\\t\\t<span class="txt"><span class="icon"></span><strong>Alert:</strong> This template is going to explote in 10 seconds.</span>\\n\\t\\t\\t<a href="#" class="close" title="Close"><span class="bg"></span>Close</a>\\n\\t\\t</p>\\n\\t\\t<p id="tip" class="alert">\\n\\t\\t\\t<span class="txt"><span class="icon"></span><strong>Tip:</strong> I know, you REALLY love this CMS Skin.</span>\\n\\t\\t\\t<a href="#" class="close" title="Close"><span class="bg"></span>Close</a>\\n\\t\\t</p>\\n\\t\\t<p id="congrats" class="alert">\\n\\t\\t\\t<span class="txt"><span class="icon"></span><strong>Congrats:</strong> The action you just did was made with success.</span>\\n\\t\\t\\t<a href="#" class="close" title="Close"><span class="bg"></span>Close</a>\\n\\t\\t</p>\\n\\t\\t<h2>CSS Table List</h2>\\n\\t\\t<ul class="tabs">\\n\\t\\t\\t<li><a href="#" title="Item1"><span>Nice!</span></a></li>\\n\\t\\t\\t<li class="active"><a href="#" title="Item2"><span>I love this table</span></a></li>\\n\\t\\t</ul>\\n\\t\\t<div class="box">\\n\\t\\t\\t<table>\\n\\t\\t\\t\\t<tr>\\n\\t\\t\\t\\t\\t<th class="col1">Column 1</th>\\n\\t\\t\\t\\t\\t<th class="col2">Column 2</th>\\n\\t\\t\\t\\t\\t<th class="col3">Column 3</th>\\n\\t\\t\\t\\t\\t<th class="col4">Column 4</th>\\n\\t\\t\\t\\t\\t<th class="col5">Column 5</th>\\n\\t\\t\\t\\t</tr>\\n\\t\\t\\t\\t<tr class="highlight">\\n\\t\\t\\t\\t\\t<td><a href="#" title="Lorem ipsum dolor">Lorem ipsum dolor</a></td>\\n\\t\\t\\t\\t\\t<td>Lorem ipsum dolor</td>\\n\\t\\t\\t\\t\\t<td>Lorem ipsum dolor</td>\\n\\t\\t\\t\\t\\t<td>Lorem ipsum dolor</td>\\n\\t\\t\\t\\t\\t<td class="action">\\n\\t\\t\\t\\t\\t\\t<ul>\\n\\t\\t\\t\\t\\t\\t\\t<li><a class="edit" href="#" title="edit"></a></li>\\n\\t\\t\\t\\t\\t\\t\\t<li><a class="add" href="#" title="add"></a></li>\\n\\t\\t\\t\\t\\t\\t\\t<li><a class="delete" href="#" title="delete"></a></li>\\n\\t\\t\\t\\t\\t\\t\\t<li><a class="mark" href="#" title="mark"></a></li>\\n\\t\\t\\t\\t\\t\\t</ul>\\n\\t\\t\\t\\t\\t</td>\\n\\t\\t\\t\\t</tr>\\n\\t\\t\\t\\t<tr>\\n\\t\\t\\t\\t\\t<td><a href="#" title="Lorem ipsum dolor">Lorem ipsum dolor</a></td>\\n\\t\\t\\t\\t\\t<td>Lorem ipsum dolor</td>\\n\\t\\t\\t\\t\\t<td>Lorem ipsum dolor</td>\\n\\t\\t\\t\\t\\t<td>Lorem ipsum dolor</td>\\n\\t\\t\\t\\t\\t<td class="action">\\n\\t\\t\\t\\t\\t\\t<ul>\\n\\t\\t\\t\\t\\t\\t\\t<li><a class="edit" href="#" title="edit"></a></li>\\n\\t\\t\\t\\t\\t\\t\\t<li><a class="add" href="#" title="add"></a></li>\\n\\t\\t\\t\\t\\t\\t\\t<li><a class="delete" href="#" title="delete"></a></li>\\n\\t\\t\\t\\t\\t\\t\\t<li><a class="mark" href="#" title="mark"></a></li>\\n\\t\\t\\t\\t\\t\\t</ul>\\n\\t\\t\\t\\t\\t</td>\\n\\t\\t\\t\\t</tr>\\n\\t\\t\\t\\t<tr class="highlight">\\n\\t\\t\\t\\t\\t<td><a href="#" title="Lorem ipsum dolor">Lorem ipsum dolor</a></td>\\n\\t\\t\\t\\t\\t<td>Lorem ipsum dolor</td>\\n\\t\\t\\t\\t\\t<td>Lorem ipsum dolor</td>\\n\\t\\t\\t\\t\\t<td>Lorem ipsum dolor</td>\\n\\t\\t\\t\\t\\t<td class="action">\\n\\t\\t\\t\\t\\t\\t<ul>\\n\\t\\t\\t\\t\\t\\t\\t<li><a class="edit" href="#" title="edit"></a></li>\\n\\t\\t\\t\\t\\t\\t\\t<li><a class="add" href="#" title="add"></a></li>\\n\\t\\t\\t\\t\\t\\t\\t<li><a class="delete" href="#" title="delete"></a></li>\\n\\t\\t\\t\\t\\t\\t\\t<li><a class="mark" href="#" title="mark"></a></li>\\n\\t\\t\\t\\t\\t\\t</ul>\\n\\t\\t\\t\\t\\t</td>\\n\\t\\t\\t\\t</tr>\\n\\t\\t\\t\\t<tr>\\n\\t\\t\\t\\t\\t<td><a href="#" title="Lorem ipsum dolor">Lorem ipsum dolor</a></td>\\n\\t\\t\\t\\t\\t<td>Lorem ipsum dolor</td>\\n\\t\\t\\t\\t\\t<td>Lorem ipsum dolor</td>\\n\\t\\t\\t\\t\\t<td>Lorem ipsum dolor</td>\\n\\t\\t\\t\\t\\t<td class="action">\\n\\t\\t\\t\\t\\t\\t<ul>\\n\\t\\t\\t\\t\\t\\t\\t<li><a class="edit" href="#" title="edit"></a></li>\\n\\t\\t\\t\\t\\t\\t\\t<li><a class="add" href="#" title="add"></a></li>\\n\\t\\t\\t\\t\\t\\t\\t<li><a class="delete" href="#" title="delete"></a></li>\\n\\t\\t\\t\\t\\t\\t\\t<li><a class="mark" href="#" title="mark"></a></li>\\n\\t\\t\\t\\t\\t\\t</ul>\\n\\t\\t\\t\\t\\t</td>\\n\\t\\t\\t\\t</tr>\\n\\t\\t\\t\\t<tr class="highlight">\\n\\t\\t\\t\\t\\t<td><a href="#" title="Lorem ipsum dolor">Lorem ipsum dolor</a></td>\\n\\t\\t\\t\\t\\t<td>Lorem ipsum dolor</td>\\n\\t\\t\\t\\t\\t<td>Lorem ipsum dolor</td>\\n\\t\\t\\t\\t\\t<td>Lorem ipsum dolor</td>\\n\\t\\t\\t\\t\\t<td class="action">\\n\\t\\t\\t\\t\\t\\t<ul>\\n\\t\\t\\t\\t\\t\\t\\t<li><a class="edit" href="#" title="edit"></a></li>\\n\\t\\t\\t\\t\\t\\t\\t<li><a class="add" href="#" title="add"></a></li>\\n\\t\\t\\t\\t\\t\\t\\t<li><a class="delete" href="#" title="delete"></a></li>\\n\\t\\t\\t\\t\\t\\t\\t<li><a class="mark" href="#" title="mark"></a></li>\\n\\t\\t\\t\\t\\t\\t</ul>\\n\\t\\t\\t\\t\\t</td>\\n\\t\\t\\t\\t</tr>\\n\\t\\t\\t\\t<tr>\\n\\t\\t\\t\\t\\t<td><a href="#" title="Lorem ipsum dolor">Lorem ipsum dolor</a></td>\\n\\t\\t\\t\\t\\t<td>Lorem ipsum dolor</td>\\n\\t\\t\\t\\t\\t<td>Lorem ipsum dolor</td>\\n\\t\\t\\t\\t\\t<td>Lorem ipsum dolor</td>\\n\\t\\t\\t\\t\\t<td class="action">\\n\\t\\t\\t\\t\\t\\t<ul>\\n\\t\\t\\t\\t\\t\\t\\t<li><a class="edit" href="#" title="edit"></a></li>\\n\\t\\t\\t\\t\\t\\t\\t<li><a class="add" href="#" title="add"></a></li>\\n\\t\\t\\t\\t\\t\\t\\t<li><a class="delete" href="#" title="delete"></a></li>\\n\\t\\t\\t\\t\\t\\t\\t<li><a class="mark" href="#" title="mark"></a></li>\\n\\t\\t\\t\\t\\t\\t</ul>\\n\\t\\t\\t\\t\\t</td>\\n\\t\\t\\t\\t</tr>\\n\\t\\t\\t\\t<tr class="highlight">\\n\\t\\t\\t\\t\\t<td><a href="#" title="Lorem ipsum dolor">Lorem ipsum dolor</a></td>\\n\\t\\t\\t\\t\\t<td>Lorem ipsum dolor</td>\\n\\t\\t\\t\\t\\t<td>Lorem ipsum dolor</td>\\n\\t\\t\\t\\t\\t<td>Lorem ipsum dolor</td>\\n\\t\\t\\t\\t\\t<td class="action">\\n\\t\\t\\t\\t\\t\\t<ul>\\n\\t\\t\\t\\t\\t\\t\\t<li><a class="edit" href="#" title="edit"></a></li>\\n\\t\\t\\t\\t\\t\\t\\t<li><a class="add" href="#" title="add"></a></li>\\n\\t\\t\\t\\t\\t\\t\\t<li><a class="delete" href="#" title="delete"></a></li>\\n\\t\\t\\t\\t\\t\\t\\t<li><a class="mark" href="#" title="mark"></a></li>\\n\\t\\t\\t\\t\\t\\t</ul>\\n\\t\\t\\t\\t\\t</td>\\n\\t\\t\\t\\t</tr>\\n\\t\\t\\t\\t<tr>\\n\\t\\t\\t\\t\\t<td><a href="#" title="Lorem ipsum dolor">Lorem ipsum dolor</a></td>\\n\\t\\t\\t\\t\\t<td>Lorem ipsum dolor</td>\\n\\t\\t\\t\\t\\t<td>Lorem ipsum dolor</td>\\n\\t\\t\\t\\t\\t<td>Lorem ipsum dolor</td>\\n\\t\\t\\t\\t\\t<td class="action">\\n\\t\\t\\t\\t\\t\\t<ul>\\n\\t\\t\\t\\t\\t\\t\\t<li><a class="edit" href="#" title="edit"></a></li>\\n\\t\\t\\t\\t\\t\\t\\t<li><a class="add" href="#" title="add"></a></li>\\n\\t\\t\\t\\t\\t\\t\\t<li><a class="delete" href="#" title="delete"></a></li>\\n\\t\\t\\t\\t\\t\\t\\t<li><a class="mark" href="#" title="mark"></a></li>\\n\\t\\t\\t\\t\\t\\t</ul>\\n\\t\\t\\t\\t\\t</td>\\n\\t\\t\\t\\t</tr>\\n\\t\\t\\t\\t<tr class="highlight">\\n\\t\\t\\t\\t\\t<td><a href="#" title="Lorem ipsum dolor">Lorem ipsum dolor</a></td>\\n\\t\\t\\t\\t\\t<td>Lorem ipsum dolor</td>\\n\\t\\t\\t\\t\\t<td>Lorem ipsum dolor</td>\\n\\t\\t\\t\\t\\t<td>Lorem ipsum dolor</td>\\n\\t\\t\\t\\t\\t<td class="action">\\n\\t\\t\\t\\t\\t\\t<ul>\\n\\t\\t\\t\\t\\t\\t\\t<li><a class="edit" href="#" title="edit"></a></li>\\n\\t\\t\\t\\t\\t\\t\\t<li><a class="add" href="#" title="add"></a></li>\\n\\t\\t\\t\\t\\t\\t\\t<li><a class="delete" href="#" title="delete"></a></li>\\n\\t\\t\\t\\t\\t\\t\\t<li><a class="mark" href="#" title="mark"></a></li>\\n\\t\\t\\t\\t\\t\\t</ul>\\n\\t\\t\\t\\t\\t</td>\\n\\t\\t\\t\\t</tr>\\n\\t\\t\\t</table>\\n\\t\\t\\t<p id="pagin">\\n\\t\\t\\t\\t&laquo; <a href="#" title="">previous</a> &ndash;\\n\\t\\t\\t\\t<a href="#" title="">1</a>\\n\\t\\t\\t\\t<a href="#" title="">2</a>\\n\\t\\t\\t\\t<a href="#" title="">3</a>\\n\\t\\t\\t\\t<a href="#" title="">4</a>\\n\\t\\t\\t\\t<a href="#" title="">5</a>\\n\\t\\t\\t\\t<a href="#" title="">6</a>\\n\\t\\t\\t\\t<a href="#" title="">7</a>\\n\\t\\t\\t\\t<a href="#" title="">8</a>\\n\\t\\t\\t\\t<a href="#" title="">9</a>\\n\\t\\t\\t\\t&ndash; <a href="#" title="">next</a> &raquo;\\n\\t\\t\\t</p>\\n\\t\\t</div>\\n\\t</div>\\n\\t<div id="footer">\\n\\t</div>\\n</div>\\n\\n</body>\\n</html>\\n\', escape=False)'
p2987
ssg2967
S'()'
p2988
sg2969
S'<module>'
p2989
sasS'pyver'
p2990
S'Python 2.7.3: /usr/bin/python'
p2991
sS'session'
p2992
g57
(g58
g59
NtRp2993
(dp2994
g62
(dp2995
sg64
(lp2996
g57
(g66
g59
NtRp2997
(dp2998
g62
(dp2999
g70
I5
ssg71
Nsg64
(lp3000
sbasbsS'etype'
p3001
S"<type 'exceptions.NameError'>"
p3002
sS'date'
p3003
S'Sun Jul 15 01:12:28 2012'
p3004
sS'response'
p3005
g57
(g58
g59
NtRp3006
(dp3007
g62
(dp3008
sg64
(lp3009
g57
(g66
g59
NtRp3010
(dp3011
g62
(dp3012
g70
I5
ssg71
Nsg64
(lp3013
g57
(g73
g59
NtRp3014
(dp3015
g62
(dp3016
sg71
g3010
sg64
(lp3017
g57
(g78
g59
NtRp3018
(dp3019
g62
(dp3020
g82
g83
ssg71
g3014
sg64
(lp3021
g155
asbag57
(g78
g59
NtRp3022
(dp3023
g62
(dp3024
g89
g90
ssg71
g3014
sg64
(lp3025
S':'
asbag57
(g78
g59
NtRp3026
(dp3027
g62
(dp3028
sg71
g3014
sg64
(lp3029
g57
(g58
g59
NtRp3030
(dp3031
g62
(dp3032
g70
I5
ssg71
g3026
sg64
(lp3033
S'<cStringIO.StringO object at 0x347b1f0>'
p3034
asbasbasbag57
(g73
g59
NtRp3035
(dp3036
g62
(dp3037
sg71
g3010
sg64
(lp3038
g57
(g78
g59
NtRp3039
(dp3040
g62
(dp3041
g82
g83
ssg71
g3035
sg64
(lp3042
g221
asbag57
(g78
g59
NtRp3043
(dp3044
g62
(dp3045
g89
g90
ssg71
g3035
sg64
(lp3046
S':'
asbag57
(g78
g59
NtRp3047
(dp3048
g62
(dp3049
sg71
g3035
sg64
(lp3050
g57
(g58
g59
NtRp3051
(dp3052
g62
(dp3053
g70
I5
ssg71
g3047
sg64
(lp3054
g57
(g66
g59
NtRp3055
(dp3056
g62
(dp3057
g70
I4
ssg71
Nsg64
(lp3058
g57
(g73
g59
NtRp3059
(dp3060
g62
(dp3061
sg71
g3055
sg64
(lp3062
g57
(g78
g59
NtRp3063
(dp3064
g62
(dp3065
g82
g83
ssg71
g3059
sg64
(lp3066
S'session_id_milo'
p3067
asbag57
(g78
g59
NtRp3068
(dp3069
g62
(dp3070
g89
g90
ssg71
g3059
sg64
(lp3071
S':'
asbag57
(g78
g59
NtRp3072
(dp3073
g62
(dp3074
sg71
g3059
sg64
(lp3075
g57
(g58
g59
NtRp3076
(dp3077
g62
(dp3078
g70
I4
ssg71
g3072
sg64
(lp3079
g57
(g66
g59
NtRp3080
(dp3081
g62
(dp3082
g70
I3
ssg71
Nsg64
(lp3083
g57
(g73
g59
NtRp3084
(dp3085
g62
(dp3086
sg71
g3080
sg64
(lp3087
g57
(g78
g59
NtRp3088
(dp3089
g62
(dp3090
g82
g83
ssg71
g3084
sg64
(lp3091
g271
asbag57
(g78
g59
NtRp3092
(dp3093
g62
(dp3094
g89
g90
ssg71
g3084
sg64
(lp3095
S':'
asbag57
(g78
g59
NtRp3096
(dp3097
g62
(dp3098
sg71
g3084
sg64
(lp3099
g57
(g58
g59
NtRp3100
(dp3101
g62
(dp3102
g70
I3
ssg71
g3096
sg64
(lp3103
S''
asbasbasbag57
(g73
g59
NtRp3104
(dp3105
g62
(dp3106
sg71
g3080
sg64
(lp3107
g57
(g78
g59
NtRp3108
(dp3109
g62
(dp3110
g82
g83
ssg71
g3104
sg64
(lp3111
g292
asbag57
(g78
g59
NtRp3112
(dp3113
g62
(dp3114
g89
g90
ssg71
g3104
sg64
(lp3115
S':'
asbag57
(g78
g59
NtRp3116
(dp3117
g62
(dp3118
sg71
g3104
sg64
(lp3119
g57
(g58
g59
NtRp3120
(dp3121
g62
(dp3122
g70
I3
ssg71
g3116
sg64
(lp3123
S''
asbasbasbag57
(g73
g59
NtRp3124
(dp3125
g62
(dp3126
sg71
g3080
sg64
(lp3127
g57
(g78
g59
NtRp3128
(dp3129
g62
(dp3130
g82
g83
ssg71
g3124
sg64
(lp3131
g313
asbag57
(g78
g59
NtRp3132
(dp3133
g62
(dp3134
g89
g90
ssg71
g3124
sg64
(lp3135
S':'
asbag57
(g78
g59
NtRp3136
(dp3137
g62
(dp3138
sg71
g3124
sg64
(lp3139
g57
(g58
g59
NtRp3140
(dp3141
g62
(dp3142
g70
I3
ssg71
g3136
sg64
(lp3143
S''
asbasbasbag57
(g73
g59
NtRp3144
(dp3145
g62
(dp3146
sg71
g3080
sg64
(lp3147
g57
(g78
g59
NtRp3148
(dp3149
g62
(dp3150
g82
g83
ssg71
g3144
sg64
(lp3151
g334
asbag57
(g78
g59
NtRp3152
(dp3153
g62
(dp3154
g89
g90
ssg71
g3144
sg64
(lp3155
S':'
asbag57
(g78
g59
NtRp3156
(dp3157
g62
(dp3158
sg71
g3144
sg64
(lp3159
g57
(g58
g59
NtRp3160
(dp3161
g62
(dp3162
g70
I3
ssg71
g3156
sg64
(lp3163
S''
asbasbasbag57
(g73
g59
NtRp3164
(dp3165
g62
(dp3166
sg71
g3080
sg64
(lp3167
g57
(g78
g59
NtRp3168
(dp3169
g62
(dp3170
g82
g83
ssg71
g3164
sg64
(lp3171
g355
asbag57
(g78
g59
NtRp3172
(dp3173
g62
(dp3174
g89
g90
ssg71
g3164
sg64
(lp3175
S':'
asbag57
(g78
g59
NtRp3176
(dp3177
g62
(dp3178
sg71
g3164
sg64
(lp3179
g57
(g58
g59
NtRp3180
(dp3181
g62
(dp3182
g70
I3
ssg71
g3176
sg64
(lp3183
S''
asbasbasbag57
(g73
g59
NtRp3184
(dp3185
g62
(dp3186
sg71
g3080
sg64
(lp3187
g57
(g78
g59
NtRp3188
(dp3189
g62
(dp3190
g82
g83
ssg71
g3184
sg64
(lp3191
g376
asbag57
(g78
g59
NtRp3192
(dp3193
g62
(dp3194
g89
g90
ssg71
g3184
sg64
(lp3195
S':'
asbag57
(g78
g59
NtRp3196
(dp3197
g62
(dp3198
sg71
g3184
sg64
(lp3199
g57
(g58
g59
NtRp3200
(dp3201
g62
(dp3202
g70
I3
ssg71
g3196
sg64
(lp3203
S'/'
asbasbasbag57
(g73
g59
NtRp3204
(dp3205
g62
(dp3206
sg71
g3080
sg64
(lp3207
g57
(g78
g59
NtRp3208
(dp3209
g62
(dp3210
g82
g83
ssg71
g3204
sg64
(lp3211
g397
asbag57
(g78
g59
NtRp3212
(dp3213
g62
(dp3214
g89
g90
ssg71
g3204
sg64
(lp3215
S':'
asbag57
(g78
g59
NtRp3216
(dp3217
g62
(dp3218
sg71
g3204
sg64
(lp3219
g57
(g58
g59
NtRp3220
(dp3221
g62
(dp3222
g70
I3
ssg71
g3216
sg64
(lp3223
S''
asbasbasbag57
(g73
g59
NtRp3224
(dp3225
g62
(dp3226
sg71
g3080
sg64
(lp3227
g57
(g78
g59
NtRp3228
(dp3229
g62
(dp3230
g82
g83
ssg71
g3224
sg64
(lp3231
g418
asbag57
(g78
g59
NtRp3232
(dp3233
g62
(dp3234
g89
g90
ssg71
g3224
sg64
(lp3235
S':'
asbag57
(g78
g59
NtRp3236
(dp3237
g62
(dp3238
sg71
g3224
sg64
(lp3239
g57
(g58
g59
NtRp3240
(dp3241
g62
(dp3242
g70
I3
ssg71
g3236
sg64
(lp3243
S''
asbasbasbasbasbasbasbasbasbasbasbag57
(g73
g59
NtRp3244
(dp3245
g62
(dp3246
sg71
g3010
sg64
(lp3247
g57
(g78
g59
NtRp3248
(dp3249
g62
(dp3250
g82
g83
ssg71
g3244
sg64
(lp3251
S'delimiters'
p3252
asbag57
(g78
g59
NtRp3253
(dp3254
g62
(dp3255
g89
g90
ssg71
g3244
sg64
(lp3256
S':'
asbag57
(g78
g59
NtRp3257
(dp3258
g62
(dp3259
sg71
g3244
sg64
(lp3260
g57
(g58
g59
NtRp3261
(dp3262
g62
(dp3263
g70
I5
ssg71
g3257
sg64
(lp3264
g57
(g66
g59
NtRp3265
(dp3266
g62
(dp3267
g70
I4
ssg71
Nsg64
(lp3268
g57
(g73
g59
NtRp3269
(dp3270
g62
(dp3271
sg71
g3265
sg64
(lp3272
g57
(g78
g59
NtRp3273
(dp3274
g62
(dp3275
sg71
g3269
sg64
(lp3276
g57
(g58
g59
NtRp3277
(dp3278
g62
(dp3279
g70
I4
ssg71
g3273
sg64
(lp3280
S'{{'
p3281
asbasbasbag57
(g73
g59
NtRp3282
(dp3283
g62
(dp3284
sg71
g3265
sg64
(lp3285
g57
(g78
g59
NtRp3286
(dp3287
g62
(dp3288
sg71
g3282
sg64
(lp3289
g57
(g58
g59
NtRp3290
(dp3291
g62
(dp3292
g70
I4
ssg71
g3286
sg64
(lp3293
S'}}'
p3294
asbasbasbasbasbasbasbag57
(g73
g59
NtRp3295
(dp3296
g62
(dp3297
sg71
g3010
sg64
(lp3298
g57
(g78
g59
NtRp3299
(dp3300
g62
(dp3301
g82
g83
ssg71
g3295
sg64
(lp3302
S'files'
p3303
asbag57
(g78
g59
NtRp3304
(dp3305
g62
(dp3306
g89
g90
ssg71
g3295
sg64
(lp3307
S':'
asbag57
(g78
g59
NtRp3308
(dp3309
g62
(dp3310
sg71
g3295
sg64
(lp3311
g57
(g58
g59
NtRp3312
(dp3313
g62
(dp3314
g70
I5
ssg71
g3308
sg64
(lp3315
g57
(g66
g59
NtRp3316
(dp3317
g62
(dp3318
g70
I4
ssg71
Nsg64
(lp3319
sbasbasbasbag57
(g73
g59
NtRp3320
(dp3321
g62
(dp3322
sg71
g3010
sg64
(lp3323
g57
(g78
g59
NtRp3324
(dp3325
g62
(dp3326
g82
g83
ssg71
g3320
sg64
(lp3327
S'flash'
p3328
asbag57
(g78
g59
NtRp3329
(dp3330
g62
(dp3331
g89
g90
ssg71
g3320
sg64
(lp3332
S':'
asbag57
(g78
g59
NtRp3333
(dp3334
g62
(dp3335
sg71
g3320
sg64
(lp3336
g57
(g58
g59
NtRp3337
(dp3338
g62
(dp3339
g70
I5
ssg71
g3333
sg64
(lp3340
S''
asbasbasbag57
(g73
g59
NtRp3341
(dp3342
g62
(dp3343
sg71
g3010
sg64
(lp3344
g57
(g78
g59
NtRp3345
(dp3346
g62
(dp3347
g82
g83
ssg71
g3341
sg64
(lp3348
S'generic_patterns'
p3349
asbag57
(g78
g59
NtRp3350
(dp3351
g62
(dp3352
g89
g90
ssg71
g3341
sg64
(lp3353
S':'
asbag57
(g78
g59
NtRp3354
(dp3355
g62
(dp3356
sg71
g3341
sg64
(lp3357
g57
(g58
g59
NtRp3358
(dp3359
g62
(dp3360
g70
I5
ssg71
g3354
sg64
(lp3361
g57
(g66
g59
NtRp3362
(dp3363
g62
(dp3364
g70
I4
ssg71
Nsg64
(lp3365
g57
(g73
g59
NtRp3366
(dp3367
g62
(dp3368
sg71
g3362
sg64
(lp3369
g57
(g78
g59
NtRp3370
(dp3371
g62
(dp3372
sg71
g3366
sg64
(lp3373
g57
(g58
g59
NtRp3374
(dp3375
g62
(dp3376
g70
I4
ssg71
g3370
sg64
(lp3377
S'*'
asbasbasbasbasbasbasbag57
(g73
g59
NtRp3378
(dp3379
g62
(dp3380
sg71
g3010
sg64
(lp3381
g57
(g78
g59
NtRp3382
(dp3383
g62
(dp3384
g82
g83
ssg71
g3378
sg64
(lp3385
S'headers'
p3386
asbag57
(g78
g59
NtRp3387
(dp3388
g62
(dp3389
g89
g90
ssg71
g3378
sg64
(lp3390
S':'
asbag57
(g78
g59
NtRp3391
(dp3392
g62
(dp3393
sg71
g3378
sg64
(lp3394
g57
(g58
g59
NtRp3395
(dp3396
g62
(dp3397
g70
I5
ssg71
g3391
sg64
(lp3398
g57
(g66
g59
NtRp3399
(dp3400
g62
(dp3401
g70
I4
ssg71
Nsg64
(lp3402
g57
(g73
g59
NtRp3403
(dp3404
g62
(dp3405
sg71
g3399
sg64
(lp3406
g57
(g78
g59
NtRp3407
(dp3408
g62
(dp3409
g82
g83
ssg71
g3403
sg64
(lp3410
S'Cache-Control'
p3411
asbag57
(g78
g59
NtRp3412
(dp3413
g62
(dp3414
g89
g90
ssg71
g3403
sg64
(lp3415
S':'
asbag57
(g78
g59
NtRp3416
(dp3417
g62
(dp3418
sg71
g3403
sg64
(lp3419
g57
(g58
g59
NtRp3420
(dp3421
g62
(dp3422
g70
I4
ssg71
g3416
sg64
(lp3423
S'no-store, no-cache, must-revalidate, post-check=0, pre-check=0'
p3424
asbasbasbag57
(g73
g59
NtRp3425
(dp3426
g62
(dp3427
sg71
g3399
sg64
(lp3428
g57
(g78
g59
NtRp3429
(dp3430
g62
(dp3431
g82
g83
ssg71
g3425
sg64
(lp3432
S'Content-Type'
p3433
asbag57
(g78
g59
NtRp3434
(dp3435
g62
(dp3436
g89
g90
ssg71
g3425
sg64
(lp3437
S':'
asbag57
(g78
g59
NtRp3438
(dp3439
g62
(dp3440
sg71
g3425
sg64
(lp3441
g57
(g58
g59
NtRp3442
(dp3443
g62
(dp3444
g70
I4
ssg71
g3438
sg64
(lp3445
S'text/html; charset=utf-8'
p3446
asbasbasbag57
(g73
g59
NtRp3447
(dp3448
g62
(dp3449
sg71
g3399
sg64
(lp3450
g57
(g78
g59
NtRp3451
(dp3452
g62
(dp3453
g82
g83
ssg71
g3447
sg64
(lp3454
S'Expires'
p3455
asbag57
(g78
g59
NtRp3456
(dp3457
g62
(dp3458
g89
g90
ssg71
g3447
sg64
(lp3459
S':'
asbag57
(g78
g59
NtRp3460
(dp3461
g62
(dp3462
sg71
g3447
sg64
(lp3463
g57
(g58
g59
NtRp3464
(dp3465
g62
(dp3466
g70
I4
ssg71
g3460
sg64
(lp3467
S'Sat, 14 Jul 2012 23:12:28 GMT'
p3468
asbasbasbag57
(g73
g59
NtRp3469
(dp3470
g62
(dp3471
sg71
g3399
sg64
(lp3472
g57
(g78
g59
NtRp3473
(dp3474
g62
(dp3475
g82
g83
ssg71
g3469
sg64
(lp3476
S'Pragma'
p3477
asbag57
(g78
g59
NtRp3478
(dp3479
g62
(dp3480
g89
g90
ssg71
g3469
sg64
(lp3481
S':'
asbag57
(g78
g59
NtRp3482
(dp3483
g62
(dp3484
sg71
g3469
sg64
(lp3485
g57
(g58
g59
NtRp3486
(dp3487
g62
(dp3488
g70
I4
ssg71
g3482
sg64
(lp3489
S'no-cache'
p3490
asbasbasbag57
(g73
g59
NtRp3491
(dp3492
g62
(dp3493
sg71
g3399
sg64
(lp3494
g57
(g78
g59
NtRp3495
(dp3496
g62
(dp3497
g82
g83
ssg71
g3491
sg64
(lp3498
S'X-Powered-By'
p3499
asbag57
(g78
g59
NtRp3500
(dp3501
g62
(dp3502
g89
g90
ssg71
g3491
sg64
(lp3503
S':'
asbag57
(g78
g59
NtRp3504
(dp3505
g62
(dp3506
sg71
g3491
sg64
(lp3507
g57
(g58
g59
NtRp3508
(dp3509
g62
(dp3510
g70
I4
ssg71
g3504
sg64
(lp3511
S'web2py'
p3512
asbasbasbasbasbasbasbag57
(g73
g59
NtRp3513
(dp3514
g62
(dp3515
sg71
g3010
sg64
(lp3516
g57
(g78
g59
NtRp3517
(dp3518
g62
(dp3519
g82
g83
ssg71
g3513
sg64
(lp3520
S'menu'
p3521
asbag57
(g78
g59
NtRp3522
(dp3523
g62
(dp3524
g89
g90
ssg71
g3513
sg64
(lp3525
S':'
asbag57
(g78
g59
NtRp3526
(dp3527
g62
(dp3528
sg71
g3513
sg64
(lp3529
g57
(g58
g59
NtRp3530
(dp3531
g62
(dp3532
g70
I5
ssg71
g3526
sg64
(lp3533
g57
(g66
g59
NtRp3534
(dp3535
g62
(dp3536
g70
I4
ssg71
Nsg64
(lp3537
g57
(g73
g59
NtRp3538
(dp3539
g62
(dp3540
sg71
g3534
sg64
(lp3541
g57
(g78
g59
NtRp3542
(dp3543
g62
(dp3544
sg71
g3538
sg64
(lp3545
g57
(g58
g59
NtRp3546
(dp3547
g62
(dp3548
g70
I4
ssg71
g3542
sg64
(lp3549
g57
(g66
g59
NtRp3550
(dp3551
g62
(dp3552
g70
I3
ssg71
Nsg64
(lp3553
g57
(g73
g59
NtRp3554
(dp3555
g62
(dp3556
sg71
g3550
sg64
(lp3557
g57
(g78
g59
NtRp3558
(dp3559
g62
(dp3560
sg71
g3554
sg64
(lp3561
g57
(g58
g59
NtRp3562
(dp3563
g62
(dp3564
g70
I3
ssg71
g3558
sg64
(lp3565
cgluon.languages
lazyT_unpickle
p3566
(S't\x04\x00\x00\x00Home'
tRp3567
asbasbasbag57
(g73
g59
NtRp3568
(dp3569
g62
(dp3570
sg71
g3550
sg64
(lp3571
g57
(g78
g59
NtRp3572
(dp3573
g62
(dp3574
sg71
g3568
sg64
(lp3575
g57
(g58
g59
NtRp3576
(dp3577
g62
(dp3578
g70
I3
ssg71
g3572
sg64
(lp3579
g100
asbasbasbag57
(g73
g59
NtRp3580
(dp3581
g62
(dp3582
sg71
g3550
sg64
(lp3583
g57
(g78
g59
NtRp3584
(dp3585
g62
(dp3586
sg71
g3580
sg64
(lp3587
g57
(g58
g59
NtRp3588
(dp3589
g62
(dp3590
g70
I3
ssg71
g3584
sg64
(lp3591
S'/milo/default/index'
p3592
asbasbasbag57
(g73
g59
NtRp3593
(dp3594
g62
(dp3595
sg71
g3550
sg64
(lp3596
g57
(g78
g59
NtRp3597
(dp3598
g62
(dp3599
sg71
g3593
sg64
(lp3600
g57
(g58
g59
NtRp3601
(dp3602
g62
(dp3603
g70
I3
ssg71
g3597
sg64
(lp3604
g57
(g66
g59
NtRp3605
(dp3606
g62
(dp3607
g70
I2
ssg71
Nsg64
(lp3608
sbasbasbasbasbasbasbasbag57
(g73
g59
NtRp3609
(dp3610
g62
(dp3611
sg71
g3534
sg64
(lp3612
g57
(g78
g59
NtRp3613
(dp3614
g62
(dp3615
sg71
g3609
sg64
(lp3616
g57
(g58
g59
NtRp3617
(dp3618
g62
(dp3619
g70
I4
ssg71
g3613
sg64
(lp3620
g57
(g66
g59
NtRp3621
(dp3622
g62
(dp3623
g70
I3
ssg71
Nsg64
(lp3624
g57
(g73
g59
NtRp3625
(dp3626
g62
(dp3627
sg71
g3621
sg64
(lp3628
g57
(g78
g59
NtRp3629
(dp3630
g62
(dp3631
sg71
g3625
sg64
(lp3632
g57
(g58
g59
NtRp3633
(dp3634
g62
(dp3635
g70
I3
ssg71
g3629
sg64
(lp3636
g3566
(S't\x05\x00\x00\x00Admin'
tRp3637
asbasbasbag57
(g73
g59
NtRp3638
(dp3639
g62
(dp3640
sg71
g3621
sg64
(lp3641
g57
(g78
g59
NtRp3642
(dp3643
g62
(dp3644
sg71
g3638
sg64
(lp3645
g57
(g58
g59
NtRp3646
(dp3647
g62
(dp3648
g70
I3
ssg71
g3642
sg64
(lp3649
g100
asbasbasbag57
(g73
g59
NtRp3650
(dp3651
g62
(dp3652
sg71
g3621
sg64
(lp3653
g57
(g78
g59
NtRp3654
(dp3655
g62
(dp3656
sg71
g3650
sg64
(lp3657
g57
(g58
g59
NtRp3658
(dp3659
g62
(dp3660
g70
I3
ssg71
g3654
sg64
(lp3661
S'/milo/admin/index'
p3662
asbasbasbag57
(g73
g59
NtRp3663
(dp3664
g62
(dp3665
sg71
g3621
sg64
(lp3666
g57
(g78
g59
NtRp3667
(dp3668
g62
(dp3669
sg71
g3663
sg64
(lp3670
g57
(g58
g59
NtRp3671
(dp3672
g62
(dp3673
g70
I3
ssg71
g3667
sg64
(lp3674
g57
(g66
g59
NtRp3675
(dp3676
g62
(dp3677
g70
I2
ssg71
Nsg64
(lp3678
sbasbasbasbasbasbasbasbag57
(g73
g59
NtRp3679
(dp3680
g62
(dp3681
sg71
g3534
sg64
(lp3682
g57
(g78
g59
NtRp3683
(dp3684
g62
(dp3685
sg71
g3679
sg64
(lp3686
g57
(g58
g59
NtRp3687
(dp3688
g62
(dp3689
g70
I4
ssg71
g3683
sg64
(lp3690
g57
(g66
g59
NtRp3691
(dp3692
g62
(dp3693
g70
I3
ssg71
Nsg64
(lp3694
g57
(g73
g59
NtRp3695
(dp3696
g62
(dp3697
sg71
g3691
sg64
(lp3698
g57
(g78
g59
NtRp3699
(dp3700
g62
(dp3701
sg71
g3695
sg64
(lp3702
g57
(g58
g59
NtRp3703
(dp3704
g62
(dp3705
g70
I3
ssg71
g3699
sg64
(lp3706
g57
(cgluon.html
SPAN
p3707
g59
NtRp3708
(dp3709
g62
(dp3710
g82
S'color:yellow'
p3711
ssg71
Nsg64
(lp3712
g3512
asbasbasbasbag57
(g73
g59
NtRp3713
(dp3714
g62
(dp3715
sg71
g3691
sg64
(lp3716
g57
(g78
g59
NtRp3717
(dp3718
g62
(dp3719
sg71
g3713
sg64
(lp3720
g57
(g58
g59
NtRp3721
(dp3722
g62
(dp3723
g70
I3
ssg71
g3717
sg64
(lp3724
g100
asbasbasbag57
(g73
g59
NtRp3725
(dp3726
g62
(dp3727
sg71
g3691
sg64
(lp3728
g57
(g78
g59
NtRp3729
(dp3730
g62
(dp3731
sg71
g3725
sg64
(lp3732
g57
(g58
g59
NtRp3733
(dp3734
g62
(dp3735
g70
I3
ssg71
g3729
sg64
(lp3736
S'None'
p3737
asbasbasbag57
(g73
g59
NtRp3738
(dp3739
g62
(dp3740
sg71
g3691
sg64
(lp3741
g57
(g78
g59
NtRp3742
(dp3743
g62
(dp3744
sg71
g3738
sg64
(lp3745
g57
(g58
g59
NtRp3746
(dp3747
g62
(dp3748
g70
I3
ssg71
g3742
sg64
(lp3749
g57
(g66
g59
NtRp3750
(dp3751
g62
(dp3752
g70
I2
ssg71
Nsg64
(lp3753
g57
(g73
g59
NtRp3754
(dp3755
g62
(dp3756
sg71
g3750
sg64
(lp3757
g57
(g78
g59
NtRp3758
(dp3759
g62
(dp3760
sg71
g3754
sg64
(lp3761
g57
(g58
g59
NtRp3762
(dp3763
g62
(dp3764
g70
I2
ssg71
g3758
sg64
(lp3765
g57
(g66
g59
NtRp3766
(dp3767
g62
(dp3768
g70
I1
ssg71
Nsg64
(lp3769
g57
(g73
g59
NtRp3770
(dp3771
g62
(dp3772
sg71
g3766
sg64
(lp3773
g57
(g78
g59
NtRp3774
(dp3775
g62
(dp3776
sg71
g3770
sg64
(lp3777
g57
(g58
g59
NtRp3778
(dp3779
g62
(dp3780
g70
I1
ssg71
g3774
sg64
(lp3781
g3566
(S's\x08\x00\x00\x00My Sites'
tRp3782
asbasbasbag57
(g73
g59
NtRp3783
(dp3784
g62
(dp3785
sg71
g3766
sg64
(lp3786
g57
(g78
g59
NtRp3787
(dp3788
g62
(dp3789
sg71
g3783
sg64
(lp3790
g57
(g58
g59
NtRp3791
(dp3792
g62
(dp3793
g70
I1
ssg71
g3787
sg64
(lp3794
I00
asbasbasbag57
(g73
g59
NtRp3795
(dp3796
g62
(dp3797
sg71
g3766
sg64
(lp3798
g57
(g78
g59
NtRp3799
(dp3800
g62
(dp3801
sg71
g3795
sg64
(lp3802
g57
(g58
g59
NtRp3803
(dp3804
g62
(dp3805
g70
I1
ssg71
g3799
sg64
(lp3806
S'/admin/default/site'
p3807
asbasbasbasbasbasbasbag57
(g73
g59
NtRp3808
(dp3809
g62
(dp3810
sg71
g3750
sg64
(lp3811
g57
(g78
g59
NtRp3812
(dp3813
g62
(dp3814
sg71
g3808
sg64
(lp3815
g57
(g58
g59
NtRp3816
(dp3817
g62
(dp3818
g70
I2
ssg71
g3812
sg64
(lp3819
g57
(g66
g59
NtRp3820
(dp3821
g62
(dp3822
g70
I1
ssg71
Nsg64
(lp3823
g57
(g73
g59
NtRp3824
(dp3825
g62
(dp3826
sg71
g3820
sg64
(lp3827
g57
(g78
g59
NtRp3828
(dp3829
g62
(dp3830
sg71
g3824
sg64
(lp3831
g57
(g58
g59
NtRp3832
(dp3833
g62
(dp3834
g70
I1
ssg71
g3828
sg64
(lp3835
g3566
(S's\x08\x00\x00\x00This App'
tRp3836
asbasbasbag57
(g73
g59
NtRp3837
(dp3838
g62
(dp3839
sg71
g3820
sg64
(lp3840
g57
(g78
g59
NtRp3841
(dp3842
g62
(dp3843
sg71
g3837
sg64
(lp3844
g57
(g58
g59
NtRp3845
(dp3846
g62
(dp3847
g70
I1
ssg71
g3841
sg64
(lp3848
I00
asbasbasbag57
(g73
g59
NtRp3849
(dp3850
g62
(dp3851
sg71
g3820
sg64
(lp3852
g57
(g78
g59
NtRp3853
(dp3854
g62
(dp3855
sg71
g3849
sg64
(lp3856
g57
(g58
g59
NtRp3857
(dp3858
g62
(dp3859
g70
I1
ssg71
g3853
sg64
(lp3860
S'/admin/default/design/milo'
p3861
asbasbasbag57
(g73
g59
NtRp3862
(dp3863
g62
(dp3864
sg71
g3820
sg64
(lp3865
g57
(g78
g59
NtRp3866
(dp3867
g62
(dp3868
sg71
g3862
sg64
(lp3869
g57
(g58
g59
NtRp3870
(dp3871
g62
(dp3872
g70
I1
ssg71
g3866
sg64
(lp3873
(lp3874
(g3566
(S't\n\x00\x00\x00Controller'
tRp3875
I00
S'/admin/default/edit/milo/controllers/admin.py'
tp3876
a(g3566
(S't\x04\x00\x00\x00View'
tRp3877
I00
S'/admin/default/edit/milo/views/admin/index.html'
tp3878
a(g3566
(S't\x06\x00\x00\x00Layout'
tRp3879
I00
S'/admin/default/edit/milo/views/layout.html'
tp3880
a(g3566
(S't\n\x00\x00\x00Stylesheet'
tRp3881
I00
S'/admin/default/edit/milo/static/css/web2py.css'
tp3882
a(g3566
(S's\x08\x00\x00\x00DB Model'
tRp3883
I00
S'/admin/default/edit/milo/models/db.py'
tp3884
a(g3566
(S's\n\x00\x00\x00Menu Model'
tRp3885
I00
S'/admin/default/edit/milo/models/menu.py'
tp3886
a(g3566
(S't\x08\x00\x00\x00Database'
tRp3887
I00
S'/milo/appadmin/index'
tp3888
a(g3566
(S't\x06\x00\x00\x00Errors'
tRp3889
I00
S'/admin/default/errors/milo'
tp3890
a(g3566
(S't\x05\x00\x00\x00About'
tRp3891
I00
S'/admin/default/about/milo'
tp3892
aasbasbasbasbasbasbasbag57
(g73
g59
NtRp3893
(dp3894
g62
(dp3895
sg71
g3750
sg64
(lp3896
g57
(g78
g59
NtRp3897
(dp3898
g62
(dp3899
sg71
g3893
sg64
(lp3900
g57
(g58
g59
NtRp3901
(dp3902
g62
(dp3903
g70
I2
ssg71
g3897
sg64
(lp3904
g57
(g66
g59
NtRp3905
(dp3906
g62
(dp3907
g70
I1
ssg71
Nsg64
(lp3908
g57
(g73
g59
NtRp3909
(dp3910
g62
(dp3911
sg71
g3905
sg64
(lp3912
g57
(g78
g59
NtRp3913
(dp3914
g62
(dp3915
sg71
g3909
sg64
(lp3916
g57
(g58
g59
NtRp3917
(dp3918
g62
(dp3919
g70
I1
ssg71
g3913
sg64
(lp3920
S'web2py.com'
p3921
asbasbasbag57
(g73
g59
NtRp3922
(dp3923
g62
(dp3924
sg71
g3905
sg64
(lp3925
g57
(g78
g59
NtRp3926
(dp3927
g62
(dp3928
sg71
g3922
sg64
(lp3929
g57
(g58
g59
NtRp3930
(dp3931
g62
(dp3932
g70
I1
ssg71
g3926
sg64
(lp3933
I00
asbasbasbag57
(g73
g59
NtRp3934
(dp3935
g62
(dp3936
sg71
g3905
sg64
(lp3937
g57
(g78
g59
NtRp3938
(dp3939
g62
(dp3940
sg71
g3934
sg64
(lp3941
g57
(g58
g59
NtRp3942
(dp3943
g62
(dp3944
g70
I1
ssg71
g3938
sg64
(lp3945
S'http://www.web2py.com'
p3946
asbasbasbag57
(g73
g59
NtRp3947
(dp3948
g62
(dp3949
sg71
g3905
sg64
(lp3950
g57
(g78
g59
NtRp3951
(dp3952
g62
(dp3953
sg71
g3947
sg64
(lp3954
g57
(g58
g59
NtRp3955
(dp3956
g62
(dp3957
g70
I1
ssg71
g3951
sg64
(lp3958
(lp3959
(g3566
(S't\x08\x00\x00\x00Download'
tRp3960
I00
S'http://www.web2py.com/examples/default/download'
p3961
tp3962
a(g3566
(S't\x07\x00\x00\x00Support'
tRp3963
I00
S'http://www.web2py.com/examples/default/support'
p3964
tp3965
a(g3566
(S't\x04\x00\x00\x00Demo'
tRp3966
I00
S'http://web2py.com/demo_admin'
p3967
tp3968
a(g3566
(S's\x0e\x00\x00\x00Quick Examples'
tRp3969
I00
S'http://web2py.com/examples/default/examples'
p3970
tp3971
a(g3566
(S't\x03\x00\x00\x00FAQ'
tRp3972
I00
S'http://web2py.com/AlterEgo'
p3973
tp3974
a(g3566
(S't\x06\x00\x00\x00Videos'
tRp3975
I00
S'http://www.web2py.com/examples/default/videos/'
p3976
tp3977
a(g3566
(S's\x11\x00\x00\x00Free Applications'
tRp3978
I00
S'http://web2py.com/appliances'
p3979
tp3980
a(g3566
(S't\x07\x00\x00\x00Plugins'
tRp3981
I00
S'http://web2py.com/plugins'
p3982
tp3983
a(g3566
(S't\x07\x00\x00\x00Layouts'
tRp3984
I00
S'http://web2py.com/layouts'
p3985
tp3986
a(g3566
(S't\x07\x00\x00\x00Recipes'
tRp3987
I00
S'http://web2pyslices.com/'
p3988
tp3989
a(g3566
(S't\x08\x00\x00\x00Semantic'
tRp3990
I00
S'http://web2py.com/semantic'
p3991
tp3992
aasbasbasbasbasbasbasbag57
(g73
g59
NtRp3993
(dp3994
g62
(dp3995
sg71
g3750
sg64
(lp3996
g57
(g78
g59
NtRp3997
(dp3998
g62
(dp3999
sg71
g3993
sg64
(lp4000
g57
(g58
g59
NtRp4001
(dp4002
g62
(dp4003
g70
I2
ssg71
g3997
sg64
(lp4004
g57
(g66
g59
NtRp4005
(dp4006
g62
(dp4007
g70
I1
ssg71
Nsg64
(lp4008
g57
(g73
g59
NtRp4009
(dp4010
g62
(dp4011
sg71
g4005
sg64
(lp4012
g57
(g78
g59
NtRp4013
(dp4014
g62
(dp4015
sg71
g4009
sg64
(lp4016
g57
(g58
g59
NtRp4017
(dp4018
g62
(dp4019
g70
I1
ssg71
g4013
sg64
(lp4020
g3566
(S't\r\x00\x00\x00Documentation'
tRp4021
asbasbasbag57
(g73
g59
NtRp4022
(dp4023
g62
(dp4024
sg71
g4005
sg64
(lp4025
g57
(g78
g59
NtRp4026
(dp4027
g62
(dp4028
sg71
g4022
sg64
(lp4029
g57
(g58
g59
NtRp4030
(dp4031
g62
(dp4032
g70
I1
ssg71
g4026
sg64
(lp4033
I00
asbasbasbag57
(g73
g59
NtRp4034
(dp4035
g62
(dp4036
sg71
g4005
sg64
(lp4037
g57
(g78
g59
NtRp4038
(dp4039
g62
(dp4040
sg71
g4034
sg64
(lp4041
g57
(g58
g59
NtRp4042
(dp4043
g62
(dp4044
g70
I1
ssg71
g4038
sg64
(lp4045
S'http://www.web2py.com/book'
p4046
asbasbasbag57
(g73
g59
NtRp4047
(dp4048
g62
(dp4049
sg71
g4005
sg64
(lp4050
g57
(g78
g59
NtRp4051
(dp4052
g62
(dp4053
sg71
g4047
sg64
(lp4054
g57
(g58
g59
NtRp4055
(dp4056
g62
(dp4057
g70
I1
ssg71
g4051
sg64
(lp4058
(lp4059
(g3566
(S't\x07\x00\x00\x00Preface'
tRp4060
I00
S'http://www.web2py.com/book/default/chapter/00'
p4061
tp4062
a(g3566
(S't\x0c\x00\x00\x00Introduction'
tRp4063
I00
S'http://www.web2py.com/book/default/chapter/01'
p4064
tp4065
a(g3566
(S't\x06\x00\x00\x00Python'
tRp4066
I00
S'http://www.web2py.com/book/default/chapter/02'
p4067
tp4068
a(g3566
(S't\x08\x00\x00\x00Overview'
tRp4069
I00
S'http://www.web2py.com/book/default/chapter/03'
p4070
tp4071
a(g3566
(S's\x08\x00\x00\x00The Core'
tRp4072
I00
S'http://www.web2py.com/book/default/chapter/04'
p4073
tp4074
a(g3566
(S's\t\x00\x00\x00The Views'
tRp4075
I00
S'http://www.web2py.com/book/default/chapter/05'
p4076
tp4077
a(g3566
(S't\x08\x00\x00\x00Database'
tRp4078
I00
S'http://www.web2py.com/book/default/chapter/06'
p4079
tp4080
a(g3566
(S's\x14\x00\x00\x00Forms and Validators'
tRp4081
I00
S'http://www.web2py.com/book/default/chapter/07'
p4082
tp4083
a(g3566
(S's\r\x00\x00\x00Email and SMS'
tRp4084
I00
S'http://www.web2py.com/book/default/chapter/08'
p4085
tp4086
a(g3566
(S's\x0e\x00\x00\x00Access Control'
tRp4087
I00
S'http://www.web2py.com/book/default/chapter/09'
p4088
tp4089
a(g3566
(S't\x08\x00\x00\x00Services'
tRp4090
I00
S'http://www.web2py.com/book/default/chapter/10'
p4091
tp4092
a(g3566
(S's\x0c\x00\x00\x00Ajax Recipes'
tRp4093
I00
S'http://www.web2py.com/book/default/chapter/11'
p4094
tp4095
a(g3566
(S's\x16\x00\x00\x00Components and Plugins'
tRp4096
I00
S'http://www.web2py.com/book/default/chapter/12'
p4097
tp4098
a(g3566
(S's\x12\x00\x00\x00Deployment Recipes'
tRp4099
I00
S'http://www.web2py.com/book/default/chapter/13'
p4100
tp4101
a(g3566
(S's\r\x00\x00\x00Other Recipes'
tRp4102
I00
S'http://www.web2py.com/book/default/chapter/14'
p4103
tp4104
a(g3566
(S's\r\x00\x00\x00Buy this book'
tRp4105
I00
S'http://stores.lulu.com/web2py'
p4106
tp4107
aasbasbasbasbasbasbasbag57
(g73
g59
NtRp4108
(dp4109
g62
(dp4110
sg71
g3750
sg64
(lp4111
g57
(g78
g59
NtRp4112
(dp4113
g62
(dp4114
sg71
g4108
sg64
(lp4115
g57
(g58
g59
NtRp4116
(dp4117
g62
(dp4118
g70
I2
ssg71
g4112
sg64
(lp4119
g57
(g66
g59
NtRp4120
(dp4121
g62
(dp4122
g70
I1
ssg71
Nsg64
(lp4123
g57
(g73
g59
NtRp4124
(dp4125
g62
(dp4126
sg71
g4120
sg64
(lp4127
g57
(g78
g59
NtRp4128
(dp4129
g62
(dp4130
sg71
g4124
sg64
(lp4131
g57
(g58
g59
NtRp4132
(dp4133
g62
(dp4134
g70
I1
ssg71
g4128
sg64
(lp4135
g3566
(S't\t\x00\x00\x00Community'
tRp4136
asbasbasbag57
(g73
g59
NtRp4137
(dp4138
g62
(dp4139
sg71
g4120
sg64
(lp4140
g57
(g78
g59
NtRp4141
(dp4142
g62
(dp4143
sg71
g4137
sg64
(lp4144
g57
(g58
g59
NtRp4145
(dp4146
g62
(dp4147
g70
I1
ssg71
g4141
sg64
(lp4148
I00
asbasbasbag57
(g73
g59
NtRp4149
(dp4150
g62
(dp4151
sg71
g4120
sg64
(lp4152
g57
(g78
g59
NtRp4153
(dp4154
g62
(dp4155
sg71
g4149
sg64
(lp4156
g57
(g58
g59
NtRp4157
(dp4158
g62
(dp4159
g70
I1
ssg71
g4153
sg64
(lp4160
Nasbasbasbag57
(g73
g59
NtRp4161
(dp4162
g62
(dp4163
sg71
g4120
sg64
(lp4164
g57
(g78
g59
NtRp4165
(dp4166
g62
(dp4167
sg71
g4161
sg64
(lp4168
g57
(g58
g59
NtRp4169
(dp4170
g62
(dp4171
g70
I1
ssg71
g4165
sg64
(lp4172
(lp4173
(g3566
(S't\x06\x00\x00\x00Groups'
tRp4174
I00
S'http://www.web2py.com/examples/default/usergroups'
p4175
tp4176
a(g3566
(S't\x07\x00\x00\x00Twitter'
tRp4177
I00
S'http://twitter.com/web2py'
p4178
tp4179
a(g3566
(S's\t\x00\x00\x00Live Chat'
tRp4180
I00
S'http://webchat.freenode.net/?channels=web2py'
p4181
tp4182
aasbasbasbasbasbasbasbag57
(g73
g59
NtRp4183
(dp4184
g62
(dp4185
sg71
g3750
sg64
(lp4186
g57
(g78
g59
NtRp4187
(dp4188
g62
(dp4189
sg71
g4183
sg64
(lp4190
g57
(g58
g59
NtRp4191
(dp4192
g62
(dp4193
g70
I2
ssg71
g4187
sg64
(lp4194
g57
(g66
g59
NtRp4195
(dp4196
g62
(dp4197
g70
I1
ssg71
Nsg64
(lp4198
g57
(g73
g59
NtRp4199
(dp4200
g62
(dp4201
sg71
g4195
sg64
(lp4202
g57
(g78
g59
NtRp4203
(dp4204
g62
(dp4205
sg71
g4199
sg64
(lp4206
g57
(g58
g59
NtRp4207
(dp4208
g62
(dp4209
g70
I1
ssg71
g4203
sg64
(lp4210
g3566
(S't\x07\x00\x00\x00Plugins'
tRp4211
asbasbasbag57
(g73
g59
NtRp4212
(dp4213
g62
(dp4214
sg71
g4195
sg64
(lp4215
g57
(g78
g59
NtRp4216
(dp4217
g62
(dp4218
sg71
g4212
sg64
(lp4219
g57
(g58
g59
NtRp4220
(dp4221
g62
(dp4222
g70
I1
ssg71
g4216
sg64
(lp4223
I00
asbasbasbag57
(g73
g59
NtRp4224
(dp4225
g62
(dp4226
sg71
g4195
sg64
(lp4227
g57
(g78
g59
NtRp4228
(dp4229
g62
(dp4230
sg71
g4224
sg64
(lp4231
g57
(g58
g59
NtRp4232
(dp4233
g62
(dp4234
g70
I1
ssg71
g4228
sg64
(lp4235
Nasbasbasbag57
(g73
g59
NtRp4236
(dp4237
g62
(dp4238
sg71
g4195
sg64
(lp4239
g57
(g78
g59
NtRp4240
(dp4241
g62
(dp4242
sg71
g4236
sg64
(lp4243
g57
(g58
g59
NtRp4244
(dp4245
g62
(dp4246
g70
I1
ssg71
g4240
sg64
(lp4247
(lp4248
(S'plugin_wiki'
p4249
I00
S'http://web2py.com/examples/default/download'
p4250
tp4251
a(g3566
(S's\r\x00\x00\x00Other Plugins'
tRp4252
I00
g3982
tp4253
a(g3566
(S's\x0e\x00\x00\x00Layout Plugins'
tRp4254
I00
g3985
tp4255
aasbasbasbasbasbasbasbasbasbasbasbasbasbasbasbasbasbasbasbag57
(g73
g59
NtRp4256
(dp4257
g62
(dp4258
sg71
g3010
sg64
(lp4259
g57
(g78
g59
NtRp4260
(dp4261
g62
(dp4262
g82
g83
ssg71
g4256
sg64
(lp4263
S'meta'
p4264
asbag57
(g78
g59
NtRp4265
(dp4266
g62
(dp4267
g89
g90
ssg71
g4256
sg64
(lp4268
S':'
asbag57
(g78
g59
NtRp4269
(dp4270
g62
(dp4271
sg71
g4256
sg64
(lp4272
g57
(g58
g59
NtRp4273
(dp4274
g62
(dp4275
g70
I5
ssg71
g4269
sg64
(lp4276
g57
(g66
g59
NtRp4277
(dp4278
g62
(dp4279
g70
I4
ssg71
Nsg64
(lp4280
g57
(g73
g59
NtRp4281
(dp4282
g62
(dp4283
sg71
g4277
sg64
(lp4284
g57
(g78
g59
NtRp4285
(dp4286
g62
(dp4287
g82
g83
ssg71
g4281
sg64
(lp4288
S'author'
p4289
asbag57
(g78
g59
NtRp4290
(dp4291
g62
(dp4292
g89
g90
ssg71
g4281
sg64
(lp4293
S':'
asbag57
(g78
g59
NtRp4294
(dp4295
g62
(dp4296
sg71
g4281
sg64
(lp4297
g57
(g58
g59
NtRp4298
(dp4299
g62
(dp4300
g70
I4
ssg71
g4294
sg64
(lp4301
S'Vincenzo Ampolo <vincenzo.ampolo@gmail.com>'
p4302
asbasbasbag57
(g73
g59
NtRp4303
(dp4304
g62
(dp4305
sg71
g4277
sg64
(lp4306
g57
(g78
g59
NtRp4307
(dp4308
g62
(dp4309
g82
g83
ssg71
g4303
sg64
(lp4310
S'copyright'
p4311
asbag57
(g78
g59
NtRp4312
(dp4313
g62
(dp4314
g89
g90
ssg71
g4303
sg64
(lp4315
S':'
asbag57
(g78
g59
NtRp4316
(dp4317
g62
(dp4318
sg71
g4303
sg64
(lp4319
g57
(g58
g59
NtRp4320
(dp4321
g62
(dp4322
g70
I4
ssg71
g4316
sg64
(lp4323
S'Copyright 2012'
p4324
asbasbasbag57
(g73
g59
NtRp4325
(dp4326
g62
(dp4327
sg71
g4277
sg64
(lp4328
g57
(g78
g59
NtRp4329
(dp4330
g62
(dp4331
g82
g83
ssg71
g4325
sg64
(lp4332
S'description'
p4333
asbag57
(g78
g59
NtRp4334
(dp4335
g62
(dp4336
g89
g90
ssg71
g4325
sg64
(lp4337
S':'
asbag57
(g78
g59
NtRp4338
(dp4339
g62
(dp4340
sg71
g4325
sg64
(lp4341
g57
(g58
g59
NtRp4342
(dp4343
g62
(dp4344
g70
I4
ssg71
g4338
sg64
(lp4345
S'Milo recommendation system'
p4346
asbasbasbag57
(g73
g59
NtRp4347
(dp4348
g62
(dp4349
sg71
g4277
sg64
(lp4350
g57
(g78
g59
NtRp4351
(dp4352
g62
(dp4353
g82
g83
ssg71
g4347
sg64
(lp4354
S'generator'
p4355
asbag57
(g78
g59
NtRp4356
(dp4357
g62
(dp4358
g89
g90
ssg71
g4347
sg64
(lp4359
S':'
asbag57
(g78
g59
NtRp4360
(dp4361
g62
(dp4362
sg71
g4347
sg64
(lp4363
g57
(g58
g59
NtRp4364
(dp4365
g62
(dp4366
g70
I4
ssg71
g4360
sg64
(lp4367
S'Web2py Web Framework'
p4368
asbasbasbag57
(g73
g59
NtRp4369
(dp4370
g62
(dp4371
sg71
g4277
sg64
(lp4372
g57
(g78
g59
NtRp4373
(dp4374
g62
(dp4375
g82
g83
ssg71
g4369
sg64
(lp4376
S'keywords'
p4377
asbag57
(g78
g59
NtRp4378
(dp4379
g62
(dp4380
g89
g90
ssg71
g4369
sg64
(lp4381
S':'
asbag57
(g78
g59
NtRp4382
(dp4383
g62
(dp4384
sg71
g4369
sg64
(lp4385
g57
(g58
g59
NtRp4386
(dp4387
g62
(dp4388
g70
I4
ssg71
g4382
sg64
(lp4389
S'web2py, python, framework'
p4390
asbasbasbasbasbasbasbag57
(g73
g59
NtRp4391
(dp4392
g62
(dp4393
sg71
g3010
sg64
(lp4394
g57
(g78
g59
NtRp4395
(dp4396
g62
(dp4397
g82
g83
ssg71
g4391
sg64
(lp4398
S'postprocessing'
p4399
asbag57
(g78
g59
NtRp4400
(dp4401
g62
(dp4402
g89
g90
ssg71
g4391
sg64
(lp4403
S':'
asbag57
(g78
g59
NtRp4404
(dp4405
g62
(dp4406
sg71
g4391
sg64
(lp4407
g57
(g58
g59
NtRp4408
(dp4409
g62
(dp4410
g70
I5
ssg71
g4404
sg64
(lp4411
g57
(g66
g59
NtRp4412
(dp4413
g62
(dp4414
g70
I4
ssg71
Nsg64
(lp4415
sbasbasbasbag57
(g73
g59
NtRp4416
(dp4417
g62
(dp4418
sg71
g3010
sg64
(lp4419
g57
(g78
g59
NtRp4420
(dp4421
g62
(dp4422
g82
g83
ssg71
g4416
sg64
(lp4423
S'session_file'
p4424
asbag57
(g78
g59
NtRp4425
(dp4426
g62
(dp4427
g89
g90
ssg71
g4416
sg64
(lp4428
S':'
asbag57
(g78
g59
NtRp4429
(dp4430
g62
(dp4431
sg71
g4416
sg64
(lp4432
g57
(g58
g59
NtRp4433
(dp4434
g62
(dp4435
g70
I5
ssg71
g4429
sg64
(lp4436
S"<open file '/home/goshawk/web2py/applications/milo/sessions/127.0.0.1-6ea54ce8-d4d4-42e2-9f2c-7c1a0acc789f', mode 'rb+' at 0x3412540>"
p4437
asbasbasbag57
(g73
g59
NtRp4438
(dp4439
g62
(dp4440
sg71
g3010
sg64
(lp4441
g57
(g78
g59
NtRp4442
(dp4443
g62
(dp4444
g82
g83
ssg71
g4438
sg64
(lp4445
S'session_filename'
p4446
asbag57
(g78
g59
NtRp4447
(dp4448
g62
(dp4449
g89
g90
ssg71
g4438
sg64
(lp4450
S':'
asbag57
(g78
g59
NtRp4451
(dp4452
g62
(dp4453
sg71
g4438
sg64
(lp4454
g57
(g58
g59
NtRp4455
(dp4456
g62
(dp4457
g70
I5
ssg71
g4451
sg64
(lp4458
S'/home/goshawk/web2py/applications/milo/sessions/127.0.0.1-6ea54ce8-d4d4-42e2-9f2c-7c1a0acc789f'
p4459
asbasbasbag57
(g73
g59
NtRp4460
(dp4461
g62
(dp4462
sg71
g3010
sg64
(lp4463
g57
(g78
g59
NtRp4464
(dp4465
g62
(dp4466
g82
g83
ssg71
g4460
sg64
(lp4467
S'session_id'
p4468
asbag57
(g78
g59
NtRp4469
(dp4470
g62
(dp4471
g89
g90
ssg71
g4460
sg64
(lp4472
S':'
asbag57
(g78
g59
NtRp4473
(dp4474
g62
(dp4475
sg71
g4460
sg64
(lp4476
g57
(g58
g59
NtRp4477
(dp4478
g62
(dp4479
g70
I5
ssg71
g4473
sg64
(lp4480
S'127.0.0.1-6ea54ce8-d4d4-42e2-9f2c-7c1a0acc789f'
p4481
asbasbasbag57
(g73
g59
NtRp4482
(dp4483
g62
(dp4484
sg71
g3010
sg64
(lp4485
g57
(g78
g59
NtRp4486
(dp4487
g62
(dp4488
g82
g83
ssg71
g4482
sg64
(lp4489
S'session_id_name'
p4490
asbag57
(g78
g59
NtRp4491
(dp4492
g62
(dp4493
g89
g90
ssg71
g4482
sg64
(lp4494
S':'
asbag57
(g78
g59
NtRp4495
(dp4496
g62
(dp4497
sg71
g4482
sg64
(lp4498
g57
(g58
g59
NtRp4499
(dp4500
g62
(dp4501
g70
I5
ssg71
g4495
sg64
(lp4502
g3067
asbasbasbag57
(g73
g59
NtRp4503
(dp4504
g62
(dp4505
sg71
g3010
sg64
(lp4506
g57
(g78
g59
NtRp4507
(dp4508
g62
(dp4509
g82
g83
ssg71
g4503
sg64
(lp4510
S'session_locked'
p4511
asbag57
(g78
g59
NtRp4512
(dp4513
g62
(dp4514
g89
g90
ssg71
g4503
sg64
(lp4515
S':'
asbag57
(g78
g59
NtRp4516
(dp4517
g62
(dp4518
sg71
g4503
sg64
(lp4519
g57
(g58
g59
NtRp4520
(dp4521
g62
(dp4522
g70
I5
ssg71
g4516
sg64
(lp4523
g1557
asbasbasbag57
(g73
g59
NtRp4524
(dp4525
g62
(dp4526
sg71
g3010
sg64
(lp4527
g57
(g78
g59
NtRp4528
(dp4529
g62
(dp4530
g82
g83
ssg71
g4524
sg64
(lp4531
S'session_new'
p4532
asbag57
(g78
g59
NtRp4533
(dp4534
g62
(dp4535
g89
g90
ssg71
g4524
sg64
(lp4536
S':'
asbag57
(g78
g59
NtRp4537
(dp4538
g62
(dp4539
sg71
g4524
sg64
(lp4540
g57
(g58
g59
NtRp4541
(dp4542
g62
(dp4543
g70
I5
ssg71
g4537
sg64
(lp4544
g100
asbasbasbag57
(g73
g59
NtRp4545
(dp4546
g62
(dp4547
sg71
g3010
sg64
(lp4548
g57
(g78
g59
NtRp4549
(dp4550
g62
(dp4551
g82
g83
ssg71
g4545
sg64
(lp4552
S'status'
p4553
asbag57
(g78
g59
NtRp4554
(dp4555
g62
(dp4556
g89
g90
ssg71
g4545
sg64
(lp4557
S':'
asbag57
(g78
g59
NtRp4558
(dp4559
g62
(dp4560
sg71
g4545
sg64
(lp4561
g57
(g58
g59
NtRp4562
(dp4563
g62
(dp4564
g70
I5
ssg71
g4558
sg64
(lp4565
S'200'
p4566
asbasbasbag57
(g73
g59
NtRp4567
(dp4568
g62
(dp4569
sg71
g3010
sg64
(lp4570
g57
(g78
g59
NtRp4571
(dp4572
g62
(dp4573
g82
g83
ssg71
g4567
sg64
(lp4574
S'title'
p4575
asbag57
(g78
g59
NtRp4576
(dp4577
g62
(dp4578
g89
g90
ssg71
g4567
sg64
(lp4579
S':'
asbag57
(g78
g59
NtRp4580
(dp4581
g62
(dp4582
sg71
g4567
sg64
(lp4583
g57
(g58
g59
NtRp4584
(dp4585
g62
(dp4586
g70
I5
ssg71
g4580
sg64
(lp4587
S'Milo'
p4588
asbasbasbag57
(g73
g59
NtRp4589
(dp4590
g62
(dp4591
sg71
g3010
sg64
(lp4592
g57
(g78
g59
NtRp4593
(dp4594
g62
(dp4595
g82
g83
ssg71
g4589
sg64
(lp4596
g2221
asbag57
(g78
g59
NtRp4597
(dp4598
g62
(dp4599
g89
g90
ssg71
g4589
sg64
(lp4600
S':'
asbag57
(g78
g59
NtRp4601
(dp4602
g62
(dp4603
sg71
g4589
sg64
(lp4604
g57
(g58
g59
NtRp4605
(dp4606
g62
(dp4607
g70
I5
ssg71
g4601
sg64
(lp4608
g2234
asbasbasbag57
(g73
g59
NtRp4609
(dp4610
g62
(dp4611
sg71
g3010
sg64
(lp4612
g57
(g78
g59
NtRp4613
(dp4614
g62
(dp4615
g82
g83
ssg71
g4609
sg64
(lp4616
S'view'
p4617
asbag57
(g78
g59
NtRp4618
(dp4619
g62
(dp4620
g89
g90
ssg71
g4609
sg64
(lp4621
S':'
asbag57
(g78
g59
NtRp4622
(dp4623
g62
(dp4624
sg71
g4609
sg64
(lp4625
g57
(g58
g59
NtRp4626
(dp4627
g62
(dp4628
g70
I5
ssg71
g4622
sg64
(lp4629
S'admin/index.html'
p4630
asbasbasbasbasbsS'locals'
p4631
(dp4632
S'Service'
p4633
S"<class 'gluon.tools.Service'>"
p4634
sS'alg'
p4635
S"'toprated'"
p4636
sS'OBJECT'
p4637
S"<class 'gluon.html.OBJECT'>"
p4638
sS'SQLDB'
p4639
S"<class 'gluon.dal.DAL'>"
p4640
sg2992
S"<Storage {'_Session__hash': '\\xd9\\xaa\\xb6\\xccX\\x...{'version': '18.0.1025.168', 'name': 'Chrome'}}}>"
p4641
sS'LINK'
p4642
S"<class 'gluon.html.LINK'>"
p4643
sS'BR'
p4644
S"<class 'gluon.html.BR'>"
p4645
sS'local_import'
p4646
S'<function <lambda>>'
p4647
sS'OPTGROUP'
p4648
S"<class 'gluon.html.OPTGROUP'>"
p4649
sS'matlab_wrapper'
p4650
S"<module 'applications.milo.modules.matlab_wrappe...om 'applications/milo/modules/matlab_wrapper.py'>"
p4651
sS'__package__'
p4652
S'None'
p4653
sS'PRE'
p4654
S"<class 'gluon.html.PRE'>"
p4655
sS'IS_INT_IN_RANGE'
p4656
S"<class 'gluon.validators.IS_INT_IN_RANGE'>"
p4657
sS'IS_LOWER'
p4658
S"<class 'gluon.validators.IS_LOWER'>"
p4659
sS'IS_STRONG'
p4660
S"<class 'gluon.validators.IS_STRONG'>"
p4661
sS'cache'
p4662
S'<gluon.cache.Cache object>'
p4663
sS'IS_IN_DB'
p4664
S"<class 'gluon.validators.IS_IN_DB'>"
p4665
sS'TAG'
p4666
S'<gluon.html.__TAG__ object>'
p4667
sS'Scheduler'
p4668
S"<class 'scheduler.Scheduler'>"
p4669
sS'SQLField'
p4670
S"<class 'gluon.dal.Field'>"
p4671
sS'mail'
p4672
S'<gluon.tools.Mail object>'
p4673
sS'BODY'
p4674
S"<class 'gluon.html.BODY'>"
p4675
sS'IS_DATE_IN_RANGE'
p4676
S"<class 'gluon.validators.IS_DATE_IN_RANGE'>"
p4677
sS'TH'
p4678
S"<class 'gluon.html.TH'>"
p4679
sS'URL'
p4680
S'<function URL>'
p4681
sS'__file__'
p4682
S"'/home/goshawk/web2py/applications/milo/views/admin/index.html'"
p4683
sS'db'
p4684
S"<DAL {'auth_event': <Table {'origin': <gluon.dal...': <gluon.dal.Field object at 0x7f43e81f6450>}>}>"
p4685
sS'auth'
p4686
S'<gluon.tools.Auth object>'
p4687
sS'P'
S"<class 'gluon.html.P'>"
p4688
sS'TFOOT'
p4689
S"<class 'gluon.html.TFOOT'>"
p4690
sS'XHTML'
p4691
S"<class 'gluon.html.XHTML'>"
p4692
sS'ON'
p4693
g1557
sS'OL'
p4694
S"<class 'gluon.html.OL'>"
p4695
sS'TEXTAREA'
p4696
S"<class 'gluon.html.TEXTAREA'>"
p4697
sS'create_features_titles'
p4698
S'<function create_features_titles>'
p4699
sS'MENU'
p4700
S"<class 'gluon.html.MENU'>"
p4701
sS'IS_IMAGE'
p4702
S"<class 'gluon.validators.IS_IMAGE'>"
p4703
sS'db_scheduler'
p4704
S"<DAL {'_migrate_enabled': True, '_lastsql': 'SET...'_uri_hash': 'a7a0edf0512f050b513f67ccc4d20901'}>"
p4705
sS'LOAD'
p4706
S'<function LOAD>'
p4707
sS'CODE'
p4708
S"<class 'gluon.html.CODE'>"
p4709
sS'HTTP'
p4710
S"<class 'gluon.http.HTTP'>"
p4711
sS'HR'
p4712
S"<class 'gluon.html.HR'>"
p4713
sS'IS_DATETIME'
p4714
S"<class 'gluon.validators.IS_DATETIME'>"
p4715
sS'HEAD'
p4716
S"<class 'gluon.html.HEAD'>"
p4717
sS'LABEL'
p4718
S"<class 'gluon.html.LABEL'>"
p4719
sS'META'
p4720
S"<class 'gluon.html.META'>"
p4721
sS'plugins'
p4722
S'<gluon.tools.PluginManager object>'
p4723
sS'SELECT'
p4724
S"<class 'gluon.html.SELECT'>"
p4725
sS'use_janrain'
p4726
S'<function use_janrain>'
p4727
sS'CENTER'
p4728
S"<class 'gluon.html.CENTER'>"
p4729
sS'prettydate'
p4730
S'<function prettydate>'
p4731
sS'Crud'
p4732
S"<class 'gluon.tools.Crud'>"
p4733
sS'Auth'
p4734
S"<class 'gluon.tools.Auth'>"
p4735
sS'IS_EQUAL_TO'
p4736
S"<class 'gluon.validators.IS_EQUAL_TO'>"
p4737
sS'HTML'
p4738
S"<class 'gluon.html.HTML'>"
p4739
sS'SQLFORM'
p4740
S"<class 'gluon.sqlhtml.SQLFORM'>"
p4741
sS'EM'
p4742
S"<class 'gluon.html.EM'>"
p4743
sS'redirect'
p4744
S'<function redirect>'
p4745
sS'FIELDSET'
p4746
S"<class 'gluon.html.FIELDSET'>"
p4747
sS'__builtins__'
p4748
S"{'ArithmeticError': <type 'exceptions.ArithmeticError'>, 'AssertionError': <type 'exceptions.AssertionError'>, 'AttributeError': <type 'exceptions.AttributeError'>, 'BaseException': <type 'exceptions.BaseException'>, 'BufferError': <type 'exceptions.BufferError'>, 'BytesWarning': <type 'exceptions.BytesWarning'>, 'DeprecationWarning': <type 'exceptions.DeprecationWarning'>, 'EOFError': <type 'exceptions.EOFError'>, 'Ellipsis': Ellipsis, 'EnvironmentError': <type 'exceptions.EnvironmentError'>, ...}"
p4749
sS'create_model'
p4750
S'<function create_model>'
p4751
sS'embed64'
p4752
S'<function embed64>'
p4753
sS'IS_LIST_OF'
p4754
S"<class 'gluon.validators.IS_LIST_OF'>"
p4755
sS'INPUT'
p4756
S"<class 'gluon.html.INPUT'>"
p4757
sS'EMBED'
p4758
S"<class 'gluon.html.EMBED'>"
p4759
sS'_'
S'<function _>'
p4760
sS'create_metadata'
p4761
S'<function create_metadata>'
p4762
sS'service'
p4763
S'<gluon.tools.Service object>'
p4764
sS'H2'
p4765
S"<class 'gluon.html.H2'>"
p4766
sS'H3'
p4767
S"<class 'gluon.html.H3'>"
p4768
sS'BUTTON'
p4769
S"<class 'gluon.html.BUTTON'>"
p4770
sS'H1'
p4771
S"<class 'gluon.html.H1'>"
p4772
sS'H6'
p4773
S"<class 'gluon.html.H6'>"
p4774
sS'H4'
p4775
S"<class 'gluon.html.H4'>"
p4776
sS'H5'
p4777
S"<class 'gluon.html.H5'>"
p4778
sS'UL'
p4779
S"<class 'gluon.html.UL'>"
p4780
sS'IS_UPPER'
p4781
S"<class 'gluon.validators.IS_UPPER'>"
p4782
sS'xmlescape'
p4783
S'<function xmlescape>'
p4784
sS'IS_TIME'
p4785
S"<class 'gluon.validators.IS_TIME'>"
p4786
sS'OPTION'
p4787
S"<class 'gluon.html.OPTION'>"
p4788
sS'TITLE'
p4789
S"<class 'gluon.html.TITLE'>"
p4790
sS'CRYPT'
p4791
S"<class 'gluon.validators.CRYPT'>"
p4792
sS'IS_EMPTY_OR'
p4793
S"<class 'gluon.validators.IS_EMPTY_OR'>"
p4794
sS'MARKMIN'
p4795
S"<class 'gluon.html.MARKMIN'>"
p4796
sS'__name__'
p4797
S"'__restricted__'"
p4798
sS'message'
p4799
S"'hello from admin.py'"
p4800
sS'COL'
p4801
S"<class 'gluon.html.COL'>"
p4802
sS'matrices_info'
p4803
S"{'urm': datetime.datetime(2012, 7, 10, 4, 47, 57, 199956)}"
p4804
sS'SCRIPT'
p4805
S"<class 'gluon.html.SCRIPT'>"
p4806
sS'TABLE'
p4807
S"<class 'gluon.html.TABLE'>"
p4808
sS'IS_IPV4'
p4809
S"<class 'gluon.validators.IS_IPV4'>"
p4810
sS'IS_LENGTH'
p4811
S"<class 'gluon.validators.IS_LENGTH'>"
p4812
sS'XML'
p4813
S"<class 'gluon.html.XML'>"
p4814
sS'B'
S"<class 'gluon.html.B'>"
p4815
sS'IMG'
p4816
S"<class 'gluon.html.IMG'>"
p4817
sS'SQLTABLE'
p4818
S"<class 'gluon.sqlhtml.SQLTABLE'>"
p4819
sS'IS_MATCH'
p4820
S"<class 'gluon.validators.IS_MATCH'>"
p4821
sS'IS_ALPHANUMERIC'
p4822
S"<class 'gluon.validators.IS_ALPHANUMERIC'>"
p4823
sS'SPAN'
p4824
S"<class 'gluon.html.SPAN'>"
p4825
sS'IS_SLUG'
p4826
S"<class 'gluon.validators.IS_SLUG'>"
p4827
sS'CLEANUP'
p4828
S"<class 'gluon.validators.CLEANUP'>"
p4829
sS'im'
p4830
S'<imdb.parser.sql.IMDbSqlAccessSystem instance>'
p4831
sS'IS_DATE'
p4832
S"<class 'gluon.validators.IS_DATE'>"
p4833
sS'IS_EMAIL'
p4834
S"<class 'gluon.validators.IS_EMAIL'>"
p4835
sS'IS_NOT_EMPTY'
p4836
S"<class 'gluon.validators.IS_NOT_EMPTY'>"
p4837
sg56
S"<Storage {'body': <cStringIO.StringO object at 0..._vars': <Storage {}>, 'post_vars': <Storage {}>}>"
p4838
sS'BEAUTIFY'
p4839
S"<class 'gluon.html.BEAUTIFY'>"
p4840
sS'TBODY'
p4841
S"<class 'gluon.html.TBODY'>"
p4842
sS'CAT'
p4843
S"<class 'gluon.html.CAT'>"
p4844
sS'Field'
p4845
S"<class 'gluon.dal.Field'>"
p4846
sS'imdb'
p4847
S"<module 'imdb' from '/usr/local/lib/python2.7/dist-packages/imdb/__init__.pyc'>"
p4848
sS'DIV'
p4849
S"<class 'gluon.html.DIV'>"
p4850
sS'LEGEND'
p4851
S"<class 'gluon.html.LEGEND'>"
p4852
sS'COLGROUP'
p4853
S"<class 'gluon.html.COLGROUP'>"
p4854
sS'DAL'
p4855
S"<class 'gluon.dal.DAL'>"
p4856
sS'TT'
p4857
S"<class 'gluon.html.TT'>"
p4858
sS'TR'
p4859
S"<class 'gluon.html.TR'>"
p4860
sS'LI'
p4861
S"<class 'gluon.html.LI'>"
p4862
sS'IFRAME'
p4863
S"<class 'gluon.html.IFRAME'>"
p4864
sS'TD'
p4865
S"<class 'gluon.html.TD'>"
p4866
sS'PluginManager'
p4867
S"<class 'gluon.tools.PluginManager'>"
p4868
sS'IS_URL'
p4869
S"<class 'gluon.validators.IS_URL'>"
p4870
sS'A'
S"<class 'gluon.html.A'>"
p4871
sS'STYLE'
p4872
S"<class 'gluon.html.STYLE'>"
p4873
sS'IS_DATETIME_IN_RANGE'
p4874
S"<class 'gluon.validators.IS_DATETIME_IN_RANGE'>"
p4875
sS'FORM'
p4876
S"<class 'gluon.html.FORM'>"
p4877
sS'I'
S"<class 'gluon.html.I'>"
p4878
sS'crud'
p4879
S'<gluon.tools.Crud object>'
p4880
sS'IS_NOT_IN_DB'
p4881
S"<class 'gluon.validators.IS_NOT_IN_DB'>"
p4882
sS'imdb_connection_str'
p4883
S"'postgres://imdb:imdbsecret@localhost/imdb'"
p4884
sg3005
S"<Storage {'body': <cStringIO.StringO object at 0...mbda> at 0x3474b90>, 'view': 'admin/index.html'}>"
p4885
sS'THEAD'
p4886
S"<class 'gluon.html.THEAD'>"
p4887
sS'IS_NULL_OR'
p4888
S"<class 'gluon.validators.IS_EMPTY_OR'>"
p4889
sS'IS_FLOAT_IN_RANGE'
p4890
S"<class 'gluon.validators.IS_FLOAT_IN_RANGE'>"
p4891
sS'IS_EXPR'
p4892
S"<class 'gluon.validators.IS_EXPR'>"
p4893
sS'T'
S'<gluon.languages.translator object>'
p4894
sS'IS_IN_SET'
p4895
S"<class 'gluon.validators.IS_IN_SET'>"
p4896
sS'algorithms'
p4897
S"['AsySVD', 'CosNgbr_II', 'NNCosNgbr_II', 'NNCosNgbr_II_knn', '_CosNgbr_II_knn', 'directContent_knn', 'drII', 'drIIknn', 'lsa_Cosine', 'lsa_NNCosine', 'movieAvg', 'pearsonIIkoren', 'pureSVD', 'random', 'toprated']"
p4898
sS'IS_UPLOAD_FILENAME'
p4899
S"<class 'gluon.validators.IS_UPLOAD_FILENAME'>"
p4900
sS'milo_scheduler'
p4901
S'<Scheduler(Thread-14, initial daemon)>'
p4902
sS'IS_DECIMAL_IN_RANGE'
p4903
S"<class 'gluon.validators.IS_DECIMAL_IN_RANGE'>"
p4904
sssS'traceback'
p4905
S'Traceback (most recent call last):\n  File "/home/goshawk/web2py/gluon/restricted.py", line 205, in restricted\n    exec ccode in environment\n  File "/home/goshawk/web2py/applications/milo/views/admin/index.html", line 18, in <module>\nNameError: name \'matrices\' is not defined\n'
p4906
s.