(dp1
S'output'
p2
S"<type 'exceptions.SyntaxError'> not enough information to build the url"
p3
sS'layer'
p4
S'/home/goshawk/web2py/applications/milo/views/default/index.html'
p5
sS'code'
p6
S'left_sidebar_enabled,right_sidebar_enabled=False,True\nresponse.write(\'\\n\', escape=False)\nresponse.write(\'<!DOCTYPE html>\\n<!-- paulirish.com/2008/conditional-stylesheets-vs-css-hacks-answer-neither/ -->\\n<!--[if lt IE 7]><html class="ie ie6 ie-lte9 ie-lte8 ie-lte7 no-js" lang="\', escape=False)\nresponse.write(T.accepted_language or \'en\')\nresponse.write(\'"> <![endif]-->\\n<!--[if IE 7]><html class="ie ie7 ie-lte9 ie-lte8 ie-lte7 no-js" lang="\', escape=False)\nresponse.write(T.accepted_language or \'en\')\nresponse.write(\'"> <![endif]-->\\n<!--[if IE 8]><html class="ie ie8 ie-lte9 ie-lte8 no-js" lang="\', escape=False)\nresponse.write(T.accepted_language or \'en\')\nresponse.write(\'"> <![endif]-->\\n<!--[if IE 9]><html class="ie9 ie-lte9 no-js" lang="\', escape=False)\nresponse.write(T.accepted_language or \'en\')\nresponse.write(\'"> <![endif]-->\\n<!--[if (gt IE 9)|!(IE)]><!--> <html class="no-js" lang="\', escape=False)\nresponse.write(T.accepted_language or \'en\')\nresponse.write(\'"> <!--<![endif]-->\\n<head>\\n  <meta charset="utf-8" />\\n  <!-- www.phpied.com/conditional-comments-block-downloads/ -->\\n  <!-- Always force latest IE rendering engine\\n\\t   (even in intranet) & Chrome Frame\\n\\t   Remove this if you use the .htaccess -->\\n  <!--[if IE]>\\n    <meta http-equiv="X-UA-Compatible" content="IE=edge\', escape=False)\nresponse.write(not request.is_local and \',chrome=1\' or \'\')\nresponse.write(\'">\\n  <![endif]-->\\n  \\n  <title>\', escape=False)\nresponse.write(response.title or request.application)\nresponse.write(\'</title>\\n  \\n  <!-- http://dev.w3.org/html5/markup/meta.name.html -->\\n  <meta name="application-name" content="\', escape=False)\nresponse.write(request.application)\nresponse.write(\'" />\\n  \\n  <!-- Speaking of Google, don\\\'t forget to set your site up:\\n\\t   http://google.com/webmasters -->\\n  <meta name="google-site-verification" content="" />\\n\\n  <!--  Mobile Viewport Fix\\n\\t  j.mp/mobileviewport & davidbcalhoun.com/2010/viewport-metatag\\n\\t  device-width: Occupy full width of the screen in its current orientation\\n\\t  initial-scale = 1.0 retains dimensions instead of zooming out if page height > device height\\n\\t  user-scalable = yes allows the user to zoom in -->\\n  <meta name="viewport" content="width=device-width, initial-scale=1.0, user-scalable=yes">\\n  \\n  <!-- Place favicon.ico and apple-touch-icon.png in the root of your domain and delete these references -->\\n  <link rel="shortcut icon" href="\', escape=False)\nresponse.write(URL(\'static\',\'favicon.ico\'))\nresponse.write(\'" type="image/x-icon">\\n  <link rel="apple-touch-icon" href="\', escape=False)\nresponse.write(URL(\'static\',\'favicon.png\'))\nresponse.write(\'">\\n\\n  <!-- All JavaScript at the bottom, except for Modernizr which enables \\n\\t   HTML5 elements & feature detects -->\\n  <script src="\', escape=False)\nresponse.write(URL(\'static\',\'js/modernizr.custom.js\'))\nresponse.write(\'"></script>\\n\\n  <!-- include stylesheets -->\\n  \', escape=False)\nresponse.files.append(URL(\'static\',\'css/skeleton.css\'))\nresponse.files.append(URL(\'static\',\'css/web2py.css\'))\nresponse.files.append(URL(\'static\', \'css/style.css\'))\nresponse.files.append(URL(\'static\', \'css/style.css3.css\'))\nresponse.files.append(URL(\'static\', \'css/smoothness/jquery-ui.css\'))\nif response.menu:\n    response.files.append(URL(\'static\',\'css/superfish.css\'))\n    response.files.append(URL(\'static\',\'js/superfish.js\'))\n    pass\nresponse.write(\'\\n\\n  \', escape=False)\nresponse.write(\'<script type="text/javascript"><!--\\n    // These variables are used by the web2py_ajax_init function in web2py_ajax.js (which is loaded below).\\n    var w2p_ajax_confirm_message = "\', escape=False)\nresponse.write(T(\'Are you sure you want to delete this object?\'))\nresponse.write(\'";\\n    var w2p_ajax_date_format = "\', escape=False)\nresponse.write(T(\'%Y-%m-%d\'))\nresponse.write(\'";\\n    var w2p_ajax_datetime_format = "\', escape=False)\nresponse.write(T(\'%Y-%m-%d %H:%M:%S\'))\nresponse.write(\'";\\n    //--></script>\\n\', escape=False)\nresponse.files.insert(0,URL(\'static\',\'js/jquery.js\'))\nresponse.files.insert(1,URL(\'static\',\'css/calendar.css\'))\nresponse.files.insert(2,URL(\'static\',\'js/calendar.js\'))\nresponse.files.insert(3,URL(\'static\',\'js/web2py.js\'))\nresponse.include_meta()\nresponse.include_files()\nresponse.write(\'\\n\', escape=False)\nresponse.write(\'\\n\\n  \', escape=False)\nif response.menu:\n    response.write(\'\\n  <script type="text/javascript">\\n    jQuery(function(){ jQuery(\\\'ul.sf-menu\\\').supersubs({minWidth:12,maxWidth:30,extraWidth:3}).superfish(); });\\n  </script>\\n  \', escape=False)\n    pass\nresponse.write(\'\\n\\n  \', escape=False)\n# using sidebars need to know what sidebar you want to use\nleft_sidebar_enabled = globals().get(\'left_sidebar_enabled\',False)\nright_sidebar_enabled = globals().get(\'right_sidebar_enabled\',False)\nmiddle_columns = {0:\'sixteen\',1:\'twelve\',2:\'eight\'}[\n(left_sidebar_enabled and 1 or 0)+(right_sidebar_enabled and 1 or 0)]\nresponse.write(\'\\n\\n  <!-- uncomment here to load jquery-ui\\n  <link rel="stylesheet" href="http://ajax.googleapis.com/ajax/libs/jqueryui/1.8.16/themes/base/jquery-ui.css" type="text/css" media="all" />\\n  <script src="http://ajax.googleapis.com/ajax/libs/jqueryui/1.8.16/jquery-ui.min.js" type="text/javascript"></script>\\n  uncomment to load jquery-ui //-->\\n  \\n<!--   Added by old milo -->\\n\\n<!-- custom theme styles -->\\n \\n  \\n<!--   <link rel=\\\'stylesheet\\\' id=\\\'fancybox-css\\\' href="${request.static_url(\\\'milo_app:static/js/fancybox/style.css_ver=3.1\\\')}" type=\\n  \\\'text/css\\\' media=\\\'all\\\' />\\n\\n  <script type=\\\'text/javascript\\\' src="${request.static_url(\\\'milo_app:static/js/jquery.js\\\')}">\\n  </script>\\n  <script type=\\\'text/javascript\\\' src="${request.static_url(\\\'milo_app:static/js/jqueryui.js\\\')}">\\n  </script>\\n  <script type=\\\'text/javascript\\\' src="${request.static_url(\\\'milo_app:static/js/ui.js\\\')}">\\n  </script>\\n  <script type=\\\'text/javascript\\\' src="${request.static_url(\\\'milo_app:static/js/l10n.js\\\')}">\\n  </script>\\n  <script type=\\\'text/javascript\\\' src="${request.static_url(\\\'milo_app:static/js/jquery.superfish.js\\\')}">\\n  </script>\\n  <script type=\\\'text/javascript\\\' src="${request.static_url(\\\'milo_app:static/js/jquery.easing.js\\\')}">\\n  </script>\\n  <script type=\\\'text/javascript\\\' src="${request.static_url(\\\'milo_app:static/js/jquery.coda.js\\\')}">\\n  </script>\\n  <script type=\\\'text/javascript\\\' src="${request.static_url(\\\'milo_app:static/js/jquery.float.js\\\')}">\\n  </script>\\n  <script type=\\\'text/javascript\\\' src="${request.static_url(\\\'milo_app:static/js/jquery.equal.js\\\')}">\\n  </script>\\n  <script type=\\\'text/javascript\\\' src="${request.static_url(\\\'milo_app:static/js/fancybox/jquery.fancybox.js\\\')}">\\n  </script>\\n  <script type=\\\'text/javascript\\\' src="${request.static_url(\\\'milo_app:static/js/jquery.validate.js\\\')}">\\n  </script>\\n  <script tal:condition="new_rec" type=\\\'text/javascript\\\' src="${request.static_url(\\\'milo_app:static/js/undo.js\\\')}">\\n  </script>\\t\\n  <script src="http://connect.facebook.net/en_US/all.js#appId=113902308692268&amp;xfbml=1">\\n  </script>\\n  <script type=\\\'text/javascript\\\' src="${request.static_url(\\\'milo_app:static/js/rating.js\\\')}">\\n  </script>\\n  <metal:add_js metal:define-slot="add_js"></metal:add_js>\\t -->\\n  \\n  <script type="text/javascript">\\n\\t\\t\\t //<![CDATA[\\n          function doClear(theText) {\\n                if (theText.value == theText.defaultValue) {\\n                        theText.value = ""\\n                }\\n          }\\n          //]]>\\n  </script>\\n</head>\\n<body>\\n  <div class="wrapper"><!-- for sticky footer -->\\n  \\n    <div class="topbar">\\n      <div class="container">    \\n        <div class="sixteen columns">\\n          <div id="navbar">\', escape=False)\nresponse.write(\'auth\' in globals() and auth.navbar(separators=(\' \',\' | \',\'\')))\nresponse.write(\'</div>\\n          \', escape=False)\nis_mobile=request.user_agent().is_mobile\nresponse.write(\'\\n\\t  \', escape=False)\nif response.menu:\n    response.write(\'\\n          <div id="menu">\\n             \', escape=False)\n    response.write(MENU(response.menu, _class=\'mobile-menu\' if is_mobile else \'sf-menu\',mobile=is_mobile))\n    response.write(\'\\n          </div>\\n          \', escape=False)\n    pass\nresponse.write(\'\\n        </div>\\n      </div>\\n    </div><!-- topbar -->\\n    \\n    <div class="flash">\', escape=False)\nresponse.write(response.flash or \'\')\nresponse.write(\'</div>\\n    \\n    <div class="header">\\n      <div class="container">         \\n        <div class="sixteen columns">\\n          <img src="\', escape=False)\nresponse.write(URL(\'static\',\'images/logo.png\'))\nresponse.write(\'"/>\\n          <h5>\', escape=False)\nresponse.write(response.subtitle or \'\')\nresponse.write(\'</h5>\\n          <div id="search">\\n            <form method="POST" autocomplete="off" id="search-form" action="${request.resource_url(request.root,\\\'Popular\\\')}" name="search-form">\\n              <input type="text" name="search_query" id="s" value="Find movies by query" onfocus=\\n              "doClear(this)" /> \\n              <input type="submit" id="search-submit" value="" />\\n            </form>\\n          </div><!-- search -->\\n        </div>\\n        <div class="sixteen columns">\\n          <div class="statusbar clearfix">\\n            \', escape=False)\nresponse.write(\'\\n            <div class="breadcrumbs">\', escape=False)\nresponse.write(request.function.replace(\'_\', \' \').title())\nresponse.write(\'</div>\\n            \', escape=False)\nresponse.write(\'\\n            <!-- AddToAny BEGIN -->\\n            <div style="float:right; padding-top: .25em;" class="a2a_kit a2a_default_style">\\n            <a class="a2a_dd" href="http://www.addtoany.com/share_save">Share</a></div>\\n            <script type="text/javascript" src="http://static.addtoany.com/menu/page.js"></script>\\n            <!-- AddToAny END -->\\n          </div>\\n        </div>\\n      </div>\\n    </div>\\n\\n    <div class="main">\\n      <div class="container">                 \\n        \', escape=False)\nif left_sidebar_enabled:\n    response.write(\'\\n        <div class="four columns left-sidebar">\\n          \', escape=False)\n    response.write(\'\\n          <h3>Left Sidebar</h3>\\n          <p></p>\\n          \', escape=False)\n    response.write(\'\\n        </div>\\n        \', escape=False)\n    pass\nresponse.write(\'\\n        \\n        <div class="\', escape=False)\nresponse.write(middle_columns)\nresponse.write(\' columns center">\\n          \', escape=False)\nresponse.write(\'\\n          \', escape=False)\nresponse.write(\'\\n<div id="content-inside">\\n      <div id="coda-nav">\\n            <div class="coda-slider" id="slider">\\n              <div class="panel">\\n                <div class="slider-post">\\n\\t\\t\\t\\t <a tal:attributes="href request.resource_url(request.root, \\\'Movie\\\',\\\'details\\\', movie.title)">\\n                  <img src="response.files.append(URL(\\\'static\\\',\\\'js/superfish.js\\\'))movie_data/\\\'+movie.image)"/>\\n                  class="slider-image" alt="${movie.title}" title="${movie.title}" />\\n                  </a>\\n                  <div class="slider-movie-description">\\n\\t\\t\\t\\t\\t<h2 tal:condition="logged"><a tal:attributes="href request.resource_url(request.root, \\\'Recommended\\\')" >Recommended for you!</a></h2>\\n                    <h2 tal:condition="not logged"><a tal:attributes="href request.resource_url(request.root, \\\'Popular\\\')" >Top ${repeat.movie.number} Movie</a></h2>\\n                    <h3><a tal:attributes="href request.resource_url(request.root, \\\'Movie\\\',\\\'details\\\', movie.title)" >${movie.title}</a></h3>\\n                    <p tal:condition="movie.description">${movie.description[:120]+\\\'...\\\'}</p>\\n                    <a class="continue" tal:attributes="href request.resource_url(request.root, \\\'Movie\\\',\\\'details\\\', movie.title)" title="More"></a>\\n                    \\n\\t\\t\\t\\t\\t<tal:logged condition="logged">\\n\\t\\t\\t\\t\\t<div class="recommend-thumbs-slider">\\n\\t\\t\\t\\t\\t\\t<a href="javascript:panel_down(\\\'${request.resource_url(request.root, query=dict(rec=\\\'new\\\'))}\\\',\\\'A new recommendation is available. Do you want to load it?\\\');" title="Like this movie">Like <img width="20" height="20" src="${request.static_url(\\\'milo_app:static/images/icons/fatcow/32x32/thumb_up.png\\\')}"></a>\\n\\t\\t\\t\\t\\t\\t<a href="javascript:panel_down(\\\'${request.resource_url(request.root, query=dict(rec=\\\'new\\\'))}\\\',\\\'A new recommendation is available. Do you want to load it?\\\');" title="Dislike this movie">Dislike <img width="20" height="20" src="${request.static_url(\\\'milo_app:static/images/icons/fatcow/32x32/thumb_down.png\\\')}"></a>\\n\\t\\t\\t\\t\\t</div><!--Recommended-thumbs-slider-->\\n\\t\\t\\t\\t\\t</tal:logged>\\t\\n                    \\n                    <div class="slider-movie-details">\\n\\t\\t\\t\\t\\t<ul> \\n\\t\\t\\t\\t\\t\\t<!--<li class="date-slider">Release date: ${movie.date.strftime(\\\'%Y\\\')}</li>-->\\n\\t\\t\\t\\t\\t\\t<li class="info-slider"><img src="${request.static_url(\\\'milo_app:static/images/icons/play.png\\\')}"/>Views: <span>2.000</span> </li>\\n\\t\\t\\t\\t\\t\\t<li class="info-slider"><img src="${request.static_url(\\\'milo_app:static/images/icons/heart.png\\\')}"/><span>70%</span> of raters liked</li>\\n\\t\\t\\t\\t\\t\\t<li class="genre-slider">Genre: <tal:genres repeat="g movie.genre"><b>${g}&nbsp;</tal:genres></li>\\n\\t\\t\\t\\t\\t\\t\\n\\t\\t\\t\\t\\t</ul>\\n\\t\\t\\t\\t\\t</div><!-- slider-movie-details-->\\n                  </div><!-- slider-movie-description-->\\n\\n                </div><!-- slider-post -->\\n              </div><!-- panel -->\\n              \\n    \\t\\t</div><!-- coda-slider -->\\n   \\t</div><!-- coda-nav -->\\n\\n\\t<div id="slider-foot">\\n    </div><!-- slider-foot-->\\n\\t\\n\\t\\t<div id="post-container">\\n         <div id="posts">\\n\\t\\t\\t\\t\\n\\t\\t\\t\\t<h2 title="Orientation">\\n\\t\\t\\t\\t<div id="filter">\\n\\t\\t\\t\\t\\tBrowsing ${category} by\\n\\t\\t\\t\\t\\t<select value="${movies.get(\\\'title\\\')}">\\n\\t\\t\\t\\t\\t  <option value="Last updates">\\n\\t\\t\\t\\t\\t\\tLast updates\\n\\t\\t\\t\\t\\t  </option>\\n\\t\\t\\t\\t\\t  <option value="Popularity">\\n\\t\\t\\t\\t\\t\\tPopularity\\n\\t\\t\\t\\t\\t  </option>\\n\\t\\t\\t\\t\\t</select>\\t\\t\\n\\t\\t\\t\\t</div><!-- filter -->\\n\\t\\t\\t\\t</h2>\\n\\t\\t\\t\', escape=False)\nfor movie in list_movies:\n    response.write(\'\\n            <div class="gallery-item \', escape=False)\n    if not list_movies.index(movie) % 3:\n        response.write(\'clearboth\', escape=False)\n        pass\n    response.write(\'">\\n            \\t<div class="post-thumbnail">\\n            \\t<a class="thumbnail-frame" title="See the trailer and details">\\n            \\t<img width="180" height="260" src="\', escape=False)\n    response.write(URL(\'static\', movie.get(\'poster\')))\n    response.write(\'" class="recommended-post-thumbnail"/>\\t\\t\\t\\t\\n\\t\\t\\t\\t</a>            \\n            \\t</div><!--post-thumbnail-->\\n\\n              \\t<h2><a href="http://www.imdb.com/title/tt\', escape=False)\n    response.write(movie.get(\'imdb_id\'))\n    response.write(\'/" title="Go to this movie page">\', escape=False)\n    response.write(movie.get(\'title\'))\n    response.write(\'</a><span title="Release Date">(${movie.date.strftime(\\\'%Y\\\')})</span></h2>\\n\\n              \\t<ul class="post-meta">\\n<!--               \\t <li class="date">Release date: ${movie.date.strftime(\\\'%Y\\\')}</li>\\n-->\\n\\t\\t\\t\\t\\t<tal:logged condition="logged">\\n\\t\\t\\t\\t\\t<li class="info info-logged">\\n\\t\\t\\t\\t\\t\\t<span>Rated it: </span>\\n\\t\\t\\t\\t\\t\\t<a href="javascript:panel_down(&quot;${request.resource_url(request.root, query=dict(rec=\\\'new\\\'))}&quot;,&quot;A new recommendation is available. Do you want to load it?&quot;);" title="Like this movie"><img width="18" height="18" src="${request.static_url(\\\'milo_app:static/images/icons/fatcow/32x32/thumb_up.png\\\')}"></a>\\n\\t\\t\\t\\t\\t\\t<a href="javascript:panel_down(&quot;${request.resource_url(request.root, query=dict(rec=\\\'new\\\'))}&quot;,&quot;A new recommendation is available. Do you want to load it?&quot;);" title="Dislike this movie"><img width="18" height="18" src="${request.static_url(\\\'milo_app:static/images/icons/fatcow/32x32/thumb_down.png\\\')}"></a>\\n\\t\\t\\t\\t\\t</li>\\n\\t\\t\\t\\t\\t</tal:logged>\\n\\t\\t\\t\\t\\t<li class="info"><img src="${request.static_url(\\\'milo_app:static/images/icons/play.png\\\')}"/>Views: <span>2.000</span> </li>\\n\\t\\t\\t\\t\\t<li class="info"><img src="${request.static_url(\\\'milo_app:static/images/icons/heart.png\\\')}"/><span>70%</span> of raters liked</li>\\n\\t\\t\\t\\t\\t<li class="genre">Genre: <tal:genres repeat="g movie.genre"><b>${g}&nbsp;</tal:genres></li>\\n\\n                \\t<li class="comments"><a href="#comments" title="View comments about this movie">${len(movie.comments)} Comments</a></li>\\n              </ul>\\n            </div>\\n            <!-- movie-item , first_page=\\\'false\\\')-->\\n\\t\\t\\t\', escape=False)\n    pass\nresponse.write(\'\\t\\t\\t\\n\\t\\t\\t<!--Next/Previous buttons-->\\n\\t\\t\\t<metal:prev_next metal:define-slot="prev_next">\\n\\t\\t\\t<div id="posts-footer">\\n\\t\\t\\t\\t\', escape=False)\nif page*items_per_page < max_items:\n    response.write(\'\\n\\t\\t\\t\\t<a id="next-bottom-button" href="\', escape=False)\n    response.write(URL(args=[page+1]))\n    response.write(\'">Next<img src="\', escape=False)\n    response.write(URL(\'static\',\'images/icons/fatcow/32x32/resultset_next.png\'))\n    response.write(\'"></img></a>\\n\\t\\t\\t\\t\', escape=False)\n    pass\nresponse.write(\'\\n\\t\\t\\t\\t\', escape=False)\nif page != 0:\n    response.write(\'\\n\\t\\t\\t\\t<a id="previous-bottom-button" href="\', escape=False)\n    response.write(URL(args=[page-1]))\n    response.write(\'"><img src="\', escape=False)\n    response.write(URL(\'static\',\'images/icons/fatcow/32x32/resultset_previous.png\'))\n    response.write(\'"></img>Previous</a>\\n\\t\\t\\t\\t\', escape=False)\n    pass\nresponse.write(\'\\n\\t\\t\\t</div><!-- posts-footer-->\\t\\t\\t\\n\\t\\t\\t</metal:prev_next>\\n          </div><!-- posts -->\\n\\t\\t\\t\\t\\n\\t\\t\\t<div id="sidebar">\\n\\t\\t\\t\\t<h2 id="sidebar-title">${right_movies.get(\\\'title\\\')}</h2>\\n           <div id="top-movies-sidebar" class="widget">\\n\\n              <div class="sidebar-item" tal:repeat="movie right_movies.get(\\\'movies\\\')">\\n                <div class="post-thumbnail-side"><a class="thumbnail-frame-side" tal:attributes="href request.resource_url(request.root, \\\'Movie\\\',\\\'details\\\', movie.title)"\\n                title="Movie-Title#6"><!-- nothing to see here --></a>\\n                <img width="80" height="80" tal:attributes="src request.static_url(\\\'milo_app:static/movie_data/\\\'+movie.poster)" alt="Can" title="can" />\\n                </div>\\n\\n                <div class="sidebar-item-content">\\n                  <h3><a tal:attributes="href request.resource_url(request.root, \\\'Movie\\\',\\\'details\\\', movie.title)" rel="bookmark" title="Movie-Title#6">${movie.title}</a></h3>\\n\\n                  <p tal:condition="movie.description">${movie.description[0:80]+\\\'...\\\'}</p>\\n                </div>\\n              </div>\\n            </div><!-- top-movies-sidebar -->  \\n\\t\\t\\t\\t\\t\\n            <div id="sidebar-profile" class="widget">\\n              <h2></h2>\\n                <p><a href="" target="_blank" title=""></a></p>\\n            </div><!-- sidebar-profile -->\\n          \\n         </div><!-- sidebar -->\\n        </div><!-- post-container -->\\n      </div><!-- content-inside -->\\n\\n\', escape=False)\nresponse.write(BEAUTIFY(response._vars))\nresponse.write(\'\\n\\n\', escape=False)\nresponse.write(\'\\n\\n\', escape=False)\nresponse.write(\'\\n          \', escape=False)\nresponse.write(\'\\n        </div>\\n        \\n        \', escape=False)\nif right_sidebar_enabled:\n    response.write(\'\\n        <div class="four columns">\\n          \', escape=False)\n    response.write(\'\\n\\n\', escape=False)\n    response.write(\'\\n        </div>    \\n        \', escape=False)\n    pass\nresponse.write(\'\\n        \\n      </div><!-- container -->\\n    </div><!-- main -->\\n    \\n    <div class="push"></div>\\n  </div><!-- wrapper -->\\n\\n  <div class="footer">\\n    <div class="container">    \\n      <div class="sixteen columns">\\n        \', escape=False)\nresponse.write(\' <!-- this is default footer -->\\n        <div class="footer-content clearfix">\\n          <div style="float: right;">\\n            <a href="http://www.web2py.com/">\\n            <img style="padding-bottom: 0;" src="\', escape=False)\nresponse.write(URL(\'static\',\'images/poweredby.png\'))\nresponse.write(\'"/>\\n            </a>\\n          </div>\\n        </div>\\n        \', escape=False)\nresponse.write(\'\\t\\n      </div>\\n    </div><!-- container -->\\n  </div><!-- footer -->\\n  \\n  <!--[if lt IE 7 ]>\\n\\t<script src="\', escape=False)\nresponse.write(URL(\'static\',\'js/dd_belatedpng.js\'))\nresponse.write(\'"></script>\\n\\t<script> DD_belatedPNG.fix(\\\'img, .png_bg\\\'); //fix any <img> or .png_bg background-images </script>\\n\\t<![endif]-->\\n  \', escape=False)\nif response.google_analytics_id:\n    response.write(\'<script type="text/javascript"> var _gaq = _gaq || []; _gaq.push([\\\'_setAccount\\\', \\\'\', escape=False)\n    response.write(response.google_analytics_id)\n    response.write("\']); _gaq.push([\'_trackPageview\']); (function() { var ga = document.createElement(\'script\'); ga.type = \'text/javascript\'; ga.async = true; ga.src = (\'https:\' == document.location.protocol ? \'https://ssl\' : \'http://www\') + \'.google-analytics.com/ga.js\'; var s = document.getElementsByTagName(\'script\')[0]; s.parentNode.insertBefore(ga, s); })(); </script> ", escape=False)\n    pass\nresponse.write(\'\\n</body>\\n</html>\\n\', escape=False)'
p7
sS'snapshot'
p8
(dp9
S'exception'
p10
(dp11
S'__getslice__'
p12
S"<method-wrapper '__getslice__' of exceptions.SyntaxError object>"
p13
sS'text'
p14
S'None'
p15
sS'__str__'
p16
S"<method-wrapper '__str__' of exceptions.SyntaxError object>"
p17
sS'__reduce__'
p18
S'<built-in method __reduce__ of exceptions.SyntaxError object>'
p19
sS'__dict__'
p20
S'{}'
p21
sS'__sizeof__'
p22
S'<built-in method __sizeof__ of exceptions.SyntaxError object>'
p23
sS'__init__'
p24
S"<method-wrapper '__init__' of exceptions.SyntaxError object>"
p25
sS'__setattr__'
p26
S"<method-wrapper '__setattr__' of exceptions.SyntaxError object>"
p27
sS'__reduce_ex__'
p28
S'<built-in method __reduce_ex__ of exceptions.SyntaxError object>'
p29
sS'__new__'
p30
S'<built-in method __new__ of type object>'
p31
sS'__format__'
p32
S'<built-in method __format__ of exceptions.SyntaxError object>'
p33
sS'__class__'
p34
S"<type 'exceptions.SyntaxError'>"
p35
sS'filename'
p36
S'None'
p37
sS'lineno'
p38
S'None'
p39
sS'msg'
p40
S"'not enough information to build the url'"
p41
sS'__doc__'
p42
S"'Invalid syntax.'"
p43
sS'__getitem__'
p44
S"<method-wrapper '__getitem__' of exceptions.SyntaxError object>"
p45
sS'__setstate__'
p46
S'<built-in method __setstate__ of exceptions.SyntaxError object>'
p47
sS'__getattribute__'
p48
S"<method-wrapper '__getattribute__' of exceptions.SyntaxError object>"
p49
sS'print_file_and_line'
p50
S'None'
p51
sS'args'
p52
S"('not enough information to build the url',)"
p53
sS'__subclasshook__'
p54
S'<built-in method __subclasshook__ of type object>'
p55
sS'offset'
p56
S'None'
p57
sS'__unicode__'
p58
S'<built-in method __unicode__ of exceptions.SyntaxError object>'
p59
sS'__delattr__'
p60
S"<method-wrapper '__delattr__' of exceptions.SyntaxError object>"
p61
sS'__repr__'
p62
S"<method-wrapper '__repr__' of exceptions.SyntaxError object>"
p63
sS'__hash__'
p64
S"<method-wrapper '__hash__' of exceptions.SyntaxError object>"
p65
ssS'evalue'
p66
S'not enough information to build the url'
p67
sS'request'
p68
ccopy_reg
_reconstructor
p69
(cgluon.html
BEAUTIFY
p70
c__builtin__
object
p71
NtRp72
(dp73
S'attributes'
p74
(dp75
sS'components'
p76
(lp77
g69
(cgluon.html
TABLE
p78
g71
NtRp79
(dp80
g74
(dp81
S'level'
p82
I5
ssS'parent'
p83
Nsg76
(lp84
g69
(cgluon.html
TR
p85
g71
NtRp86
(dp87
g74
(dp88
sg83
g79
sg76
(lp89
g69
(cgluon.html
TD
p90
g71
NtRp91
(dp92
g74
(dp93
S'_style'
p94
S'font-weight:bold;vertical-align:top'
p95
ssg83
g86
sg76
(lp96
S'ajax'
p97
asbag69
(g90
g71
NtRp98
(dp99
g74
(dp100
S'_valign'
p101
S'top'
p102
ssg83
g86
sg76
(lp103
S':'
asbag69
(g90
g71
NtRp104
(dp105
g74
(dp106
sg83
g86
sg76
(lp107
g69
(g70
g71
NtRp108
(dp109
g74
(dp110
g82
I5
ssg83
g104
sg76
(lp111
S'False'
p112
asbasbasbag69
(g85
g71
NtRp113
(dp114
g74
(dp115
sg83
g79
sg76
(lp116
g69
(g90
g71
NtRp117
(dp118
g74
(dp119
g94
g95
ssg83
g113
sg76
(lp120
S'application'
p121
asbag69
(g90
g71
NtRp122
(dp123
g74
(dp124
g101
g102
ssg83
g113
sg76
(lp125
S':'
asbag69
(g90
g71
NtRp126
(dp127
g74
(dp128
sg83
g113
sg76
(lp129
g69
(g70
g71
NtRp130
(dp131
g74
(dp132
g82
I5
ssg83
g126
sg76
(lp133
S'milo'
p134
asbasbasbag69
(g85
g71
NtRp135
(dp136
g74
(dp137
sg83
g79
sg76
(lp138
g69
(g90
g71
NtRp139
(dp140
g74
(dp141
g94
g95
ssg83
g135
sg76
(lp142
g52
asbag69
(g90
g71
NtRp143
(dp144
g74
(dp145
g101
g102
ssg83
g135
sg76
(lp146
S':'
asbag69
(g90
g71
NtRp147
(dp148
g74
(dp149
sg83
g135
sg76
(lp150
g69
(g70
g71
NtRp151
(dp152
g74
(dp153
g82
I5
ssg83
g147
sg76
(lp154
g69
(g78
g71
NtRp155
(dp156
g74
(dp157
g82
I4
ssg83
Nsg76
(lp158
g69
(g85
g71
NtRp159
(dp160
g74
(dp161
sg83
g155
sg76
(lp162
g69
(g90
g71
NtRp163
(dp164
g74
(dp165
sg83
g159
sg76
(lp166
g69
(g70
g71
NtRp167
(dp168
g74
(dp169
g82
I4
ssg83
g163
sg76
(lp170
S'1'
asbasbasbasbasbasbasbag69
(g85
g71
NtRp171
(dp172
g74
(dp173
sg83
g79
sg76
(lp174
g69
(g90
g71
NtRp175
(dp176
g74
(dp177
g94
g95
ssg83
g171
sg76
(lp178
S'body'
p179
asbag69
(g90
g71
NtRp180
(dp181
g74
(dp182
g101
g102
ssg83
g171
sg76
(lp183
S':'
asbag69
(g90
g71
NtRp184
(dp185
g74
(dp186
sg83
g171
sg76
(lp187
g69
(g70
g71
NtRp188
(dp189
g74
(dp190
g82
I5
ssg83
g184
sg76
(lp191
S'<cStringIO.StringO object at 0x7fb4a048b960>'
p192
asbasbasbag69
(g85
g71
NtRp193
(dp194
g74
(dp195
sg83
g79
sg76
(lp196
g69
(g90
g71
NtRp197
(dp198
g74
(dp199
g94
g95
ssg83
g193
sg76
(lp200
S'client'
p201
asbag69
(g90
g71
NtRp202
(dp203
g74
(dp204
g101
g102
ssg83
g193
sg76
(lp205
S':'
asbag69
(g90
g71
NtRp206
(dp207
g74
(dp208
sg83
g193
sg76
(lp209
g69
(g70
g71
NtRp210
(dp211
g74
(dp212
g82
I5
ssg83
g206
sg76
(lp213
S'127.0.0.1'
p214
asbasbasbag69
(g85
g71
NtRp215
(dp216
g74
(dp217
sg83
g79
sg76
(lp218
g69
(g90
g71
NtRp219
(dp220
g74
(dp221
g94
g95
ssg83
g215
sg76
(lp222
S'controller'
p223
asbag69
(g90
g71
NtRp224
(dp225
g74
(dp226
g101
g102
ssg83
g215
sg76
(lp227
S':'
asbag69
(g90
g71
NtRp228
(dp229
g74
(dp230
sg83
g215
sg76
(lp231
g69
(g70
g71
NtRp232
(dp233
g74
(dp234
g82
I5
ssg83
g228
sg76
(lp235
S'default'
p236
asbasbasbag69
(g85
g71
NtRp237
(dp238
g74
(dp239
sg83
g79
sg76
(lp240
g69
(g90
g71
NtRp241
(dp242
g74
(dp243
g94
g95
ssg83
g237
sg76
(lp244
S'cookies'
p245
asbag69
(g90
g71
NtRp246
(dp247
g74
(dp248
g101
g102
ssg83
g237
sg76
(lp249
S':'
asbag69
(g90
g71
NtRp250
(dp251
g74
(dp252
sg83
g237
sg76
(lp253
g69
(g70
g71
NtRp254
(dp255
g74
(dp256
g82
I5
ssg83
g250
sg76
(lp257
g69
(g78
g71
NtRp258
(dp259
g74
(dp260
g82
I4
ssg83
Nsg76
(lp261
g69
(g85
g71
NtRp262
(dp263
g74
(dp264
sg83
g258
sg76
(lp265
g69
(g90
g71
NtRp266
(dp267
g74
(dp268
g94
g95
ssg83
g262
sg76
(lp269
S'session_id_admin'
p270
asbag69
(g90
g71
NtRp271
(dp272
g74
(dp273
g101
g102
ssg83
g262
sg76
(lp274
S':'
asbag69
(g90
g71
NtRp275
(dp276
g74
(dp277
sg83
g262
sg76
(lp278
g69
(g70
g71
NtRp279
(dp280
g74
(dp281
g82
I4
ssg83
g275
sg76
(lp282
g69
(g78
g71
NtRp283
(dp284
g74
(dp285
g82
I3
ssg83
Nsg76
(lp286
g69
(g85
g71
NtRp287
(dp288
g74
(dp289
sg83
g283
sg76
(lp290
g69
(g90
g71
NtRp291
(dp292
g74
(dp293
g94
g95
ssg83
g287
sg76
(lp294
S'comment'
p295
asbag69
(g90
g71
NtRp296
(dp297
g74
(dp298
g101
g102
ssg83
g287
sg76
(lp299
S':'
asbag69
(g90
g71
NtRp300
(dp301
g74
(dp302
sg83
g287
sg76
(lp303
g69
(g70
g71
NtRp304
(dp305
g74
(dp306
g82
I3
ssg83
g300
sg76
(lp307
S''
asbasbasbag69
(g85
g71
NtRp308
(dp309
g74
(dp310
sg83
g283
sg76
(lp311
g69
(g90
g71
NtRp312
(dp313
g74
(dp314
g94
g95
ssg83
g308
sg76
(lp315
S'domain'
p316
asbag69
(g90
g71
NtRp317
(dp318
g74
(dp319
g101
g102
ssg83
g308
sg76
(lp320
S':'
asbag69
(g90
g71
NtRp321
(dp322
g74
(dp323
sg83
g308
sg76
(lp324
g69
(g70
g71
NtRp325
(dp326
g74
(dp327
g82
I3
ssg83
g321
sg76
(lp328
S''
asbasbasbag69
(g85
g71
NtRp329
(dp330
g74
(dp331
sg83
g283
sg76
(lp332
g69
(g90
g71
NtRp333
(dp334
g74
(dp335
g94
g95
ssg83
g329
sg76
(lp336
S'expires'
p337
asbag69
(g90
g71
NtRp338
(dp339
g74
(dp340
g101
g102
ssg83
g329
sg76
(lp341
S':'
asbag69
(g90
g71
NtRp342
(dp343
g74
(dp344
sg83
g329
sg76
(lp345
g69
(g70
g71
NtRp346
(dp347
g74
(dp348
g82
I3
ssg83
g342
sg76
(lp349
S''
asbasbasbag69
(g85
g71
NtRp350
(dp351
g74
(dp352
sg83
g283
sg76
(lp353
g69
(g90
g71
NtRp354
(dp355
g74
(dp356
g94
g95
ssg83
g350
sg76
(lp357
S'httponly'
p358
asbag69
(g90
g71
NtRp359
(dp360
g74
(dp361
g101
g102
ssg83
g350
sg76
(lp362
S':'
asbag69
(g90
g71
NtRp363
(dp364
g74
(dp365
sg83
g350
sg76
(lp366
g69
(g70
g71
NtRp367
(dp368
g74
(dp369
g82
I3
ssg83
g363
sg76
(lp370
S''
asbasbasbag69
(g85
g71
NtRp371
(dp372
g74
(dp373
sg83
g283
sg76
(lp374
g69
(g90
g71
NtRp375
(dp376
g74
(dp377
g94
g95
ssg83
g371
sg76
(lp378
S'max-age'
p379
asbag69
(g90
g71
NtRp380
(dp381
g74
(dp382
g101
g102
ssg83
g371
sg76
(lp383
S':'
asbag69
(g90
g71
NtRp384
(dp385
g74
(dp386
sg83
g371
sg76
(lp387
g69
(g70
g71
NtRp388
(dp389
g74
(dp390
g82
I3
ssg83
g384
sg76
(lp391
S''
asbasbasbag69
(g85
g71
NtRp392
(dp393
g74
(dp394
sg83
g283
sg76
(lp395
g69
(g90
g71
NtRp396
(dp397
g74
(dp398
g94
g95
ssg83
g392
sg76
(lp399
S'path'
p400
asbag69
(g90
g71
NtRp401
(dp402
g74
(dp403
g101
g102
ssg83
g392
sg76
(lp404
S':'
asbag69
(g90
g71
NtRp405
(dp406
g74
(dp407
sg83
g392
sg76
(lp408
g69
(g70
g71
NtRp409
(dp410
g74
(dp411
g82
I3
ssg83
g405
sg76
(lp412
S''
asbasbasbag69
(g85
g71
NtRp413
(dp414
g74
(dp415
sg83
g283
sg76
(lp416
g69
(g90
g71
NtRp417
(dp418
g74
(dp419
g94
g95
ssg83
g413
sg76
(lp420
S'secure'
p421
asbag69
(g90
g71
NtRp422
(dp423
g74
(dp424
g101
g102
ssg83
g413
sg76
(lp425
S':'
asbag69
(g90
g71
NtRp426
(dp427
g74
(dp428
sg83
g413
sg76
(lp429
g69
(g70
g71
NtRp430
(dp431
g74
(dp432
g82
I3
ssg83
g426
sg76
(lp433
S''
asbasbasbag69
(g85
g71
NtRp434
(dp435
g74
(dp436
sg83
g283
sg76
(lp437
g69
(g90
g71
NtRp438
(dp439
g74
(dp440
g94
g95
ssg83
g434
sg76
(lp441
S'version'
p442
asbag69
(g90
g71
NtRp443
(dp444
g74
(dp445
g101
g102
ssg83
g434
sg76
(lp446
S':'
asbag69
(g90
g71
NtRp447
(dp448
g74
(dp449
sg83
g434
sg76
(lp450
g69
(g70
g71
NtRp451
(dp452
g74
(dp453
g82
I3
ssg83
g447
sg76
(lp454
S''
asbasbasbasbasbasbasbag69
(g85
g71
NtRp455
(dp456
g74
(dp457
sg83
g258
sg76
(lp458
g69
(g90
g71
NtRp459
(dp460
g74
(dp461
g94
g95
ssg83
g455
sg76
(lp462
S'session_id_milo'
p463
asbag69
(g90
g71
NtRp464
(dp465
g74
(dp466
g101
g102
ssg83
g455
sg76
(lp467
S':'
asbag69
(g90
g71
NtRp468
(dp469
g74
(dp470
sg83
g455
sg76
(lp471
g69
(g70
g71
NtRp472
(dp473
g74
(dp474
g82
I4
ssg83
g468
sg76
(lp475
g69
(g78
g71
NtRp476
(dp477
g74
(dp478
g82
I3
ssg83
Nsg76
(lp479
g69
(g85
g71
NtRp480
(dp481
g74
(dp482
sg83
g476
sg76
(lp483
g69
(g90
g71
NtRp484
(dp485
g74
(dp486
g94
g95
ssg83
g480
sg76
(lp487
g295
asbag69
(g90
g71
NtRp488
(dp489
g74
(dp490
g101
g102
ssg83
g480
sg76
(lp491
S':'
asbag69
(g90
g71
NtRp492
(dp493
g74
(dp494
sg83
g480
sg76
(lp495
g69
(g70
g71
NtRp496
(dp497
g74
(dp498
g82
I3
ssg83
g492
sg76
(lp499
S''
asbasbasbag69
(g85
g71
NtRp500
(dp501
g74
(dp502
sg83
g476
sg76
(lp503
g69
(g90
g71
NtRp504
(dp505
g74
(dp506
g94
g95
ssg83
g500
sg76
(lp507
g316
asbag69
(g90
g71
NtRp508
(dp509
g74
(dp510
g101
g102
ssg83
g500
sg76
(lp511
S':'
asbag69
(g90
g71
NtRp512
(dp513
g74
(dp514
sg83
g500
sg76
(lp515
g69
(g70
g71
NtRp516
(dp517
g74
(dp518
g82
I3
ssg83
g512
sg76
(lp519
S''
asbasbasbag69
(g85
g71
NtRp520
(dp521
g74
(dp522
sg83
g476
sg76
(lp523
g69
(g90
g71
NtRp524
(dp525
g74
(dp526
g94
g95
ssg83
g520
sg76
(lp527
g337
asbag69
(g90
g71
NtRp528
(dp529
g74
(dp530
g101
g102
ssg83
g520
sg76
(lp531
S':'
asbag69
(g90
g71
NtRp532
(dp533
g74
(dp534
sg83
g520
sg76
(lp535
g69
(g70
g71
NtRp536
(dp537
g74
(dp538
g82
I3
ssg83
g532
sg76
(lp539
S''
asbasbasbag69
(g85
g71
NtRp540
(dp541
g74
(dp542
sg83
g476
sg76
(lp543
g69
(g90
g71
NtRp544
(dp545
g74
(dp546
g94
g95
ssg83
g540
sg76
(lp547
g358
asbag69
(g90
g71
NtRp548
(dp549
g74
(dp550
g101
g102
ssg83
g540
sg76
(lp551
S':'
asbag69
(g90
g71
NtRp552
(dp553
g74
(dp554
sg83
g540
sg76
(lp555
g69
(g70
g71
NtRp556
(dp557
g74
(dp558
g82
I3
ssg83
g552
sg76
(lp559
S''
asbasbasbag69
(g85
g71
NtRp560
(dp561
g74
(dp562
sg83
g476
sg76
(lp563
g69
(g90
g71
NtRp564
(dp565
g74
(dp566
g94
g95
ssg83
g560
sg76
(lp567
g379
asbag69
(g90
g71
NtRp568
(dp569
g74
(dp570
g101
g102
ssg83
g560
sg76
(lp571
S':'
asbag69
(g90
g71
NtRp572
(dp573
g74
(dp574
sg83
g560
sg76
(lp575
g69
(g70
g71
NtRp576
(dp577
g74
(dp578
g82
I3
ssg83
g572
sg76
(lp579
S''
asbasbasbag69
(g85
g71
NtRp580
(dp581
g74
(dp582
sg83
g476
sg76
(lp583
g69
(g90
g71
NtRp584
(dp585
g74
(dp586
g94
g95
ssg83
g580
sg76
(lp587
g400
asbag69
(g90
g71
NtRp588
(dp589
g74
(dp590
g101
g102
ssg83
g580
sg76
(lp591
S':'
asbag69
(g90
g71
NtRp592
(dp593
g74
(dp594
sg83
g580
sg76
(lp595
g69
(g70
g71
NtRp596
(dp597
g74
(dp598
g82
I3
ssg83
g592
sg76
(lp599
S''
asbasbasbag69
(g85
g71
NtRp600
(dp601
g74
(dp602
sg83
g476
sg76
(lp603
g69
(g90
g71
NtRp604
(dp605
g74
(dp606
g94
g95
ssg83
g600
sg76
(lp607
g421
asbag69
(g90
g71
NtRp608
(dp609
g74
(dp610
g101
g102
ssg83
g600
sg76
(lp611
S':'
asbag69
(g90
g71
NtRp612
(dp613
g74
(dp614
sg83
g600
sg76
(lp615
g69
(g70
g71
NtRp616
(dp617
g74
(dp618
g82
I3
ssg83
g612
sg76
(lp619
S''
asbasbasbag69
(g85
g71
NtRp620
(dp621
g74
(dp622
sg83
g476
sg76
(lp623
g69
(g90
g71
NtRp624
(dp625
g74
(dp626
g94
g95
ssg83
g620
sg76
(lp627
g442
asbag69
(g90
g71
NtRp628
(dp629
g74
(dp630
g101
g102
ssg83
g620
sg76
(lp631
S':'
asbag69
(g90
g71
NtRp632
(dp633
g74
(dp634
sg83
g620
sg76
(lp635
g69
(g70
g71
NtRp636
(dp637
g74
(dp638
g82
I3
ssg83
g632
sg76
(lp639
S''
asbasbasbasbasbasbasbag69
(g85
g71
NtRp640
(dp641
g74
(dp642
sg83
g258
sg76
(lp643
g69
(g90
g71
NtRp644
(dp645
g74
(dp646
g94
g95
ssg83
g640
sg76
(lp647
S'session_id_welcome'
p648
asbag69
(g90
g71
NtRp649
(dp650
g74
(dp651
g101
g102
ssg83
g640
sg76
(lp652
S':'
asbag69
(g90
g71
NtRp653
(dp654
g74
(dp655
sg83
g640
sg76
(lp656
g69
(g70
g71
NtRp657
(dp658
g74
(dp659
g82
I4
ssg83
g653
sg76
(lp660
g69
(g78
g71
NtRp661
(dp662
g74
(dp663
g82
I3
ssg83
Nsg76
(lp664
g69
(g85
g71
NtRp665
(dp666
g74
(dp667
sg83
g661
sg76
(lp668
g69
(g90
g71
NtRp669
(dp670
g74
(dp671
g94
g95
ssg83
g665
sg76
(lp672
g295
asbag69
(g90
g71
NtRp673
(dp674
g74
(dp675
g101
g102
ssg83
g665
sg76
(lp676
S':'
asbag69
(g90
g71
NtRp677
(dp678
g74
(dp679
sg83
g665
sg76
(lp680
g69
(g70
g71
NtRp681
(dp682
g74
(dp683
g82
I3
ssg83
g677
sg76
(lp684
S''
asbasbasbag69
(g85
g71
NtRp685
(dp686
g74
(dp687
sg83
g661
sg76
(lp688
g69
(g90
g71
NtRp689
(dp690
g74
(dp691
g94
g95
ssg83
g685
sg76
(lp692
g316
asbag69
(g90
g71
NtRp693
(dp694
g74
(dp695
g101
g102
ssg83
g685
sg76
(lp696
S':'
asbag69
(g90
g71
NtRp697
(dp698
g74
(dp699
sg83
g685
sg76
(lp700
g69
(g70
g71
NtRp701
(dp702
g74
(dp703
g82
I3
ssg83
g697
sg76
(lp704
S''
asbasbasbag69
(g85
g71
NtRp705
(dp706
g74
(dp707
sg83
g661
sg76
(lp708
g69
(g90
g71
NtRp709
(dp710
g74
(dp711
g94
g95
ssg83
g705
sg76
(lp712
g337
asbag69
(g90
g71
NtRp713
(dp714
g74
(dp715
g101
g102
ssg83
g705
sg76
(lp716
S':'
asbag69
(g90
g71
NtRp717
(dp718
g74
(dp719
sg83
g705
sg76
(lp720
g69
(g70
g71
NtRp721
(dp722
g74
(dp723
g82
I3
ssg83
g717
sg76
(lp724
S''
asbasbasbag69
(g85
g71
NtRp725
(dp726
g74
(dp727
sg83
g661
sg76
(lp728
g69
(g90
g71
NtRp729
(dp730
g74
(dp731
g94
g95
ssg83
g725
sg76
(lp732
g358
asbag69
(g90
g71
NtRp733
(dp734
g74
(dp735
g101
g102
ssg83
g725
sg76
(lp736
S':'
asbag69
(g90
g71
NtRp737
(dp738
g74
(dp739
sg83
g725
sg76
(lp740
g69
(g70
g71
NtRp741
(dp742
g74
(dp743
g82
I3
ssg83
g737
sg76
(lp744
S''
asbasbasbag69
(g85
g71
NtRp745
(dp746
g74
(dp747
sg83
g661
sg76
(lp748
g69
(g90
g71
NtRp749
(dp750
g74
(dp751
g94
g95
ssg83
g745
sg76
(lp752
g379
asbag69
(g90
g71
NtRp753
(dp754
g74
(dp755
g101
g102
ssg83
g745
sg76
(lp756
S':'
asbag69
(g90
g71
NtRp757
(dp758
g74
(dp759
sg83
g745
sg76
(lp760
g69
(g70
g71
NtRp761
(dp762
g74
(dp763
g82
I3
ssg83
g757
sg76
(lp764
S''
asbasbasbag69
(g85
g71
NtRp765
(dp766
g74
(dp767
sg83
g661
sg76
(lp768
g69
(g90
g71
NtRp769
(dp770
g74
(dp771
g94
g95
ssg83
g765
sg76
(lp772
g400
asbag69
(g90
g71
NtRp773
(dp774
g74
(dp775
g101
g102
ssg83
g765
sg76
(lp776
S':'
asbag69
(g90
g71
NtRp777
(dp778
g74
(dp779
sg83
g765
sg76
(lp780
g69
(g70
g71
NtRp781
(dp782
g74
(dp783
g82
I3
ssg83
g777
sg76
(lp784
S''
asbasbasbag69
(g85
g71
NtRp785
(dp786
g74
(dp787
sg83
g661
sg76
(lp788
g69
(g90
g71
NtRp789
(dp790
g74
(dp791
g94
g95
ssg83
g785
sg76
(lp792
g421
asbag69
(g90
g71
NtRp793
(dp794
g74
(dp795
g101
g102
ssg83
g785
sg76
(lp796
S':'
asbag69
(g90
g71
NtRp797
(dp798
g74
(dp799
sg83
g785
sg76
(lp800
g69
(g70
g71
NtRp801
(dp802
g74
(dp803
g82
I3
ssg83
g797
sg76
(lp804
S''
asbasbasbag69
(g85
g71
NtRp805
(dp806
g74
(dp807
sg83
g661
sg76
(lp808
g69
(g90
g71
NtRp809
(dp810
g74
(dp811
g94
g95
ssg83
g805
sg76
(lp812
g442
asbag69
(g90
g71
NtRp813
(dp814
g74
(dp815
g101
g102
ssg83
g805
sg76
(lp816
S':'
asbag69
(g90
g71
NtRp817
(dp818
g74
(dp819
sg83
g805
sg76
(lp820
g69
(g70
g71
NtRp821
(dp822
g74
(dp823
g82
I3
ssg83
g817
sg76
(lp824
S''
asbasbasbasbasbasbasbasbasbasbasbag69
(g85
g71
NtRp825
(dp826
g74
(dp827
sg83
g79
sg76
(lp828
g69
(g90
g71
NtRp829
(dp830
g74
(dp831
g94
g95
ssg83
g825
sg76
(lp832
S'env'
p833
asbag69
(g90
g71
NtRp834
(dp835
g74
(dp836
g101
g102
ssg83
g825
sg76
(lp837
S':'
asbag69
(g90
g71
NtRp838
(dp839
g74
(dp840
sg83
g825
sg76
(lp841
g69
(g70
g71
NtRp842
(dp843
g74
(dp844
g82
I5
ssg83
g838
sg76
(lp845
g69
(g78
g71
NtRp846
(dp847
g74
(dp848
g82
I4
ssg83
Nsg76
(lp849
g69
(g85
g71
NtRp850
(dp851
g74
(dp852
sg83
g846
sg76
(lp853
g69
(g90
g71
NtRp854
(dp855
g74
(dp856
g94
g95
ssg83
g850
sg76
(lp857
S'app_folders'
p858
asbag69
(g90
g71
NtRp859
(dp860
g74
(dp861
g101
g102
ssg83
g850
sg76
(lp862
S':'
asbag69
(g90
g71
NtRp863
(dp864
g74
(dp865
sg83
g850
sg76
(lp866
g69
(g70
g71
NtRp867
(dp868
g74
(dp869
g82
I4
ssg83
g863
sg76
(lp870
S"set(['/home/goshawk/web2py/applications/milo/', '/home/goshawk/web2py/applications/admin/'])"
p871
asbasbasbag69
(g85
g71
NtRp872
(dp873
g74
(dp874
sg83
g846
sg76
(lp875
g69
(g90
g71
NtRp876
(dp877
g74
(dp878
g94
g95
ssg83
g872
sg76
(lp879
S'applications_parent'
p880
asbag69
(g90
g71
NtRp881
(dp882
g74
(dp883
g101
g102
ssg83
g872
sg76
(lp884
S':'
asbag69
(g90
g71
NtRp885
(dp886
g74
(dp887
sg83
g872
sg76
(lp888
g69
(g70
g71
NtRp889
(dp890
g74
(dp891
g82
I4
ssg83
g885
sg76
(lp892
S'/home/goshawk/web2py'
p893
asbasbasbag69
(g85
g71
NtRp894
(dp895
g74
(dp896
sg83
g846
sg76
(lp897
g69
(g90
g71
NtRp898
(dp899
g74
(dp900
g94
g95
ssg83
g894
sg76
(lp901
S'cmd_args'
p902
asbag69
(g90
g71
NtRp903
(dp904
g74
(dp905
g101
g102
ssg83
g894
sg76
(lp906
S':'
asbag69
(g90
g71
NtRp907
(dp908
g74
(dp909
sg83
g894
sg76
(lp910
g69
(g70
g71
NtRp911
(dp912
g74
(dp913
g82
I4
ssg83
g907
sg76
(lp914
g69
(g78
g71
NtRp915
(dp916
g74
(dp917
g82
I3
ssg83
Nsg76
(lp918
sbasbasbasbag69
(g85
g71
NtRp919
(dp920
g74
(dp921
sg83
g846
sg76
(lp922
g69
(g90
g71
NtRp923
(dp924
g74
(dp925
g94
g95
ssg83
g919
sg76
(lp926
S'cmd_options'
p927
asbag69
(g90
g71
NtRp928
(dp929
g74
(dp930
g101
g102
ssg83
g919
sg76
(lp931
S':'
asbag69
(g90
g71
NtRp932
(dp933
g74
(dp934
sg83
g919
sg76
(lp935
g69
(g70
g71
NtRp936
(dp937
g74
(dp938
g82
I4
ssg83
g932
sg76
(lp939
S"<Values at 0x1cc90e0: {'verbose': False, 'ip': '127.0.0.1', 'shutdown_timeout': 5, 'taskbar': False, 'nocron': False, 'pid_filename': 'httpserver.pid', 'maxthreads': None, 'softcron': False, 'server_name': 'whisperer', 'bpython': False, 'nogui': False, 'port': 8000, 'extcron': False, 'debuglevel': 30, 'test': None, 'folder': '/home/goshawk/web2py', 'config': '', 'import_models': False, 'winservice': '', 'shell': None, 'run': '', 'log_filename': 'httpserver.log', 'args': [''], 'socket_timeout': 5, 'ssl_ca_certificate': None, 'scheduler': None, 'profiler_filename': None, 'ssl_private_key': '', 'password': 'admin', 'request_queue_size': 5, 'ssl_certificate': '', 'cronjob': False, 'numthreads': None, 'quiet': False, 'interfaces': None, 'minthreads': None, 'timeout': 10, 'plain': False, 'nobanner': False}>"
p940
asbasbasbag69
(g85
g71
NtRp941
(dp942
g74
(dp943
sg83
g846
sg76
(lp944
g69
(g90
g71
NtRp945
(dp946
g74
(dp947
g94
g95
ssg83
g941
sg76
(lp948
S'db_sessions'
p949
asbag69
(g90
g71
NtRp950
(dp951
g74
(dp952
g101
g102
ssg83
g941
sg76
(lp953
S':'
asbag69
(g90
g71
NtRp954
(dp955
g74
(dp956
sg83
g941
sg76
(lp957
g69
(g70
g71
NtRp958
(dp959
g74
(dp960
g82
I4
ssg83
g954
sg76
(lp961
S'set([])'
p962
asbasbasbag69
(g85
g71
NtRp963
(dp964
g74
(dp965
sg83
g846
sg76
(lp966
g69
(g90
g71
NtRp967
(dp968
g74
(dp969
g94
g95
ssg83
g963
sg76
(lp970
S'debugging'
p971
asbag69
(g90
g71
NtRp972
(dp973
g74
(dp974
g101
g102
ssg83
g963
sg76
(lp975
S':'
asbag69
(g90
g71
NtRp976
(dp977
g74
(dp978
sg83
g963
sg76
(lp979
g69
(g70
g71
NtRp980
(dp981
g74
(dp982
g82
I4
ssg83
g976
sg76
(lp983
g112
asbasbasbag69
(g85
g71
NtRp984
(dp985
g74
(dp986
sg83
g846
sg76
(lp987
g69
(g90
g71
NtRp988
(dp989
g74
(dp990
g94
g95
ssg83
g984
sg76
(lp991
S'gluon_parent'
p992
asbag69
(g90
g71
NtRp993
(dp994
g74
(dp995
g101
g102
ssg83
g984
sg76
(lp996
S':'
asbag69
(g90
g71
NtRp997
(dp998
g74
(dp999
sg83
g984
sg76
(lp1000
g69
(g70
g71
NtRp1001
(dp1002
g74
(dp1003
g82
I4
ssg83
g997
sg76
(lp1004
S'/home/goshawk/web2py'
p1005
asbasbasbag69
(g85
g71
NtRp1006
(dp1007
g74
(dp1008
sg83
g846
sg76
(lp1009
g69
(g90
g71
NtRp1010
(dp1011
g74
(dp1012
g94
g95
ssg83
g1006
sg76
(lp1013
S'http_accept'
p1014
asbag69
(g90
g71
NtRp1015
(dp1016
g74
(dp1017
g101
g102
ssg83
g1006
sg76
(lp1018
S':'
asbag69
(g90
g71
NtRp1019
(dp1020
g74
(dp1021
sg83
g1006
sg76
(lp1022
g69
(g70
g71
NtRp1023
(dp1024
g74
(dp1025
g82
I4
ssg83
g1019
sg76
(lp1026
S'text/html,application/xhtml+xml,application/xml;q=0.9,*/*;q=0.8'
p1027
asbasbasbag69
(g85
g71
NtRp1028
(dp1029
g74
(dp1030
sg83
g846
sg76
(lp1031
g69
(g90
g71
NtRp1032
(dp1033
g74
(dp1034
g94
g95
ssg83
g1028
sg76
(lp1035
S'http_accept_charset'
p1036
asbag69
(g90
g71
NtRp1037
(dp1038
g74
(dp1039
g101
g102
ssg83
g1028
sg76
(lp1040
S':'
asbag69
(g90
g71
NtRp1041
(dp1042
g74
(dp1043
sg83
g1028
sg76
(lp1044
g69
(g70
g71
NtRp1045
(dp1046
g74
(dp1047
g82
I4
ssg83
g1041
sg76
(lp1048
S'ISO-8859-1,utf-8;q=0.7,*;q=0.3'
p1049
asbasbasbag69
(g85
g71
NtRp1050
(dp1051
g74
(dp1052
sg83
g846
sg76
(lp1053
g69
(g90
g71
NtRp1054
(dp1055
g74
(dp1056
g94
g95
ssg83
g1050
sg76
(lp1057
S'http_accept_encoding'
p1058
asbag69
(g90
g71
NtRp1059
(dp1060
g74
(dp1061
g101
g102
ssg83
g1050
sg76
(lp1062
S':'
asbag69
(g90
g71
NtRp1063
(dp1064
g74
(dp1065
sg83
g1050
sg76
(lp1066
g69
(g70
g71
NtRp1067
(dp1068
g74
(dp1069
g82
I4
ssg83
g1063
sg76
(lp1070
S'gzip,deflate,sdch'
p1071
asbasbasbag69
(g85
g71
NtRp1072
(dp1073
g74
(dp1074
sg83
g846
sg76
(lp1075
g69
(g90
g71
NtRp1076
(dp1077
g74
(dp1078
g94
g95
ssg83
g1072
sg76
(lp1079
S'http_accept_language'
p1080
asbag69
(g90
g71
NtRp1081
(dp1082
g74
(dp1083
g101
g102
ssg83
g1072
sg76
(lp1084
S':'
asbag69
(g90
g71
NtRp1085
(dp1086
g74
(dp1087
sg83
g1072
sg76
(lp1088
g69
(g70
g71
NtRp1089
(dp1090
g74
(dp1091
g82
I4
ssg83
g1085
sg76
(lp1092
S'en-US,en;q=0.8'
p1093
asbasbasbag69
(g85
g71
NtRp1094
(dp1095
g74
(dp1096
sg83
g846
sg76
(lp1097
g69
(g90
g71
NtRp1098
(dp1099
g74
(dp1100
g94
g95
ssg83
g1094
sg76
(lp1101
S'http_cache_control'
p1102
asbag69
(g90
g71
NtRp1103
(dp1104
g74
(dp1105
g101
g102
ssg83
g1094
sg76
(lp1106
S':'
asbag69
(g90
g71
NtRp1107
(dp1108
g74
(dp1109
sg83
g1094
sg76
(lp1110
g69
(g70
g71
NtRp1111
(dp1112
g74
(dp1113
g82
I4
ssg83
g1107
sg76
(lp1114
S'max-age=0'
p1115
asbasbasbag69
(g85
g71
NtRp1116
(dp1117
g74
(dp1118
sg83
g846
sg76
(lp1119
g69
(g90
g71
NtRp1120
(dp1121
g74
(dp1122
g94
g95
ssg83
g1116
sg76
(lp1123
S'http_connection'
p1124
asbag69
(g90
g71
NtRp1125
(dp1126
g74
(dp1127
g101
g102
ssg83
g1116
sg76
(lp1128
S':'
asbag69
(g90
g71
NtRp1129
(dp1130
g74
(dp1131
sg83
g1116
sg76
(lp1132
g69
(g70
g71
NtRp1133
(dp1134
g74
(dp1135
g82
I4
ssg83
g1129
sg76
(lp1136
S'keep-alive'
p1137
asbasbasbag69
(g85
g71
NtRp1138
(dp1139
g74
(dp1140
sg83
g846
sg76
(lp1141
g69
(g90
g71
NtRp1142
(dp1143
g74
(dp1144
g94
g95
ssg83
g1138
sg76
(lp1145
S'http_cookie'
p1146
asbag69
(g90
g71
NtRp1147
(dp1148
g74
(dp1149
g101
g102
ssg83
g1138
sg76
(lp1150
S':'
asbag69
(g90
g71
NtRp1151
(dp1152
g74
(dp1153
sg83
g1138
sg76
(lp1154
g69
(g70
g71
NtRp1155
(dp1156
g74
(dp1157
g82
I4
ssg83
g1151
sg76
(lp1158
S'session_id_welcome=127.0.0.1-11c8edfe-641e-45e8-a22e-9242a5dc89a6; session_id_milo=127.0.0.1-6c16d76a-1f8c-4e9b-9b63-cec19a96b9d8; session_id_admin=127.0.0.1-cc2f36f7-d4cc-4b49-a888-a3154d16ac8e'
p1159
asbasbasbag69
(g85
g71
NtRp1160
(dp1161
g74
(dp1162
sg83
g846
sg76
(lp1163
g69
(g90
g71
NtRp1164
(dp1165
g74
(dp1166
g94
g95
ssg83
g1160
sg76
(lp1167
S'http_host'
p1168
asbag69
(g90
g71
NtRp1169
(dp1170
g74
(dp1171
g101
g102
ssg83
g1160
sg76
(lp1172
S':'
asbag69
(g90
g71
NtRp1173
(dp1174
g74
(dp1175
sg83
g1160
sg76
(lp1176
g69
(g70
g71
NtRp1177
(dp1178
g74
(dp1179
g82
I4
ssg83
g1173
sg76
(lp1180
S'127.0.0.1:8000'
p1181
asbasbasbag69
(g85
g71
NtRp1182
(dp1183
g74
(dp1184
sg83
g846
sg76
(lp1185
g69
(g90
g71
NtRp1186
(dp1187
g74
(dp1188
g94
g95
ssg83
g1182
sg76
(lp1189
S'http_referer'
p1190
asbag69
(g90
g71
NtRp1191
(dp1192
g74
(dp1193
g101
g102
ssg83
g1182
sg76
(lp1194
S':'
asbag69
(g90
g71
NtRp1195
(dp1196
g74
(dp1197
sg83
g1182
sg76
(lp1198
g69
(g70
g71
NtRp1199
(dp1200
g74
(dp1201
g82
I4
ssg83
g1195
sg76
(lp1202
S'http://127.0.0.1:8000/milo/default/index/2'
p1203
asbasbasbag69
(g85
g71
NtRp1204
(dp1205
g74
(dp1206
sg83
g846
sg76
(lp1207
g69
(g90
g71
NtRp1208
(dp1209
g74
(dp1210
g94
g95
ssg83
g1204
sg76
(lp1211
S'http_user_agent'
p1212
asbag69
(g90
g71
NtRp1213
(dp1214
g74
(dp1215
g101
g102
ssg83
g1204
sg76
(lp1216
S':'
asbag69
(g90
g71
NtRp1217
(dp1218
g74
(dp1219
sg83
g1204
sg76
(lp1220
g69
(g70
g71
NtRp1221
(dp1222
g74
(dp1223
g82
I4
ssg83
g1217
sg76
(lp1224
S'Mozilla/5.0 (X11; Linux x86_64) AppleWebKit/535.19 (KHTML, like Gecko) Ubuntu/12.04 Chromium/18.0.1025.168 Chrome/18.0.1025.168 Safari/535.19'
p1225
asbasbasbag69
(g85
g71
NtRp1226
(dp1227
g74
(dp1228
sg83
g846
sg76
(lp1229
g69
(g90
g71
NtRp1230
(dp1231
g74
(dp1232
g94
g95
ssg83
g1226
sg76
(lp1233
S'is_jython'
p1234
asbag69
(g90
g71
NtRp1235
(dp1236
g74
(dp1237
g101
g102
ssg83
g1226
sg76
(lp1238
S':'
asbag69
(g90
g71
NtRp1239
(dp1240
g74
(dp1241
sg83
g1226
sg76
(lp1242
g69
(g70
g71
NtRp1243
(dp1244
g74
(dp1245
g82
I4
ssg83
g1239
sg76
(lp1246
g112
asbasbasbag69
(g85
g71
NtRp1247
(dp1248
g74
(dp1249
sg83
g846
sg76
(lp1250
g69
(g90
g71
NtRp1251
(dp1252
g74
(dp1253
g94
g95
ssg83
g1247
sg76
(lp1254
S'is_pypy'
p1255
asbag69
(g90
g71
NtRp1256
(dp1257
g74
(dp1258
g101
g102
ssg83
g1247
sg76
(lp1259
S':'
asbag69
(g90
g71
NtRp1260
(dp1261
g74
(dp1262
sg83
g1247
sg76
(lp1263
g69
(g70
g71
NtRp1264
(dp1265
g74
(dp1266
g82
I4
ssg83
g1260
sg76
(lp1267
g112
asbasbasbag69
(g85
g71
NtRp1268
(dp1269
g74
(dp1270
sg83
g846
sg76
(lp1271
g69
(g90
g71
NtRp1272
(dp1273
g74
(dp1274
g94
g95
ssg83
g1268
sg76
(lp1275
S'path_info'
p1276
asbag69
(g90
g71
NtRp1277
(dp1278
g74
(dp1279
g101
g102
ssg83
g1268
sg76
(lp1280
S':'
asbag69
(g90
g71
NtRp1281
(dp1282
g74
(dp1283
sg83
g1268
sg76
(lp1284
g69
(g70
g71
NtRp1285
(dp1286
g74
(dp1287
g82
I4
ssg83
g1281
sg76
(lp1288
S'/milo/default/index/1'
p1289
asbasbasbag69
(g85
g71
NtRp1290
(dp1291
g74
(dp1292
sg83
g846
sg76
(lp1293
g69
(g90
g71
NtRp1294
(dp1295
g74
(dp1296
g94
g95
ssg83
g1290
sg76
(lp1297
S'query_string'
p1298
asbag69
(g90
g71
NtRp1299
(dp1300
g74
(dp1301
g101
g102
ssg83
g1290
sg76
(lp1302
S':'
asbag69
(g90
g71
NtRp1303
(dp1304
g74
(dp1305
sg83
g1290
sg76
(lp1306
g69
(g70
g71
NtRp1307
(dp1308
g74
(dp1309
g82
I4
ssg83
g1303
sg76
(lp1310
S''
asbasbasbag69
(g85
g71
NtRp1311
(dp1312
g74
(dp1313
sg83
g846
sg76
(lp1314
g69
(g90
g71
NtRp1315
(dp1316
g74
(dp1317
g94
g95
ssg83
g1311
sg76
(lp1318
S'remote_addr'
p1319
asbag69
(g90
g71
NtRp1320
(dp1321
g74
(dp1322
g101
g102
ssg83
g1311
sg76
(lp1323
S':'
asbag69
(g90
g71
NtRp1324
(dp1325
g74
(dp1326
sg83
g1311
sg76
(lp1327
g69
(g70
g71
NtRp1328
(dp1329
g74
(dp1330
g82
I4
ssg83
g1324
sg76
(lp1331
g214
asbasbasbag69
(g85
g71
NtRp1332
(dp1333
g74
(dp1334
sg83
g846
sg76
(lp1335
g69
(g90
g71
NtRp1336
(dp1337
g74
(dp1338
g94
g95
ssg83
g1332
sg76
(lp1339
S'remote_port'
p1340
asbag69
(g90
g71
NtRp1341
(dp1342
g74
(dp1343
g101
g102
ssg83
g1332
sg76
(lp1344
S':'
asbag69
(g90
g71
NtRp1345
(dp1346
g74
(dp1347
sg83
g1332
sg76
(lp1348
g69
(g70
g71
NtRp1349
(dp1350
g74
(dp1351
g82
I4
ssg83
g1345
sg76
(lp1352
S'53377'
p1353
asbasbasbag69
(g85
g71
NtRp1354
(dp1355
g74
(dp1356
sg83
g846
sg76
(lp1357
g69
(g90
g71
NtRp1358
(dp1359
g74
(dp1360
g94
g95
ssg83
g1354
sg76
(lp1361
S'request_method'
p1362
asbag69
(g90
g71
NtRp1363
(dp1364
g74
(dp1365
g101
g102
ssg83
g1354
sg76
(lp1366
S':'
asbag69
(g90
g71
NtRp1367
(dp1368
g74
(dp1369
sg83
g1354
sg76
(lp1370
g69
(g70
g71
NtRp1371
(dp1372
g74
(dp1373
g82
I4
ssg83
g1367
sg76
(lp1374
S'GET'
p1375
asbasbasbag69
(g85
g71
NtRp1376
(dp1377
g74
(dp1378
sg83
g846
sg76
(lp1379
g69
(g90
g71
NtRp1380
(dp1381
g74
(dp1382
g94
g95
ssg83
g1376
sg76
(lp1383
S'request_uri'
p1384
asbag69
(g90
g71
NtRp1385
(dp1386
g74
(dp1387
g101
g102
ssg83
g1376
sg76
(lp1388
S':'
asbag69
(g90
g71
NtRp1389
(dp1390
g74
(dp1391
sg83
g1376
sg76
(lp1392
g69
(g70
g71
NtRp1393
(dp1394
g74
(dp1395
g82
I4
ssg83
g1389
sg76
(lp1396
g1289
asbasbasbag69
(g85
g71
NtRp1397
(dp1398
g74
(dp1399
sg83
g846
sg76
(lp1400
g69
(g90
g71
NtRp1401
(dp1402
g74
(dp1403
g94
g95
ssg83
g1397
sg76
(lp1404
S'script_name'
p1405
asbag69
(g90
g71
NtRp1406
(dp1407
g74
(dp1408
g101
g102
ssg83
g1397
sg76
(lp1409
S':'
asbag69
(g90
g71
NtRp1410
(dp1411
g74
(dp1412
sg83
g1397
sg76
(lp1413
g69
(g70
g71
NtRp1414
(dp1415
g74
(dp1416
g82
I4
ssg83
g1410
sg76
(lp1417
S''
asbasbasbag69
(g85
g71
NtRp1418
(dp1419
g74
(dp1420
sg83
g846
sg76
(lp1421
g69
(g90
g71
NtRp1422
(dp1423
g74
(dp1424
g94
g95
ssg83
g1418
sg76
(lp1425
S'server_name'
p1426
asbag69
(g90
g71
NtRp1427
(dp1428
g74
(dp1429
g101
g102
ssg83
g1418
sg76
(lp1430
S':'
asbag69
(g90
g71
NtRp1431
(dp1432
g74
(dp1433
sg83
g1418
sg76
(lp1434
g69
(g70
g71
NtRp1435
(dp1436
g74
(dp1437
g82
I4
ssg83
g1431
sg76
(lp1438
S'whisperer'
p1439
asbasbasbag69
(g85
g71
NtRp1440
(dp1441
g74
(dp1442
sg83
g846
sg76
(lp1443
g69
(g90
g71
NtRp1444
(dp1445
g74
(dp1446
g94
g95
ssg83
g1440
sg76
(lp1447
S'server_port'
p1448
asbag69
(g90
g71
NtRp1449
(dp1450
g74
(dp1451
g101
g102
ssg83
g1440
sg76
(lp1452
S':'
asbag69
(g90
g71
NtRp1453
(dp1454
g74
(dp1455
sg83
g1440
sg76
(lp1456
g69
(g70
g71
NtRp1457
(dp1458
g74
(dp1459
g82
I4
ssg83
g1453
sg76
(lp1460
S'8000'
p1461
asbasbasbag69
(g85
g71
NtRp1462
(dp1463
g74
(dp1464
sg83
g846
sg76
(lp1465
g69
(g90
g71
NtRp1466
(dp1467
g74
(dp1468
g94
g95
ssg83
g1462
sg76
(lp1469
S'server_protocol'
p1470
asbag69
(g90
g71
NtRp1471
(dp1472
g74
(dp1473
g101
g102
ssg83
g1462
sg76
(lp1474
S':'
asbag69
(g90
g71
NtRp1475
(dp1476
g74
(dp1477
sg83
g1462
sg76
(lp1478
g69
(g70
g71
NtRp1479
(dp1480
g74
(dp1481
g82
I4
ssg83
g1475
sg76
(lp1482
S'HTTP/1.1'
p1483
asbasbasbag69
(g85
g71
NtRp1484
(dp1485
g74
(dp1486
sg83
g846
sg76
(lp1487
g69
(g90
g71
NtRp1488
(dp1489
g74
(dp1490
g94
g95
ssg83
g1484
sg76
(lp1491
S'server_software'
p1492
asbag69
(g90
g71
NtRp1493
(dp1494
g74
(dp1495
g101
g102
ssg83
g1484
sg76
(lp1496
S':'
asbag69
(g90
g71
NtRp1497
(dp1498
g74
(dp1499
sg83
g1484
sg76
(lp1500
g69
(g70
g71
NtRp1501
(dp1502
g74
(dp1503
g82
I4
ssg83
g1497
sg76
(lp1504
S'Rocket 1.2.4'
p1505
asbasbasbag69
(g85
g71
NtRp1506
(dp1507
g74
(dp1508
sg83
g846
sg76
(lp1509
g69
(g90
g71
NtRp1510
(dp1511
g74
(dp1512
g94
g95
ssg83
g1506
sg76
(lp1513
S'web2py_crontype'
p1514
asbag69
(g90
g71
NtRp1515
(dp1516
g74
(dp1517
g101
g102
ssg83
g1506
sg76
(lp1518
S':'
asbag69
(g90
g71
NtRp1519
(dp1520
g74
(dp1521
sg83
g1506
sg76
(lp1522
g69
(g70
g71
NtRp1523
(dp1524
g74
(dp1525
g82
I4
ssg83
g1519
sg76
(lp1526
S'hard'
p1527
asbasbasbag69
(g85
g71
NtRp1528
(dp1529
g74
(dp1530
sg83
g846
sg76
(lp1531
g69
(g90
g71
NtRp1532
(dp1533
g74
(dp1534
g94
g95
ssg83
g1528
sg76
(lp1535
S'web2py_original_uri'
p1536
asbag69
(g90
g71
NtRp1537
(dp1538
g74
(dp1539
g101
g102
ssg83
g1528
sg76
(lp1540
S':'
asbag69
(g90
g71
NtRp1541
(dp1542
g74
(dp1543
sg83
g1528
sg76
(lp1544
g69
(g70
g71
NtRp1545
(dp1546
g74
(dp1547
g82
I4
ssg83
g1541
sg76
(lp1548
g1289
asbasbasbag69
(g85
g71
NtRp1549
(dp1550
g74
(dp1551
sg83
g846
sg76
(lp1552
g69
(g90
g71
NtRp1553
(dp1554
g74
(dp1555
g94
g95
ssg83
g1549
sg76
(lp1556
S'web2py_path'
p1557
asbag69
(g90
g71
NtRp1558
(dp1559
g74
(dp1560
g101
g102
ssg83
g1549
sg76
(lp1561
S':'
asbag69
(g90
g71
NtRp1562
(dp1563
g74
(dp1564
sg83
g1549
sg76
(lp1565
g69
(g70
g71
NtRp1566
(dp1567
g74
(dp1568
g82
I4
ssg83
g1562
sg76
(lp1569
g893
asbasbasbag69
(g85
g71
NtRp1570
(dp1571
g74
(dp1572
sg83
g846
sg76
(lp1573
g69
(g90
g71
NtRp1574
(dp1575
g74
(dp1576
g94
g95
ssg83
g1570
sg76
(lp1577
S'web2py_version'
p1578
asbag69
(g90
g71
NtRp1579
(dp1580
g74
(dp1581
g101
g102
ssg83
g1570
sg76
(lp1582
S':'
asbag69
(g90
g71
NtRp1583
(dp1584
g74
(dp1585
sg83
g1570
sg76
(lp1586
g69
(g70
g71
NtRp1587
(dp1588
g74
(dp1589
g82
I4
ssg83
g1583
sg76
(lp1590
g69
(g78
g71
NtRp1591
(dp1592
g74
(dp1593
g82
I3
ssg83
Nsg76
(lp1594
g69
(g85
g71
NtRp1595
(dp1596
g74
(dp1597
sg83
g1591
sg76
(lp1598
g69
(g90
g71
NtRp1599
(dp1600
g74
(dp1601
sg83
g1595
sg76
(lp1602
g69
(g70
g71
NtRp1603
(dp1604
g74
(dp1605
g82
I3
ssg83
g1599
sg76
(lp1606
S'1'
asbasbasbag69
(g85
g71
NtRp1607
(dp1608
g74
(dp1609
sg83
g1591
sg76
(lp1610
g69
(g90
g71
NtRp1611
(dp1612
g74
(dp1613
sg83
g1607
sg76
(lp1614
g69
(g70
g71
NtRp1615
(dp1616
g74
(dp1617
g82
I3
ssg83
g1611
sg76
(lp1618
S'99'
p1619
asbasbasbag69
(g85
g71
NtRp1620
(dp1621
g74
(dp1622
sg83
g1591
sg76
(lp1623
g69
(g90
g71
NtRp1624
(dp1625
g74
(dp1626
sg83
g1620
sg76
(lp1627
g69
(g70
g71
NtRp1628
(dp1629
g74
(dp1630
g82
I3
ssg83
g1624
sg76
(lp1631
S'7'
asbasbasbag69
(g85
g71
NtRp1632
(dp1633
g74
(dp1634
sg83
g1591
sg76
(lp1635
g69
(g90
g71
NtRp1636
(dp1637
g74
(dp1638
sg83
g1632
sg76
(lp1639
g69
(g70
g71
NtRp1640
(dp1641
g74
(dp1642
g82
I3
ssg83
g1636
sg76
(lp1643
S'datetime.datetime(2012, 3, 4, 22, 12, 8)'
p1644
asbasbasbag69
(g85
g71
NtRp1645
(dp1646
g74
(dp1647
sg83
g1591
sg76
(lp1648
g69
(g90
g71
NtRp1649
(dp1650
g74
(dp1651
sg83
g1645
sg76
(lp1652
g69
(g70
g71
NtRp1653
(dp1654
g74
(dp1655
g82
I3
ssg83
g1649
sg76
(lp1656
S'stable'
p1657
asbasbasbasbasbasbasbag69
(g85
g71
NtRp1658
(dp1659
g74
(dp1660
sg83
g846
sg76
(lp1661
g69
(g90
g71
NtRp1662
(dp1663
g74
(dp1664
g94
g95
ssg83
g1658
sg76
(lp1665
S'wsgi_errors'
p1666
asbag69
(g90
g71
NtRp1667
(dp1668
g74
(dp1669
g101
g102
ssg83
g1658
sg76
(lp1670
S':'
asbag69
(g90
g71
NtRp1671
(dp1672
g74
(dp1673
sg83
g1658
sg76
(lp1674
g69
(g70
g71
NtRp1675
(dp1676
g74
(dp1677
g82
I4
ssg83
g1671
sg76
(lp1678
S"<open file '<stderr>', mode 'w' at 0x7fb4b1797270>"
p1679
asbasbasbag69
(g85
g71
NtRp1680
(dp1681
g74
(dp1682
sg83
g846
sg76
(lp1683
g69
(g90
g71
NtRp1684
(dp1685
g74
(dp1686
g94
g95
ssg83
g1680
sg76
(lp1687
S'wsgi_file_wrapper'
p1688
asbag69
(g90
g71
NtRp1689
(dp1690
g74
(dp1691
g101
g102
ssg83
g1680
sg76
(lp1692
S':'
asbag69
(g90
g71
NtRp1693
(dp1694
g74
(dp1695
sg83
g1680
sg76
(lp1696
g69
(g70
g71
NtRp1697
(dp1698
g74
(dp1699
g82
I4
ssg83
g1693
sg76
(lp1700
S'<class wsgiref.util.FileWrapper at 0x1bf5f58>'
p1701
asbasbasbag69
(g85
g71
NtRp1702
(dp1703
g74
(dp1704
sg83
g846
sg76
(lp1705
g69
(g90
g71
NtRp1706
(dp1707
g74
(dp1708
g94
g95
ssg83
g1702
sg76
(lp1709
S'wsgi_input'
p1710
asbag69
(g90
g71
NtRp1711
(dp1712
g74
(dp1713
g101
g102
ssg83
g1702
sg76
(lp1714
S':'
asbag69
(g90
g71
NtRp1715
(dp1716
g74
(dp1717
sg83
g1702
sg76
(lp1718
g69
(g70
g71
NtRp1719
(dp1720
g74
(dp1721
g82
I4
ssg83
g1715
sg76
(lp1722
S'<socket._fileobject object at 0x7fb49da62a50>'
p1723
asbasbasbag69
(g85
g71
NtRp1724
(dp1725
g74
(dp1726
sg83
g846
sg76
(lp1727
g69
(g90
g71
NtRp1728
(dp1729
g74
(dp1730
g94
g95
ssg83
g1724
sg76
(lp1731
S'wsgi_multiprocess'
p1732
asbag69
(g90
g71
NtRp1733
(dp1734
g74
(dp1735
g101
g102
ssg83
g1724
sg76
(lp1736
S':'
asbag69
(g90
g71
NtRp1737
(dp1738
g74
(dp1739
sg83
g1724
sg76
(lp1740
g69
(g70
g71
NtRp1741
(dp1742
g74
(dp1743
g82
I4
ssg83
g1737
sg76
(lp1744
g112
asbasbasbag69
(g85
g71
NtRp1745
(dp1746
g74
(dp1747
sg83
g846
sg76
(lp1748
g69
(g90
g71
NtRp1749
(dp1750
g74
(dp1751
g94
g95
ssg83
g1745
sg76
(lp1752
S'wsgi_multithread'
p1753
asbag69
(g90
g71
NtRp1754
(dp1755
g74
(dp1756
g101
g102
ssg83
g1745
sg76
(lp1757
S':'
asbag69
(g90
g71
NtRp1758
(dp1759
g74
(dp1760
sg83
g1745
sg76
(lp1761
g69
(g70
g71
NtRp1762
(dp1763
g74
(dp1764
g82
I4
ssg83
g1758
sg76
(lp1765
S'True'
p1766
asbasbasbag69
(g85
g71
NtRp1767
(dp1768
g74
(dp1769
sg83
g846
sg76
(lp1770
g69
(g90
g71
NtRp1771
(dp1772
g74
(dp1773
g94
g95
ssg83
g1767
sg76
(lp1774
S'wsgi_run_once'
p1775
asbag69
(g90
g71
NtRp1776
(dp1777
g74
(dp1778
g101
g102
ssg83
g1767
sg76
(lp1779
S':'
asbag69
(g90
g71
NtRp1780
(dp1781
g74
(dp1782
sg83
g1767
sg76
(lp1783
g69
(g70
g71
NtRp1784
(dp1785
g74
(dp1786
g82
I4
ssg83
g1780
sg76
(lp1787
g112
asbasbasbag69
(g85
g71
NtRp1788
(dp1789
g74
(dp1790
sg83
g846
sg76
(lp1791
g69
(g90
g71
NtRp1792
(dp1793
g74
(dp1794
g94
g95
ssg83
g1788
sg76
(lp1795
S'wsgi_url_scheme'
p1796
asbag69
(g90
g71
NtRp1797
(dp1798
g74
(dp1799
g101
g102
ssg83
g1788
sg76
(lp1800
S':'
asbag69
(g90
g71
NtRp1801
(dp1802
g74
(dp1803
sg83
g1788
sg76
(lp1804
g69
(g70
g71
NtRp1805
(dp1806
g74
(dp1807
g82
I4
ssg83
g1801
sg76
(lp1808
S'http'
p1809
asbasbasbag69
(g85
g71
NtRp1810
(dp1811
g74
(dp1812
sg83
g846
sg76
(lp1813
g69
(g90
g71
NtRp1814
(dp1815
g74
(dp1816
g94
g95
ssg83
g1810
sg76
(lp1817
S'wsgi_version'
p1818
asbag69
(g90
g71
NtRp1819
(dp1820
g74
(dp1821
g101
g102
ssg83
g1810
sg76
(lp1822
S':'
asbag69
(g90
g71
NtRp1823
(dp1824
g74
(dp1825
sg83
g1810
sg76
(lp1826
g69
(g70
g71
NtRp1827
(dp1828
g74
(dp1829
g82
I4
ssg83
g1823
sg76
(lp1830
g69
(g78
g71
NtRp1831
(dp1832
g74
(dp1833
g82
I3
ssg83
Nsg76
(lp1834
g69
(g85
g71
NtRp1835
(dp1836
g74
(dp1837
sg83
g1831
sg76
(lp1838
g69
(g90
g71
NtRp1839
(dp1840
g74
(dp1841
sg83
g1835
sg76
(lp1842
g69
(g70
g71
NtRp1843
(dp1844
g74
(dp1845
g82
I3
ssg83
g1839
sg76
(lp1846
S'1'
asbasbasbag69
(g85
g71
NtRp1847
(dp1848
g74
(dp1849
sg83
g1831
sg76
(lp1850
g69
(g90
g71
NtRp1851
(dp1852
g74
(dp1853
sg83
g1847
sg76
(lp1854
g69
(g70
g71
NtRp1855
(dp1856
g74
(dp1857
g82
I3
ssg83
g1851
sg76
(lp1858
S'0'
asbasbasbasbasbasbasbasbasbasbasbag69
(g85
g71
NtRp1859
(dp1860
g74
(dp1861
sg83
g79
sg76
(lp1862
g69
(g90
g71
NtRp1863
(dp1864
g74
(dp1865
g94
g95
ssg83
g1859
sg76
(lp1866
S'extension'
p1867
asbag69
(g90
g71
NtRp1868
(dp1869
g74
(dp1870
g101
g102
ssg83
g1859
sg76
(lp1871
S':'
asbag69
(g90
g71
NtRp1872
(dp1873
g74
(dp1874
sg83
g1859
sg76
(lp1875
g69
(g70
g71
NtRp1876
(dp1877
g74
(dp1878
g82
I5
ssg83
g1872
sg76
(lp1879
S'html'
p1880
asbasbasbag69
(g85
g71
NtRp1881
(dp1882
g74
(dp1883
sg83
g79
sg76
(lp1884
g69
(g90
g71
NtRp1885
(dp1886
g74
(dp1887
g94
g95
ssg83
g1881
sg76
(lp1888
S'folder'
p1889
asbag69
(g90
g71
NtRp1890
(dp1891
g74
(dp1892
g101
g102
ssg83
g1881
sg76
(lp1893
S':'
asbag69
(g90
g71
NtRp1894
(dp1895
g74
(dp1896
sg83
g1881
sg76
(lp1897
g69
(g70
g71
NtRp1898
(dp1899
g74
(dp1900
g82
I5
ssg83
g1894
sg76
(lp1901
S'/home/goshawk/web2py/applications/milo/'
p1902
asbasbasbag69
(g85
g71
NtRp1903
(dp1904
g74
(dp1905
sg83
g79
sg76
(lp1906
g69
(g90
g71
NtRp1907
(dp1908
g74
(dp1909
g94
g95
ssg83
g1903
sg76
(lp1910
S'function'
p1911
asbag69
(g90
g71
NtRp1912
(dp1913
g74
(dp1914
g101
g102
ssg83
g1903
sg76
(lp1915
S':'
asbag69
(g90
g71
NtRp1916
(dp1917
g74
(dp1918
sg83
g1903
sg76
(lp1919
g69
(g70
g71
NtRp1920
(dp1921
g74
(dp1922
g82
I5
ssg83
g1916
sg76
(lp1923
S'index'
p1924
asbasbasbag69
(g85
g71
NtRp1925
(dp1926
g74
(dp1927
sg83
g79
sg76
(lp1928
g69
(g90
g71
NtRp1929
(dp1930
g74
(dp1931
g94
g95
ssg83
g1925
sg76
(lp1932
S'get_vars'
p1933
asbag69
(g90
g71
NtRp1934
(dp1935
g74
(dp1936
g101
g102
ssg83
g1925
sg76
(lp1937
S':'
asbag69
(g90
g71
NtRp1938
(dp1939
g74
(dp1940
sg83
g1925
sg76
(lp1941
g69
(g70
g71
NtRp1942
(dp1943
g74
(dp1944
g82
I5
ssg83
g1938
sg76
(lp1945
g69
(g78
g71
NtRp1946
(dp1947
g74
(dp1948
g82
I4
ssg83
Nsg76
(lp1949
sbasbasbasbag69
(g85
g71
NtRp1950
(dp1951
g74
(dp1952
sg83
g79
sg76
(lp1953
g69
(g90
g71
NtRp1954
(dp1955
g74
(dp1956
g94
g95
ssg83
g1950
sg76
(lp1957
S'global_settings'
p1958
asbag69
(g90
g71
NtRp1959
(dp1960
g74
(dp1961
g101
g102
ssg83
g1950
sg76
(lp1962
S':'
asbag69
(g90
g71
NtRp1963
(dp1964
g74
(dp1965
sg83
g1950
sg76
(lp1966
g69
(g70
g71
NtRp1967
(dp1968
g74
(dp1969
g82
I5
ssg83
g1963
sg76
(lp1970
g69
(g78
g71
NtRp1971
(dp1972
g74
(dp1973
g82
I4
ssg83
Nsg76
(lp1974
g69
(g85
g71
NtRp1975
(dp1976
g74
(dp1977
sg83
g1971
sg76
(lp1978
g69
(g90
g71
NtRp1979
(dp1980
g74
(dp1981
g94
g95
ssg83
g1975
sg76
(lp1982
g858
asbag69
(g90
g71
NtRp1983
(dp1984
g74
(dp1985
g101
g102
ssg83
g1975
sg76
(lp1986
S':'
asbag69
(g90
g71
NtRp1987
(dp1988
g74
(dp1989
sg83
g1975
sg76
(lp1990
g69
(g70
g71
NtRp1991
(dp1992
g74
(dp1993
g82
I4
ssg83
g1987
sg76
(lp1994
S"set(['/home/goshawk/web2py/applications/milo/', '/home/goshawk/web2py/applications/admin/'])"
p1995
asbasbasbag69
(g85
g71
NtRp1996
(dp1997
g74
(dp1998
sg83
g1971
sg76
(lp1999
g69
(g90
g71
NtRp2000
(dp2001
g74
(dp2002
g94
g95
ssg83
g1996
sg76
(lp2003
g880
asbag69
(g90
g71
NtRp2004
(dp2005
g74
(dp2006
g101
g102
ssg83
g1996
sg76
(lp2007
S':'
asbag69
(g90
g71
NtRp2008
(dp2009
g74
(dp2010
sg83
g1996
sg76
(lp2011
g69
(g70
g71
NtRp2012
(dp2013
g74
(dp2014
g82
I4
ssg83
g2008
sg76
(lp2015
g893
asbasbasbag69
(g85
g71
NtRp2016
(dp2017
g74
(dp2018
sg83
g1971
sg76
(lp2019
g69
(g90
g71
NtRp2020
(dp2021
g74
(dp2022
g94
g95
ssg83
g2016
sg76
(lp2023
g902
asbag69
(g90
g71
NtRp2024
(dp2025
g74
(dp2026
g101
g102
ssg83
g2016
sg76
(lp2027
S':'
asbag69
(g90
g71
NtRp2028
(dp2029
g74
(dp2030
sg83
g2016
sg76
(lp2031
g69
(g70
g71
NtRp2032
(dp2033
g74
(dp2034
g82
I4
ssg83
g2028
sg76
(lp2035
g69
(g78
g71
NtRp2036
(dp2037
g74
(dp2038
g82
I3
ssg83
Nsg76
(lp2039
sbasbasbasbag69
(g85
g71
NtRp2040
(dp2041
g74
(dp2042
sg83
g1971
sg76
(lp2043
g69
(g90
g71
NtRp2044
(dp2045
g74
(dp2046
g94
g95
ssg83
g2040
sg76
(lp2047
g927
asbag69
(g90
g71
NtRp2048
(dp2049
g74
(dp2050
g101
g102
ssg83
g2040
sg76
(lp2051
S':'
asbag69
(g90
g71
NtRp2052
(dp2053
g74
(dp2054
sg83
g2040
sg76
(lp2055
g69
(g70
g71
NtRp2056
(dp2057
g74
(dp2058
g82
I4
ssg83
g2052
sg76
(lp2059
S"<Values at 0x1cc90e0: {'verbose': False, 'ip': '127.0.0.1', 'shutdown_timeout': 5, 'taskbar': False, 'nocron': False, 'pid_filename': 'httpserver.pid', 'maxthreads': None, 'softcron': False, 'server_name': 'whisperer', 'bpython': False, 'nogui': False, 'port': 8000, 'extcron': False, 'debuglevel': 30, 'test': None, 'folder': '/home/goshawk/web2py', 'config': '', 'import_models': False, 'winservice': '', 'shell': None, 'run': '', 'log_filename': 'httpserver.log', 'args': [''], 'socket_timeout': 5, 'ssl_ca_certificate': None, 'scheduler': None, 'profiler_filename': None, 'ssl_private_key': '', 'password': 'admin', 'request_queue_size': 5, 'ssl_certificate': '', 'cronjob': False, 'numthreads': None, 'quiet': False, 'interfaces': None, 'minthreads': None, 'timeout': 10, 'plain': False, 'nobanner': False}>"
p2060
asbasbasbag69
(g85
g71
NtRp2061
(dp2062
g74
(dp2063
sg83
g1971
sg76
(lp2064
g69
(g90
g71
NtRp2065
(dp2066
g74
(dp2067
g94
g95
ssg83
g2061
sg76
(lp2068
g949
asbag69
(g90
g71
NtRp2069
(dp2070
g74
(dp2071
g101
g102
ssg83
g2061
sg76
(lp2072
S':'
asbag69
(g90
g71
NtRp2073
(dp2074
g74
(dp2075
sg83
g2061
sg76
(lp2076
g69
(g70
g71
NtRp2077
(dp2078
g74
(dp2079
g82
I4
ssg83
g2073
sg76
(lp2080
S'set([])'
p2081
asbasbasbag69
(g85
g71
NtRp2082
(dp2083
g74
(dp2084
sg83
g1971
sg76
(lp2085
g69
(g90
g71
NtRp2086
(dp2087
g74
(dp2088
g94
g95
ssg83
g2082
sg76
(lp2089
g971
asbag69
(g90
g71
NtRp2090
(dp2091
g74
(dp2092
g101
g102
ssg83
g2082
sg76
(lp2093
S':'
asbag69
(g90
g71
NtRp2094
(dp2095
g74
(dp2096
sg83
g2082
sg76
(lp2097
g69
(g70
g71
NtRp2098
(dp2099
g74
(dp2100
g82
I4
ssg83
g2094
sg76
(lp2101
g112
asbasbasbag69
(g85
g71
NtRp2102
(dp2103
g74
(dp2104
sg83
g1971
sg76
(lp2105
g69
(g90
g71
NtRp2106
(dp2107
g74
(dp2108
g94
g95
ssg83
g2102
sg76
(lp2109
g992
asbag69
(g90
g71
NtRp2110
(dp2111
g74
(dp2112
g101
g102
ssg83
g2102
sg76
(lp2113
S':'
asbag69
(g90
g71
NtRp2114
(dp2115
g74
(dp2116
sg83
g2102
sg76
(lp2117
g69
(g70
g71
NtRp2118
(dp2119
g74
(dp2120
g82
I4
ssg83
g2114
sg76
(lp2121
g1005
asbasbasbag69
(g85
g71
NtRp2122
(dp2123
g74
(dp2124
sg83
g1971
sg76
(lp2125
g69
(g90
g71
NtRp2126
(dp2127
g74
(dp2128
g94
g95
ssg83
g2122
sg76
(lp2129
g1234
asbag69
(g90
g71
NtRp2130
(dp2131
g74
(dp2132
g101
g102
ssg83
g2122
sg76
(lp2133
S':'
asbag69
(g90
g71
NtRp2134
(dp2135
g74
(dp2136
sg83
g2122
sg76
(lp2137
g69
(g70
g71
NtRp2138
(dp2139
g74
(dp2140
g82
I4
ssg83
g2134
sg76
(lp2141
g112
asbasbasbag69
(g85
g71
NtRp2142
(dp2143
g74
(dp2144
sg83
g1971
sg76
(lp2145
g69
(g90
g71
NtRp2146
(dp2147
g74
(dp2148
g94
g95
ssg83
g2142
sg76
(lp2149
g1255
asbag69
(g90
g71
NtRp2150
(dp2151
g74
(dp2152
g101
g102
ssg83
g2142
sg76
(lp2153
S':'
asbag69
(g90
g71
NtRp2154
(dp2155
g74
(dp2156
sg83
g2142
sg76
(lp2157
g69
(g70
g71
NtRp2158
(dp2159
g74
(dp2160
g82
I4
ssg83
g2154
sg76
(lp2161
g112
asbasbasbag69
(g85
g71
NtRp2162
(dp2163
g74
(dp2164
sg83
g1971
sg76
(lp2165
g69
(g90
g71
NtRp2166
(dp2167
g74
(dp2168
g94
g95
ssg83
g2162
sg76
(lp2169
g1514
asbag69
(g90
g71
NtRp2170
(dp2171
g74
(dp2172
g101
g102
ssg83
g2162
sg76
(lp2173
S':'
asbag69
(g90
g71
NtRp2174
(dp2175
g74
(dp2176
sg83
g2162
sg76
(lp2177
g69
(g70
g71
NtRp2178
(dp2179
g74
(dp2180
g82
I4
ssg83
g2174
sg76
(lp2181
g1527
asbasbasbag69
(g85
g71
NtRp2182
(dp2183
g74
(dp2184
sg83
g1971
sg76
(lp2185
g69
(g90
g71
NtRp2186
(dp2187
g74
(dp2188
g94
g95
ssg83
g2182
sg76
(lp2189
g1578
asbag69
(g90
g71
NtRp2190
(dp2191
g74
(dp2192
g101
g102
ssg83
g2182
sg76
(lp2193
S':'
asbag69
(g90
g71
NtRp2194
(dp2195
g74
(dp2196
sg83
g2182
sg76
(lp2197
g69
(g70
g71
NtRp2198
(dp2199
g74
(dp2200
g82
I4
ssg83
g2194
sg76
(lp2201
g69
(g78
g71
NtRp2202
(dp2203
g74
(dp2204
g82
I3
ssg83
Nsg76
(lp2205
g69
(g85
g71
NtRp2206
(dp2207
g74
(dp2208
sg83
g2202
sg76
(lp2209
g69
(g90
g71
NtRp2210
(dp2211
g74
(dp2212
sg83
g2206
sg76
(lp2213
g69
(g70
g71
NtRp2214
(dp2215
g74
(dp2216
g82
I3
ssg83
g2210
sg76
(lp2217
S'1'
asbasbasbag69
(g85
g71
NtRp2218
(dp2219
g74
(dp2220
sg83
g2202
sg76
(lp2221
g69
(g90
g71
NtRp2222
(dp2223
g74
(dp2224
sg83
g2218
sg76
(lp2225
g69
(g70
g71
NtRp2226
(dp2227
g74
(dp2228
g82
I3
ssg83
g2222
sg76
(lp2229
S'99'
p2230
asbasbasbag69
(g85
g71
NtRp2231
(dp2232
g74
(dp2233
sg83
g2202
sg76
(lp2234
g69
(g90
g71
NtRp2235
(dp2236
g74
(dp2237
sg83
g2231
sg76
(lp2238
g69
(g70
g71
NtRp2239
(dp2240
g74
(dp2241
g82
I3
ssg83
g2235
sg76
(lp2242
S'7'
asbasbasbag69
(g85
g71
NtRp2243
(dp2244
g74
(dp2245
sg83
g2202
sg76
(lp2246
g69
(g90
g71
NtRp2247
(dp2248
g74
(dp2249
sg83
g2243
sg76
(lp2250
g69
(g70
g71
NtRp2251
(dp2252
g74
(dp2253
g82
I3
ssg83
g2247
sg76
(lp2254
S'datetime.datetime(2012, 3, 4, 22, 12, 8)'
p2255
asbasbasbag69
(g85
g71
NtRp2256
(dp2257
g74
(dp2258
sg83
g2202
sg76
(lp2259
g69
(g90
g71
NtRp2260
(dp2261
g74
(dp2262
sg83
g2256
sg76
(lp2263
g69
(g70
g71
NtRp2264
(dp2265
g74
(dp2266
g82
I3
ssg83
g2260
sg76
(lp2267
g1657
asbasbasbasbasbasbasbasbasbasbasbag69
(g85
g71
NtRp2268
(dp2269
g74
(dp2270
sg83
g79
sg76
(lp2271
g69
(g90
g71
NtRp2272
(dp2273
g74
(dp2274
g94
g95
ssg83
g2268
sg76
(lp2275
S'is_https'
p2276
asbag69
(g90
g71
NtRp2277
(dp2278
g74
(dp2279
g101
g102
ssg83
g2268
sg76
(lp2280
S':'
asbag69
(g90
g71
NtRp2281
(dp2282
g74
(dp2283
sg83
g2268
sg76
(lp2284
g69
(g70
g71
NtRp2285
(dp2286
g74
(dp2287
g82
I5
ssg83
g2281
sg76
(lp2288
g112
asbasbasbag69
(g85
g71
NtRp2289
(dp2290
g74
(dp2291
sg83
g79
sg76
(lp2292
g69
(g90
g71
NtRp2293
(dp2294
g74
(dp2295
g94
g95
ssg83
g2289
sg76
(lp2296
S'is_local'
p2297
asbag69
(g90
g71
NtRp2298
(dp2299
g74
(dp2300
g101
g102
ssg83
g2289
sg76
(lp2301
S':'
asbag69
(g90
g71
NtRp2302
(dp2303
g74
(dp2304
sg83
g2289
sg76
(lp2305
g69
(g70
g71
NtRp2306
(dp2307
g74
(dp2308
g82
I5
ssg83
g2302
sg76
(lp2309
g1766
asbasbasbag69
(g85
g71
NtRp2310
(dp2311
g74
(dp2312
sg83
g79
sg76
(lp2313
g69
(g90
g71
NtRp2314
(dp2315
g74
(dp2316
g94
g95
ssg83
g2310
sg76
(lp2317
S'is_restful'
p2318
asbag69
(g90
g71
NtRp2319
(dp2320
g74
(dp2321
g101
g102
ssg83
g2310
sg76
(lp2322
S':'
asbag69
(g90
g71
NtRp2323
(dp2324
g74
(dp2325
sg83
g2310
sg76
(lp2326
g69
(g70
g71
NtRp2327
(dp2328
g74
(dp2329
g82
I5
ssg83
g2323
sg76
(lp2330
g112
asbasbasbag69
(g85
g71
NtRp2331
(dp2332
g74
(dp2333
sg83
g79
sg76
(lp2334
g69
(g90
g71
NtRp2335
(dp2336
g74
(dp2337
g94
g95
ssg83
g2331
sg76
(lp2338
S'now'
p2339
asbag69
(g90
g71
NtRp2340
(dp2341
g74
(dp2342
g101
g102
ssg83
g2331
sg76
(lp2343
S':'
asbag69
(g90
g71
NtRp2344
(dp2345
g74
(dp2346
sg83
g2331
sg76
(lp2347
g69
(g70
g71
NtRp2348
(dp2349
g74
(dp2350
g82
I5
ssg83
g2344
sg76
(lp2351
S'datetime.datetime(2012, 7, 20, 8, 46, 5, 922176)'
p2352
asbasbasbag69
(g85
g71
NtRp2353
(dp2354
g74
(dp2355
sg83
g79
sg76
(lp2356
g69
(g90
g71
NtRp2357
(dp2358
g74
(dp2359
g94
g95
ssg83
g2353
sg76
(lp2360
S'post_vars'
p2361
asbag69
(g90
g71
NtRp2362
(dp2363
g74
(dp2364
g101
g102
ssg83
g2353
sg76
(lp2365
S':'
asbag69
(g90
g71
NtRp2366
(dp2367
g74
(dp2368
sg83
g2353
sg76
(lp2369
g69
(g70
g71
NtRp2370
(dp2371
g74
(dp2372
g82
I5
ssg83
g2366
sg76
(lp2373
g69
(g78
g71
NtRp2374
(dp2375
g74
(dp2376
g82
I4
ssg83
Nsg76
(lp2377
sbasbasbasbag69
(g85
g71
NtRp2378
(dp2379
g74
(dp2380
sg83
g79
sg76
(lp2381
g69
(g90
g71
NtRp2382
(dp2383
g74
(dp2384
g94
g95
ssg83
g2378
sg76
(lp2385
S'raw_args'
p2386
asbag69
(g90
g71
NtRp2387
(dp2388
g74
(dp2389
g101
g102
ssg83
g2378
sg76
(lp2390
S':'
asbag69
(g90
g71
NtRp2391
(dp2392
g74
(dp2393
sg83
g2378
sg76
(lp2394
g69
(g70
g71
NtRp2395
(dp2396
g74
(dp2397
g82
I5
ssg83
g2391
sg76
(lp2398
S'1'
asbasbasbag69
(g85
g71
NtRp2399
(dp2400
g74
(dp2401
sg83
g79
sg76
(lp2402
g69
(g90
g71
NtRp2403
(dp2404
g74
(dp2405
g94
g95
ssg83
g2399
sg76
(lp2406
S'url'
p2407
asbag69
(g90
g71
NtRp2408
(dp2409
g74
(dp2410
g101
g102
ssg83
g2399
sg76
(lp2411
S':'
asbag69
(g90
g71
NtRp2412
(dp2413
g74
(dp2414
sg83
g2399
sg76
(lp2415
g69
(g70
g71
NtRp2416
(dp2417
g74
(dp2418
g82
I5
ssg83
g2412
sg76
(lp2419
S'/milo/default/index/1'
p2420
asbasbasbag69
(g85
g71
NtRp2421
(dp2422
g74
(dp2423
sg83
g79
sg76
(lp2424
g69
(g90
g71
NtRp2425
(dp2426
g74
(dp2427
g94
g95
ssg83
g2421
sg76
(lp2428
S'utcnow'
p2429
asbag69
(g90
g71
NtRp2430
(dp2431
g74
(dp2432
g101
g102
ssg83
g2421
sg76
(lp2433
S':'
asbag69
(g90
g71
NtRp2434
(dp2435
g74
(dp2436
sg83
g2421
sg76
(lp2437
g69
(g70
g71
NtRp2438
(dp2439
g74
(dp2440
g82
I5
ssg83
g2434
sg76
(lp2441
S'datetime.datetime(2012, 7, 20, 6, 46, 5, 922199)'
p2442
asbasbasbag69
(g85
g71
NtRp2443
(dp2444
g74
(dp2445
sg83
g79
sg76
(lp2446
g69
(g90
g71
NtRp2447
(dp2448
g74
(dp2449
g94
g95
ssg83
g2443
sg76
(lp2450
S'uuid'
p2451
asbag69
(g90
g71
NtRp2452
(dp2453
g74
(dp2454
g101
g102
ssg83
g2443
sg76
(lp2455
S':'
asbag69
(g90
g71
NtRp2456
(dp2457
g74
(dp2458
sg83
g2443
sg76
(lp2459
g69
(g70
g71
NtRp2460
(dp2461
g74
(dp2462
g82
I5
ssg83
g2456
sg76
(lp2463
S'milo/127.0.0.1.2012-07-20.08-46-05.2d1f283c-1c65-44f6-852c-77b9ff901f80'
p2464
asbasbasbag69
(g85
g71
NtRp2465
(dp2466
g74
(dp2467
sg83
g79
sg76
(lp2468
g69
(g90
g71
NtRp2469
(dp2470
g74
(dp2471
g94
g95
ssg83
g2465
sg76
(lp2472
S'vars'
p2473
asbag69
(g90
g71
NtRp2474
(dp2475
g74
(dp2476
g101
g102
ssg83
g2465
sg76
(lp2477
S':'
asbag69
(g90
g71
NtRp2478
(dp2479
g74
(dp2480
sg83
g2465
sg76
(lp2481
g69
(g70
g71
NtRp2482
(dp2483
g74
(dp2484
g82
I5
ssg83
g2478
sg76
(lp2485
g69
(g78
g71
NtRp2486
(dp2487
g74
(dp2488
g82
I4
ssg83
Nsg76
(lp2489
sbasbasbasbag69
(g85
g71
NtRp2490
(dp2491
g74
(dp2492
sg83
g79
sg76
(lp2493
g69
(g90
g71
NtRp2494
(dp2495
g74
(dp2496
g94
g95
ssg83
g2490
sg76
(lp2497
S'wsgi'
p2498
asbag69
(g90
g71
NtRp2499
(dp2500
g74
(dp2501
g101
g102
ssg83
g2490
sg76
(lp2502
S':'
asbag69
(g90
g71
NtRp2503
(dp2504
g74
(dp2505
sg83
g2490
sg76
(lp2506
g69
(g70
g71
NtRp2507
(dp2508
g74
(dp2509
g82
I5
ssg83
g2503
sg76
(lp2510
g69
(g78
g71
NtRp2511
(dp2512
g74
(dp2513
g82
I4
ssg83
Nsg76
(lp2514
g69
(g85
g71
NtRp2515
(dp2516
g74
(dp2517
sg83
g2511
sg76
(lp2518
g69
(g90
g71
NtRp2519
(dp2520
g74
(dp2521
g94
g95
ssg83
g2515
sg76
(lp2522
S'environ'
p2523
asbag69
(g90
g71
NtRp2524
(dp2525
g74
(dp2526
g101
g102
ssg83
g2515
sg76
(lp2527
S':'
asbag69
(g90
g71
NtRp2528
(dp2529
g74
(dp2530
sg83
g2515
sg76
(lp2531
g69
(g70
g71
NtRp2532
(dp2533
g74
(dp2534
g82
I4
ssg83
g2528
sg76
(lp2535
g69
(g78
g71
NtRp2536
(dp2537
g74
(dp2538
g82
I3
ssg83
Nsg76
(lp2539
g69
(g85
g71
NtRp2540
(dp2541
g74
(dp2542
sg83
g2536
sg76
(lp2543
g69
(g90
g71
NtRp2544
(dp2545
g74
(dp2546
g94
g95
ssg83
g2540
sg76
(lp2547
S'HTTP_ACCEPT'
p2548
asbag69
(g90
g71
NtRp2549
(dp2550
g74
(dp2551
g101
g102
ssg83
g2540
sg76
(lp2552
S':'
asbag69
(g90
g71
NtRp2553
(dp2554
g74
(dp2555
sg83
g2540
sg76
(lp2556
g69
(g70
g71
NtRp2557
(dp2558
g74
(dp2559
g82
I3
ssg83
g2553
sg76
(lp2560
g1027
asbasbasbag69
(g85
g71
NtRp2561
(dp2562
g74
(dp2563
sg83
g2536
sg76
(lp2564
g69
(g90
g71
NtRp2565
(dp2566
g74
(dp2567
g94
g95
ssg83
g2561
sg76
(lp2568
S'HTTP_ACCEPT_CHARSET'
p2569
asbag69
(g90
g71
NtRp2570
(dp2571
g74
(dp2572
g101
g102
ssg83
g2561
sg76
(lp2573
S':'
asbag69
(g90
g71
NtRp2574
(dp2575
g74
(dp2576
sg83
g2561
sg76
(lp2577
g69
(g70
g71
NtRp2578
(dp2579
g74
(dp2580
g82
I3
ssg83
g2574
sg76
(lp2581
g1049
asbasbasbag69
(g85
g71
NtRp2582
(dp2583
g74
(dp2584
sg83
g2536
sg76
(lp2585
g69
(g90
g71
NtRp2586
(dp2587
g74
(dp2588
g94
g95
ssg83
g2582
sg76
(lp2589
S'HTTP_ACCEPT_ENCODING'
p2590
asbag69
(g90
g71
NtRp2591
(dp2592
g74
(dp2593
g101
g102
ssg83
g2582
sg76
(lp2594
S':'
asbag69
(g90
g71
NtRp2595
(dp2596
g74
(dp2597
sg83
g2582
sg76
(lp2598
g69
(g70
g71
NtRp2599
(dp2600
g74
(dp2601
g82
I3
ssg83
g2595
sg76
(lp2602
g1071
asbasbasbag69
(g85
g71
NtRp2603
(dp2604
g74
(dp2605
sg83
g2536
sg76
(lp2606
g69
(g90
g71
NtRp2607
(dp2608
g74
(dp2609
g94
g95
ssg83
g2603
sg76
(lp2610
S'HTTP_ACCEPT_LANGUAGE'
p2611
asbag69
(g90
g71
NtRp2612
(dp2613
g74
(dp2614
g101
g102
ssg83
g2603
sg76
(lp2615
S':'
asbag69
(g90
g71
NtRp2616
(dp2617
g74
(dp2618
sg83
g2603
sg76
(lp2619
g69
(g70
g71
NtRp2620
(dp2621
g74
(dp2622
g82
I3
ssg83
g2616
sg76
(lp2623
g1093
asbasbasbag69
(g85
g71
NtRp2624
(dp2625
g74
(dp2626
sg83
g2536
sg76
(lp2627
g69
(g90
g71
NtRp2628
(dp2629
g74
(dp2630
g94
g95
ssg83
g2624
sg76
(lp2631
S'HTTP_CACHE_CONTROL'
p2632
asbag69
(g90
g71
NtRp2633
(dp2634
g74
(dp2635
g101
g102
ssg83
g2624
sg76
(lp2636
S':'
asbag69
(g90
g71
NtRp2637
(dp2638
g74
(dp2639
sg83
g2624
sg76
(lp2640
g69
(g70
g71
NtRp2641
(dp2642
g74
(dp2643
g82
I3
ssg83
g2637
sg76
(lp2644
g1115
asbasbasbag69
(g85
g71
NtRp2645
(dp2646
g74
(dp2647
sg83
g2536
sg76
(lp2648
g69
(g90
g71
NtRp2649
(dp2650
g74
(dp2651
g94
g95
ssg83
g2645
sg76
(lp2652
S'HTTP_CONNECTION'
p2653
asbag69
(g90
g71
NtRp2654
(dp2655
g74
(dp2656
g101
g102
ssg83
g2645
sg76
(lp2657
S':'
asbag69
(g90
g71
NtRp2658
(dp2659
g74
(dp2660
sg83
g2645
sg76
(lp2661
g69
(g70
g71
NtRp2662
(dp2663
g74
(dp2664
g82
I3
ssg83
g2658
sg76
(lp2665
g1137
asbasbasbag69
(g85
g71
NtRp2666
(dp2667
g74
(dp2668
sg83
g2536
sg76
(lp2669
g69
(g90
g71
NtRp2670
(dp2671
g74
(dp2672
g94
g95
ssg83
g2666
sg76
(lp2673
S'HTTP_COOKIE'
p2674
asbag69
(g90
g71
NtRp2675
(dp2676
g74
(dp2677
g101
g102
ssg83
g2666
sg76
(lp2678
S':'
asbag69
(g90
g71
NtRp2679
(dp2680
g74
(dp2681
sg83
g2666
sg76
(lp2682
g69
(g70
g71
NtRp2683
(dp2684
g74
(dp2685
g82
I3
ssg83
g2679
sg76
(lp2686
g1159
asbasbasbag69
(g85
g71
NtRp2687
(dp2688
g74
(dp2689
sg83
g2536
sg76
(lp2690
g69
(g90
g71
NtRp2691
(dp2692
g74
(dp2693
g94
g95
ssg83
g2687
sg76
(lp2694
S'HTTP_HOST'
p2695
asbag69
(g90
g71
NtRp2696
(dp2697
g74
(dp2698
g101
g102
ssg83
g2687
sg76
(lp2699
S':'
asbag69
(g90
g71
NtRp2700
(dp2701
g74
(dp2702
sg83
g2687
sg76
(lp2703
g69
(g70
g71
NtRp2704
(dp2705
g74
(dp2706
g82
I3
ssg83
g2700
sg76
(lp2707
g1181
asbasbasbag69
(g85
g71
NtRp2708
(dp2709
g74
(dp2710
sg83
g2536
sg76
(lp2711
g69
(g90
g71
NtRp2712
(dp2713
g74
(dp2714
g94
g95
ssg83
g2708
sg76
(lp2715
S'HTTP_REFERER'
p2716
asbag69
(g90
g71
NtRp2717
(dp2718
g74
(dp2719
g101
g102
ssg83
g2708
sg76
(lp2720
S':'
asbag69
(g90
g71
NtRp2721
(dp2722
g74
(dp2723
sg83
g2708
sg76
(lp2724
g69
(g70
g71
NtRp2725
(dp2726
g74
(dp2727
g82
I3
ssg83
g2721
sg76
(lp2728
g1203
asbasbasbag69
(g85
g71
NtRp2729
(dp2730
g74
(dp2731
sg83
g2536
sg76
(lp2732
g69
(g90
g71
NtRp2733
(dp2734
g74
(dp2735
g94
g95
ssg83
g2729
sg76
(lp2736
S'HTTP_USER_AGENT'
p2737
asbag69
(g90
g71
NtRp2738
(dp2739
g74
(dp2740
g101
g102
ssg83
g2729
sg76
(lp2741
S':'
asbag69
(g90
g71
NtRp2742
(dp2743
g74
(dp2744
sg83
g2729
sg76
(lp2745
g69
(g70
g71
NtRp2746
(dp2747
g74
(dp2748
g82
I3
ssg83
g2742
sg76
(lp2749
g1225
asbasbasbag69
(g85
g71
NtRp2750
(dp2751
g74
(dp2752
sg83
g2536
sg76
(lp2753
g69
(g90
g71
NtRp2754
(dp2755
g74
(dp2756
g94
g95
ssg83
g2750
sg76
(lp2757
S'PATH_INFO'
p2758
asbag69
(g90
g71
NtRp2759
(dp2760
g74
(dp2761
g101
g102
ssg83
g2750
sg76
(lp2762
S':'
asbag69
(g90
g71
NtRp2763
(dp2764
g74
(dp2765
sg83
g2750
sg76
(lp2766
g69
(g70
g71
NtRp2767
(dp2768
g74
(dp2769
g82
I3
ssg83
g2763
sg76
(lp2770
g1289
asbasbasbag69
(g85
g71
NtRp2771
(dp2772
g74
(dp2773
sg83
g2536
sg76
(lp2774
g69
(g90
g71
NtRp2775
(dp2776
g74
(dp2777
g94
g95
ssg83
g2771
sg76
(lp2778
S'QUERY_STRING'
p2779
asbag69
(g90
g71
NtRp2780
(dp2781
g74
(dp2782
g101
g102
ssg83
g2771
sg76
(lp2783
S':'
asbag69
(g90
g71
NtRp2784
(dp2785
g74
(dp2786
sg83
g2771
sg76
(lp2787
g69
(g70
g71
NtRp2788
(dp2789
g74
(dp2790
g82
I3
ssg83
g2784
sg76
(lp2791
S''
asbasbasbag69
(g85
g71
NtRp2792
(dp2793
g74
(dp2794
sg83
g2536
sg76
(lp2795
g69
(g90
g71
NtRp2796
(dp2797
g74
(dp2798
g94
g95
ssg83
g2792
sg76
(lp2799
S'REMOTE_ADDR'
p2800
asbag69
(g90
g71
NtRp2801
(dp2802
g74
(dp2803
g101
g102
ssg83
g2792
sg76
(lp2804
S':'
asbag69
(g90
g71
NtRp2805
(dp2806
g74
(dp2807
sg83
g2792
sg76
(lp2808
g69
(g70
g71
NtRp2809
(dp2810
g74
(dp2811
g82
I3
ssg83
g2805
sg76
(lp2812
g214
asbasbasbag69
(g85
g71
NtRp2813
(dp2814
g74
(dp2815
sg83
g2536
sg76
(lp2816
g69
(g90
g71
NtRp2817
(dp2818
g74
(dp2819
g94
g95
ssg83
g2813
sg76
(lp2820
S'REMOTE_PORT'
p2821
asbag69
(g90
g71
NtRp2822
(dp2823
g74
(dp2824
g101
g102
ssg83
g2813
sg76
(lp2825
S':'
asbag69
(g90
g71
NtRp2826
(dp2827
g74
(dp2828
sg83
g2813
sg76
(lp2829
g69
(g70
g71
NtRp2830
(dp2831
g74
(dp2832
g82
I3
ssg83
g2826
sg76
(lp2833
g1353
asbasbasbag69
(g85
g71
NtRp2834
(dp2835
g74
(dp2836
sg83
g2536
sg76
(lp2837
g69
(g90
g71
NtRp2838
(dp2839
g74
(dp2840
g94
g95
ssg83
g2834
sg76
(lp2841
S'REQUEST_METHOD'
p2842
asbag69
(g90
g71
NtRp2843
(dp2844
g74
(dp2845
g101
g102
ssg83
g2834
sg76
(lp2846
S':'
asbag69
(g90
g71
NtRp2847
(dp2848
g74
(dp2849
sg83
g2834
sg76
(lp2850
g69
(g70
g71
NtRp2851
(dp2852
g74
(dp2853
g82
I3
ssg83
g2847
sg76
(lp2854
g1375
asbasbasbag69
(g85
g71
NtRp2855
(dp2856
g74
(dp2857
sg83
g2536
sg76
(lp2858
g69
(g90
g71
NtRp2859
(dp2860
g74
(dp2861
g94
g95
ssg83
g2855
sg76
(lp2862
S'REQUEST_URI'
p2863
asbag69
(g90
g71
NtRp2864
(dp2865
g74
(dp2866
g101
g102
ssg83
g2855
sg76
(lp2867
S':'
asbag69
(g90
g71
NtRp2868
(dp2869
g74
(dp2870
sg83
g2855
sg76
(lp2871
g69
(g70
g71
NtRp2872
(dp2873
g74
(dp2874
g82
I3
ssg83
g2868
sg76
(lp2875
g1289
asbasbasbag69
(g85
g71
NtRp2876
(dp2877
g74
(dp2878
sg83
g2536
sg76
(lp2879
g69
(g90
g71
NtRp2880
(dp2881
g74
(dp2882
g94
g95
ssg83
g2876
sg76
(lp2883
S'SCRIPT_NAME'
p2884
asbag69
(g90
g71
NtRp2885
(dp2886
g74
(dp2887
g101
g102
ssg83
g2876
sg76
(lp2888
S':'
asbag69
(g90
g71
NtRp2889
(dp2890
g74
(dp2891
sg83
g2876
sg76
(lp2892
g69
(g70
g71
NtRp2893
(dp2894
g74
(dp2895
g82
I3
ssg83
g2889
sg76
(lp2896
S''
asbasbasbag69
(g85
g71
NtRp2897
(dp2898
g74
(dp2899
sg83
g2536
sg76
(lp2900
g69
(g90
g71
NtRp2901
(dp2902
g74
(dp2903
g94
g95
ssg83
g2897
sg76
(lp2904
S'SERVER_NAME'
p2905
asbag69
(g90
g71
NtRp2906
(dp2907
g74
(dp2908
g101
g102
ssg83
g2897
sg76
(lp2909
S':'
asbag69
(g90
g71
NtRp2910
(dp2911
g74
(dp2912
sg83
g2897
sg76
(lp2913
g69
(g70
g71
NtRp2914
(dp2915
g74
(dp2916
g82
I3
ssg83
g2910
sg76
(lp2917
g1439
asbasbasbag69
(g85
g71
NtRp2918
(dp2919
g74
(dp2920
sg83
g2536
sg76
(lp2921
g69
(g90
g71
NtRp2922
(dp2923
g74
(dp2924
g94
g95
ssg83
g2918
sg76
(lp2925
S'SERVER_PORT'
p2926
asbag69
(g90
g71
NtRp2927
(dp2928
g74
(dp2929
g101
g102
ssg83
g2918
sg76
(lp2930
S':'
asbag69
(g90
g71
NtRp2931
(dp2932
g74
(dp2933
sg83
g2918
sg76
(lp2934
g69
(g70
g71
NtRp2935
(dp2936
g74
(dp2937
g82
I3
ssg83
g2931
sg76
(lp2938
g1461
asbasbasbag69
(g85
g71
NtRp2939
(dp2940
g74
(dp2941
sg83
g2536
sg76
(lp2942
g69
(g90
g71
NtRp2943
(dp2944
g74
(dp2945
g94
g95
ssg83
g2939
sg76
(lp2946
S'SERVER_PROTOCOL'
p2947
asbag69
(g90
g71
NtRp2948
(dp2949
g74
(dp2950
g101
g102
ssg83
g2939
sg76
(lp2951
S':'
asbag69
(g90
g71
NtRp2952
(dp2953
g74
(dp2954
sg83
g2939
sg76
(lp2955
g69
(g70
g71
NtRp2956
(dp2957
g74
(dp2958
g82
I3
ssg83
g2952
sg76
(lp2959
g1483
asbasbasbag69
(g85
g71
NtRp2960
(dp2961
g74
(dp2962
sg83
g2536
sg76
(lp2963
g69
(g90
g71
NtRp2964
(dp2965
g74
(dp2966
g94
g95
ssg83
g2960
sg76
(lp2967
S'SERVER_SOFTWARE'
p2968
asbag69
(g90
g71
NtRp2969
(dp2970
g74
(dp2971
g101
g102
ssg83
g2960
sg76
(lp2972
S':'
asbag69
(g90
g71
NtRp2973
(dp2974
g74
(dp2975
sg83
g2960
sg76
(lp2976
g69
(g70
g71
NtRp2977
(dp2978
g74
(dp2979
g82
I3
ssg83
g2973
sg76
(lp2980
g1505
asbasbasbag69
(g85
g71
NtRp2981
(dp2982
g74
(dp2983
sg83
g2536
sg76
(lp2984
g69
(g90
g71
NtRp2985
(dp2986
g74
(dp2987
g94
g95
ssg83
g2981
sg76
(lp2988
S'WEB2PY_ORIGINAL_URI'
p2989
asbag69
(g90
g71
NtRp2990
(dp2991
g74
(dp2992
g101
g102
ssg83
g2981
sg76
(lp2993
S':'
asbag69
(g90
g71
NtRp2994
(dp2995
g74
(dp2996
sg83
g2981
sg76
(lp2997
g69
(g70
g71
NtRp2998
(dp2999
g74
(dp3000
g82
I3
ssg83
g2994
sg76
(lp3001
g1289
asbasbasbag69
(g85
g71
NtRp3002
(dp3003
g74
(dp3004
sg83
g2536
sg76
(lp3005
g69
(g90
g71
NtRp3006
(dp3007
g74
(dp3008
g94
g95
ssg83
g3002
sg76
(lp3009
S'wsgi.errors'
p3010
asbag69
(g90
g71
NtRp3011
(dp3012
g74
(dp3013
g101
g102
ssg83
g3002
sg76
(lp3014
S':'
asbag69
(g90
g71
NtRp3015
(dp3016
g74
(dp3017
sg83
g3002
sg76
(lp3018
g69
(g70
g71
NtRp3019
(dp3020
g74
(dp3021
g82
I3
ssg83
g3015
sg76
(lp3022
S"<open file '<stderr>', mode 'w' at 0x7fb4b1797270>"
p3023
asbasbasbag69
(g85
g71
NtRp3024
(dp3025
g74
(dp3026
sg83
g2536
sg76
(lp3027
g69
(g90
g71
NtRp3028
(dp3029
g74
(dp3030
g94
g95
ssg83
g3024
sg76
(lp3031
S'wsgi.file_wrapper'
p3032
asbag69
(g90
g71
NtRp3033
(dp3034
g74
(dp3035
g101
g102
ssg83
g3024
sg76
(lp3036
S':'
asbag69
(g90
g71
NtRp3037
(dp3038
g74
(dp3039
sg83
g3024
sg76
(lp3040
g69
(g70
g71
NtRp3041
(dp3042
g74
(dp3043
g82
I3
ssg83
g3037
sg76
(lp3044
S'<class wsgiref.util.FileWrapper at 0x1bf5f58>'
p3045
asbasbasbag69
(g85
g71
NtRp3046
(dp3047
g74
(dp3048
sg83
g2536
sg76
(lp3049
g69
(g90
g71
NtRp3050
(dp3051
g74
(dp3052
g94
g95
ssg83
g3046
sg76
(lp3053
S'wsgi.input'
p3054
asbag69
(g90
g71
NtRp3055
(dp3056
g74
(dp3057
g101
g102
ssg83
g3046
sg76
(lp3058
S':'
asbag69
(g90
g71
NtRp3059
(dp3060
g74
(dp3061
sg83
g3046
sg76
(lp3062
g69
(g70
g71
NtRp3063
(dp3064
g74
(dp3065
g82
I3
ssg83
g3059
sg76
(lp3066
S'<cStringIO.StringO object at 0x7fb4a048b960>'
p3067
asbasbasbag69
(g85
g71
NtRp3068
(dp3069
g74
(dp3070
sg83
g2536
sg76
(lp3071
g69
(g90
g71
NtRp3072
(dp3073
g74
(dp3074
g94
g95
ssg83
g3068
sg76
(lp3075
S'wsgi.multiprocess'
p3076
asbag69
(g90
g71
NtRp3077
(dp3078
g74
(dp3079
g101
g102
ssg83
g3068
sg76
(lp3080
S':'
asbag69
(g90
g71
NtRp3081
(dp3082
g74
(dp3083
sg83
g3068
sg76
(lp3084
g69
(g70
g71
NtRp3085
(dp3086
g74
(dp3087
g82
I3
ssg83
g3081
sg76
(lp3088
g112
asbasbasbag69
(g85
g71
NtRp3089
(dp3090
g74
(dp3091
sg83
g2536
sg76
(lp3092
g69
(g90
g71
NtRp3093
(dp3094
g74
(dp3095
g94
g95
ssg83
g3089
sg76
(lp3096
S'wsgi.multithread'
p3097
asbag69
(g90
g71
NtRp3098
(dp3099
g74
(dp3100
g101
g102
ssg83
g3089
sg76
(lp3101
S':'
asbag69
(g90
g71
NtRp3102
(dp3103
g74
(dp3104
sg83
g3089
sg76
(lp3105
g69
(g70
g71
NtRp3106
(dp3107
g74
(dp3108
g82
I3
ssg83
g3102
sg76
(lp3109
g1766
asbasbasbag69
(g85
g71
NtRp3110
(dp3111
g74
(dp3112
sg83
g2536
sg76
(lp3113
g69
(g90
g71
NtRp3114
(dp3115
g74
(dp3116
g94
g95
ssg83
g3110
sg76
(lp3117
S'wsgi.run_once'
p3118
asbag69
(g90
g71
NtRp3119
(dp3120
g74
(dp3121
g101
g102
ssg83
g3110
sg76
(lp3122
S':'
asbag69
(g90
g71
NtRp3123
(dp3124
g74
(dp3125
sg83
g3110
sg76
(lp3126
g69
(g70
g71
NtRp3127
(dp3128
g74
(dp3129
g82
I3
ssg83
g3123
sg76
(lp3130
g112
asbasbasbag69
(g85
g71
NtRp3131
(dp3132
g74
(dp3133
sg83
g2536
sg76
(lp3134
g69
(g90
g71
NtRp3135
(dp3136
g74
(dp3137
g94
g95
ssg83
g3131
sg76
(lp3138
S'wsgi.url_scheme'
p3139
asbag69
(g90
g71
NtRp3140
(dp3141
g74
(dp3142
g101
g102
ssg83
g3131
sg76
(lp3143
S':'
asbag69
(g90
g71
NtRp3144
(dp3145
g74
(dp3146
sg83
g3131
sg76
(lp3147
g69
(g70
g71
NtRp3148
(dp3149
g74
(dp3150
g82
I3
ssg83
g3144
sg76
(lp3151
g1809
asbasbasbag69
(g85
g71
NtRp3152
(dp3153
g74
(dp3154
sg83
g2536
sg76
(lp3155
g69
(g90
g71
NtRp3156
(dp3157
g74
(dp3158
g94
g95
ssg83
g3152
sg76
(lp3159
S'wsgi.version'
p3160
asbag69
(g90
g71
NtRp3161
(dp3162
g74
(dp3163
g101
g102
ssg83
g3152
sg76
(lp3164
S':'
asbag69
(g90
g71
NtRp3165
(dp3166
g74
(dp3167
sg83
g3152
sg76
(lp3168
g69
(g70
g71
NtRp3169
(dp3170
g74
(dp3171
g82
I3
ssg83
g3165
sg76
(lp3172
S'1'
asbasbasbasbasbasbasbasbasbasbasbasbasbsS'frames'
p3173
(lp3174
(dp3175
S'file'
p3176
S'/home/goshawk/web2py/gluon/restricted.py'
p3177
sS'dump'
p3178
(dp3179
S'environment'
p3180
S"{'A': <class 'gluon.html.A'>, 'Auth': <class 'gluon.tools.Auth'>, 'B': <class 'gluon.html.B'>, 'BEAUTIFY': <class 'gluon.html.BEAUTIFY'>, 'BODY': <class 'gluon.html.BODY'>, 'BR': <class 'gluon.html.BR'>, 'BUTTON': <class 'gluon.html.BUTTON'>, 'CAT': <class 'gluon.html.CAT'>, 'CENTER': <class 'gluon.html.CENTER'>, 'CLEANUP': <class 'gluon.validators.CLEANUP'>, ...}"
p3181
sS'ccode'
p3182
S'<code object <module> at 0x7fb49c309bb0, file "/...lications/milo/views/default/index.html", line 1>'
p3183
ssS'lnum'
p3184
I205
sS'lines'
p3185
(dp3186
I200
S'    try:'
p3187
sI201
S'        if type(code) == types.CodeType:'
p3188
sI202
S'            ccode = code'
p3189
sI203
S'        else:'
p3190
sI204
S'            ccode = compile2(code,layer)'
p3191
sI205
S'        exec ccode in environment'
p3192
sI206
S'    except HTTP:'
p3193
sI207
S'        raise'
p3194
sI208
S'    except RestrictedError:'
p3195
sI209
S'        # do not encapsulate (obfuscate) the original RestrictedError'
p3196
ssS'call'
p3197
S'(code=r"left_sidebar_enabled,right_sidebar_enabled=False...ponse.write(\'\\n</body>\\n</html>\\n\', escape=False)", environment={\'A\': <class \'gluon.html.A\'>, \'Auth\': <class \'gluon.tools.Auth\'>, \'B\': <class \'gluon.html.B\'>, \'BEAUTIFY\': <class \'gluon.html.BEAUTIFY\'>, \'BODY\': <class \'gluon.html.BODY\'>, \'BR\': <class \'gluon.html.BR\'>, \'BUTTON\': <class \'gluon.html.BUTTON\'>, \'CAT\': <class \'gluon.html.CAT\'>, \'CENTER\': <class \'gluon.html.CENTER\'>, \'CLEANUP\': <class \'gluon.validators.CLEANUP\'>, ...}, layer=\'/home/goshawk/web2py/applications/milo/views/default/index.html\')'
p3198
sS'func'
p3199
S'restricted'
p3200
sa(dp3201
g3176
S'/home/goshawk/web2py/applications/milo/views/default/index.html'
p3202
sg3178
(dp3203
S'page'
p3204
S'1'
ssg3184
I97
sg3185
(dp3205
I96
S'    response.write(\'">\\n            \\t<div class="post-thumbnail">\\n            \\t<a class="thumbnail-frame" title="See the trailer and details">\\n            \\t<img width="180" height="260" src="\', escape=False)'
p3206
sI97
S"    response.write(URL('static', movie.get('poster')))"
p3207
sI98
S'    response.write(\'" class="recommended-post-thumbnail"/>\\t\\t\\t\\t\\n\\t\\t\\t\\t</a>            \\n            \\t</div><!--post-thumbnail-->\\n\\n              \\t<h2><a href="http://www.imdb.com/title/tt\', escape=False)'
p3208
sI99
S"    response.write(movie.get('imdb_id'))"
p3209
sI100
S'    response.write(\'/" title="Go to this movie page">\', escape=False)'
p3210
sI101
S"    response.write(movie.get('title'))"
p3211
sI102
S'    response.write(\'</a><span title="Release Date">(${movie.date.strftime(\\\'%Y\\\')})</span></h2>\\n\\n              \\t<ul class="post-meta">\\n<!--               \\t <li class="date">Release date: ${movie.date.strftime(\\\'%Y\\\')}</li>\\n-->\\n\\t\\t\\t\\t\\t<tal:logged condition="logged">\\n\\t\\t\\t\\t\\t<li class="info info-logged">\\n\\t\\t\\t\\t\\t\\t<span>Rated it: </span>\\n\\t\\t\\t\\t\\t\\t<a href="javascript:panel_down(&quot;${request.resource_url(request.root, query=dict(rec=\\\'new\\\'))}&quot;,&quot;A new recommendation is available. Do you want to load it?&quot;);" title="Like this movie"><img width="18" height="18" src="${request.static_url(\\\'milo_app:static/images/icons/fatcow/32x32/thumb_up.png\\\')}"></a>\\n\\t\\t\\t\\t\\t\\t<a href="javascript:panel_down(&quot;${request.resource_url(request.root, query=dict(rec=\\\'new\\\'))}&quot;,&quot;A new recommendation is available. Do you want to load it?&quot;);" title="Dislike this movie"><img width="18" height="18" src="${request.static_url(\\\'milo_app:static/images/icons/fatcow/32x32/thumb_down.png\\\')}"></a>\\n\\t\\t\\t\\t\\t</li>\\n\\t\\t\\t\\t\\t</tal:logged>\\n\\t\\t\\t\\t\\t<li class="info"><img src="${request.static_url(\\\'milo_app:static/images/icons/play.png\\\')}"/>Views: <span>2.000</span> </li>\\n\\t\\t\\t\\t\\t<li class="info"><img src="${request.static_url(\\\'milo_app:static/images/icons/heart.png\\\')}"/><span>70%</span> of raters liked</li>\\n\\t\\t\\t\\t\\t<li class="genre">Genre: <tal:genres repeat="g movie.genre"><b>${g}&nbsp;</tal:genres></li>\\n\\n                \\t<li class="comments"><a href="#comments" title="View comments about this movie">${len(movie.comments)} Comments</a></li>\\n              </ul>\\n            </div>\\n            <!-- movie-item , first_page=\\\'false\\\')-->\\n\\t\\t\\t\', escape=False)'
p3212
sI103
S'    pass'
p3213
sI104
S'response.write(\'\\t\\t\\t\\n\\t\\t\\t<!--Next/Previous buttons-->\\n\\t\\t\\t<metal:prev_next metal:define-slot="prev_next">\\n\\t\\t\\t<div id="posts-footer">\\n\\t\\t\\t\\t\', escape=False)'
p3214
sI105
S'if page*items_per_page < max_items:'
p3215
sI106
S'    response.write(\'\\n\\t\\t\\t\\t<a id="next-bottom-button" href="\', escape=False)'
p3216
sI107
S'    response.write(URL(args=[page+1]))'
p3217
sI88
S'response.write(\' columns center">\\n          \', escape=False)'
p3218
sI89
S"response.write('\\n          ', escape=False)"
p3219
sI90
S'response.write(\'\\n<div id="content-inside">\\n      <div id="coda-nav">\\n            <div class="coda-slider" id="slider">\\n              <div class="panel">\\n                <div class="slider-post">\\n\\t\\t\\t\\t <a tal:attributes="href request.resource_url(request.root, \\\'Movie\\\',\\\'details\\\', movie.title)">\\n                  <img src="response.files.append(URL(\\\'static\\\',\\\'js/superfish.js\\\'))movie_data/\\\'+movie.image)"/>\\n                  class="slider-image" alt="${movie.title}" title="${movie.title}" />\\n                  </a>\\n                  <div class="slider-movie-description">\\n\\t\\t\\t\\t\\t<h2 tal:condition="logged"><a tal:attributes="href request.resource_url(request.root, \\\'Recommended\\\')" >Recommended for you!</a></h2>\\n                    <h2 tal:condition="not logged"><a tal:attributes="href request.resource_url(request.root, \\\'Popular\\\')" >Top ${repeat.movie.number} Movie</a></h2>\\n                    <h3><a tal:attributes="href request.resource_url(request.root, \\\'Movie\\\',\\\'details\\\', movie.title)" >${movie.title}</a></h3>\\n                    <p tal:condition="movie.description">${movie.description[:120]+\\\'...\\\'}</p>\\n                    <a class="continue" tal:attributes="href request.resource_url(request.root, \\\'Movie\\\',\\\'details\\\', movie.title)" title="More"></a>\\n                    \\n\\t\\t\\t\\t\\t<tal:logged condition="logged">\\n\\t\\t\\t\\t\\t<div class="recommend-thumbs-slider">\\n\\t\\t\\t\\t\\t\\t<a href="javascript:panel_down(\\\'${request.resource_url(request.root, query=dict(rec=\\\'new\\\'))}\\\',\\\'A new recommendation is available. Do you want to load it?\\\');" title="Like this movie">Like <img width="20" height="20" src="${request.static_url(\\\'milo_app:static/images/icons/fatcow/32x32/thumb_up.png\\\')}"></a>\\n\\t\\t\\t\\t\\t\\t<a href="javascript:panel_down(\\\'${request.resource_url(request.root, query=dict(rec=\\\'new\\\'))}\\\',\\\'A new recommendation is available. Do you want to load it?\\\');" title="Dislike this movie">Dislike <img width="20" height="20" src="${request.static_url(\\\'milo_app:static/images/icons/fatcow/32x32/thumb_down.png\\\')}"></a>\\n\\t\\t\\t\\t\\t</div><!--Recommended-thumbs-slider-->\\n\\t\\t\\t\\t\\t</tal:logged>\\t\\n                    \\n                    <div class="slider-movie-details">\\n\\t\\t\\t\\t\\t<ul> \\n\\t\\t\\t\\t\\t\\t<!--<li class="date-slider">Release date: ${movie.date.strftime(\\\'%Y\\\')}</li>-->\\n\\t\\t\\t\\t\\t\\t<li class="info-slider"><img src="${request.static_url(\\\'milo_app:static/images/icons/play.png\\\')}"/>Views: <span>2.000</span> </li>\\n\\t\\t\\t\\t\\t\\t<li class="info-slider"><img src="${request.static_url(\\\'milo_app:static/images/icons/heart.png\\\')}"/><span>70%</span> of raters liked</li>\\n\\t\\t\\t\\t\\t\\t<li class="genre-slider">Genre: <tal:genres repeat="g movie.genre"><b>${g}&nbsp;</tal:genres></li>\\n\\t\\t\\t\\t\\t\\t\\n\\t\\t\\t\\t\\t</ul>\\n\\t\\t\\t\\t\\t</div><!-- slider-movie-details-->\\n                  </div><!-- slider-movie-description-->\\n\\n                </div><!-- slider-post -->\\n              </div><!-- panel -->\\n              \\n    \\t\\t</div><!-- coda-slider -->\\n   \\t</div><!-- coda-nav -->\\n\\n\\t<div id="slider-foot">\\n    </div><!-- slider-foot-->\\n\\t\\n\\t\\t<div id="post-container">\\n         <div id="posts">\\n\\t\\t\\t\\t\\n\\t\\t\\t\\t<h2 title="Orientation">\\n\\t\\t\\t\\t<div id="filter">\\n\\t\\t\\t\\t\\tBrowsing ${category} by\\n\\t\\t\\t\\t\\t<select value="${movies.get(\\\'title\\\')}">\\n\\t\\t\\t\\t\\t  <option value="Last updates">\\n\\t\\t\\t\\t\\t\\tLast updates\\n\\t\\t\\t\\t\\t  </option>\\n\\t\\t\\t\\t\\t  <option value="Popularity">\\n\\t\\t\\t\\t\\t\\tPopularity\\n\\t\\t\\t\\t\\t  </option>\\n\\t\\t\\t\\t\\t</select>\\t\\t\\n\\t\\t\\t\\t</div><!-- filter -->\\n\\t\\t\\t\\t</h2>\\n\\t\\t\\t\', escape=False)'
p3220
sI91
S'for movie in list_movies:'
p3221
sI92
S'    response.write(\'\\n            <div class="gallery-item \', escape=False)'
p3222
sI93
S'    if not list_movies.index(movie) % 3:'
p3223
sI94
S"        response.write('clearboth', escape=False)"
p3224
sI95
S'        pass'
p3225
ssg3197
S'()'
p3226
sg3199
S'<module>'
p3227
sa(dp3228
g3176
S'/home/goshawk/web2py/gluon/html.py'
p3229
sg3178
(dp3230
S'builtinSyntaxError'
p3231
S"<type 'exceptions.SyntaxError'>"
p3232
ssg3184
I274
sg3185
(dp3233
I269
S"            function, extension = function.split('.', 1)"
p3234
sI270
S''
sI271
S"    function2 = '%s.%s' % (function,extension or 'html')"
p3235
sI272
S''
sI273
S'    if not (application and controller and function):'
p3236
sI274
S"        raise SyntaxError, 'not enough information to build the url'"
p3237
sI275
S''
sI276
S'    if args:'
p3238
sI277
S'        if url_encode:'
p3239
sI278
S'            if encode_embedded_slash:'
p3240
ssg3197
S"(a=None, c='static', f='', r=<Storage {'body': <cStringIO.StringO object at 0..._vars': <Storage {}>, 'post_vars': <Storage {}>}>, args=['static', 'images', 'movies', 'posters', '120539.jpg'], vars={}, anchor='', extension=None, env=<Storage {'debugging': False, 'http_user_agent':...[]), 'query_string': '', 'wsgi_run_once': False}>, hmac_key=None, hash_vars=True, salt=None, user_signature=None, scheme=None, host=None, port=None, encode_embedded_slash=False, url_encode=True)"
p3241
sg3199
S'URL'
p3242
sasS'pyver'
p3243
S'Python 2.7.3: /usr/bin/python'
p3244
sS'session'
p3245
g69
(g70
g71
NtRp3246
(dp3247
g74
(dp3248
sg76
(lp3249
g69
(g78
g71
NtRp3250
(dp3251
g74
(dp3252
g82
I5
ssg83
Nsg76
(lp3253
g69
(g85
g71
NtRp3254
(dp3255
g74
(dp3256
sg83
g3250
sg76
(lp3257
g69
(g90
g71
NtRp3258
(dp3259
g74
(dp3260
g94
g95
ssg83
g3254
sg76
(lp3261
S'last_query'
p3262
asbag69
(g90
g71
NtRp3263
(dp3264
g74
(dp3265
g101
g102
ssg83
g3254
sg76
(lp3266
S':'
asbag69
(g90
g71
NtRp3267
(dp3268
g74
(dp3269
sg83
g3254
sg76
(lp3270
g69
(g70
g71
NtRp3271
(dp3272
g74
(dp3273
g82
I5
ssg83
g3267
sg76
(lp3274
S"~(db.movies.poster.startswith('h'))"
p3275
asbasbasbasbasbsS'etype'
p3276
S"<type 'exceptions.SyntaxError'>"
p3277
sS'date'
p3278
S'Fri Jul 20 08:46:07 2012'
p3279
sS'response'
p3280
g69
(g70
g71
NtRp3281
(dp3282
g74
(dp3283
sg76
(lp3284
g69
(g78
g71
NtRp3285
(dp3286
g74
(dp3287
g82
I5
ssg83
Nsg76
(lp3288
g69
(g85
g71
NtRp3289
(dp3290
g74
(dp3291
sg83
g3285
sg76
(lp3292
g69
(g90
g71
NtRp3293
(dp3294
g74
(dp3295
g94
g95
ssg83
g3289
sg76
(lp3296
g179
asbag69
(g90
g71
NtRp3297
(dp3298
g74
(dp3299
g101
g102
ssg83
g3289
sg76
(lp3300
S':'
asbag69
(g90
g71
NtRp3301
(dp3302
g74
(dp3303
sg83
g3289
sg76
(lp3304
g69
(g70
g71
NtRp3305
(dp3306
g74
(dp3307
g82
I5
ssg83
g3301
sg76
(lp3308
S'<cStringIO.StringO object at 0x7fb4a048ba78>'
p3309
asbasbasbag69
(g85
g71
NtRp3310
(dp3311
g74
(dp3312
sg83
g3285
sg76
(lp3313
g69
(g90
g71
NtRp3314
(dp3315
g74
(dp3316
g94
g95
ssg83
g3310
sg76
(lp3317
g245
asbag69
(g90
g71
NtRp3318
(dp3319
g74
(dp3320
g101
g102
ssg83
g3310
sg76
(lp3321
S':'
asbag69
(g90
g71
NtRp3322
(dp3323
g74
(dp3324
sg83
g3310
sg76
(lp3325
g69
(g70
g71
NtRp3326
(dp3327
g74
(dp3328
g82
I5
ssg83
g3322
sg76
(lp3329
g69
(g78
g71
NtRp3330
(dp3331
g74
(dp3332
g82
I4
ssg83
Nsg76
(lp3333
g69
(g85
g71
NtRp3334
(dp3335
g74
(dp3336
sg83
g3330
sg76
(lp3337
g69
(g90
g71
NtRp3338
(dp3339
g74
(dp3340
g94
g95
ssg83
g3334
sg76
(lp3341
S'session_id_milo'
p3342
asbag69
(g90
g71
NtRp3343
(dp3344
g74
(dp3345
g101
g102
ssg83
g3334
sg76
(lp3346
S':'
asbag69
(g90
g71
NtRp3347
(dp3348
g74
(dp3349
sg83
g3334
sg76
(lp3350
g69
(g70
g71
NtRp3351
(dp3352
g74
(dp3353
g82
I4
ssg83
g3347
sg76
(lp3354
g69
(g78
g71
NtRp3355
(dp3356
g74
(dp3357
g82
I3
ssg83
Nsg76
(lp3358
g69
(g85
g71
NtRp3359
(dp3360
g74
(dp3361
sg83
g3355
sg76
(lp3362
g69
(g90
g71
NtRp3363
(dp3364
g74
(dp3365
g94
g95
ssg83
g3359
sg76
(lp3366
g295
asbag69
(g90
g71
NtRp3367
(dp3368
g74
(dp3369
g101
g102
ssg83
g3359
sg76
(lp3370
S':'
asbag69
(g90
g71
NtRp3371
(dp3372
g74
(dp3373
sg83
g3359
sg76
(lp3374
g69
(g70
g71
NtRp3375
(dp3376
g74
(dp3377
g82
I3
ssg83
g3371
sg76
(lp3378
S''
asbasbasbag69
(g85
g71
NtRp3379
(dp3380
g74
(dp3381
sg83
g3355
sg76
(lp3382
g69
(g90
g71
NtRp3383
(dp3384
g74
(dp3385
g94
g95
ssg83
g3379
sg76
(lp3386
g316
asbag69
(g90
g71
NtRp3387
(dp3388
g74
(dp3389
g101
g102
ssg83
g3379
sg76
(lp3390
S':'
asbag69
(g90
g71
NtRp3391
(dp3392
g74
(dp3393
sg83
g3379
sg76
(lp3394
g69
(g70
g71
NtRp3395
(dp3396
g74
(dp3397
g82
I3
ssg83
g3391
sg76
(lp3398
S''
asbasbasbag69
(g85
g71
NtRp3399
(dp3400
g74
(dp3401
sg83
g3355
sg76
(lp3402
g69
(g90
g71
NtRp3403
(dp3404
g74
(dp3405
g94
g95
ssg83
g3399
sg76
(lp3406
g337
asbag69
(g90
g71
NtRp3407
(dp3408
g74
(dp3409
g101
g102
ssg83
g3399
sg76
(lp3410
S':'
asbag69
(g90
g71
NtRp3411
(dp3412
g74
(dp3413
sg83
g3399
sg76
(lp3414
g69
(g70
g71
NtRp3415
(dp3416
g74
(dp3417
g82
I3
ssg83
g3411
sg76
(lp3418
S''
asbasbasbag69
(g85
g71
NtRp3419
(dp3420
g74
(dp3421
sg83
g3355
sg76
(lp3422
g69
(g90
g71
NtRp3423
(dp3424
g74
(dp3425
g94
g95
ssg83
g3419
sg76
(lp3426
g358
asbag69
(g90
g71
NtRp3427
(dp3428
g74
(dp3429
g101
g102
ssg83
g3419
sg76
(lp3430
S':'
asbag69
(g90
g71
NtRp3431
(dp3432
g74
(dp3433
sg83
g3419
sg76
(lp3434
g69
(g70
g71
NtRp3435
(dp3436
g74
(dp3437
g82
I3
ssg83
g3431
sg76
(lp3438
S''
asbasbasbag69
(g85
g71
NtRp3439
(dp3440
g74
(dp3441
sg83
g3355
sg76
(lp3442
g69
(g90
g71
NtRp3443
(dp3444
g74
(dp3445
g94
g95
ssg83
g3439
sg76
(lp3446
g379
asbag69
(g90
g71
NtRp3447
(dp3448
g74
(dp3449
g101
g102
ssg83
g3439
sg76
(lp3450
S':'
asbag69
(g90
g71
NtRp3451
(dp3452
g74
(dp3453
sg83
g3439
sg76
(lp3454
g69
(g70
g71
NtRp3455
(dp3456
g74
(dp3457
g82
I3
ssg83
g3451
sg76
(lp3458
S''
asbasbasbag69
(g85
g71
NtRp3459
(dp3460
g74
(dp3461
sg83
g3355
sg76
(lp3462
g69
(g90
g71
NtRp3463
(dp3464
g74
(dp3465
g94
g95
ssg83
g3459
sg76
(lp3466
g400
asbag69
(g90
g71
NtRp3467
(dp3468
g74
(dp3469
g101
g102
ssg83
g3459
sg76
(lp3470
S':'
asbag69
(g90
g71
NtRp3471
(dp3472
g74
(dp3473
sg83
g3459
sg76
(lp3474
g69
(g70
g71
NtRp3475
(dp3476
g74
(dp3477
g82
I3
ssg83
g3471
sg76
(lp3478
S'/'
asbasbasbag69
(g85
g71
NtRp3479
(dp3480
g74
(dp3481
sg83
g3355
sg76
(lp3482
g69
(g90
g71
NtRp3483
(dp3484
g74
(dp3485
g94
g95
ssg83
g3479
sg76
(lp3486
g421
asbag69
(g90
g71
NtRp3487
(dp3488
g74
(dp3489
g101
g102
ssg83
g3479
sg76
(lp3490
S':'
asbag69
(g90
g71
NtRp3491
(dp3492
g74
(dp3493
sg83
g3479
sg76
(lp3494
g69
(g70
g71
NtRp3495
(dp3496
g74
(dp3497
g82
I3
ssg83
g3491
sg76
(lp3498
S''
asbasbasbag69
(g85
g71
NtRp3499
(dp3500
g74
(dp3501
sg83
g3355
sg76
(lp3502
g69
(g90
g71
NtRp3503
(dp3504
g74
(dp3505
g94
g95
ssg83
g3499
sg76
(lp3506
g442
asbag69
(g90
g71
NtRp3507
(dp3508
g74
(dp3509
g101
g102
ssg83
g3499
sg76
(lp3510
S':'
asbag69
(g90
g71
NtRp3511
(dp3512
g74
(dp3513
sg83
g3499
sg76
(lp3514
g69
(g70
g71
NtRp3515
(dp3516
g74
(dp3517
g82
I3
ssg83
g3511
sg76
(lp3518
S''
asbasbasbasbasbasbasbasbasbasbasbag69
(g85
g71
NtRp3519
(dp3520
g74
(dp3521
sg83
g3285
sg76
(lp3522
g69
(g90
g71
NtRp3523
(dp3524
g74
(dp3525
g94
g95
ssg83
g3519
sg76
(lp3526
S'delimiters'
p3527
asbag69
(g90
g71
NtRp3528
(dp3529
g74
(dp3530
g101
g102
ssg83
g3519
sg76
(lp3531
S':'
asbag69
(g90
g71
NtRp3532
(dp3533
g74
(dp3534
sg83
g3519
sg76
(lp3535
g69
(g70
g71
NtRp3536
(dp3537
g74
(dp3538
g82
I5
ssg83
g3532
sg76
(lp3539
g69
(g78
g71
NtRp3540
(dp3541
g74
(dp3542
g82
I4
ssg83
Nsg76
(lp3543
g69
(g85
g71
NtRp3544
(dp3545
g74
(dp3546
sg83
g3540
sg76
(lp3547
g69
(g90
g71
NtRp3548
(dp3549
g74
(dp3550
sg83
g3544
sg76
(lp3551
g69
(g70
g71
NtRp3552
(dp3553
g74
(dp3554
g82
I4
ssg83
g3548
sg76
(lp3555
S'{{'
p3556
asbasbasbag69
(g85
g71
NtRp3557
(dp3558
g74
(dp3559
sg83
g3540
sg76
(lp3560
g69
(g90
g71
NtRp3561
(dp3562
g74
(dp3563
sg83
g3557
sg76
(lp3564
g69
(g70
g71
NtRp3565
(dp3566
g74
(dp3567
g82
I4
ssg83
g3561
sg76
(lp3568
S'}}'
p3569
asbasbasbasbasbasbasbag69
(g85
g71
NtRp3570
(dp3571
g74
(dp3572
sg83
g3285
sg76
(lp3573
g69
(g90
g71
NtRp3574
(dp3575
g74
(dp3576
g94
g95
ssg83
g3570
sg76
(lp3577
S'files'
p3578
asbag69
(g90
g71
NtRp3579
(dp3580
g74
(dp3581
g101
g102
ssg83
g3570
sg76
(lp3582
S':'
asbag69
(g90
g71
NtRp3583
(dp3584
g74
(dp3585
sg83
g3570
sg76
(lp3586
g69
(g70
g71
NtRp3587
(dp3588
g74
(dp3589
g82
I5
ssg83
g3583
sg76
(lp3590
g69
(g78
g71
NtRp3591
(dp3592
g74
(dp3593
g82
I4
ssg83
Nsg76
(lp3594
g69
(g85
g71
NtRp3595
(dp3596
g74
(dp3597
sg83
g3591
sg76
(lp3598
g69
(g90
g71
NtRp3599
(dp3600
g74
(dp3601
sg83
g3595
sg76
(lp3602
g69
(g70
g71
NtRp3603
(dp3604
g74
(dp3605
g82
I4
ssg83
g3599
sg76
(lp3606
S'/milo/static/js/jquery.js'
p3607
asbasbasbag69
(g85
g71
NtRp3608
(dp3609
g74
(dp3610
sg83
g3591
sg76
(lp3611
g69
(g90
g71
NtRp3612
(dp3613
g74
(dp3614
sg83
g3608
sg76
(lp3615
g69
(g70
g71
NtRp3616
(dp3617
g74
(dp3618
g82
I4
ssg83
g3612
sg76
(lp3619
S'/milo/static/css/calendar.css'
p3620
asbasbasbag69
(g85
g71
NtRp3621
(dp3622
g74
(dp3623
sg83
g3591
sg76
(lp3624
g69
(g90
g71
NtRp3625
(dp3626
g74
(dp3627
sg83
g3621
sg76
(lp3628
g69
(g70
g71
NtRp3629
(dp3630
g74
(dp3631
g82
I4
ssg83
g3625
sg76
(lp3632
S'/milo/static/js/calendar.js'
p3633
asbasbasbag69
(g85
g71
NtRp3634
(dp3635
g74
(dp3636
sg83
g3591
sg76
(lp3637
g69
(g90
g71
NtRp3638
(dp3639
g74
(dp3640
sg83
g3634
sg76
(lp3641
g69
(g70
g71
NtRp3642
(dp3643
g74
(dp3644
g82
I4
ssg83
g3638
sg76
(lp3645
S'/milo/static/js/web2py.js'
p3646
asbasbasbag69
(g85
g71
NtRp3647
(dp3648
g74
(dp3649
sg83
g3591
sg76
(lp3650
g69
(g90
g71
NtRp3651
(dp3652
g74
(dp3653
sg83
g3647
sg76
(lp3654
g69
(g70
g71
NtRp3655
(dp3656
g74
(dp3657
g82
I4
ssg83
g3651
sg76
(lp3658
S'/milo/static/css/skeleton.css'
p3659
asbasbasbag69
(g85
g71
NtRp3660
(dp3661
g74
(dp3662
sg83
g3591
sg76
(lp3663
g69
(g90
g71
NtRp3664
(dp3665
g74
(dp3666
sg83
g3660
sg76
(lp3667
g69
(g70
g71
NtRp3668
(dp3669
g74
(dp3670
g82
I4
ssg83
g3664
sg76
(lp3671
S'/milo/static/css/web2py.css'
p3672
asbasbasbag69
(g85
g71
NtRp3673
(dp3674
g74
(dp3675
sg83
g3591
sg76
(lp3676
g69
(g90
g71
NtRp3677
(dp3678
g74
(dp3679
sg83
g3673
sg76
(lp3680
g69
(g70
g71
NtRp3681
(dp3682
g74
(dp3683
g82
I4
ssg83
g3677
sg76
(lp3684
S'/milo/static/css/style.css'
p3685
asbasbasbag69
(g85
g71
NtRp3686
(dp3687
g74
(dp3688
sg83
g3591
sg76
(lp3689
g69
(g90
g71
NtRp3690
(dp3691
g74
(dp3692
sg83
g3686
sg76
(lp3693
g69
(g70
g71
NtRp3694
(dp3695
g74
(dp3696
g82
I4
ssg83
g3690
sg76
(lp3697
S'/milo/static/css/style.css3.css'
p3698
asbasbasbag69
(g85
g71
NtRp3699
(dp3700
g74
(dp3701
sg83
g3591
sg76
(lp3702
g69
(g90
g71
NtRp3703
(dp3704
g74
(dp3705
sg83
g3699
sg76
(lp3706
g69
(g70
g71
NtRp3707
(dp3708
g74
(dp3709
g82
I4
ssg83
g3703
sg76
(lp3710
S'/milo/static/css/smoothness/jquery-ui.css'
p3711
asbasbasbag69
(g85
g71
NtRp3712
(dp3713
g74
(dp3714
sg83
g3591
sg76
(lp3715
g69
(g90
g71
NtRp3716
(dp3717
g74
(dp3718
sg83
g3712
sg76
(lp3719
g69
(g70
g71
NtRp3720
(dp3721
g74
(dp3722
g82
I4
ssg83
g3716
sg76
(lp3723
S'/milo/static/css/superfish.css'
p3724
asbasbasbag69
(g85
g71
NtRp3725
(dp3726
g74
(dp3727
sg83
g3591
sg76
(lp3728
g69
(g90
g71
NtRp3729
(dp3730
g74
(dp3731
sg83
g3725
sg76
(lp3732
g69
(g70
g71
NtRp3733
(dp3734
g74
(dp3735
g82
I4
ssg83
g3729
sg76
(lp3736
S'/milo/static/js/superfish.js'
p3737
asbasbasbasbasbasbasbag69
(g85
g71
NtRp3738
(dp3739
g74
(dp3740
sg83
g3285
sg76
(lp3741
g69
(g90
g71
NtRp3742
(dp3743
g74
(dp3744
g94
g95
ssg83
g3738
sg76
(lp3745
S'flash'
p3746
asbag69
(g90
g71
NtRp3747
(dp3748
g74
(dp3749
g101
g102
ssg83
g3738
sg76
(lp3750
S':'
asbag69
(g90
g71
NtRp3751
(dp3752
g74
(dp3753
sg83
g3738
sg76
(lp3754
g69
(g70
g71
NtRp3755
(dp3756
g74
(dp3757
g82
I5
ssg83
g3751
sg76
(lp3758
S''
asbasbasbag69
(g85
g71
NtRp3759
(dp3760
g74
(dp3761
sg83
g3285
sg76
(lp3762
g69
(g90
g71
NtRp3763
(dp3764
g74
(dp3765
g94
g95
ssg83
g3759
sg76
(lp3766
S'generic_patterns'
p3767
asbag69
(g90
g71
NtRp3768
(dp3769
g74
(dp3770
g101
g102
ssg83
g3759
sg76
(lp3771
S':'
asbag69
(g90
g71
NtRp3772
(dp3773
g74
(dp3774
sg83
g3759
sg76
(lp3775
g69
(g70
g71
NtRp3776
(dp3777
g74
(dp3778
g82
I5
ssg83
g3772
sg76
(lp3779
g69
(g78
g71
NtRp3780
(dp3781
g74
(dp3782
g82
I4
ssg83
Nsg76
(lp3783
g69
(g85
g71
NtRp3784
(dp3785
g74
(dp3786
sg83
g3780
sg76
(lp3787
g69
(g90
g71
NtRp3788
(dp3789
g74
(dp3790
sg83
g3784
sg76
(lp3791
g69
(g70
g71
NtRp3792
(dp3793
g74
(dp3794
g82
I4
ssg83
g3788
sg76
(lp3795
S'*'
asbasbasbasbasbasbasbag69
(g85
g71
NtRp3796
(dp3797
g74
(dp3798
sg83
g3285
sg76
(lp3799
g69
(g90
g71
NtRp3800
(dp3801
g74
(dp3802
g94
g95
ssg83
g3796
sg76
(lp3803
S'headers'
p3804
asbag69
(g90
g71
NtRp3805
(dp3806
g74
(dp3807
g101
g102
ssg83
g3796
sg76
(lp3808
S':'
asbag69
(g90
g71
NtRp3809
(dp3810
g74
(dp3811
sg83
g3796
sg76
(lp3812
g69
(g70
g71
NtRp3813
(dp3814
g74
(dp3815
g82
I5
ssg83
g3809
sg76
(lp3816
g69
(g78
g71
NtRp3817
(dp3818
g74
(dp3819
g82
I4
ssg83
Nsg76
(lp3820
g69
(g85
g71
NtRp3821
(dp3822
g74
(dp3823
sg83
g3817
sg76
(lp3824
g69
(g90
g71
NtRp3825
(dp3826
g74
(dp3827
g94
g95
ssg83
g3821
sg76
(lp3828
S'Cache-Control'
p3829
asbag69
(g90
g71
NtRp3830
(dp3831
g74
(dp3832
g101
g102
ssg83
g3821
sg76
(lp3833
S':'
asbag69
(g90
g71
NtRp3834
(dp3835
g74
(dp3836
sg83
g3821
sg76
(lp3837
g69
(g70
g71
NtRp3838
(dp3839
g74
(dp3840
g82
I4
ssg83
g3834
sg76
(lp3841
S'no-store, no-cache, must-revalidate, post-check=0, pre-check=0'
p3842
asbasbasbag69
(g85
g71
NtRp3843
(dp3844
g74
(dp3845
sg83
g3817
sg76
(lp3846
g69
(g90
g71
NtRp3847
(dp3848
g74
(dp3849
g94
g95
ssg83
g3843
sg76
(lp3850
S'Content-Type'
p3851
asbag69
(g90
g71
NtRp3852
(dp3853
g74
(dp3854
g101
g102
ssg83
g3843
sg76
(lp3855
S':'
asbag69
(g90
g71
NtRp3856
(dp3857
g74
(dp3858
sg83
g3843
sg76
(lp3859
g69
(g70
g71
NtRp3860
(dp3861
g74
(dp3862
g82
I4
ssg83
g3856
sg76
(lp3863
S'text/html; charset=utf-8'
p3864
asbasbasbag69
(g85
g71
NtRp3865
(dp3866
g74
(dp3867
sg83
g3817
sg76
(lp3868
g69
(g90
g71
NtRp3869
(dp3870
g74
(dp3871
g94
g95
ssg83
g3865
sg76
(lp3872
S'Expires'
p3873
asbag69
(g90
g71
NtRp3874
(dp3875
g74
(dp3876
g101
g102
ssg83
g3865
sg76
(lp3877
S':'
asbag69
(g90
g71
NtRp3878
(dp3879
g74
(dp3880
sg83
g3865
sg76
(lp3881
g69
(g70
g71
NtRp3882
(dp3883
g74
(dp3884
g82
I4
ssg83
g3878
sg76
(lp3885
S'Fri, 20 Jul 2012 06:46:05 GMT'
p3886
asbasbasbag69
(g85
g71
NtRp3887
(dp3888
g74
(dp3889
sg83
g3817
sg76
(lp3890
g69
(g90
g71
NtRp3891
(dp3892
g74
(dp3893
g94
g95
ssg83
g3887
sg76
(lp3894
S'Pragma'
p3895
asbag69
(g90
g71
NtRp3896
(dp3897
g74
(dp3898
g101
g102
ssg83
g3887
sg76
(lp3899
S':'
asbag69
(g90
g71
NtRp3900
(dp3901
g74
(dp3902
sg83
g3887
sg76
(lp3903
g69
(g70
g71
NtRp3904
(dp3905
g74
(dp3906
g82
I4
ssg83
g3900
sg76
(lp3907
S'no-cache'
p3908
asbasbasbag69
(g85
g71
NtRp3909
(dp3910
g74
(dp3911
sg83
g3817
sg76
(lp3912
g69
(g90
g71
NtRp3913
(dp3914
g74
(dp3915
g94
g95
ssg83
g3909
sg76
(lp3916
S'X-Powered-By'
p3917
asbag69
(g90
g71
NtRp3918
(dp3919
g74
(dp3920
g101
g102
ssg83
g3909
sg76
(lp3921
S':'
asbag69
(g90
g71
NtRp3922
(dp3923
g74
(dp3924
sg83
g3909
sg76
(lp3925
g69
(g70
g71
NtRp3926
(dp3927
g74
(dp3928
g82
I4
ssg83
g3922
sg76
(lp3929
S'web2py'
p3930
asbasbasbasbasbasbasbag69
(g85
g71
NtRp3931
(dp3932
g74
(dp3933
sg83
g3285
sg76
(lp3934
g69
(g90
g71
NtRp3935
(dp3936
g74
(dp3937
g94
g95
ssg83
g3931
sg76
(lp3938
S'menu'
p3939
asbag69
(g90
g71
NtRp3940
(dp3941
g74
(dp3942
g101
g102
ssg83
g3931
sg76
(lp3943
S':'
asbag69
(g90
g71
NtRp3944
(dp3945
g74
(dp3946
sg83
g3931
sg76
(lp3947
g69
(g70
g71
NtRp3948
(dp3949
g74
(dp3950
g82
I5
ssg83
g3944
sg76
(lp3951
g69
(g78
g71
NtRp3952
(dp3953
g74
(dp3954
g82
I4
ssg83
Nsg76
(lp3955
g69
(g85
g71
NtRp3956
(dp3957
g74
(dp3958
sg83
g3952
sg76
(lp3959
g69
(g90
g71
NtRp3960
(dp3961
g74
(dp3962
sg83
g3956
sg76
(lp3963
g69
(g70
g71
NtRp3964
(dp3965
g74
(dp3966
g82
I4
ssg83
g3960
sg76
(lp3967
g69
(g78
g71
NtRp3968
(dp3969
g74
(dp3970
g82
I3
ssg83
Nsg76
(lp3971
g69
(g85
g71
NtRp3972
(dp3973
g74
(dp3974
sg83
g3968
sg76
(lp3975
g69
(g90
g71
NtRp3976
(dp3977
g74
(dp3978
sg83
g3972
sg76
(lp3979
g69
(g70
g71
NtRp3980
(dp3981
g74
(dp3982
g82
I3
ssg83
g3976
sg76
(lp3983
cgluon.languages
lazyT_unpickle
p3984
(S't\x04\x00\x00\x00Home'
tRp3985
asbasbasbag69
(g85
g71
NtRp3986
(dp3987
g74
(dp3988
sg83
g3968
sg76
(lp3989
g69
(g90
g71
NtRp3990
(dp3991
g74
(dp3992
sg83
g3986
sg76
(lp3993
g69
(g70
g71
NtRp3994
(dp3995
g74
(dp3996
g82
I3
ssg83
g3990
sg76
(lp3997
g112
asbasbasbag69
(g85
g71
NtRp3998
(dp3999
g74
(dp4000
sg83
g3968
sg76
(lp4001
g69
(g90
g71
NtRp4002
(dp4003
g74
(dp4004
sg83
g3998
sg76
(lp4005
g69
(g70
g71
NtRp4006
(dp4007
g74
(dp4008
g82
I3
ssg83
g4002
sg76
(lp4009
S'/milo/default/index'
p4010
asbasbasbag69
(g85
g71
NtRp4011
(dp4012
g74
(dp4013
sg83
g3968
sg76
(lp4014
g69
(g90
g71
NtRp4015
(dp4016
g74
(dp4017
sg83
g4011
sg76
(lp4018
g69
(g70
g71
NtRp4019
(dp4020
g74
(dp4021
g82
I3
ssg83
g4015
sg76
(lp4022
g69
(g78
g71
NtRp4023
(dp4024
g74
(dp4025
g82
I2
ssg83
Nsg76
(lp4026
sbasbasbasbasbasbasbasbag69
(g85
g71
NtRp4027
(dp4028
g74
(dp4029
sg83
g3952
sg76
(lp4030
g69
(g90
g71
NtRp4031
(dp4032
g74
(dp4033
sg83
g4027
sg76
(lp4034
g69
(g70
g71
NtRp4035
(dp4036
g74
(dp4037
g82
I4
ssg83
g4031
sg76
(lp4038
g69
(g78
g71
NtRp4039
(dp4040
g74
(dp4041
g82
I3
ssg83
Nsg76
(lp4042
g69
(g85
g71
NtRp4043
(dp4044
g74
(dp4045
sg83
g4039
sg76
(lp4046
g69
(g90
g71
NtRp4047
(dp4048
g74
(dp4049
sg83
g4043
sg76
(lp4050
g69
(g70
g71
NtRp4051
(dp4052
g74
(dp4053
g82
I3
ssg83
g4047
sg76
(lp4054
g3984
(S't\x05\x00\x00\x00Admin'
tRp4055
asbasbasbag69
(g85
g71
NtRp4056
(dp4057
g74
(dp4058
sg83
g4039
sg76
(lp4059
g69
(g90
g71
NtRp4060
(dp4061
g74
(dp4062
sg83
g4056
sg76
(lp4063
g69
(g70
g71
NtRp4064
(dp4065
g74
(dp4066
g82
I3
ssg83
g4060
sg76
(lp4067
g112
asbasbasbag69
(g85
g71
NtRp4068
(dp4069
g74
(dp4070
sg83
g4039
sg76
(lp4071
g69
(g90
g71
NtRp4072
(dp4073
g74
(dp4074
sg83
g4068
sg76
(lp4075
g69
(g70
g71
NtRp4076
(dp4077
g74
(dp4078
g82
I3
ssg83
g4072
sg76
(lp4079
S'/milo/admin/index'
p4080
asbasbasbag69
(g85
g71
NtRp4081
(dp4082
g74
(dp4083
sg83
g4039
sg76
(lp4084
g69
(g90
g71
NtRp4085
(dp4086
g74
(dp4087
sg83
g4081
sg76
(lp4088
g69
(g70
g71
NtRp4089
(dp4090
g74
(dp4091
g82
I3
ssg83
g4085
sg76
(lp4092
g69
(g78
g71
NtRp4093
(dp4094
g74
(dp4095
g82
I2
ssg83
Nsg76
(lp4096
sbasbasbasbasbasbasbasbag69
(g85
g71
NtRp4097
(dp4098
g74
(dp4099
sg83
g3952
sg76
(lp4100
g69
(g90
g71
NtRp4101
(dp4102
g74
(dp4103
sg83
g4097
sg76
(lp4104
g69
(g70
g71
NtRp4105
(dp4106
g74
(dp4107
g82
I4
ssg83
g4101
sg76
(lp4108
g69
(g78
g71
NtRp4109
(dp4110
g74
(dp4111
g82
I3
ssg83
Nsg76
(lp4112
g69
(g85
g71
NtRp4113
(dp4114
g74
(dp4115
sg83
g4109
sg76
(lp4116
g69
(g90
g71
NtRp4117
(dp4118
g74
(dp4119
sg83
g4113
sg76
(lp4120
g69
(g70
g71
NtRp4121
(dp4122
g74
(dp4123
g82
I3
ssg83
g4117
sg76
(lp4124
g69
(cgluon.html
SPAN
p4125
g71
NtRp4126
(dp4127
g74
(dp4128
g94
S'color:yellow'
p4129
ssg83
g69
(cgluon.html
A
p4130
g71
NtRp4131
(dp4132
g74
(dp4133
S'_onclick'
p4134
S'javascript:void(0);return false;'
p4135
sS'_href'
p4136
S'#'
ssg83
g69
(cgluon.html
LI
p4137
g71
NtRp4138
(dp4139
g74
(dp4140
S'_class'
p4141
S'web2py-menu-expand'
p4142
ssg83
g69
(cgluon.html
UL
p4143
g71
NtRp4144
(dp4145
g74
(dp4146
S'mobile'
p4147
I00
sS'li_class'
p4148
g4142
sg4141
S'sf-menu'
p4149
sS'ul_class'
p4150
S'web2py-menu-vertical'
p4151
sS'li_active'
p4152
S'web2py-menu-active'
p4153
ssg83
Nsg76
(lp4154
g69
(g4137
g71
NtRp4155
(dp4156
g74
(dp4157
sg83
g4144
sg76
(lp4158
g69
(g4130
g71
NtRp4159
(dp4160
g74
(dp4161
g4136
g4010
ssg83
g4155
sg76
(lp4162
g3985
asbasbag69
(g4137
g71
NtRp4163
(dp4164
g74
(dp4165
sg83
g4144
sg76
(lp4166
g69
(g4130
g71
NtRp4167
(dp4168
g74
(dp4169
g4136
g4080
ssg83
g4163
sg76
(lp4170
g4055
asbasbag4138
asbsg76
(lp4171
g4131
ag69
(g4143
g71
NtRp4172
(dp4173
g74
(dp4174
g4141
g4151
ssg83
g4138
sg76
(lp4175
g69
(g4137
g71
NtRp4176
(dp4177
g74
(dp4178
sg83
g4172
sg76
(lp4179
g69
(g4130
g71
NtRp4180
(dp4181
g74
(dp4182
g4136
S'/admin/default/site'
p4183
ssg83
g4176
sg76
(lp4184
g3984
(S's\x08\x00\x00\x00My Sites'
tRp4185
asbasbag69
(g4137
g71
NtRp4186
(dp4187
g74
(dp4188
g4141
g4142
ssg83
g4172
sg76
(lp4189
g69
(g4130
g71
NtRp4190
(dp4191
g74
(dp4192
g4136
S'/admin/default/design/milo'
p4193
ssg83
g4186
sg76
(lp4194
g3984
(S's\x08\x00\x00\x00This App'
tRp4195
asbag69
(g4143
g71
NtRp4196
(dp4197
g74
(dp4198
g4141
g4151
ssg83
g4186
sg76
(lp4199
g69
(g4137
g71
NtRp4200
(dp4201
g74
(dp4202
sg83
g4196
sg76
(lp4203
g69
(g4130
g71
NtRp4204
(dp4205
g74
(dp4206
g4136
S'/admin/default/edit/milo/controllers/default.py'
p4207
ssg83
g4200
sg76
(lp4208
g3984
(S't\n\x00\x00\x00Controller'
tRp4209
asbasbag69
(g4137
g71
NtRp4210
(dp4211
g74
(dp4212
sg83
g4196
sg76
(lp4213
g69
(g4130
g71
NtRp4214
(dp4215
g74
(dp4216
g4136
S'/admin/default/edit/milo/views/default/index.html'
p4217
ssg83
g4210
sg76
(lp4218
g3984
(S't\x04\x00\x00\x00View'
tRp4219
asbasbag69
(g4137
g71
NtRp4220
(dp4221
g74
(dp4222
sg83
g4196
sg76
(lp4223
g69
(g4130
g71
NtRp4224
(dp4225
g74
(dp4226
g4136
S'/admin/default/edit/milo/views/layout.html'
p4227
ssg83
g4220
sg76
(lp4228
g3984
(S't\x06\x00\x00\x00Layout'
tRp4229
asbasbag69
(g4137
g71
NtRp4230
(dp4231
g74
(dp4232
sg83
g4196
sg76
(lp4233
g69
(g4130
g71
NtRp4234
(dp4235
g74
(dp4236
g4136
S'/admin/default/edit/milo/static/css/web2py.css'
p4237
ssg83
g4230
sg76
(lp4238
g3984
(S't\n\x00\x00\x00Stylesheet'
tRp4239
asbasbag69
(g4137
g71
NtRp4240
(dp4241
g74
(dp4242
sg83
g4196
sg76
(lp4243
g69
(g4130
g71
NtRp4244
(dp4245
g74
(dp4246
g4136
S'/admin/default/edit/milo/models/db.py'
p4247
ssg83
g4240
sg76
(lp4248
g3984
(S's\x08\x00\x00\x00DB Model'
tRp4249
asbasbag69
(g4137
g71
NtRp4250
(dp4251
g74
(dp4252
sg83
g4196
sg76
(lp4253
g69
(g4130
g71
NtRp4254
(dp4255
g74
(dp4256
g4136
S'/admin/default/edit/milo/models/menu.py'
p4257
ssg83
g4250
sg76
(lp4258
g3984
(S's\n\x00\x00\x00Menu Model'
tRp4259
asbasbag69
(g4137
g71
NtRp4260
(dp4261
g74
(dp4262
sg83
g4196
sg76
(lp4263
g69
(g4130
g71
NtRp4264
(dp4265
g74
(dp4266
g4136
S'/milo/appadmin/index'
p4267
ssg83
g4260
sg76
(lp4268
g3984
(S't\x08\x00\x00\x00Database'
tRp4269
asbasbag69
(g4137
g71
NtRp4270
(dp4271
g74
(dp4272
sg83
g4196
sg76
(lp4273
g69
(g4130
g71
NtRp4274
(dp4275
g74
(dp4276
g4136
S'/admin/default/errors/milo'
p4277
ssg83
g4270
sg76
(lp4278
g3984
(S't\x06\x00\x00\x00Errors'
tRp4279
asbasbag69
(g4137
g71
NtRp4280
(dp4281
g74
(dp4282
sg83
g4196
sg76
(lp4283
g69
(g4130
g71
NtRp4284
(dp4285
g74
(dp4286
g4136
S'/admin/default/about/milo'
p4287
ssg83
g4280
sg76
(lp4288
g3984
(S't\x05\x00\x00\x00About'
tRp4289
asbasbasbasbag69
(g4137
g71
NtRp4290
(dp4291
g74
(dp4292
g4141
g4142
ssg83
g4172
sg76
(lp4293
g69
(g4130
g71
NtRp4294
(dp4295
g74
(dp4296
g4136
S'http://www.web2py.com'
p4297
ssg83
g4290
sg76
(lp4298
S'web2py.com'
p4299
asbag69
(g4143
g71
NtRp4300
(dp4301
g74
(dp4302
g4141
g4151
ssg83
g4290
sg76
(lp4303
g69
(g4137
g71
NtRp4304
(dp4305
g74
(dp4306
sg83
g4300
sg76
(lp4307
g69
(g4130
g71
NtRp4308
(dp4309
g74
(dp4310
g4136
S'http://www.web2py.com/examples/default/download'
p4311
ssg83
g4304
sg76
(lp4312
g3984
(S't\x08\x00\x00\x00Download'
tRp4313
asbasbag69
(g4137
g71
NtRp4314
(dp4315
g74
(dp4316
sg83
g4300
sg76
(lp4317
g69
(g4130
g71
NtRp4318
(dp4319
g74
(dp4320
g4136
S'http://www.web2py.com/examples/default/support'
p4321
ssg83
g4314
sg76
(lp4322
g3984
(S't\x07\x00\x00\x00Support'
tRp4323
asbasbag69
(g4137
g71
NtRp4324
(dp4325
g74
(dp4326
sg83
g4300
sg76
(lp4327
g69
(g4130
g71
NtRp4328
(dp4329
g74
(dp4330
g4136
S'http://web2py.com/demo_admin'
p4331
ssg83
g4324
sg76
(lp4332
g3984
(S't\x04\x00\x00\x00Demo'
tRp4333
asbasbag69
(g4137
g71
NtRp4334
(dp4335
g74
(dp4336
sg83
g4300
sg76
(lp4337
g69
(g4130
g71
NtRp4338
(dp4339
g74
(dp4340
g4136
S'http://web2py.com/examples/default/examples'
p4341
ssg83
g4334
sg76
(lp4342
g3984
(S's\x0e\x00\x00\x00Quick Examples'
tRp4343
asbasbag69
(g4137
g71
NtRp4344
(dp4345
g74
(dp4346
sg83
g4300
sg76
(lp4347
g69
(g4130
g71
NtRp4348
(dp4349
g74
(dp4350
g4136
S'http://web2py.com/AlterEgo'
p4351
ssg83
g4344
sg76
(lp4352
g3984
(S't\x03\x00\x00\x00FAQ'
tRp4353
asbasbag69
(g4137
g71
NtRp4354
(dp4355
g74
(dp4356
sg83
g4300
sg76
(lp4357
g69
(g4130
g71
NtRp4358
(dp4359
g74
(dp4360
g4136
S'http://www.web2py.com/examples/default/videos/'
p4361
ssg83
g4354
sg76
(lp4362
g3984
(S't\x06\x00\x00\x00Videos'
tRp4363
asbasbag69
(g4137
g71
NtRp4364
(dp4365
g74
(dp4366
sg83
g4300
sg76
(lp4367
g69
(g4130
g71
NtRp4368
(dp4369
g74
(dp4370
g4136
S'http://web2py.com/appliances'
p4371
ssg83
g4364
sg76
(lp4372
g3984
(S's\x11\x00\x00\x00Free Applications'
tRp4373
asbasbag69
(g4137
g71
NtRp4374
(dp4375
g74
(dp4376
sg83
g4300
sg76
(lp4377
g69
(g4130
g71
NtRp4378
(dp4379
g74
(dp4380
g4136
S'http://web2py.com/plugins'
p4381
ssg83
g4374
sg76
(lp4382
g3984
(S't\x07\x00\x00\x00Plugins'
tRp4383
asbasbag69
(g4137
g71
NtRp4384
(dp4385
g74
(dp4386
sg83
g4300
sg76
(lp4387
g69
(g4130
g71
NtRp4388
(dp4389
g74
(dp4390
g4136
S'http://web2py.com/layouts'
p4391
ssg83
g4384
sg76
(lp4392
g3984
(S't\x07\x00\x00\x00Layouts'
tRp4393
asbasbag69
(g4137
g71
NtRp4394
(dp4395
g74
(dp4396
sg83
g4300
sg76
(lp4397
g69
(g4130
g71
NtRp4398
(dp4399
g74
(dp4400
g4136
S'http://web2pyslices.com/'
p4401
ssg83
g4394
sg76
(lp4402
g3984
(S't\x07\x00\x00\x00Recipes'
tRp4403
asbasbag69
(g4137
g71
NtRp4404
(dp4405
g74
(dp4406
sg83
g4300
sg76
(lp4407
g69
(g4130
g71
NtRp4408
(dp4409
g74
(dp4410
g4136
S'http://web2py.com/semantic'
p4411
ssg83
g4404
sg76
(lp4412
g3984
(S't\x08\x00\x00\x00Semantic'
tRp4413
asbasbasbasbag69
(g4137
g71
NtRp4414
(dp4415
g74
(dp4416
g4141
g4142
ssg83
g4172
sg76
(lp4417
g69
(g4130
g71
NtRp4418
(dp4419
g74
(dp4420
g4136
S'http://www.web2py.com/book'
p4421
ssg83
g4414
sg76
(lp4422
g3984
(S't\r\x00\x00\x00Documentation'
tRp4423
asbag69
(g4143
g71
NtRp4424
(dp4425
g74
(dp4426
g4141
g4151
ssg83
g4414
sg76
(lp4427
g69
(g4137
g71
NtRp4428
(dp4429
g74
(dp4430
sg83
g4424
sg76
(lp4431
g69
(g4130
g71
NtRp4432
(dp4433
g74
(dp4434
g4136
S'http://www.web2py.com/book/default/chapter/00'
p4435
ssg83
g4428
sg76
(lp4436
g3984
(S't\x07\x00\x00\x00Preface'
tRp4437
asbasbag69
(g4137
g71
NtRp4438
(dp4439
g74
(dp4440
sg83
g4424
sg76
(lp4441
g69
(g4130
g71
NtRp4442
(dp4443
g74
(dp4444
g4136
S'http://www.web2py.com/book/default/chapter/01'
p4445
ssg83
g4438
sg76
(lp4446
g3984
(S't\x0c\x00\x00\x00Introduction'
tRp4447
asbasbag69
(g4137
g71
NtRp4448
(dp4449
g74
(dp4450
sg83
g4424
sg76
(lp4451
g69
(g4130
g71
NtRp4452
(dp4453
g74
(dp4454
g4136
S'http://www.web2py.com/book/default/chapter/02'
p4455
ssg83
g4448
sg76
(lp4456
g3984
(S't\x06\x00\x00\x00Python'
tRp4457
asbasbag69
(g4137
g71
NtRp4458
(dp4459
g74
(dp4460
sg83
g4424
sg76
(lp4461
g69
(g4130
g71
NtRp4462
(dp4463
g74
(dp4464
g4136
S'http://www.web2py.com/book/default/chapter/03'
p4465
ssg83
g4458
sg76
(lp4466
g3984
(S't\x08\x00\x00\x00Overview'
tRp4467
asbasbag69
(g4137
g71
NtRp4468
(dp4469
g74
(dp4470
sg83
g4424
sg76
(lp4471
g69
(g4130
g71
NtRp4472
(dp4473
g74
(dp4474
g4136
S'http://www.web2py.com/book/default/chapter/04'
p4475
ssg83
g4468
sg76
(lp4476
g3984
(S's\x08\x00\x00\x00The Core'
tRp4477
asbasbag69
(g4137
g71
NtRp4478
(dp4479
g74
(dp4480
sg83
g4424
sg76
(lp4481
g69
(g4130
g71
NtRp4482
(dp4483
g74
(dp4484
g4136
S'http://www.web2py.com/book/default/chapter/05'
p4485
ssg83
g4478
sg76
(lp4486
g3984
(S's\t\x00\x00\x00The Views'
tRp4487
asbasbag69
(g4137
g71
NtRp4488
(dp4489
g74
(dp4490
sg83
g4424
sg76
(lp4491
g69
(g4130
g71
NtRp4492
(dp4493
g74
(dp4494
g4136
S'http://www.web2py.com/book/default/chapter/06'
p4495
ssg83
g4488
sg76
(lp4496
g3984
(S't\x08\x00\x00\x00Database'
tRp4497
asbasbag69
(g4137
g71
NtRp4498
(dp4499
g74
(dp4500
sg83
g4424
sg76
(lp4501
g69
(g4130
g71
NtRp4502
(dp4503
g74
(dp4504
g4136
S'http://www.web2py.com/book/default/chapter/07'
p4505
ssg83
g4498
sg76
(lp4506
g3984
(S's\x14\x00\x00\x00Forms and Validators'
tRp4507
asbasbag69
(g4137
g71
NtRp4508
(dp4509
g74
(dp4510
sg83
g4424
sg76
(lp4511
g69
(g4130
g71
NtRp4512
(dp4513
g74
(dp4514
g4136
S'http://www.web2py.com/book/default/chapter/08'
p4515
ssg83
g4508
sg76
(lp4516
g3984
(S's\r\x00\x00\x00Email and SMS'
tRp4517
asbasbag69
(g4137
g71
NtRp4518
(dp4519
g74
(dp4520
sg83
g4424
sg76
(lp4521
g69
(g4130
g71
NtRp4522
(dp4523
g74
(dp4524
g4136
S'http://www.web2py.com/book/default/chapter/09'
p4525
ssg83
g4518
sg76
(lp4526
g3984
(S's\x0e\x00\x00\x00Access Control'
tRp4527
asbasbag69
(g4137
g71
NtRp4528
(dp4529
g74
(dp4530
sg83
g4424
sg76
(lp4531
g69
(g4130
g71
NtRp4532
(dp4533
g74
(dp4534
g4136
S'http://www.web2py.com/book/default/chapter/10'
p4535
ssg83
g4528
sg76
(lp4536
g3984
(S't\x08\x00\x00\x00Services'
tRp4537
asbasbag69
(g4137
g71
NtRp4538
(dp4539
g74
(dp4540
sg83
g4424
sg76
(lp4541
g69
(g4130
g71
NtRp4542
(dp4543
g74
(dp4544
g4136
S'http://www.web2py.com/book/default/chapter/11'
p4545
ssg83
g4538
sg76
(lp4546
g3984
(S's\x0c\x00\x00\x00Ajax Recipes'
tRp4547
asbasbag69
(g4137
g71
NtRp4548
(dp4549
g74
(dp4550
sg83
g4424
sg76
(lp4551
g69
(g4130
g71
NtRp4552
(dp4553
g74
(dp4554
g4136
S'http://www.web2py.com/book/default/chapter/12'
p4555
ssg83
g4548
sg76
(lp4556
g3984
(S's\x16\x00\x00\x00Components and Plugins'
tRp4557
asbasbag69
(g4137
g71
NtRp4558
(dp4559
g74
(dp4560
sg83
g4424
sg76
(lp4561
g69
(g4130
g71
NtRp4562
(dp4563
g74
(dp4564
g4136
S'http://www.web2py.com/book/default/chapter/13'
p4565
ssg83
g4558
sg76
(lp4566
g3984
(S's\x12\x00\x00\x00Deployment Recipes'
tRp4567
asbasbag69
(g4137
g71
NtRp4568
(dp4569
g74
(dp4570
sg83
g4424
sg76
(lp4571
g69
(g4130
g71
NtRp4572
(dp4573
g74
(dp4574
g4136
S'http://www.web2py.com/book/default/chapter/14'
p4575
ssg83
g4568
sg76
(lp4576
g3984
(S's\r\x00\x00\x00Other Recipes'
tRp4577
asbasbag69
(g4137
g71
NtRp4578
(dp4579
g74
(dp4580
sg83
g4424
sg76
(lp4581
g69
(g4130
g71
NtRp4582
(dp4583
g74
(dp4584
g4136
S'http://stores.lulu.com/web2py'
p4585
ssg83
g4578
sg76
(lp4586
g3984
(S's\r\x00\x00\x00Buy this book'
tRp4587
asbasbasbasbag69
(g4137
g71
NtRp4588
(dp4589
g74
(dp4590
g4141
g4142
ssg83
g4172
sg76
(lp4591
g69
(g4130
g71
NtRp4592
(dp4593
g74
(dp4594
g4134
g4135
sg4136
S'#'
ssg83
g4588
sg76
(lp4595
g3984
(S't\t\x00\x00\x00Community'
tRp4596
asbag69
(g4143
g71
NtRp4597
(dp4598
g74
(dp4599
g4141
g4151
ssg83
g4588
sg76
(lp4600
g69
(g4137
g71
NtRp4601
(dp4602
g74
(dp4603
sg83
g4597
sg76
(lp4604
g69
(g4130
g71
NtRp4605
(dp4606
g74
(dp4607
g4136
S'http://www.web2py.com/examples/default/usergroups'
p4608
ssg83
g4601
sg76
(lp4609
g3984
(S't\x06\x00\x00\x00Groups'
tRp4610
asbasbag69
(g4137
g71
NtRp4611
(dp4612
g74
(dp4613
sg83
g4597
sg76
(lp4614
g69
(g4130
g71
NtRp4615
(dp4616
g74
(dp4617
g4136
S'http://twitter.com/web2py'
p4618
ssg83
g4611
sg76
(lp4619
g3984
(S't\x07\x00\x00\x00Twitter'
tRp4620
asbasbag69
(g4137
g71
NtRp4621
(dp4622
g74
(dp4623
sg83
g4597
sg76
(lp4624
g69
(g4130
g71
NtRp4625
(dp4626
g74
(dp4627
g4136
S'http://webchat.freenode.net/?channels=web2py'
p4628
ssg83
g4621
sg76
(lp4629
g3984
(S's\t\x00\x00\x00Live Chat'
tRp4630
asbasbasbasbag69
(g4137
g71
NtRp4631
(dp4632
g74
(dp4633
g4141
g4142
ssg83
g4172
sg76
(lp4634
g69
(g4130
g71
NtRp4635
(dp4636
g74
(dp4637
g4134
g4135
sg4136
S'#'
ssg83
g4631
sg76
(lp4638
g3984
(S't\x07\x00\x00\x00Plugins'
tRp4639
asbag69
(g4143
g71
NtRp4640
(dp4641
g74
(dp4642
g4141
g4151
ssg83
g4631
sg76
(lp4643
g69
(g4137
g71
NtRp4644
(dp4645
g74
(dp4646
sg83
g4640
sg76
(lp4647
g69
(g4130
g71
NtRp4648
(dp4649
g74
(dp4650
g4136
S'http://web2py.com/examples/default/download'
p4651
ssg83
g4644
sg76
(lp4652
S'plugin_wiki'
p4653
asbasbag69
(g4137
g71
NtRp4654
(dp4655
g74
(dp4656
sg83
g4640
sg76
(lp4657
g69
(g4130
g71
NtRp4658
(dp4659
g74
(dp4660
g4136
g4381
ssg83
g4654
sg76
(lp4661
g3984
(S's\r\x00\x00\x00Other Plugins'
tRp4662
asbasbag69
(g4137
g71
NtRp4663
(dp4664
g74
(dp4665
sg83
g4640
sg76
(lp4666
g69
(g4130
g71
NtRp4667
(dp4668
g74
(dp4669
g4136
g4391
ssg83
g4663
sg76
(lp4670
g3984
(S's\x0e\x00\x00\x00Layout Plugins'
tRp4671
asbasbasbasbasbasbsg76
(lp4672
g4126
asbsg76
(lp4673
g3930
asbasbasbasbag69
(g85
g71
NtRp4674
(dp4675
g74
(dp4676
sg83
g4109
sg76
(lp4677
g69
(g90
g71
NtRp4678
(dp4679
g74
(dp4680
sg83
g4674
sg76
(lp4681
g69
(g70
g71
NtRp4682
(dp4683
g74
(dp4684
g82
I3
ssg83
g4678
sg76
(lp4685
g112
asbasbasbag69
(g85
g71
NtRp4686
(dp4687
g74
(dp4688
sg83
g4109
sg76
(lp4689
g69
(g90
g71
NtRp4690
(dp4691
g74
(dp4692
sg83
g4686
sg76
(lp4693
g69
(g70
g71
NtRp4694
(dp4695
g74
(dp4696
g82
I3
ssg83
g4690
sg76
(lp4697
S'None'
p4698
asbasbasbag69
(g85
g71
NtRp4699
(dp4700
g74
(dp4701
sg83
g4109
sg76
(lp4702
g69
(g90
g71
NtRp4703
(dp4704
g74
(dp4705
sg83
g4699
sg76
(lp4706
g69
(g70
g71
NtRp4707
(dp4708
g74
(dp4709
g82
I3
ssg83
g4703
sg76
(lp4710
g69
(g78
g71
NtRp4711
(dp4712
g74
(dp4713
g82
I2
ssg83
Nsg76
(lp4714
g69
(g85
g71
NtRp4715
(dp4716
g74
(dp4717
sg83
g4711
sg76
(lp4718
g69
(g90
g71
NtRp4719
(dp4720
g74
(dp4721
sg83
g4715
sg76
(lp4722
g69
(g70
g71
NtRp4723
(dp4724
g74
(dp4725
g82
I2
ssg83
g4719
sg76
(lp4726
g69
(g78
g71
NtRp4727
(dp4728
g74
(dp4729
g82
I1
ssg83
Nsg76
(lp4730
g69
(g85
g71
NtRp4731
(dp4732
g74
(dp4733
sg83
g4727
sg76
(lp4734
g69
(g90
g71
NtRp4735
(dp4736
g74
(dp4737
sg83
g4731
sg76
(lp4738
g69
(g70
g71
NtRp4739
(dp4740
g74
(dp4741
g82
I1
ssg83
g4735
sg76
(lp4742
g4185
asbasbasbag69
(g85
g71
NtRp4743
(dp4744
g74
(dp4745
sg83
g4727
sg76
(lp4746
g69
(g90
g71
NtRp4747
(dp4748
g74
(dp4749
sg83
g4743
sg76
(lp4750
g69
(g70
g71
NtRp4751
(dp4752
g74
(dp4753
g82
I1
ssg83
g4747
sg76
(lp4754
I00
asbasbasbag69
(g85
g71
NtRp4755
(dp4756
g74
(dp4757
sg83
g4727
sg76
(lp4758
g69
(g90
g71
NtRp4759
(dp4760
g74
(dp4761
sg83
g4755
sg76
(lp4762
g69
(g70
g71
NtRp4763
(dp4764
g74
(dp4765
g82
I1
ssg83
g4759
sg76
(lp4766
g4183
asbasbasbasbasbasbasbag69
(g85
g71
NtRp4767
(dp4768
g74
(dp4769
sg83
g4711
sg76
(lp4770
g69
(g90
g71
NtRp4771
(dp4772
g74
(dp4773
sg83
g4767
sg76
(lp4774
g69
(g70
g71
NtRp4775
(dp4776
g74
(dp4777
g82
I2
ssg83
g4771
sg76
(lp4778
g69
(g78
g71
NtRp4779
(dp4780
g74
(dp4781
g82
I1
ssg83
Nsg76
(lp4782
g69
(g85
g71
NtRp4783
(dp4784
g74
(dp4785
sg83
g4779
sg76
(lp4786
g69
(g90
g71
NtRp4787
(dp4788
g74
(dp4789
sg83
g4783
sg76
(lp4790
g69
(g70
g71
NtRp4791
(dp4792
g74
(dp4793
g82
I1
ssg83
g4787
sg76
(lp4794
g4195
asbasbasbag69
(g85
g71
NtRp4795
(dp4796
g74
(dp4797
sg83
g4779
sg76
(lp4798
g69
(g90
g71
NtRp4799
(dp4800
g74
(dp4801
sg83
g4795
sg76
(lp4802
g69
(g70
g71
NtRp4803
(dp4804
g74
(dp4805
g82
I1
ssg83
g4799
sg76
(lp4806
I00
asbasbasbag69
(g85
g71
NtRp4807
(dp4808
g74
(dp4809
sg83
g4779
sg76
(lp4810
g69
(g90
g71
NtRp4811
(dp4812
g74
(dp4813
sg83
g4807
sg76
(lp4814
g69
(g70
g71
NtRp4815
(dp4816
g74
(dp4817
g82
I1
ssg83
g4811
sg76
(lp4818
g4193
asbasbasbag69
(g85
g71
NtRp4819
(dp4820
g74
(dp4821
sg83
g4779
sg76
(lp4822
g69
(g90
g71
NtRp4823
(dp4824
g74
(dp4825
sg83
g4819
sg76
(lp4826
g69
(g70
g71
NtRp4827
(dp4828
g74
(dp4829
g82
I1
ssg83
g4823
sg76
(lp4830
(lp4831
(g4209
I00
g4207
tp4832
a(g4219
I00
g4217
tp4833
a(g4229
I00
g4227
tp4834
a(g4239
I00
g4237
tp4835
a(g4249
I00
g4247
tp4836
a(g4259
I00
g4257
tp4837
a(g4269
I00
g4267
tp4838
a(g4279
I00
g4277
tp4839
a(g4289
I00
g4287
tp4840
aasbasbasbasbasbasbasbag69
(g85
g71
NtRp4841
(dp4842
g74
(dp4843
sg83
g4711
sg76
(lp4844
g69
(g90
g71
NtRp4845
(dp4846
g74
(dp4847
sg83
g4841
sg76
(lp4848
g69
(g70
g71
NtRp4849
(dp4850
g74
(dp4851
g82
I2
ssg83
g4845
sg76
(lp4852
g69
(g78
g71
NtRp4853
(dp4854
g74
(dp4855
g82
I1
ssg83
Nsg76
(lp4856
g69
(g85
g71
NtRp4857
(dp4858
g74
(dp4859
sg83
g4853
sg76
(lp4860
g69
(g90
g71
NtRp4861
(dp4862
g74
(dp4863
sg83
g4857
sg76
(lp4864
g69
(g70
g71
NtRp4865
(dp4866
g74
(dp4867
g82
I1
ssg83
g4861
sg76
(lp4868
g4299
asbasbasbag69
(g85
g71
NtRp4869
(dp4870
g74
(dp4871
sg83
g4853
sg76
(lp4872
g69
(g90
g71
NtRp4873
(dp4874
g74
(dp4875
sg83
g4869
sg76
(lp4876
g69
(g70
g71
NtRp4877
(dp4878
g74
(dp4879
g82
I1
ssg83
g4873
sg76
(lp4880
I00
asbasbasbag69
(g85
g71
NtRp4881
(dp4882
g74
(dp4883
sg83
g4853
sg76
(lp4884
g69
(g90
g71
NtRp4885
(dp4886
g74
(dp4887
sg83
g4881
sg76
(lp4888
g69
(g70
g71
NtRp4889
(dp4890
g74
(dp4891
g82
I1
ssg83
g4885
sg76
(lp4892
g4297
asbasbasbag69
(g85
g71
NtRp4893
(dp4894
g74
(dp4895
sg83
g4853
sg76
(lp4896
g69
(g90
g71
NtRp4897
(dp4898
g74
(dp4899
sg83
g4893
sg76
(lp4900
g69
(g70
g71
NtRp4901
(dp4902
g74
(dp4903
g82
I1
ssg83
g4897
sg76
(lp4904
(lp4905
(g4313
I00
g4311
tp4906
a(g4323
I00
g4321
tp4907
a(g4333
I00
g4331
tp4908
a(g4343
I00
g4341
tp4909
a(g4353
I00
g4351
tp4910
a(g4363
I00
g4361
tp4911
a(g4373
I00
g4371
tp4912
a(g4383
I00
g4381
tp4913
a(g4393
I00
g4391
tp4914
a(g4403
I00
g4401
tp4915
a(g4413
I00
g4411
tp4916
aasbasbasbasbasbasbasbag69
(g85
g71
NtRp4917
(dp4918
g74
(dp4919
sg83
g4711
sg76
(lp4920
g69
(g90
g71
NtRp4921
(dp4922
g74
(dp4923
sg83
g4917
sg76
(lp4924
g69
(g70
g71
NtRp4925
(dp4926
g74
(dp4927
g82
I2
ssg83
g4921
sg76
(lp4928
g69
(g78
g71
NtRp4929
(dp4930
g74
(dp4931
g82
I1
ssg83
Nsg76
(lp4932
g69
(g85
g71
NtRp4933
(dp4934
g74
(dp4935
sg83
g4929
sg76
(lp4936
g69
(g90
g71
NtRp4937
(dp4938
g74
(dp4939
sg83
g4933
sg76
(lp4940
g69
(g70
g71
NtRp4941
(dp4942
g74
(dp4943
g82
I1
ssg83
g4937
sg76
(lp4944
g4423
asbasbasbag69
(g85
g71
NtRp4945
(dp4946
g74
(dp4947
sg83
g4929
sg76
(lp4948
g69
(g90
g71
NtRp4949
(dp4950
g74
(dp4951
sg83
g4945
sg76
(lp4952
g69
(g70
g71
NtRp4953
(dp4954
g74
(dp4955
g82
I1
ssg83
g4949
sg76
(lp4956
I00
asbasbasbag69
(g85
g71
NtRp4957
(dp4958
g74
(dp4959
sg83
g4929
sg76
(lp4960
g69
(g90
g71
NtRp4961
(dp4962
g74
(dp4963
sg83
g4957
sg76
(lp4964
g69
(g70
g71
NtRp4965
(dp4966
g74
(dp4967
g82
I1
ssg83
g4961
sg76
(lp4968
g4421
asbasbasbag69
(g85
g71
NtRp4969
(dp4970
g74
(dp4971
sg83
g4929
sg76
(lp4972
g69
(g90
g71
NtRp4973
(dp4974
g74
(dp4975
sg83
g4969
sg76
(lp4976
g69
(g70
g71
NtRp4977
(dp4978
g74
(dp4979
g82
I1
ssg83
g4973
sg76
(lp4980
(lp4981
(g4437
I00
g4435
tp4982
a(g4447
I00
g4445
tp4983
a(g4457
I00
g4455
tp4984
a(g4467
I00
g4465
tp4985
a(g4477
I00
g4475
tp4986
a(g4487
I00
g4485
tp4987
a(g4497
I00
g4495
tp4988
a(g4507
I00
g4505
tp4989
a(g4517
I00
g4515
tp4990
a(g4527
I00
g4525
tp4991
a(g4537
I00
g4535
tp4992
a(g4547
I00
g4545
tp4993
a(g4557
I00
g4555
tp4994
a(g4567
I00
g4565
tp4995
a(g4577
I00
g4575
tp4996
a(g4587
I00
g4585
tp4997
aasbasbasbasbasbasbasbag69
(g85
g71
NtRp4998
(dp4999
g74
(dp5000
sg83
g4711
sg76
(lp5001
g69
(g90
g71
NtRp5002
(dp5003
g74
(dp5004
sg83
g4998
sg76
(lp5005
g69
(g70
g71
NtRp5006
(dp5007
g74
(dp5008
g82
I2
ssg83
g5002
sg76
(lp5009
g69
(g78
g71
NtRp5010
(dp5011
g74
(dp5012
g82
I1
ssg83
Nsg76
(lp5013
g69
(g85
g71
NtRp5014
(dp5015
g74
(dp5016
sg83
g5010
sg76
(lp5017
g69
(g90
g71
NtRp5018
(dp5019
g74
(dp5020
sg83
g5014
sg76
(lp5021
g69
(g70
g71
NtRp5022
(dp5023
g74
(dp5024
g82
I1
ssg83
g5018
sg76
(lp5025
g4596
asbasbasbag69
(g85
g71
NtRp5026
(dp5027
g74
(dp5028
sg83
g5010
sg76
(lp5029
g69
(g90
g71
NtRp5030
(dp5031
g74
(dp5032
sg83
g5026
sg76
(lp5033
g69
(g70
g71
NtRp5034
(dp5035
g74
(dp5036
g82
I1
ssg83
g5030
sg76
(lp5037
I00
asbasbasbag69
(g85
g71
NtRp5038
(dp5039
g74
(dp5040
sg83
g5010
sg76
(lp5041
g69
(g90
g71
NtRp5042
(dp5043
g74
(dp5044
sg83
g5038
sg76
(lp5045
g69
(g70
g71
NtRp5046
(dp5047
g74
(dp5048
g82
I1
ssg83
g5042
sg76
(lp5049
Nasbasbasbag69
(g85
g71
NtRp5050
(dp5051
g74
(dp5052
sg83
g5010
sg76
(lp5053
g69
(g90
g71
NtRp5054
(dp5055
g74
(dp5056
sg83
g5050
sg76
(lp5057
g69
(g70
g71
NtRp5058
(dp5059
g74
(dp5060
g82
I1
ssg83
g5054
sg76
(lp5061
(lp5062
(g4610
I00
g4608
tp5063
a(g4620
I00
g4618
tp5064
a(g4630
I00
g4628
tp5065
aasbasbasbasbasbasbasbag69
(g85
g71
NtRp5066
(dp5067
g74
(dp5068
sg83
g4711
sg76
(lp5069
g69
(g90
g71
NtRp5070
(dp5071
g74
(dp5072
sg83
g5066
sg76
(lp5073
g69
(g70
g71
NtRp5074
(dp5075
g74
(dp5076
g82
I2
ssg83
g5070
sg76
(lp5077
g69
(g78
g71
NtRp5078
(dp5079
g74
(dp5080
g82
I1
ssg83
Nsg76
(lp5081
g69
(g85
g71
NtRp5082
(dp5083
g74
(dp5084
sg83
g5078
sg76
(lp5085
g69
(g90
g71
NtRp5086
(dp5087
g74
(dp5088
sg83
g5082
sg76
(lp5089
g69
(g70
g71
NtRp5090
(dp5091
g74
(dp5092
g82
I1
ssg83
g5086
sg76
(lp5093
g4639
asbasbasbag69
(g85
g71
NtRp5094
(dp5095
g74
(dp5096
sg83
g5078
sg76
(lp5097
g69
(g90
g71
NtRp5098
(dp5099
g74
(dp5100
sg83
g5094
sg76
(lp5101
g69
(g70
g71
NtRp5102
(dp5103
g74
(dp5104
g82
I1
ssg83
g5098
sg76
(lp5105
I00
asbasbasbag69
(g85
g71
NtRp5106
(dp5107
g74
(dp5108
sg83
g5078
sg76
(lp5109
g69
(g90
g71
NtRp5110
(dp5111
g74
(dp5112
sg83
g5106
sg76
(lp5113
g69
(g70
g71
NtRp5114
(dp5115
g74
(dp5116
g82
I1
ssg83
g5110
sg76
(lp5117
Nasbasbasbag69
(g85
g71
NtRp5118
(dp5119
g74
(dp5120
sg83
g5078
sg76
(lp5121
g69
(g90
g71
NtRp5122
(dp5123
g74
(dp5124
sg83
g5118
sg76
(lp5125
g69
(g70
g71
NtRp5126
(dp5127
g74
(dp5128
g82
I1
ssg83
g5122
sg76
(lp5129
(lp5130
(g4653
I00
g4651
tp5131
a(g4662
I00
g4381
tp5132
a(g4671
I00
g4391
tp5133
aasbasbasbasbasbasbasbasbasbasbasbasbasbasbasbasbasbasbasbag69
(g85
g71
NtRp5134
(dp5135
g74
(dp5136
sg83
g3285
sg76
(lp5137
g69
(g90
g71
NtRp5138
(dp5139
g74
(dp5140
g94
g95
ssg83
g5134
sg76
(lp5141
S'meta'
p5142
asbag69
(g90
g71
NtRp5143
(dp5144
g74
(dp5145
g101
g102
ssg83
g5134
sg76
(lp5146
S':'
asbag69
(g90
g71
NtRp5147
(dp5148
g74
(dp5149
sg83
g5134
sg76
(lp5150
g69
(g70
g71
NtRp5151
(dp5152
g74
(dp5153
g82
I5
ssg83
g5147
sg76
(lp5154
g69
(g78
g71
NtRp5155
(dp5156
g74
(dp5157
g82
I4
ssg83
Nsg76
(lp5158
g69
(g85
g71
NtRp5159
(dp5160
g74
(dp5161
sg83
g5155
sg76
(lp5162
g69
(g90
g71
NtRp5163
(dp5164
g74
(dp5165
g94
g95
ssg83
g5159
sg76
(lp5166
S'author'
p5167
asbag69
(g90
g71
NtRp5168
(dp5169
g74
(dp5170
g101
g102
ssg83
g5159
sg76
(lp5171
S':'
asbag69
(g90
g71
NtRp5172
(dp5173
g74
(dp5174
sg83
g5159
sg76
(lp5175
g69
(g70
g71
NtRp5176
(dp5177
g74
(dp5178
g82
I4
ssg83
g5172
sg76
(lp5179
S'Vincenzo Ampolo <vincenzo.ampolo@gmail.com>'
p5180
asbasbasbag69
(g85
g71
NtRp5181
(dp5182
g74
(dp5183
sg83
g5155
sg76
(lp5184
g69
(g90
g71
NtRp5185
(dp5186
g74
(dp5187
g94
g95
ssg83
g5181
sg76
(lp5188
S'copyright'
p5189
asbag69
(g90
g71
NtRp5190
(dp5191
g74
(dp5192
g101
g102
ssg83
g5181
sg76
(lp5193
S':'
asbag69
(g90
g71
NtRp5194
(dp5195
g74
(dp5196
sg83
g5181
sg76
(lp5197
g69
(g70
g71
NtRp5198
(dp5199
g74
(dp5200
g82
I4
ssg83
g5194
sg76
(lp5201
S'Copyright 2012'
p5202
asbasbasbag69
(g85
g71
NtRp5203
(dp5204
g74
(dp5205
sg83
g5155
sg76
(lp5206
g69
(g90
g71
NtRp5207
(dp5208
g74
(dp5209
g94
g95
ssg83
g5203
sg76
(lp5210
S'description'
p5211
asbag69
(g90
g71
NtRp5212
(dp5213
g74
(dp5214
g101
g102
ssg83
g5203
sg76
(lp5215
S':'
asbag69
(g90
g71
NtRp5216
(dp5217
g74
(dp5218
sg83
g5203
sg76
(lp5219
g69
(g70
g71
NtRp5220
(dp5221
g74
(dp5222
g82
I4
ssg83
g5216
sg76
(lp5223
S'Milo recommendation system'
p5224
asbasbasbag69
(g85
g71
NtRp5225
(dp5226
g74
(dp5227
sg83
g5155
sg76
(lp5228
g69
(g90
g71
NtRp5229
(dp5230
g74
(dp5231
g94
g95
ssg83
g5225
sg76
(lp5232
S'generator'
p5233
asbag69
(g90
g71
NtRp5234
(dp5235
g74
(dp5236
g101
g102
ssg83
g5225
sg76
(lp5237
S':'
asbag69
(g90
g71
NtRp5238
(dp5239
g74
(dp5240
sg83
g5225
sg76
(lp5241
g69
(g70
g71
NtRp5242
(dp5243
g74
(dp5244
g82
I4
ssg83
g5238
sg76
(lp5245
S'Web2py Web Framework'
p5246
asbasbasbag69
(g85
g71
NtRp5247
(dp5248
g74
(dp5249
sg83
g5155
sg76
(lp5250
g69
(g90
g71
NtRp5251
(dp5252
g74
(dp5253
g94
g95
ssg83
g5247
sg76
(lp5254
S'keywords'
p5255
asbag69
(g90
g71
NtRp5256
(dp5257
g74
(dp5258
g101
g102
ssg83
g5247
sg76
(lp5259
S':'
asbag69
(g90
g71
NtRp5260
(dp5261
g74
(dp5262
sg83
g5247
sg76
(lp5263
g69
(g70
g71
NtRp5264
(dp5265
g74
(dp5266
g82
I4
ssg83
g5260
sg76
(lp5267
S'web2py, python, framework'
p5268
asbasbasbasbasbasbasbag69
(g85
g71
NtRp5269
(dp5270
g74
(dp5271
sg83
g3285
sg76
(lp5272
g69
(g90
g71
NtRp5273
(dp5274
g74
(dp5275
g94
g95
ssg83
g5269
sg76
(lp5276
S'postprocessing'
p5277
asbag69
(g90
g71
NtRp5278
(dp5279
g74
(dp5280
g101
g102
ssg83
g5269
sg76
(lp5281
S':'
asbag69
(g90
g71
NtRp5282
(dp5283
g74
(dp5284
sg83
g5269
sg76
(lp5285
g69
(g70
g71
NtRp5286
(dp5287
g74
(dp5288
g82
I5
ssg83
g5282
sg76
(lp5289
g69
(g78
g71
NtRp5290
(dp5291
g74
(dp5292
g82
I4
ssg83
Nsg76
(lp5293
sbasbasbasbag69
(g85
g71
NtRp5294
(dp5295
g74
(dp5296
sg83
g3285
sg76
(lp5297
g69
(g90
g71
NtRp5298
(dp5299
g74
(dp5300
g94
g95
ssg83
g5294
sg76
(lp5301
S'session_file'
p5302
asbag69
(g90
g71
NtRp5303
(dp5304
g74
(dp5305
g101
g102
ssg83
g5294
sg76
(lp5306
S':'
asbag69
(g90
g71
NtRp5307
(dp5308
g74
(dp5309
sg83
g5294
sg76
(lp5310
g69
(g70
g71
NtRp5311
(dp5312
g74
(dp5313
g82
I5
ssg83
g5307
sg76
(lp5314
S"<open file '/home/goshawk/web2py/applications/milo/sessions/127.0.0.1-6c16d76a-1f8c-4e9b-9b63-cec19a96b9d8', mode 'rb+' at 0x7fb49dd03150>"
p5315
asbasbasbag69
(g85
g71
NtRp5316
(dp5317
g74
(dp5318
sg83
g3285
sg76
(lp5319
g69
(g90
g71
NtRp5320
(dp5321
g74
(dp5322
g94
g95
ssg83
g5316
sg76
(lp5323
S'session_filename'
p5324
asbag69
(g90
g71
NtRp5325
(dp5326
g74
(dp5327
g101
g102
ssg83
g5316
sg76
(lp5328
S':'
asbag69
(g90
g71
NtRp5329
(dp5330
g74
(dp5331
sg83
g5316
sg76
(lp5332
g69
(g70
g71
NtRp5333
(dp5334
g74
(dp5335
g82
I5
ssg83
g5329
sg76
(lp5336
S'/home/goshawk/web2py/applications/milo/sessions/127.0.0.1-6c16d76a-1f8c-4e9b-9b63-cec19a96b9d8'
p5337
asbasbasbag69
(g85
g71
NtRp5338
(dp5339
g74
(dp5340
sg83
g3285
sg76
(lp5341
g69
(g90
g71
NtRp5342
(dp5343
g74
(dp5344
g94
g95
ssg83
g5338
sg76
(lp5345
S'session_id'
p5346
asbag69
(g90
g71
NtRp5347
(dp5348
g74
(dp5349
g101
g102
ssg83
g5338
sg76
(lp5350
S':'
asbag69
(g90
g71
NtRp5351
(dp5352
g74
(dp5353
sg83
g5338
sg76
(lp5354
g69
(g70
g71
NtRp5355
(dp5356
g74
(dp5357
g82
I5
ssg83
g5351
sg76
(lp5358
S'127.0.0.1-6c16d76a-1f8c-4e9b-9b63-cec19a96b9d8'
p5359
asbasbasbag69
(g85
g71
NtRp5360
(dp5361
g74
(dp5362
sg83
g3285
sg76
(lp5363
g69
(g90
g71
NtRp5364
(dp5365
g74
(dp5366
g94
g95
ssg83
g5360
sg76
(lp5367
S'session_id_name'
p5368
asbag69
(g90
g71
NtRp5369
(dp5370
g74
(dp5371
g101
g102
ssg83
g5360
sg76
(lp5372
S':'
asbag69
(g90
g71
NtRp5373
(dp5374
g74
(dp5375
sg83
g5360
sg76
(lp5376
g69
(g70
g71
NtRp5377
(dp5378
g74
(dp5379
g82
I5
ssg83
g5373
sg76
(lp5380
g3342
asbasbasbag69
(g85
g71
NtRp5381
(dp5382
g74
(dp5383
sg83
g3285
sg76
(lp5384
g69
(g90
g71
NtRp5385
(dp5386
g74
(dp5387
g94
g95
ssg83
g5381
sg76
(lp5388
S'session_locked'
p5389
asbag69
(g90
g71
NtRp5390
(dp5391
g74
(dp5392
g101
g102
ssg83
g5381
sg76
(lp5393
S':'
asbag69
(g90
g71
NtRp5394
(dp5395
g74
(dp5396
sg83
g5381
sg76
(lp5397
g69
(g70
g71
NtRp5398
(dp5399
g74
(dp5400
g82
I5
ssg83
g5394
sg76
(lp5401
g1766
asbasbasbag69
(g85
g71
NtRp5402
(dp5403
g74
(dp5404
sg83
g3285
sg76
(lp5405
g69
(g90
g71
NtRp5406
(dp5407
g74
(dp5408
g94
g95
ssg83
g5402
sg76
(lp5409
S'session_new'
p5410
asbag69
(g90
g71
NtRp5411
(dp5412
g74
(dp5413
g101
g102
ssg83
g5402
sg76
(lp5414
S':'
asbag69
(g90
g71
NtRp5415
(dp5416
g74
(dp5417
sg83
g5402
sg76
(lp5418
g69
(g70
g71
NtRp5419
(dp5420
g74
(dp5421
g82
I5
ssg83
g5415
sg76
(lp5422
g112
asbasbasbag69
(g85
g71
NtRp5423
(dp5424
g74
(dp5425
sg83
g3285
sg76
(lp5426
g69
(g90
g71
NtRp5427
(dp5428
g74
(dp5429
g94
g95
ssg83
g5423
sg76
(lp5430
S'status'
p5431
asbag69
(g90
g71
NtRp5432
(dp5433
g74
(dp5434
g101
g102
ssg83
g5423
sg76
(lp5435
S':'
asbag69
(g90
g71
NtRp5436
(dp5437
g74
(dp5438
sg83
g5423
sg76
(lp5439
g69
(g70
g71
NtRp5440
(dp5441
g74
(dp5442
g82
I5
ssg83
g5436
sg76
(lp5443
S'200'
p5444
asbasbasbag69
(g85
g71
NtRp5445
(dp5446
g74
(dp5447
sg83
g3285
sg76
(lp5448
g69
(g90
g71
NtRp5449
(dp5450
g74
(dp5451
g94
g95
ssg83
g5445
sg76
(lp5452
S'title'
p5453
asbag69
(g90
g71
NtRp5454
(dp5455
g74
(dp5456
g101
g102
ssg83
g5445
sg76
(lp5457
S':'
asbag69
(g90
g71
NtRp5458
(dp5459
g74
(dp5460
sg83
g5445
sg76
(lp5461
g69
(g70
g71
NtRp5462
(dp5463
g74
(dp5464
g82
I5
ssg83
g5458
sg76
(lp5465
S'Milo'
p5466
asbasbasbag69
(g85
g71
NtRp5467
(dp5468
g74
(dp5469
sg83
g3285
sg76
(lp5470
g69
(g90
g71
NtRp5471
(dp5472
g74
(dp5473
g94
g95
ssg83
g5467
sg76
(lp5474
g2451
asbag69
(g90
g71
NtRp5475
(dp5476
g74
(dp5477
g101
g102
ssg83
g5467
sg76
(lp5478
S':'
asbag69
(g90
g71
NtRp5479
(dp5480
g74
(dp5481
sg83
g5467
sg76
(lp5482
g69
(g70
g71
NtRp5483
(dp5484
g74
(dp5485
g82
I5
ssg83
g5479
sg76
(lp5486
g2464
asbasbasbag69
(g85
g71
NtRp5487
(dp5488
g74
(dp5489
sg83
g3285
sg76
(lp5490
g69
(g90
g71
NtRp5491
(dp5492
g74
(dp5493
g94
g95
ssg83
g5487
sg76
(lp5494
S'view'
p5495
asbag69
(g90
g71
NtRp5496
(dp5497
g74
(dp5498
g101
g102
ssg83
g5487
sg76
(lp5499
S':'
asbag69
(g90
g71
NtRp5500
(dp5501
g74
(dp5502
sg83
g5487
sg76
(lp5503
g69
(g70
g71
NtRp5504
(dp5505
g74
(dp5506
g82
I5
ssg83
g5500
sg76
(lp5507
S'default/index.html'
p5508
asbasbasbasbasbsS'locals'
p5509
(dp5510
g2473
g21
sS'hash_vars'
p5511
g1766
sS'port'
p5512
S'None'
p5513
sS'current'
p5514
S'<thread._local object>'
p5515
sg121
S"'milo'"
p5516
sS'user_signature'
p5517
S'None'
p5518
sg833
S"<Storage {'debugging': False, 'http_user_agent':...[]), 'query_string': '', 'wsgi_run_once': False}>"
p5519
sS'url_encode'
p5520
g1766
sS'scheme'
p5521
S'None'
p5522
sg1911
S"''"
p5523
sS'encode_embedded_slash'
p5524
g112
sg52
S"['static', 'images', 'movies', 'posters', '120539.jpg']"
p5525
sg223
S"'static'"
p5526
sS'a'
S'None'
p5527
sS'c'
S"'static'"
p5528
sS'function2'
p5529
S"'.html'"
p5530
sg1867
S'None'
p5531
sS'f'
S"''"
p5532
sS'items'
p5533
S"['', 'static', 'images', 'movies', 'posters', '120539.jpg']"
p5534
sS'host'
p5535
S'None'
p5536
sS'hmac_key'
p5537
S'None'
p5538
sS'r'
S"<Storage {'body': <cStringIO.StringO object at 0..._vars': <Storage {}>, 'post_vars': <Storage {}>}>"
p5539
sS'salt'
p5540
S'None'
p5541
sS'anchor'
p5542
S"''"
p5543
sssS'traceback'
p5544
S'Traceback (most recent call last):\n  File "/home/goshawk/web2py/gluon/restricted.py", line 205, in restricted\n    exec ccode in environment\n  File "/home/goshawk/web2py/applications/milo/views/default/index.html", line 97, in <module>\n    {{if page != 0:}}\n  File "/home/goshawk/web2py/gluon/html.py", line 274, in URL\n    raise SyntaxError, \'not enough information to build the url\'\nSyntaxError: not enough information to build the url\n'
p5545
s.