(dp1
S'output'
p2
S'<class \'psycopg2.ProgrammingError\'> syntax error at or near "cast"\nLINE 1: CREATE TABLE cast(\n                     ^\n'
p3
sS'layer'
p4
S'/home/goshawk/web2py/applications/milo/models/db.py'
p5
sS'code'
p6
S"# -*- coding: utf-8 -*-\n\n#########################################################################\n## This scaffolding model makes your app work on Google App Engine too\n## File is released under public domain and you can use without limitations\n#########################################################################\n\n## if SSL/HTTPS is properly configured and you want all HTTP requests to\n## be redirected to HTTPS, uncomment the line below:\n# request.requires_https()\n\nif not request.env.web2py_runtime_gae:\n    ## if NOT running on Google App Engine use SQLite or other DB\n    db = DAL('postgres://milo:milosecret@localhost/milo-reloaded')\nelse:\n    ## connect to Google BigTable (optional 'google:datastore://namespace')\n    db = DAL('google:datastore')\n    ## store sessions and tickets there\n    session.connect(request, response, db = db)\n    ## or store session in Memcache, Redis, etc.\n    ## from gluon.contrib.memdb import MEMDB\n    ## from google.appengine.api.memcache import Client\n    ## session.connect(request, response, db = MEMDB(Client()))\n\n## by default give a view/generic.extension to all actions from localhost\n## none otherwise. a pattern can be 'controller/function.extension'\nresponse.generic_patterns = ['*'] if request.is_local else []\n## (optional) optimize handling of static files\n# response.optimize_css = 'concat,minify,inline'\n# response.optimize_js = 'concat,minify,inline'\n\n#########################################################################\n## Here is sample code if you need for\n## - email capabilities\n## - authentication (registration, login, logout, ... )\n## - authorization (role based authorization)\n## - services (xml, csv, json, xmlrpc, jsonrpc, amf, rss)\n## - old style crud actions\n## (more options discussed in gluon/tools.py)\n#########################################################################\n\nfrom gluon.tools import Auth, Crud, Service, PluginManager, prettydate\nauth = Auth(db, hmac_key=Auth.get_or_create_key())\ncrud, service, plugins = Crud(db), Service(), PluginManager()\n\n## create all tables needed by auth if not custom tables\nauth.define_tables()\n\n## configure email\nmail=auth.settings.mailer\nmail.settings.server = 'logging' or 'smtp.gmail.com:587'\nmail.settings.sender = 'you@gmail.com'\nmail.settings.login = 'username:password'\n\n## configure auth policy\nauth.settings.registration_requires_verification = False\nauth.settings.registration_requires_approval = False\nauth.settings.reset_password_requires_verification = True\n\n## if you need to use OpenID, Facebook, MySpace, Twitter, Linkedin, etc.\n## register with janrain.com, write your domain:api_key in private/janrain.key\nfrom gluon.contrib.login_methods.rpx_account import use_janrain\nuse_janrain(auth,filename='private/janrain.key')\n\n#########################################################################\n## Define your tables below (or better in another model file) for example\n##\n## >>> db.define_table('mytable',Field('myfield','string'))\n##\n## Fields can be 'string','text','password','integer','double','boolean'\n##       'date','time','datetime','blob','upload', 'reference TABLENAME'\n## There is an implicit 'id integer autoincrement' field\n## Consult manual for more options, validators, etc.\n##\n## More API examples for controllers:\n##\n## >>> db.mytable.insert(myfield='value')\n## >>> rows=db(db.mytable.myfield=='value').select(db.mytable.ALL)\n## >>> for row in rows: print row.id, row.myfield\n#########################################################################\n\nimport imdb\n\nimdb_connection_str = 'postgres://imdb:imdbsecret@localhost/imdb'\n\nimsql = imdb.IMDb('sql', uri=imdb_connection_str)\n\nim = imdb.IMDb()\n\ndb.define_table('users',\n        Field('name'),\n        Field('email'),\n        Field('imdb_id', 'integer')\n        )\n\n#    genre = ListField(StringField())\n#    comments = ListField(EmbeddedDocumentField(Comment))\n#    cast = ListField(EmbeddedDocumentField(Person()))\n#    director = ListField(EmbeddedDocumentField(Person()))\n#    keywords = ListField(Stringfield())\n\ndb.define_table('genres',\n        Field('name')\n        )\n\n\ndb.define_table('persons',\n        Field('first_name'),\n        Field('last_name'),\n        Field('birth', 'datetime')\n        )\n\ndb.define_table('movies',\n        Field('imdb_id', 'integer'),\n        Field('title'),\n        Field('poster', 'text'),\n        Field('trailer', 'text'),\n        Field('plot', 'text'),\n        Field('date', 'datetime')\n        )\n\ndb.define_table('comments',\n        Field('movie', db.movies, requires = IS_IN_DB(db, 'movies.id', db.movies._format)),\n        Field('title'),\n        Field('text', 'text'),\n        Field('timestamp', 'datetime'),\n        )\n\ndb.define_table('roles',\n        Field('name')\n        )\n\ndb.define_table('cast',\n        Field('movie', db.movies, requires = IS_IN_DB(db, 'movies.id', db.movies._format)),\n        Field('person', db.persons, requires = IS_IN_DB(db, 'persons.id', db.persons._format)),\n        Field('role', db.roles, requires = IS_IN_DB(db, 'roles.id', db.roles._format))\n        )\n\ndb.define_table('ratings',\n        Field('iuser', db.users, requires = IS_IN_DB(db,'users.id',db.users._format)),\n        Field('imovie', db.movies, requires = IS_IN_DB(db,'movies.id',db.movies._format)),\n        Field('rating', 'double')\n        )\n\nmovies_with_ratings = (db.movies.id.belongs(db(db.ratings)._select(db.ratings.imovie, distinct=db.ratings.imovie)))\nmovies_with_titles = ~(db.movies.title==None)\nwith_poster = ~(db.movies.poster==None)\n\n#for x in db(db.ratings).select(db.ratings.ALL):\n#    for y in db(db.ratings.id>x.id).select(db.ratings.ALL):\n#        if y.iuser == x.iuser and y.imovie == x.imovie:\n#            y.delete_record()\n#    db.commit()\n\n#run only once\n#db.executesql('CREATE UNIQUE INDEX iuser_imovie ON ratings (iuser,imovie);')\n\n\ndb.define_table('features',\n        Field('name'),\n        Field('type')\n        )\n\ndb.define_table('movies_features',\n        Field('movie', db.movies, requires = IS_IN_DB(db,'movies.id',db.movies._format)),\n        Field('feature', db.features, requires = IS_IN_DB(db,'features.id',db.features._format)),\n        Field('times', 'integer')\n        )\n"
p7
sS'snapshot'
p8
(dp9
S'exception'
p10
(dp11
S'__module__'
p12
S"'psycopg2'"
p13
sS'__getslice__'
p14
S"<method-wrapper '__getslice__' of ProgrammingError object>"
p15
sS'__str__'
p16
S"<method-wrapper '__str__' of ProgrammingError object>"
p17
sS'__reduce__'
p18
S'<built-in method __reduce__ of ProgrammingError object>'
p19
sS'__dict__'
p20
S'{\'cursor\': <cursor object at 0x1fe1908; closed: 0>, \'pgcode\': \'42601\', \'pgerror\': \'ERROR:  syntax error at or near "cast"\\nLINE 1: CREATE TABLE cast(\\n                     ^\\n\'}'
p21
sS'__sizeof__'
p22
S'<built-in method __sizeof__ of ProgrammingError object>'
p23
sS'__weakref__'
p24
S'None'
p25
sS'__init__'
p26
S"<method-wrapper '__init__' of ProgrammingError object>"
p27
sS'__setattr__'
p28
S"<method-wrapper '__setattr__' of ProgrammingError object>"
p29
sS'__reduce_ex__'
p30
S'<built-in method __reduce_ex__ of ProgrammingError object>'
p31
sS'__new__'
p32
S'<built-in method __new__ of type object>'
p33
sS'__format__'
p34
S'<built-in method __format__ of ProgrammingError object>'
p35
sS'__class__'
p36
S"<class 'psycopg2.ProgrammingError'>"
p37
sS'pgerror'
p38
S'\'ERROR:  syntax error at or near "cast"\\nLINE 1: CREATE TABLE cast(\\n                     ^\\n\''
p39
sS'__doc__'
p40
S"'Error related to database programming (SQL error, table not found etc).'"
p41
sS'__getitem__'
p42
S"<method-wrapper '__getitem__' of ProgrammingError object>"
p43
sS'__setstate__'
p44
S'<built-in method __setstate__ of ProgrammingError object>'
p45
sS'__getattribute__'
p46
S"<method-wrapper '__getattribute__' of ProgrammingError object>"
p47
sS'args'
p48
S'(\'syntax error at or near "cast"\\nLINE 1: CREATE TABLE cast(\\n                     ^\\n\',)'
p49
sS'__subclasshook__'
p50
S'<built-in method __subclasshook__ of type object>'
p51
sS'pgcode'
p52
S"'42601'"
p53
sS'__unicode__'
p54
S'<built-in method __unicode__ of ProgrammingError object>'
p55
sS'cursor'
p56
S'<cursor object at 0x1fe1908; closed: 0>'
p57
sS'__delattr__'
p58
S"<method-wrapper '__delattr__' of ProgrammingError object>"
p59
sS'__repr__'
p60
S"<method-wrapper '__repr__' of ProgrammingError object>"
p61
sS'__hash__'
p62
S"<method-wrapper '__hash__' of ProgrammingError object>"
p63
ssS'evalue'
p64
S'syntax error at or near "cast"\nLINE 1: CREATE TABLE cast(\n                     ^\n'
p65
sS'request'
p66
ccopy_reg
_reconstructor
p67
(cgluon.html
BEAUTIFY
p68
c__builtin__
object
p69
NtRp70
(dp71
S'attributes'
p72
(dp73
sS'components'
p74
(lp75
g67
(cgluon.html
TABLE
p76
g69
NtRp77
(dp78
g72
(dp79
S'level'
p80
I5
ssS'parent'
p81
Nsg74
(lp82
g67
(cgluon.html
TR
p83
g69
NtRp84
(dp85
g72
(dp86
sg81
g77
sg74
(lp87
g67
(cgluon.html
TD
p88
g69
NtRp89
(dp90
g72
(dp91
S'_style'
p92
S'font-weight:bold;vertical-align:top'
p93
ssg81
g84
sg74
(lp94
S'ajax'
p95
asbag67
(g88
g69
NtRp96
(dp97
g72
(dp98
S'_valign'
p99
S'top'
p100
ssg81
g84
sg74
(lp101
S':'
asbag67
(g88
g69
NtRp102
(dp103
g72
(dp104
sg81
g84
sg74
(lp105
g67
(g68
g69
NtRp106
(dp107
g72
(dp108
g80
I5
ssg81
g102
sg74
(lp109
S'False'
p110
asbasbasbag67
(g83
g69
NtRp111
(dp112
g72
(dp113
sg81
g77
sg74
(lp114
g67
(g88
g69
NtRp115
(dp116
g72
(dp117
g92
g93
ssg81
g111
sg74
(lp118
S'application'
p119
asbag67
(g88
g69
NtRp120
(dp121
g72
(dp122
g99
g100
ssg81
g111
sg74
(lp123
S':'
asbag67
(g88
g69
NtRp124
(dp125
g72
(dp126
sg81
g111
sg74
(lp127
g67
(g68
g69
NtRp128
(dp129
g72
(dp130
g80
I5
ssg81
g124
sg74
(lp131
S'milo'
p132
asbasbasbag67
(g83
g69
NtRp133
(dp134
g72
(dp135
sg81
g77
sg74
(lp136
g67
(g88
g69
NtRp137
(dp138
g72
(dp139
g92
g93
ssg81
g133
sg74
(lp140
g48
asbag67
(g88
g69
NtRp141
(dp142
g72
(dp143
g99
g100
ssg81
g133
sg74
(lp144
S':'
asbag67
(g88
g69
NtRp145
(dp146
g72
(dp147
sg81
g133
sg74
(lp148
g67
(g68
g69
NtRp149
(dp150
g72
(dp151
g80
I5
ssg81
g145
sg74
(lp152
g67
(g76
g69
NtRp153
(dp154
g72
(dp155
g80
I4
ssg81
Nsg74
(lp156
sbasbasbasbag67
(g83
g69
NtRp157
(dp158
g72
(dp159
sg81
g77
sg74
(lp160
g67
(g88
g69
NtRp161
(dp162
g72
(dp163
g92
g93
ssg81
g157
sg74
(lp164
S'body'
p165
asbag67
(g88
g69
NtRp166
(dp167
g72
(dp168
g99
g100
ssg81
g157
sg74
(lp169
S':'
asbag67
(g88
g69
NtRp170
(dp171
g72
(dp172
sg81
g157
sg74
(lp173
g67
(g68
g69
NtRp174
(dp175
g72
(dp176
g80
I5
ssg81
g170
sg74
(lp177
S'<cStringIO.StringO object at 0x20ae7d8>'
p178
asbasbasbag67
(g83
g69
NtRp179
(dp180
g72
(dp181
sg81
g77
sg74
(lp182
g67
(g88
g69
NtRp183
(dp184
g72
(dp185
g92
g93
ssg81
g179
sg74
(lp186
S'client'
p187
asbag67
(g88
g69
NtRp188
(dp189
g72
(dp190
g99
g100
ssg81
g179
sg74
(lp191
S':'
asbag67
(g88
g69
NtRp192
(dp193
g72
(dp194
sg81
g179
sg74
(lp195
g67
(g68
g69
NtRp196
(dp197
g72
(dp198
g80
I5
ssg81
g192
sg74
(lp199
S'127.0.0.1'
p200
asbasbasbag67
(g83
g69
NtRp201
(dp202
g72
(dp203
sg81
g77
sg74
(lp204
g67
(g88
g69
NtRp205
(dp206
g72
(dp207
g92
g93
ssg81
g201
sg74
(lp208
S'controller'
p209
asbag67
(g88
g69
NtRp210
(dp211
g72
(dp212
g99
g100
ssg81
g201
sg74
(lp213
S':'
asbag67
(g88
g69
NtRp214
(dp215
g72
(dp216
sg81
g201
sg74
(lp217
g67
(g68
g69
NtRp218
(dp219
g72
(dp220
g80
I5
ssg81
g214
sg74
(lp221
S'default'
p222
asbasbasbag67
(g83
g69
NtRp223
(dp224
g72
(dp225
sg81
g77
sg74
(lp226
g67
(g88
g69
NtRp227
(dp228
g72
(dp229
g92
g93
ssg81
g223
sg74
(lp230
S'cookies'
p231
asbag67
(g88
g69
NtRp232
(dp233
g72
(dp234
g99
g100
ssg81
g223
sg74
(lp235
S':'
asbag67
(g88
g69
NtRp236
(dp237
g72
(dp238
sg81
g223
sg74
(lp239
g67
(g68
g69
NtRp240
(dp241
g72
(dp242
g80
I5
ssg81
g236
sg74
(lp243
g67
(g76
g69
NtRp244
(dp245
g72
(dp246
g80
I4
ssg81
Nsg74
(lp247
sbasbasbasbag67
(g83
g69
NtRp248
(dp249
g72
(dp250
sg81
g77
sg74
(lp251
g67
(g88
g69
NtRp252
(dp253
g72
(dp254
g92
g93
ssg81
g248
sg74
(lp255
S'env'
p256
asbag67
(g88
g69
NtRp257
(dp258
g72
(dp259
g99
g100
ssg81
g248
sg74
(lp260
S':'
asbag67
(g88
g69
NtRp261
(dp262
g72
(dp263
sg81
g248
sg74
(lp264
g67
(g68
g69
NtRp265
(dp266
g72
(dp267
g80
I5
ssg81
g261
sg74
(lp268
g67
(g76
g69
NtRp269
(dp270
g72
(dp271
g80
I4
ssg81
Nsg74
(lp272
g67
(g83
g69
NtRp273
(dp274
g72
(dp275
sg81
g269
sg74
(lp276
g67
(g88
g69
NtRp277
(dp278
g72
(dp279
g92
g93
ssg81
g273
sg74
(lp280
S'app_folders'
p281
asbag67
(g88
g69
NtRp282
(dp283
g72
(dp284
g99
g100
ssg81
g273
sg74
(lp285
S':'
asbag67
(g88
g69
NtRp286
(dp287
g72
(dp288
sg81
g273
sg74
(lp289
g67
(g68
g69
NtRp290
(dp291
g72
(dp292
g80
I4
ssg81
g286
sg74
(lp293
S"set(['/home/goshawk/web2py/applications/milo/'])"
p294
asbasbasbag67
(g83
g69
NtRp295
(dp296
g72
(dp297
sg81
g269
sg74
(lp298
g67
(g88
g69
NtRp299
(dp300
g72
(dp301
g92
g93
ssg81
g295
sg74
(lp302
S'applications_parent'
p303
asbag67
(g88
g69
NtRp304
(dp305
g72
(dp306
g99
g100
ssg81
g295
sg74
(lp307
S':'
asbag67
(g88
g69
NtRp308
(dp309
g72
(dp310
sg81
g295
sg74
(lp311
g67
(g68
g69
NtRp312
(dp313
g72
(dp314
g80
I4
ssg81
g308
sg74
(lp315
S'/home/goshawk/web2py'
p316
asbasbasbag67
(g83
g69
NtRp317
(dp318
g72
(dp319
sg81
g269
sg74
(lp320
g67
(g88
g69
NtRp321
(dp322
g72
(dp323
g92
g93
ssg81
g317
sg74
(lp324
S'cmd_args'
p325
asbag67
(g88
g69
NtRp326
(dp327
g72
(dp328
g99
g100
ssg81
g317
sg74
(lp329
S':'
asbag67
(g88
g69
NtRp330
(dp331
g72
(dp332
sg81
g317
sg74
(lp333
g67
(g68
g69
NtRp334
(dp335
g72
(dp336
g80
I4
ssg81
g330
sg74
(lp337
g67
(g76
g69
NtRp338
(dp339
g72
(dp340
g80
I3
ssg81
Nsg74
(lp341
sbasbasbasbag67
(g83
g69
NtRp342
(dp343
g72
(dp344
sg81
g269
sg74
(lp345
g67
(g88
g69
NtRp346
(dp347
g72
(dp348
g92
g93
ssg81
g342
sg74
(lp349
S'cmd_options'
p350
asbag67
(g88
g69
NtRp351
(dp352
g72
(dp353
g99
g100
ssg81
g342
sg74
(lp354
S':'
asbag67
(g88
g69
NtRp355
(dp356
g72
(dp357
sg81
g342
sg74
(lp358
g67
(g68
g69
NtRp359
(dp360
g72
(dp361
g80
I4
ssg81
g355
sg74
(lp362
S"<Values at 0x20460e0: {'verbose': False, 'ip': '127.0.0.1', 'shutdown_timeout': 5, 'taskbar': False, 'nocron': False, 'pid_filename': 'httpserver.pid', 'maxthreads': None, 'softcron': False, 'server_name': 'whisperer', 'bpython': False, 'nogui': False, 'port': 8000, 'extcron': False, 'debuglevel': 30, 'test': None, 'folder': '/home/goshawk/web2py', 'config': '', 'import_models': False, 'winservice': '', 'shell': None, 'run': '', 'log_filename': 'httpserver.log', 'args': [''], 'socket_timeout': 5, 'ssl_ca_certificate': None, 'scheduler': None, 'profiler_filename': None, 'ssl_private_key': '', 'password': 'admin', 'request_queue_size': 5, 'ssl_certificate': '', 'cronjob': False, 'numthreads': None, 'quiet': False, 'interfaces': None, 'minthreads': None, 'timeout': 10, 'plain': False, 'nobanner': False}>"
p363
asbasbasbag67
(g83
g69
NtRp364
(dp365
g72
(dp366
sg81
g269
sg74
(lp367
g67
(g88
g69
NtRp368
(dp369
g72
(dp370
g92
g93
ssg81
g364
sg74
(lp371
S'db_sessions'
p372
asbag67
(g88
g69
NtRp373
(dp374
g72
(dp375
g99
g100
ssg81
g364
sg74
(lp376
S':'
asbag67
(g88
g69
NtRp377
(dp378
g72
(dp379
sg81
g364
sg74
(lp380
g67
(g68
g69
NtRp381
(dp382
g72
(dp383
g80
I4
ssg81
g377
sg74
(lp384
S'set([])'
p385
asbasbasbag67
(g83
g69
NtRp386
(dp387
g72
(dp388
sg81
g269
sg74
(lp389
g67
(g88
g69
NtRp390
(dp391
g72
(dp392
g92
g93
ssg81
g386
sg74
(lp393
S'debugging'
p394
asbag67
(g88
g69
NtRp395
(dp396
g72
(dp397
g99
g100
ssg81
g386
sg74
(lp398
S':'
asbag67
(g88
g69
NtRp399
(dp400
g72
(dp401
sg81
g386
sg74
(lp402
g67
(g68
g69
NtRp403
(dp404
g72
(dp405
g80
I4
ssg81
g399
sg74
(lp406
g110
asbasbasbag67
(g83
g69
NtRp407
(dp408
g72
(dp409
sg81
g269
sg74
(lp410
g67
(g88
g69
NtRp411
(dp412
g72
(dp413
g92
g93
ssg81
g407
sg74
(lp414
S'gluon_parent'
p415
asbag67
(g88
g69
NtRp416
(dp417
g72
(dp418
g99
g100
ssg81
g407
sg74
(lp419
S':'
asbag67
(g88
g69
NtRp420
(dp421
g72
(dp422
sg81
g407
sg74
(lp423
g67
(g68
g69
NtRp424
(dp425
g72
(dp426
g80
I4
ssg81
g420
sg74
(lp427
S'/home/goshawk/web2py'
p428
asbasbasbag67
(g83
g69
NtRp429
(dp430
g72
(dp431
sg81
g269
sg74
(lp432
g67
(g88
g69
NtRp433
(dp434
g72
(dp435
g92
g93
ssg81
g429
sg74
(lp436
S'http_accept'
p437
asbag67
(g88
g69
NtRp438
(dp439
g72
(dp440
g99
g100
ssg81
g429
sg74
(lp441
S':'
asbag67
(g88
g69
NtRp442
(dp443
g72
(dp444
sg81
g429
sg74
(lp445
g67
(g68
g69
NtRp446
(dp447
g72
(dp448
g80
I4
ssg81
g442
sg74
(lp449
S'text/html,application/xhtml+xml,application/xml;q=0.9,*/*;q=0.8'
p450
asbasbasbag67
(g83
g69
NtRp451
(dp452
g72
(dp453
sg81
g269
sg74
(lp454
g67
(g88
g69
NtRp455
(dp456
g72
(dp457
g92
g93
ssg81
g451
sg74
(lp458
S'http_accept_charset'
p459
asbag67
(g88
g69
NtRp460
(dp461
g72
(dp462
g99
g100
ssg81
g451
sg74
(lp463
S':'
asbag67
(g88
g69
NtRp464
(dp465
g72
(dp466
sg81
g451
sg74
(lp467
g67
(g68
g69
NtRp468
(dp469
g72
(dp470
g80
I4
ssg81
g464
sg74
(lp471
S'ISO-8859-1,utf-8;q=0.7,*;q=0.3'
p472
asbasbasbag67
(g83
g69
NtRp473
(dp474
g72
(dp475
sg81
g269
sg74
(lp476
g67
(g88
g69
NtRp477
(dp478
g72
(dp479
g92
g93
ssg81
g473
sg74
(lp480
S'http_accept_encoding'
p481
asbag67
(g88
g69
NtRp482
(dp483
g72
(dp484
g99
g100
ssg81
g473
sg74
(lp485
S':'
asbag67
(g88
g69
NtRp486
(dp487
g72
(dp488
sg81
g473
sg74
(lp489
g67
(g68
g69
NtRp490
(dp491
g72
(dp492
g80
I4
ssg81
g486
sg74
(lp493
S'gzip,deflate,sdch'
p494
asbasbasbag67
(g83
g69
NtRp495
(dp496
g72
(dp497
sg81
g269
sg74
(lp498
g67
(g88
g69
NtRp499
(dp500
g72
(dp501
g92
g93
ssg81
g495
sg74
(lp502
S'http_accept_language'
p503
asbag67
(g88
g69
NtRp504
(dp505
g72
(dp506
g99
g100
ssg81
g495
sg74
(lp507
S':'
asbag67
(g88
g69
NtRp508
(dp509
g72
(dp510
sg81
g495
sg74
(lp511
g67
(g68
g69
NtRp512
(dp513
g72
(dp514
g80
I4
ssg81
g508
sg74
(lp515
S'en-US,en;q=0.8'
p516
asbasbasbag67
(g83
g69
NtRp517
(dp518
g72
(dp519
sg81
g269
sg74
(lp520
g67
(g88
g69
NtRp521
(dp522
g72
(dp523
g92
g93
ssg81
g517
sg74
(lp524
S'http_cache_control'
p525
asbag67
(g88
g69
NtRp526
(dp527
g72
(dp528
g99
g100
ssg81
g517
sg74
(lp529
S':'
asbag67
(g88
g69
NtRp530
(dp531
g72
(dp532
sg81
g517
sg74
(lp533
g67
(g68
g69
NtRp534
(dp535
g72
(dp536
g80
I4
ssg81
g530
sg74
(lp537
S'max-age=0'
p538
asbasbasbag67
(g83
g69
NtRp539
(dp540
g72
(dp541
sg81
g269
sg74
(lp542
g67
(g88
g69
NtRp543
(dp544
g72
(dp545
g92
g93
ssg81
g539
sg74
(lp546
S'http_connection'
p547
asbag67
(g88
g69
NtRp548
(dp549
g72
(dp550
g99
g100
ssg81
g539
sg74
(lp551
S':'
asbag67
(g88
g69
NtRp552
(dp553
g72
(dp554
sg81
g539
sg74
(lp555
g67
(g68
g69
NtRp556
(dp557
g72
(dp558
g80
I4
ssg81
g552
sg74
(lp559
S'keep-alive'
p560
asbasbasbag67
(g83
g69
NtRp561
(dp562
g72
(dp563
sg81
g269
sg74
(lp564
g67
(g88
g69
NtRp565
(dp566
g72
(dp567
g92
g93
ssg81
g561
sg74
(lp568
S'http_host'
p569
asbag67
(g88
g69
NtRp570
(dp571
g72
(dp572
g99
g100
ssg81
g561
sg74
(lp573
S':'
asbag67
(g88
g69
NtRp574
(dp575
g72
(dp576
sg81
g561
sg74
(lp577
g67
(g68
g69
NtRp578
(dp579
g72
(dp580
g80
I4
ssg81
g574
sg74
(lp581
S'127.0.0.1:8000'
p582
asbasbasbag67
(g83
g69
NtRp583
(dp584
g72
(dp585
sg81
g269
sg74
(lp586
g67
(g88
g69
NtRp587
(dp588
g72
(dp589
g92
g93
ssg81
g583
sg74
(lp590
S'http_user_agent'
p591
asbag67
(g88
g69
NtRp592
(dp593
g72
(dp594
g99
g100
ssg81
g583
sg74
(lp595
S':'
asbag67
(g88
g69
NtRp596
(dp597
g72
(dp598
sg81
g583
sg74
(lp599
g67
(g68
g69
NtRp600
(dp601
g72
(dp602
g80
I4
ssg81
g596
sg74
(lp603
S'Mozilla/5.0 (X11; Linux x86_64) AppleWebKit/535.19 (KHTML, like Gecko) Ubuntu/12.04 Chromium/18.0.1025.168 Chrome/18.0.1025.168 Safari/535.19'
p604
asbasbasbag67
(g83
g69
NtRp605
(dp606
g72
(dp607
sg81
g269
sg74
(lp608
g67
(g88
g69
NtRp609
(dp610
g72
(dp611
g92
g93
ssg81
g605
sg74
(lp612
S'is_jython'
p613
asbag67
(g88
g69
NtRp614
(dp615
g72
(dp616
g99
g100
ssg81
g605
sg74
(lp617
S':'
asbag67
(g88
g69
NtRp618
(dp619
g72
(dp620
sg81
g605
sg74
(lp621
g67
(g68
g69
NtRp622
(dp623
g72
(dp624
g80
I4
ssg81
g618
sg74
(lp625
g110
asbasbasbag67
(g83
g69
NtRp626
(dp627
g72
(dp628
sg81
g269
sg74
(lp629
g67
(g88
g69
NtRp630
(dp631
g72
(dp632
g92
g93
ssg81
g626
sg74
(lp633
S'is_pypy'
p634
asbag67
(g88
g69
NtRp635
(dp636
g72
(dp637
g99
g100
ssg81
g626
sg74
(lp638
S':'
asbag67
(g88
g69
NtRp639
(dp640
g72
(dp641
sg81
g626
sg74
(lp642
g67
(g68
g69
NtRp643
(dp644
g72
(dp645
g80
I4
ssg81
g639
sg74
(lp646
g110
asbasbasbag67
(g83
g69
NtRp647
(dp648
g72
(dp649
sg81
g269
sg74
(lp650
g67
(g88
g69
NtRp651
(dp652
g72
(dp653
g92
g93
ssg81
g647
sg74
(lp654
S'path_info'
p655
asbag67
(g88
g69
NtRp656
(dp657
g72
(dp658
g99
g100
ssg81
g647
sg74
(lp659
S':'
asbag67
(g88
g69
NtRp660
(dp661
g72
(dp662
sg81
g647
sg74
(lp663
g67
(g68
g69
NtRp664
(dp665
g72
(dp666
g80
I4
ssg81
g660
sg74
(lp667
S'/'
asbasbasbag67
(g83
g69
NtRp668
(dp669
g72
(dp670
sg81
g269
sg74
(lp671
g67
(g88
g69
NtRp672
(dp673
g72
(dp674
g92
g93
ssg81
g668
sg74
(lp675
S'query_string'
p676
asbag67
(g88
g69
NtRp677
(dp678
g72
(dp679
g99
g100
ssg81
g668
sg74
(lp680
S':'
asbag67
(g88
g69
NtRp681
(dp682
g72
(dp683
sg81
g668
sg74
(lp684
g67
(g68
g69
NtRp685
(dp686
g72
(dp687
g80
I4
ssg81
g681
sg74
(lp688
S''
asbasbasbag67
(g83
g69
NtRp689
(dp690
g72
(dp691
sg81
g269
sg74
(lp692
g67
(g88
g69
NtRp693
(dp694
g72
(dp695
g92
g93
ssg81
g689
sg74
(lp696
S'remote_addr'
p697
asbag67
(g88
g69
NtRp698
(dp699
g72
(dp700
g99
g100
ssg81
g689
sg74
(lp701
S':'
asbag67
(g88
g69
NtRp702
(dp703
g72
(dp704
sg81
g689
sg74
(lp705
g67
(g68
g69
NtRp706
(dp707
g72
(dp708
g80
I4
ssg81
g702
sg74
(lp709
g200
asbasbasbag67
(g83
g69
NtRp710
(dp711
g72
(dp712
sg81
g269
sg74
(lp713
g67
(g88
g69
NtRp714
(dp715
g72
(dp716
g92
g93
ssg81
g710
sg74
(lp717
S'remote_port'
p718
asbag67
(g88
g69
NtRp719
(dp720
g72
(dp721
g99
g100
ssg81
g710
sg74
(lp722
S':'
asbag67
(g88
g69
NtRp723
(dp724
g72
(dp725
sg81
g710
sg74
(lp726
g67
(g68
g69
NtRp727
(dp728
g72
(dp729
g80
I4
ssg81
g723
sg74
(lp730
S'41096'
p731
asbasbasbag67
(g83
g69
NtRp732
(dp733
g72
(dp734
sg81
g269
sg74
(lp735
g67
(g88
g69
NtRp736
(dp737
g72
(dp738
g92
g93
ssg81
g732
sg74
(lp739
S'request_method'
p740
asbag67
(g88
g69
NtRp741
(dp742
g72
(dp743
g99
g100
ssg81
g732
sg74
(lp744
S':'
asbag67
(g88
g69
NtRp745
(dp746
g72
(dp747
sg81
g732
sg74
(lp748
g67
(g68
g69
NtRp749
(dp750
g72
(dp751
g80
I4
ssg81
g745
sg74
(lp752
S'GET'
p753
asbasbasbag67
(g83
g69
NtRp754
(dp755
g72
(dp756
sg81
g269
sg74
(lp757
g67
(g88
g69
NtRp758
(dp759
g72
(dp760
g92
g93
ssg81
g754
sg74
(lp761
S'request_uri'
p762
asbag67
(g88
g69
NtRp763
(dp764
g72
(dp765
g99
g100
ssg81
g754
sg74
(lp766
S':'
asbag67
(g88
g69
NtRp767
(dp768
g72
(dp769
sg81
g754
sg74
(lp770
g67
(g68
g69
NtRp771
(dp772
g72
(dp773
g80
I4
ssg81
g767
sg74
(lp774
S'/'
asbasbasbag67
(g83
g69
NtRp775
(dp776
g72
(dp777
sg81
g269
sg74
(lp778
g67
(g88
g69
NtRp779
(dp780
g72
(dp781
g92
g93
ssg81
g775
sg74
(lp782
S'script_name'
p783
asbag67
(g88
g69
NtRp784
(dp785
g72
(dp786
g99
g100
ssg81
g775
sg74
(lp787
S':'
asbag67
(g88
g69
NtRp788
(dp789
g72
(dp790
sg81
g775
sg74
(lp791
g67
(g68
g69
NtRp792
(dp793
g72
(dp794
g80
I4
ssg81
g788
sg74
(lp795
S''
asbasbasbag67
(g83
g69
NtRp796
(dp797
g72
(dp798
sg81
g269
sg74
(lp799
g67
(g88
g69
NtRp800
(dp801
g72
(dp802
g92
g93
ssg81
g796
sg74
(lp803
S'server_name'
p804
asbag67
(g88
g69
NtRp805
(dp806
g72
(dp807
g99
g100
ssg81
g796
sg74
(lp808
S':'
asbag67
(g88
g69
NtRp809
(dp810
g72
(dp811
sg81
g796
sg74
(lp812
g67
(g68
g69
NtRp813
(dp814
g72
(dp815
g80
I4
ssg81
g809
sg74
(lp816
S'whisperer'
p817
asbasbasbag67
(g83
g69
NtRp818
(dp819
g72
(dp820
sg81
g269
sg74
(lp821
g67
(g88
g69
NtRp822
(dp823
g72
(dp824
g92
g93
ssg81
g818
sg74
(lp825
S'server_port'
p826
asbag67
(g88
g69
NtRp827
(dp828
g72
(dp829
g99
g100
ssg81
g818
sg74
(lp830
S':'
asbag67
(g88
g69
NtRp831
(dp832
g72
(dp833
sg81
g818
sg74
(lp834
g67
(g68
g69
NtRp835
(dp836
g72
(dp837
g80
I4
ssg81
g831
sg74
(lp838
S'8000'
p839
asbasbasbag67
(g83
g69
NtRp840
(dp841
g72
(dp842
sg81
g269
sg74
(lp843
g67
(g88
g69
NtRp844
(dp845
g72
(dp846
g92
g93
ssg81
g840
sg74
(lp847
S'server_protocol'
p848
asbag67
(g88
g69
NtRp849
(dp850
g72
(dp851
g99
g100
ssg81
g840
sg74
(lp852
S':'
asbag67
(g88
g69
NtRp853
(dp854
g72
(dp855
sg81
g840
sg74
(lp856
g67
(g68
g69
NtRp857
(dp858
g72
(dp859
g80
I4
ssg81
g853
sg74
(lp860
S'HTTP/1.1'
p861
asbasbasbag67
(g83
g69
NtRp862
(dp863
g72
(dp864
sg81
g269
sg74
(lp865
g67
(g88
g69
NtRp866
(dp867
g72
(dp868
g92
g93
ssg81
g862
sg74
(lp869
S'server_software'
p870
asbag67
(g88
g69
NtRp871
(dp872
g72
(dp873
g99
g100
ssg81
g862
sg74
(lp874
S':'
asbag67
(g88
g69
NtRp875
(dp876
g72
(dp877
sg81
g862
sg74
(lp878
g67
(g68
g69
NtRp879
(dp880
g72
(dp881
g80
I4
ssg81
g875
sg74
(lp882
S'Rocket 1.2.4'
p883
asbasbasbag67
(g83
g69
NtRp884
(dp885
g72
(dp886
sg81
g269
sg74
(lp887
g67
(g88
g69
NtRp888
(dp889
g72
(dp890
g92
g93
ssg81
g884
sg74
(lp891
S'web2py_crontype'
p892
asbag67
(g88
g69
NtRp893
(dp894
g72
(dp895
g99
g100
ssg81
g884
sg74
(lp896
S':'
asbag67
(g88
g69
NtRp897
(dp898
g72
(dp899
sg81
g884
sg74
(lp900
g67
(g68
g69
NtRp901
(dp902
g72
(dp903
g80
I4
ssg81
g897
sg74
(lp904
S'hard'
p905
asbasbasbag67
(g83
g69
NtRp906
(dp907
g72
(dp908
sg81
g269
sg74
(lp909
g67
(g88
g69
NtRp910
(dp911
g72
(dp912
g92
g93
ssg81
g906
sg74
(lp913
S'web2py_original_uri'
p914
asbag67
(g88
g69
NtRp915
(dp916
g72
(dp917
g99
g100
ssg81
g906
sg74
(lp918
S':'
asbag67
(g88
g69
NtRp919
(dp920
g72
(dp921
sg81
g906
sg74
(lp922
g67
(g68
g69
NtRp923
(dp924
g72
(dp925
g80
I4
ssg81
g919
sg74
(lp926
S'/'
asbasbasbag67
(g83
g69
NtRp927
(dp928
g72
(dp929
sg81
g269
sg74
(lp930
g67
(g88
g69
NtRp931
(dp932
g72
(dp933
g92
g93
ssg81
g927
sg74
(lp934
S'web2py_path'
p935
asbag67
(g88
g69
NtRp936
(dp937
g72
(dp938
g99
g100
ssg81
g927
sg74
(lp939
S':'
asbag67
(g88
g69
NtRp940
(dp941
g72
(dp942
sg81
g927
sg74
(lp943
g67
(g68
g69
NtRp944
(dp945
g72
(dp946
g80
I4
ssg81
g940
sg74
(lp947
g316
asbasbasbag67
(g83
g69
NtRp948
(dp949
g72
(dp950
sg81
g269
sg74
(lp951
g67
(g88
g69
NtRp952
(dp953
g72
(dp954
g92
g93
ssg81
g948
sg74
(lp955
S'web2py_version'
p956
asbag67
(g88
g69
NtRp957
(dp958
g72
(dp959
g99
g100
ssg81
g948
sg74
(lp960
S':'
asbag67
(g88
g69
NtRp961
(dp962
g72
(dp963
sg81
g948
sg74
(lp964
g67
(g68
g69
NtRp965
(dp966
g72
(dp967
g80
I4
ssg81
g961
sg74
(lp968
g67
(g76
g69
NtRp969
(dp970
g72
(dp971
g80
I3
ssg81
Nsg74
(lp972
g67
(g83
g69
NtRp973
(dp974
g72
(dp975
sg81
g969
sg74
(lp976
g67
(g88
g69
NtRp977
(dp978
g72
(dp979
sg81
g973
sg74
(lp980
g67
(g68
g69
NtRp981
(dp982
g72
(dp983
g80
I3
ssg81
g977
sg74
(lp984
S'1'
asbasbasbag67
(g83
g69
NtRp985
(dp986
g72
(dp987
sg81
g969
sg74
(lp988
g67
(g88
g69
NtRp989
(dp990
g72
(dp991
sg81
g985
sg74
(lp992
g67
(g68
g69
NtRp993
(dp994
g72
(dp995
g80
I3
ssg81
g989
sg74
(lp996
S'99'
p997
asbasbasbag67
(g83
g69
NtRp998
(dp999
g72
(dp1000
sg81
g969
sg74
(lp1001
g67
(g88
g69
NtRp1002
(dp1003
g72
(dp1004
sg81
g998
sg74
(lp1005
g67
(g68
g69
NtRp1006
(dp1007
g72
(dp1008
g80
I3
ssg81
g1002
sg74
(lp1009
S'7'
asbasbasbag67
(g83
g69
NtRp1010
(dp1011
g72
(dp1012
sg81
g969
sg74
(lp1013
g67
(g88
g69
NtRp1014
(dp1015
g72
(dp1016
sg81
g1010
sg74
(lp1017
g67
(g68
g69
NtRp1018
(dp1019
g72
(dp1020
g80
I3
ssg81
g1014
sg74
(lp1021
S'datetime.datetime(2012, 3, 4, 22, 12, 8)'
p1022
asbasbasbag67
(g83
g69
NtRp1023
(dp1024
g72
(dp1025
sg81
g969
sg74
(lp1026
g67
(g88
g69
NtRp1027
(dp1028
g72
(dp1029
sg81
g1023
sg74
(lp1030
g67
(g68
g69
NtRp1031
(dp1032
g72
(dp1033
g80
I3
ssg81
g1027
sg74
(lp1034
S'stable'
p1035
asbasbasbasbasbasbasbag67
(g83
g69
NtRp1036
(dp1037
g72
(dp1038
sg81
g269
sg74
(lp1039
g67
(g88
g69
NtRp1040
(dp1041
g72
(dp1042
g92
g93
ssg81
g1036
sg74
(lp1043
S'wsgi_errors'
p1044
asbag67
(g88
g69
NtRp1045
(dp1046
g72
(dp1047
g99
g100
ssg81
g1036
sg74
(lp1048
S':'
asbag67
(g88
g69
NtRp1049
(dp1050
g72
(dp1051
sg81
g1036
sg74
(lp1052
g67
(g68
g69
NtRp1053
(dp1054
g72
(dp1055
g80
I4
ssg81
g1049
sg74
(lp1056
S"<open file '<stderr>', mode 'w' at 0x7f5f4a912270>"
p1057
asbasbasbag67
(g83
g69
NtRp1058
(dp1059
g72
(dp1060
sg81
g269
sg74
(lp1061
g67
(g88
g69
NtRp1062
(dp1063
g72
(dp1064
g92
g93
ssg81
g1058
sg74
(lp1065
S'wsgi_file_wrapper'
p1066
asbag67
(g88
g69
NtRp1067
(dp1068
g72
(dp1069
g99
g100
ssg81
g1058
sg74
(lp1070
S':'
asbag67
(g88
g69
NtRp1071
(dp1072
g72
(dp1073
sg81
g1058
sg74
(lp1074
g67
(g68
g69
NtRp1075
(dp1076
g72
(dp1077
g80
I4
ssg81
g1071
sg74
(lp1078
S'<class wsgiref.util.FileWrapper at 0x1f71f58>'
p1079
asbasbasbag67
(g83
g69
NtRp1080
(dp1081
g72
(dp1082
sg81
g269
sg74
(lp1083
g67
(g88
g69
NtRp1084
(dp1085
g72
(dp1086
g92
g93
ssg81
g1080
sg74
(lp1087
S'wsgi_input'
p1088
asbag67
(g88
g69
NtRp1089
(dp1090
g72
(dp1091
g99
g100
ssg81
g1080
sg74
(lp1092
S':'
asbag67
(g88
g69
NtRp1093
(dp1094
g72
(dp1095
sg81
g1080
sg74
(lp1096
g67
(g68
g69
NtRp1097
(dp1098
g72
(dp1099
g80
I4
ssg81
g1093
sg74
(lp1100
S'<socket._fileobject object at 0x20a6450>'
p1101
asbasbasbag67
(g83
g69
NtRp1102
(dp1103
g72
(dp1104
sg81
g269
sg74
(lp1105
g67
(g88
g69
NtRp1106
(dp1107
g72
(dp1108
g92
g93
ssg81
g1102
sg74
(lp1109
S'wsgi_multiprocess'
p1110
asbag67
(g88
g69
NtRp1111
(dp1112
g72
(dp1113
g99
g100
ssg81
g1102
sg74
(lp1114
S':'
asbag67
(g88
g69
NtRp1115
(dp1116
g72
(dp1117
sg81
g1102
sg74
(lp1118
g67
(g68
g69
NtRp1119
(dp1120
g72
(dp1121
g80
I4
ssg81
g1115
sg74
(lp1122
g110
asbasbasbag67
(g83
g69
NtRp1123
(dp1124
g72
(dp1125
sg81
g269
sg74
(lp1126
g67
(g88
g69
NtRp1127
(dp1128
g72
(dp1129
g92
g93
ssg81
g1123
sg74
(lp1130
S'wsgi_multithread'
p1131
asbag67
(g88
g69
NtRp1132
(dp1133
g72
(dp1134
g99
g100
ssg81
g1123
sg74
(lp1135
S':'
asbag67
(g88
g69
NtRp1136
(dp1137
g72
(dp1138
sg81
g1123
sg74
(lp1139
g67
(g68
g69
NtRp1140
(dp1141
g72
(dp1142
g80
I4
ssg81
g1136
sg74
(lp1143
S'True'
p1144
asbasbasbag67
(g83
g69
NtRp1145
(dp1146
g72
(dp1147
sg81
g269
sg74
(lp1148
g67
(g88
g69
NtRp1149
(dp1150
g72
(dp1151
g92
g93
ssg81
g1145
sg74
(lp1152
S'wsgi_run_once'
p1153
asbag67
(g88
g69
NtRp1154
(dp1155
g72
(dp1156
g99
g100
ssg81
g1145
sg74
(lp1157
S':'
asbag67
(g88
g69
NtRp1158
(dp1159
g72
(dp1160
sg81
g1145
sg74
(lp1161
g67
(g68
g69
NtRp1162
(dp1163
g72
(dp1164
g80
I4
ssg81
g1158
sg74
(lp1165
g110
asbasbasbag67
(g83
g69
NtRp1166
(dp1167
g72
(dp1168
sg81
g269
sg74
(lp1169
g67
(g88
g69
NtRp1170
(dp1171
g72
(dp1172
g92
g93
ssg81
g1166
sg74
(lp1173
S'wsgi_url_scheme'
p1174
asbag67
(g88
g69
NtRp1175
(dp1176
g72
(dp1177
g99
g100
ssg81
g1166
sg74
(lp1178
S':'
asbag67
(g88
g69
NtRp1179
(dp1180
g72
(dp1181
sg81
g1166
sg74
(lp1182
g67
(g68
g69
NtRp1183
(dp1184
g72
(dp1185
g80
I4
ssg81
g1179
sg74
(lp1186
S'http'
p1187
asbasbasbag67
(g83
g69
NtRp1188
(dp1189
g72
(dp1190
sg81
g269
sg74
(lp1191
g67
(g88
g69
NtRp1192
(dp1193
g72
(dp1194
g92
g93
ssg81
g1188
sg74
(lp1195
S'wsgi_version'
p1196
asbag67
(g88
g69
NtRp1197
(dp1198
g72
(dp1199
g99
g100
ssg81
g1188
sg74
(lp1200
S':'
asbag67
(g88
g69
NtRp1201
(dp1202
g72
(dp1203
sg81
g1188
sg74
(lp1204
g67
(g68
g69
NtRp1205
(dp1206
g72
(dp1207
g80
I4
ssg81
g1201
sg74
(lp1208
g67
(g76
g69
NtRp1209
(dp1210
g72
(dp1211
g80
I3
ssg81
Nsg74
(lp1212
g67
(g83
g69
NtRp1213
(dp1214
g72
(dp1215
sg81
g1209
sg74
(lp1216
g67
(g88
g69
NtRp1217
(dp1218
g72
(dp1219
sg81
g1213
sg74
(lp1220
g67
(g68
g69
NtRp1221
(dp1222
g72
(dp1223
g80
I3
ssg81
g1217
sg74
(lp1224
S'1'
asbasbasbag67
(g83
g69
NtRp1225
(dp1226
g72
(dp1227
sg81
g1209
sg74
(lp1228
g67
(g88
g69
NtRp1229
(dp1230
g72
(dp1231
sg81
g1225
sg74
(lp1232
g67
(g68
g69
NtRp1233
(dp1234
g72
(dp1235
g80
I3
ssg81
g1229
sg74
(lp1236
S'0'
asbasbasbasbasbasbasbasbasbasbasbag67
(g83
g69
NtRp1237
(dp1238
g72
(dp1239
sg81
g77
sg74
(lp1240
g67
(g88
g69
NtRp1241
(dp1242
g72
(dp1243
g92
g93
ssg81
g1237
sg74
(lp1244
S'extension'
p1245
asbag67
(g88
g69
NtRp1246
(dp1247
g72
(dp1248
g99
g100
ssg81
g1237
sg74
(lp1249
S':'
asbag67
(g88
g69
NtRp1250
(dp1251
g72
(dp1252
sg81
g1237
sg74
(lp1253
g67
(g68
g69
NtRp1254
(dp1255
g72
(dp1256
g80
I5
ssg81
g1250
sg74
(lp1257
S'html'
p1258
asbasbasbag67
(g83
g69
NtRp1259
(dp1260
g72
(dp1261
sg81
g77
sg74
(lp1262
g67
(g88
g69
NtRp1263
(dp1264
g72
(dp1265
g92
g93
ssg81
g1259
sg74
(lp1266
S'folder'
p1267
asbag67
(g88
g69
NtRp1268
(dp1269
g72
(dp1270
g99
g100
ssg81
g1259
sg74
(lp1271
S':'
asbag67
(g88
g69
NtRp1272
(dp1273
g72
(dp1274
sg81
g1259
sg74
(lp1275
g67
(g68
g69
NtRp1276
(dp1277
g72
(dp1278
g80
I5
ssg81
g1272
sg74
(lp1279
S'/home/goshawk/web2py/applications/milo/'
p1280
asbasbasbag67
(g83
g69
NtRp1281
(dp1282
g72
(dp1283
sg81
g77
sg74
(lp1284
g67
(g88
g69
NtRp1285
(dp1286
g72
(dp1287
g92
g93
ssg81
g1281
sg74
(lp1288
S'function'
p1289
asbag67
(g88
g69
NtRp1290
(dp1291
g72
(dp1292
g99
g100
ssg81
g1281
sg74
(lp1293
S':'
asbag67
(g88
g69
NtRp1294
(dp1295
g72
(dp1296
sg81
g1281
sg74
(lp1297
g67
(g68
g69
NtRp1298
(dp1299
g72
(dp1300
g80
I5
ssg81
g1294
sg74
(lp1301
S'index'
p1302
asbasbasbag67
(g83
g69
NtRp1303
(dp1304
g72
(dp1305
sg81
g77
sg74
(lp1306
g67
(g88
g69
NtRp1307
(dp1308
g72
(dp1309
g92
g93
ssg81
g1303
sg74
(lp1310
S'get_vars'
p1311
asbag67
(g88
g69
NtRp1312
(dp1313
g72
(dp1314
g99
g100
ssg81
g1303
sg74
(lp1315
S':'
asbag67
(g88
g69
NtRp1316
(dp1317
g72
(dp1318
sg81
g1303
sg74
(lp1319
g67
(g68
g69
NtRp1320
(dp1321
g72
(dp1322
g80
I5
ssg81
g1316
sg74
(lp1323
g67
(g76
g69
NtRp1324
(dp1325
g72
(dp1326
g80
I4
ssg81
Nsg74
(lp1327
sbasbasbasbag67
(g83
g69
NtRp1328
(dp1329
g72
(dp1330
sg81
g77
sg74
(lp1331
g67
(g88
g69
NtRp1332
(dp1333
g72
(dp1334
g92
g93
ssg81
g1328
sg74
(lp1335
S'global_settings'
p1336
asbag67
(g88
g69
NtRp1337
(dp1338
g72
(dp1339
g99
g100
ssg81
g1328
sg74
(lp1340
S':'
asbag67
(g88
g69
NtRp1341
(dp1342
g72
(dp1343
sg81
g1328
sg74
(lp1344
g67
(g68
g69
NtRp1345
(dp1346
g72
(dp1347
g80
I5
ssg81
g1341
sg74
(lp1348
g67
(g76
g69
NtRp1349
(dp1350
g72
(dp1351
g80
I4
ssg81
Nsg74
(lp1352
g67
(g83
g69
NtRp1353
(dp1354
g72
(dp1355
sg81
g1349
sg74
(lp1356
g67
(g88
g69
NtRp1357
(dp1358
g72
(dp1359
g92
g93
ssg81
g1353
sg74
(lp1360
g281
asbag67
(g88
g69
NtRp1361
(dp1362
g72
(dp1363
g99
g100
ssg81
g1353
sg74
(lp1364
S':'
asbag67
(g88
g69
NtRp1365
(dp1366
g72
(dp1367
sg81
g1353
sg74
(lp1368
g67
(g68
g69
NtRp1369
(dp1370
g72
(dp1371
g80
I4
ssg81
g1365
sg74
(lp1372
S"set(['/home/goshawk/web2py/applications/milo/'])"
p1373
asbasbasbag67
(g83
g69
NtRp1374
(dp1375
g72
(dp1376
sg81
g1349
sg74
(lp1377
g67
(g88
g69
NtRp1378
(dp1379
g72
(dp1380
g92
g93
ssg81
g1374
sg74
(lp1381
g303
asbag67
(g88
g69
NtRp1382
(dp1383
g72
(dp1384
g99
g100
ssg81
g1374
sg74
(lp1385
S':'
asbag67
(g88
g69
NtRp1386
(dp1387
g72
(dp1388
sg81
g1374
sg74
(lp1389
g67
(g68
g69
NtRp1390
(dp1391
g72
(dp1392
g80
I4
ssg81
g1386
sg74
(lp1393
g316
asbasbasbag67
(g83
g69
NtRp1394
(dp1395
g72
(dp1396
sg81
g1349
sg74
(lp1397
g67
(g88
g69
NtRp1398
(dp1399
g72
(dp1400
g92
g93
ssg81
g1394
sg74
(lp1401
g325
asbag67
(g88
g69
NtRp1402
(dp1403
g72
(dp1404
g99
g100
ssg81
g1394
sg74
(lp1405
S':'
asbag67
(g88
g69
NtRp1406
(dp1407
g72
(dp1408
sg81
g1394
sg74
(lp1409
g67
(g68
g69
NtRp1410
(dp1411
g72
(dp1412
g80
I4
ssg81
g1406
sg74
(lp1413
g67
(g76
g69
NtRp1414
(dp1415
g72
(dp1416
g80
I3
ssg81
Nsg74
(lp1417
sbasbasbasbag67
(g83
g69
NtRp1418
(dp1419
g72
(dp1420
sg81
g1349
sg74
(lp1421
g67
(g88
g69
NtRp1422
(dp1423
g72
(dp1424
g92
g93
ssg81
g1418
sg74
(lp1425
g350
asbag67
(g88
g69
NtRp1426
(dp1427
g72
(dp1428
g99
g100
ssg81
g1418
sg74
(lp1429
S':'
asbag67
(g88
g69
NtRp1430
(dp1431
g72
(dp1432
sg81
g1418
sg74
(lp1433
g67
(g68
g69
NtRp1434
(dp1435
g72
(dp1436
g80
I4
ssg81
g1430
sg74
(lp1437
S"<Values at 0x20460e0: {'verbose': False, 'ip': '127.0.0.1', 'shutdown_timeout': 5, 'taskbar': False, 'nocron': False, 'pid_filename': 'httpserver.pid', 'maxthreads': None, 'softcron': False, 'server_name': 'whisperer', 'bpython': False, 'nogui': False, 'port': 8000, 'extcron': False, 'debuglevel': 30, 'test': None, 'folder': '/home/goshawk/web2py', 'config': '', 'import_models': False, 'winservice': '', 'shell': None, 'run': '', 'log_filename': 'httpserver.log', 'args': [''], 'socket_timeout': 5, 'ssl_ca_certificate': None, 'scheduler': None, 'profiler_filename': None, 'ssl_private_key': '', 'password': 'admin', 'request_queue_size': 5, 'ssl_certificate': '', 'cronjob': False, 'numthreads': None, 'quiet': False, 'interfaces': None, 'minthreads': None, 'timeout': 10, 'plain': False, 'nobanner': False}>"
p1438
asbasbasbag67
(g83
g69
NtRp1439
(dp1440
g72
(dp1441
sg81
g1349
sg74
(lp1442
g67
(g88
g69
NtRp1443
(dp1444
g72
(dp1445
g92
g93
ssg81
g1439
sg74
(lp1446
g372
asbag67
(g88
g69
NtRp1447
(dp1448
g72
(dp1449
g99
g100
ssg81
g1439
sg74
(lp1450
S':'
asbag67
(g88
g69
NtRp1451
(dp1452
g72
(dp1453
sg81
g1439
sg74
(lp1454
g67
(g68
g69
NtRp1455
(dp1456
g72
(dp1457
g80
I4
ssg81
g1451
sg74
(lp1458
S'set([])'
p1459
asbasbasbag67
(g83
g69
NtRp1460
(dp1461
g72
(dp1462
sg81
g1349
sg74
(lp1463
g67
(g88
g69
NtRp1464
(dp1465
g72
(dp1466
g92
g93
ssg81
g1460
sg74
(lp1467
g394
asbag67
(g88
g69
NtRp1468
(dp1469
g72
(dp1470
g99
g100
ssg81
g1460
sg74
(lp1471
S':'
asbag67
(g88
g69
NtRp1472
(dp1473
g72
(dp1474
sg81
g1460
sg74
(lp1475
g67
(g68
g69
NtRp1476
(dp1477
g72
(dp1478
g80
I4
ssg81
g1472
sg74
(lp1479
g110
asbasbasbag67
(g83
g69
NtRp1480
(dp1481
g72
(dp1482
sg81
g1349
sg74
(lp1483
g67
(g88
g69
NtRp1484
(dp1485
g72
(dp1486
g92
g93
ssg81
g1480
sg74
(lp1487
g415
asbag67
(g88
g69
NtRp1488
(dp1489
g72
(dp1490
g99
g100
ssg81
g1480
sg74
(lp1491
S':'
asbag67
(g88
g69
NtRp1492
(dp1493
g72
(dp1494
sg81
g1480
sg74
(lp1495
g67
(g68
g69
NtRp1496
(dp1497
g72
(dp1498
g80
I4
ssg81
g1492
sg74
(lp1499
g428
asbasbasbag67
(g83
g69
NtRp1500
(dp1501
g72
(dp1502
sg81
g1349
sg74
(lp1503
g67
(g88
g69
NtRp1504
(dp1505
g72
(dp1506
g92
g93
ssg81
g1500
sg74
(lp1507
g613
asbag67
(g88
g69
NtRp1508
(dp1509
g72
(dp1510
g99
g100
ssg81
g1500
sg74
(lp1511
S':'
asbag67
(g88
g69
NtRp1512
(dp1513
g72
(dp1514
sg81
g1500
sg74
(lp1515
g67
(g68
g69
NtRp1516
(dp1517
g72
(dp1518
g80
I4
ssg81
g1512
sg74
(lp1519
g110
asbasbasbag67
(g83
g69
NtRp1520
(dp1521
g72
(dp1522
sg81
g1349
sg74
(lp1523
g67
(g88
g69
NtRp1524
(dp1525
g72
(dp1526
g92
g93
ssg81
g1520
sg74
(lp1527
g634
asbag67
(g88
g69
NtRp1528
(dp1529
g72
(dp1530
g99
g100
ssg81
g1520
sg74
(lp1531
S':'
asbag67
(g88
g69
NtRp1532
(dp1533
g72
(dp1534
sg81
g1520
sg74
(lp1535
g67
(g68
g69
NtRp1536
(dp1537
g72
(dp1538
g80
I4
ssg81
g1532
sg74
(lp1539
g110
asbasbasbag67
(g83
g69
NtRp1540
(dp1541
g72
(dp1542
sg81
g1349
sg74
(lp1543
g67
(g88
g69
NtRp1544
(dp1545
g72
(dp1546
g92
g93
ssg81
g1540
sg74
(lp1547
g892
asbag67
(g88
g69
NtRp1548
(dp1549
g72
(dp1550
g99
g100
ssg81
g1540
sg74
(lp1551
S':'
asbag67
(g88
g69
NtRp1552
(dp1553
g72
(dp1554
sg81
g1540
sg74
(lp1555
g67
(g68
g69
NtRp1556
(dp1557
g72
(dp1558
g80
I4
ssg81
g1552
sg74
(lp1559
g905
asbasbasbag67
(g83
g69
NtRp1560
(dp1561
g72
(dp1562
sg81
g1349
sg74
(lp1563
g67
(g88
g69
NtRp1564
(dp1565
g72
(dp1566
g92
g93
ssg81
g1560
sg74
(lp1567
g956
asbag67
(g88
g69
NtRp1568
(dp1569
g72
(dp1570
g99
g100
ssg81
g1560
sg74
(lp1571
S':'
asbag67
(g88
g69
NtRp1572
(dp1573
g72
(dp1574
sg81
g1560
sg74
(lp1575
g67
(g68
g69
NtRp1576
(dp1577
g72
(dp1578
g80
I4
ssg81
g1572
sg74
(lp1579
g67
(g76
g69
NtRp1580
(dp1581
g72
(dp1582
g80
I3
ssg81
Nsg74
(lp1583
g67
(g83
g69
NtRp1584
(dp1585
g72
(dp1586
sg81
g1580
sg74
(lp1587
g67
(g88
g69
NtRp1588
(dp1589
g72
(dp1590
sg81
g1584
sg74
(lp1591
g67
(g68
g69
NtRp1592
(dp1593
g72
(dp1594
g80
I3
ssg81
g1588
sg74
(lp1595
S'1'
asbasbasbag67
(g83
g69
NtRp1596
(dp1597
g72
(dp1598
sg81
g1580
sg74
(lp1599
g67
(g88
g69
NtRp1600
(dp1601
g72
(dp1602
sg81
g1596
sg74
(lp1603
g67
(g68
g69
NtRp1604
(dp1605
g72
(dp1606
g80
I3
ssg81
g1600
sg74
(lp1607
S'99'
p1608
asbasbasbag67
(g83
g69
NtRp1609
(dp1610
g72
(dp1611
sg81
g1580
sg74
(lp1612
g67
(g88
g69
NtRp1613
(dp1614
g72
(dp1615
sg81
g1609
sg74
(lp1616
g67
(g68
g69
NtRp1617
(dp1618
g72
(dp1619
g80
I3
ssg81
g1613
sg74
(lp1620
S'7'
asbasbasbag67
(g83
g69
NtRp1621
(dp1622
g72
(dp1623
sg81
g1580
sg74
(lp1624
g67
(g88
g69
NtRp1625
(dp1626
g72
(dp1627
sg81
g1621
sg74
(lp1628
g67
(g68
g69
NtRp1629
(dp1630
g72
(dp1631
g80
I3
ssg81
g1625
sg74
(lp1632
S'datetime.datetime(2012, 3, 4, 22, 12, 8)'
p1633
asbasbasbag67
(g83
g69
NtRp1634
(dp1635
g72
(dp1636
sg81
g1580
sg74
(lp1637
g67
(g88
g69
NtRp1638
(dp1639
g72
(dp1640
sg81
g1634
sg74
(lp1641
g67
(g68
g69
NtRp1642
(dp1643
g72
(dp1644
g80
I3
ssg81
g1638
sg74
(lp1645
g1035
asbasbasbasbasbasbasbasbasbasbasbag67
(g83
g69
NtRp1646
(dp1647
g72
(dp1648
sg81
g77
sg74
(lp1649
g67
(g88
g69
NtRp1650
(dp1651
g72
(dp1652
g92
g93
ssg81
g1646
sg74
(lp1653
S'is_https'
p1654
asbag67
(g88
g69
NtRp1655
(dp1656
g72
(dp1657
g99
g100
ssg81
g1646
sg74
(lp1658
S':'
asbag67
(g88
g69
NtRp1659
(dp1660
g72
(dp1661
sg81
g1646
sg74
(lp1662
g67
(g68
g69
NtRp1663
(dp1664
g72
(dp1665
g80
I5
ssg81
g1659
sg74
(lp1666
g110
asbasbasbag67
(g83
g69
NtRp1667
(dp1668
g72
(dp1669
sg81
g77
sg74
(lp1670
g67
(g88
g69
NtRp1671
(dp1672
g72
(dp1673
g92
g93
ssg81
g1667
sg74
(lp1674
S'is_local'
p1675
asbag67
(g88
g69
NtRp1676
(dp1677
g72
(dp1678
g99
g100
ssg81
g1667
sg74
(lp1679
S':'
asbag67
(g88
g69
NtRp1680
(dp1681
g72
(dp1682
sg81
g1667
sg74
(lp1683
g67
(g68
g69
NtRp1684
(dp1685
g72
(dp1686
g80
I5
ssg81
g1680
sg74
(lp1687
g1144
asbasbasbag67
(g83
g69
NtRp1688
(dp1689
g72
(dp1690
sg81
g77
sg74
(lp1691
g67
(g88
g69
NtRp1692
(dp1693
g72
(dp1694
g92
g93
ssg81
g1688
sg74
(lp1695
S'is_restful'
p1696
asbag67
(g88
g69
NtRp1697
(dp1698
g72
(dp1699
g99
g100
ssg81
g1688
sg74
(lp1700
S':'
asbag67
(g88
g69
NtRp1701
(dp1702
g72
(dp1703
sg81
g1688
sg74
(lp1704
g67
(g68
g69
NtRp1705
(dp1706
g72
(dp1707
g80
I5
ssg81
g1701
sg74
(lp1708
g110
asbasbasbag67
(g83
g69
NtRp1709
(dp1710
g72
(dp1711
sg81
g77
sg74
(lp1712
g67
(g88
g69
NtRp1713
(dp1714
g72
(dp1715
g92
g93
ssg81
g1709
sg74
(lp1716
S'now'
p1717
asbag67
(g88
g69
NtRp1718
(dp1719
g72
(dp1720
g99
g100
ssg81
g1709
sg74
(lp1721
S':'
asbag67
(g88
g69
NtRp1722
(dp1723
g72
(dp1724
sg81
g1709
sg74
(lp1725
g67
(g68
g69
NtRp1726
(dp1727
g72
(dp1728
g80
I5
ssg81
g1722
sg74
(lp1729
S'datetime.datetime(2012, 7, 23, 10, 52, 21, 402843)'
p1730
asbasbasbag67
(g83
g69
NtRp1731
(dp1732
g72
(dp1733
sg81
g77
sg74
(lp1734
g67
(g88
g69
NtRp1735
(dp1736
g72
(dp1737
g92
g93
ssg81
g1731
sg74
(lp1738
S'post_vars'
p1739
asbag67
(g88
g69
NtRp1740
(dp1741
g72
(dp1742
g99
g100
ssg81
g1731
sg74
(lp1743
S':'
asbag67
(g88
g69
NtRp1744
(dp1745
g72
(dp1746
sg81
g1731
sg74
(lp1747
g67
(g68
g69
NtRp1748
(dp1749
g72
(dp1750
g80
I5
ssg81
g1744
sg74
(lp1751
g67
(g76
g69
NtRp1752
(dp1753
g72
(dp1754
g80
I4
ssg81
Nsg74
(lp1755
sbasbasbasbag67
(g83
g69
NtRp1756
(dp1757
g72
(dp1758
sg81
g77
sg74
(lp1759
g67
(g88
g69
NtRp1760
(dp1761
g72
(dp1762
g92
g93
ssg81
g1756
sg74
(lp1763
S'url'
p1764
asbag67
(g88
g69
NtRp1765
(dp1766
g72
(dp1767
g99
g100
ssg81
g1756
sg74
(lp1768
S':'
asbag67
(g88
g69
NtRp1769
(dp1770
g72
(dp1771
sg81
g1756
sg74
(lp1772
g67
(g68
g69
NtRp1773
(dp1774
g72
(dp1775
g80
I5
ssg81
g1769
sg74
(lp1776
S'/milo/default/index'
p1777
asbasbasbag67
(g83
g69
NtRp1778
(dp1779
g72
(dp1780
sg81
g77
sg74
(lp1781
g67
(g88
g69
NtRp1782
(dp1783
g72
(dp1784
g92
g93
ssg81
g1778
sg74
(lp1785
S'utcnow'
p1786
asbag67
(g88
g69
NtRp1787
(dp1788
g72
(dp1789
g99
g100
ssg81
g1778
sg74
(lp1790
S':'
asbag67
(g88
g69
NtRp1791
(dp1792
g72
(dp1793
sg81
g1778
sg74
(lp1794
g67
(g68
g69
NtRp1795
(dp1796
g72
(dp1797
g80
I5
ssg81
g1791
sg74
(lp1798
S'datetime.datetime(2012, 7, 23, 8, 52, 21, 402907)'
p1799
asbasbasbag67
(g83
g69
NtRp1800
(dp1801
g72
(dp1802
sg81
g77
sg74
(lp1803
g67
(g88
g69
NtRp1804
(dp1805
g72
(dp1806
g92
g93
ssg81
g1800
sg74
(lp1807
S'uuid'
p1808
asbag67
(g88
g69
NtRp1809
(dp1810
g72
(dp1811
g99
g100
ssg81
g1800
sg74
(lp1812
S':'
asbag67
(g88
g69
NtRp1813
(dp1814
g72
(dp1815
sg81
g1800
sg74
(lp1816
g67
(g68
g69
NtRp1817
(dp1818
g72
(dp1819
g80
I5
ssg81
g1813
sg74
(lp1820
S'milo/127.0.0.1.2012-07-23.10-52-21.79c67e46-c5d9-4be1-bd38-1ed3397e5484'
p1821
asbasbasbag67
(g83
g69
NtRp1822
(dp1823
g72
(dp1824
sg81
g77
sg74
(lp1825
g67
(g88
g69
NtRp1826
(dp1827
g72
(dp1828
g92
g93
ssg81
g1822
sg74
(lp1829
S'vars'
p1830
asbag67
(g88
g69
NtRp1831
(dp1832
g72
(dp1833
g99
g100
ssg81
g1822
sg74
(lp1834
S':'
asbag67
(g88
g69
NtRp1835
(dp1836
g72
(dp1837
sg81
g1822
sg74
(lp1838
g67
(g68
g69
NtRp1839
(dp1840
g72
(dp1841
g80
I5
ssg81
g1835
sg74
(lp1842
g67
(g76
g69
NtRp1843
(dp1844
g72
(dp1845
g80
I4
ssg81
Nsg74
(lp1846
sbasbasbasbag67
(g83
g69
NtRp1847
(dp1848
g72
(dp1849
sg81
g77
sg74
(lp1850
g67
(g88
g69
NtRp1851
(dp1852
g72
(dp1853
g92
g93
ssg81
g1847
sg74
(lp1854
S'wsgi'
p1855
asbag67
(g88
g69
NtRp1856
(dp1857
g72
(dp1858
g99
g100
ssg81
g1847
sg74
(lp1859
S':'
asbag67
(g88
g69
NtRp1860
(dp1861
g72
(dp1862
sg81
g1847
sg74
(lp1863
g67
(g68
g69
NtRp1864
(dp1865
g72
(dp1866
g80
I5
ssg81
g1860
sg74
(lp1867
g67
(g76
g69
NtRp1868
(dp1869
g72
(dp1870
g80
I4
ssg81
Nsg74
(lp1871
g67
(g83
g69
NtRp1872
(dp1873
g72
(dp1874
sg81
g1868
sg74
(lp1875
g67
(g88
g69
NtRp1876
(dp1877
g72
(dp1878
g92
g93
ssg81
g1872
sg74
(lp1879
S'environ'
p1880
asbag67
(g88
g69
NtRp1881
(dp1882
g72
(dp1883
g99
g100
ssg81
g1872
sg74
(lp1884
S':'
asbag67
(g88
g69
NtRp1885
(dp1886
g72
(dp1887
sg81
g1872
sg74
(lp1888
g67
(g68
g69
NtRp1889
(dp1890
g72
(dp1891
g80
I4
ssg81
g1885
sg74
(lp1892
g67
(g76
g69
NtRp1893
(dp1894
g72
(dp1895
g80
I3
ssg81
Nsg74
(lp1896
g67
(g83
g69
NtRp1897
(dp1898
g72
(dp1899
sg81
g1893
sg74
(lp1900
g67
(g88
g69
NtRp1901
(dp1902
g72
(dp1903
g92
g93
ssg81
g1897
sg74
(lp1904
S'HTTP_ACCEPT'
p1905
asbag67
(g88
g69
NtRp1906
(dp1907
g72
(dp1908
g99
g100
ssg81
g1897
sg74
(lp1909
S':'
asbag67
(g88
g69
NtRp1910
(dp1911
g72
(dp1912
sg81
g1897
sg74
(lp1913
g67
(g68
g69
NtRp1914
(dp1915
g72
(dp1916
g80
I3
ssg81
g1910
sg74
(lp1917
g450
asbasbasbag67
(g83
g69
NtRp1918
(dp1919
g72
(dp1920
sg81
g1893
sg74
(lp1921
g67
(g88
g69
NtRp1922
(dp1923
g72
(dp1924
g92
g93
ssg81
g1918
sg74
(lp1925
S'HTTP_ACCEPT_CHARSET'
p1926
asbag67
(g88
g69
NtRp1927
(dp1928
g72
(dp1929
g99
g100
ssg81
g1918
sg74
(lp1930
S':'
asbag67
(g88
g69
NtRp1931
(dp1932
g72
(dp1933
sg81
g1918
sg74
(lp1934
g67
(g68
g69
NtRp1935
(dp1936
g72
(dp1937
g80
I3
ssg81
g1931
sg74
(lp1938
g472
asbasbasbag67
(g83
g69
NtRp1939
(dp1940
g72
(dp1941
sg81
g1893
sg74
(lp1942
g67
(g88
g69
NtRp1943
(dp1944
g72
(dp1945
g92
g93
ssg81
g1939
sg74
(lp1946
S'HTTP_ACCEPT_ENCODING'
p1947
asbag67
(g88
g69
NtRp1948
(dp1949
g72
(dp1950
g99
g100
ssg81
g1939
sg74
(lp1951
S':'
asbag67
(g88
g69
NtRp1952
(dp1953
g72
(dp1954
sg81
g1939
sg74
(lp1955
g67
(g68
g69
NtRp1956
(dp1957
g72
(dp1958
g80
I3
ssg81
g1952
sg74
(lp1959
g494
asbasbasbag67
(g83
g69
NtRp1960
(dp1961
g72
(dp1962
sg81
g1893
sg74
(lp1963
g67
(g88
g69
NtRp1964
(dp1965
g72
(dp1966
g92
g93
ssg81
g1960
sg74
(lp1967
S'HTTP_ACCEPT_LANGUAGE'
p1968
asbag67
(g88
g69
NtRp1969
(dp1970
g72
(dp1971
g99
g100
ssg81
g1960
sg74
(lp1972
S':'
asbag67
(g88
g69
NtRp1973
(dp1974
g72
(dp1975
sg81
g1960
sg74
(lp1976
g67
(g68
g69
NtRp1977
(dp1978
g72
(dp1979
g80
I3
ssg81
g1973
sg74
(lp1980
g516
asbasbasbag67
(g83
g69
NtRp1981
(dp1982
g72
(dp1983
sg81
g1893
sg74
(lp1984
g67
(g88
g69
NtRp1985
(dp1986
g72
(dp1987
g92
g93
ssg81
g1981
sg74
(lp1988
S'HTTP_CACHE_CONTROL'
p1989
asbag67
(g88
g69
NtRp1990
(dp1991
g72
(dp1992
g99
g100
ssg81
g1981
sg74
(lp1993
S':'
asbag67
(g88
g69
NtRp1994
(dp1995
g72
(dp1996
sg81
g1981
sg74
(lp1997
g67
(g68
g69
NtRp1998
(dp1999
g72
(dp2000
g80
I3
ssg81
g1994
sg74
(lp2001
g538
asbasbasbag67
(g83
g69
NtRp2002
(dp2003
g72
(dp2004
sg81
g1893
sg74
(lp2005
g67
(g88
g69
NtRp2006
(dp2007
g72
(dp2008
g92
g93
ssg81
g2002
sg74
(lp2009
S'HTTP_CONNECTION'
p2010
asbag67
(g88
g69
NtRp2011
(dp2012
g72
(dp2013
g99
g100
ssg81
g2002
sg74
(lp2014
S':'
asbag67
(g88
g69
NtRp2015
(dp2016
g72
(dp2017
sg81
g2002
sg74
(lp2018
g67
(g68
g69
NtRp2019
(dp2020
g72
(dp2021
g80
I3
ssg81
g2015
sg74
(lp2022
g560
asbasbasbag67
(g83
g69
NtRp2023
(dp2024
g72
(dp2025
sg81
g1893
sg74
(lp2026
g67
(g88
g69
NtRp2027
(dp2028
g72
(dp2029
g92
g93
ssg81
g2023
sg74
(lp2030
S'HTTP_HOST'
p2031
asbag67
(g88
g69
NtRp2032
(dp2033
g72
(dp2034
g99
g100
ssg81
g2023
sg74
(lp2035
S':'
asbag67
(g88
g69
NtRp2036
(dp2037
g72
(dp2038
sg81
g2023
sg74
(lp2039
g67
(g68
g69
NtRp2040
(dp2041
g72
(dp2042
g80
I3
ssg81
g2036
sg74
(lp2043
g582
asbasbasbag67
(g83
g69
NtRp2044
(dp2045
g72
(dp2046
sg81
g1893
sg74
(lp2047
g67
(g88
g69
NtRp2048
(dp2049
g72
(dp2050
g92
g93
ssg81
g2044
sg74
(lp2051
S'HTTP_USER_AGENT'
p2052
asbag67
(g88
g69
NtRp2053
(dp2054
g72
(dp2055
g99
g100
ssg81
g2044
sg74
(lp2056
S':'
asbag67
(g88
g69
NtRp2057
(dp2058
g72
(dp2059
sg81
g2044
sg74
(lp2060
g67
(g68
g69
NtRp2061
(dp2062
g72
(dp2063
g80
I3
ssg81
g2057
sg74
(lp2064
g604
asbasbasbag67
(g83
g69
NtRp2065
(dp2066
g72
(dp2067
sg81
g1893
sg74
(lp2068
g67
(g88
g69
NtRp2069
(dp2070
g72
(dp2071
g92
g93
ssg81
g2065
sg74
(lp2072
S'PATH_INFO'
p2073
asbag67
(g88
g69
NtRp2074
(dp2075
g72
(dp2076
g99
g100
ssg81
g2065
sg74
(lp2077
S':'
asbag67
(g88
g69
NtRp2078
(dp2079
g72
(dp2080
sg81
g2065
sg74
(lp2081
g67
(g68
g69
NtRp2082
(dp2083
g72
(dp2084
g80
I3
ssg81
g2078
sg74
(lp2085
S'/'
asbasbasbag67
(g83
g69
NtRp2086
(dp2087
g72
(dp2088
sg81
g1893
sg74
(lp2089
g67
(g88
g69
NtRp2090
(dp2091
g72
(dp2092
g92
g93
ssg81
g2086
sg74
(lp2093
S'QUERY_STRING'
p2094
asbag67
(g88
g69
NtRp2095
(dp2096
g72
(dp2097
g99
g100
ssg81
g2086
sg74
(lp2098
S':'
asbag67
(g88
g69
NtRp2099
(dp2100
g72
(dp2101
sg81
g2086
sg74
(lp2102
g67
(g68
g69
NtRp2103
(dp2104
g72
(dp2105
g80
I3
ssg81
g2099
sg74
(lp2106
S''
asbasbasbag67
(g83
g69
NtRp2107
(dp2108
g72
(dp2109
sg81
g1893
sg74
(lp2110
g67
(g88
g69
NtRp2111
(dp2112
g72
(dp2113
g92
g93
ssg81
g2107
sg74
(lp2114
S'REMOTE_ADDR'
p2115
asbag67
(g88
g69
NtRp2116
(dp2117
g72
(dp2118
g99
g100
ssg81
g2107
sg74
(lp2119
S':'
asbag67
(g88
g69
NtRp2120
(dp2121
g72
(dp2122
sg81
g2107
sg74
(lp2123
g67
(g68
g69
NtRp2124
(dp2125
g72
(dp2126
g80
I3
ssg81
g2120
sg74
(lp2127
g200
asbasbasbag67
(g83
g69
NtRp2128
(dp2129
g72
(dp2130
sg81
g1893
sg74
(lp2131
g67
(g88
g69
NtRp2132
(dp2133
g72
(dp2134
g92
g93
ssg81
g2128
sg74
(lp2135
S'REMOTE_PORT'
p2136
asbag67
(g88
g69
NtRp2137
(dp2138
g72
(dp2139
g99
g100
ssg81
g2128
sg74
(lp2140
S':'
asbag67
(g88
g69
NtRp2141
(dp2142
g72
(dp2143
sg81
g2128
sg74
(lp2144
g67
(g68
g69
NtRp2145
(dp2146
g72
(dp2147
g80
I3
ssg81
g2141
sg74
(lp2148
g731
asbasbasbag67
(g83
g69
NtRp2149
(dp2150
g72
(dp2151
sg81
g1893
sg74
(lp2152
g67
(g88
g69
NtRp2153
(dp2154
g72
(dp2155
g92
g93
ssg81
g2149
sg74
(lp2156
S'REQUEST_METHOD'
p2157
asbag67
(g88
g69
NtRp2158
(dp2159
g72
(dp2160
g99
g100
ssg81
g2149
sg74
(lp2161
S':'
asbag67
(g88
g69
NtRp2162
(dp2163
g72
(dp2164
sg81
g2149
sg74
(lp2165
g67
(g68
g69
NtRp2166
(dp2167
g72
(dp2168
g80
I3
ssg81
g2162
sg74
(lp2169
g753
asbasbasbag67
(g83
g69
NtRp2170
(dp2171
g72
(dp2172
sg81
g1893
sg74
(lp2173
g67
(g88
g69
NtRp2174
(dp2175
g72
(dp2176
g92
g93
ssg81
g2170
sg74
(lp2177
S'REQUEST_URI'
p2178
asbag67
(g88
g69
NtRp2179
(dp2180
g72
(dp2181
g99
g100
ssg81
g2170
sg74
(lp2182
S':'
asbag67
(g88
g69
NtRp2183
(dp2184
g72
(dp2185
sg81
g2170
sg74
(lp2186
g67
(g68
g69
NtRp2187
(dp2188
g72
(dp2189
g80
I3
ssg81
g2183
sg74
(lp2190
S'/'
asbasbasbag67
(g83
g69
NtRp2191
(dp2192
g72
(dp2193
sg81
g1893
sg74
(lp2194
g67
(g88
g69
NtRp2195
(dp2196
g72
(dp2197
g92
g93
ssg81
g2191
sg74
(lp2198
S'SCRIPT_NAME'
p2199
asbag67
(g88
g69
NtRp2200
(dp2201
g72
(dp2202
g99
g100
ssg81
g2191
sg74
(lp2203
S':'
asbag67
(g88
g69
NtRp2204
(dp2205
g72
(dp2206
sg81
g2191
sg74
(lp2207
g67
(g68
g69
NtRp2208
(dp2209
g72
(dp2210
g80
I3
ssg81
g2204
sg74
(lp2211
S''
asbasbasbag67
(g83
g69
NtRp2212
(dp2213
g72
(dp2214
sg81
g1893
sg74
(lp2215
g67
(g88
g69
NtRp2216
(dp2217
g72
(dp2218
g92
g93
ssg81
g2212
sg74
(lp2219
S'SERVER_NAME'
p2220
asbag67
(g88
g69
NtRp2221
(dp2222
g72
(dp2223
g99
g100
ssg81
g2212
sg74
(lp2224
S':'
asbag67
(g88
g69
NtRp2225
(dp2226
g72
(dp2227
sg81
g2212
sg74
(lp2228
g67
(g68
g69
NtRp2229
(dp2230
g72
(dp2231
g80
I3
ssg81
g2225
sg74
(lp2232
g817
asbasbasbag67
(g83
g69
NtRp2233
(dp2234
g72
(dp2235
sg81
g1893
sg74
(lp2236
g67
(g88
g69
NtRp2237
(dp2238
g72
(dp2239
g92
g93
ssg81
g2233
sg74
(lp2240
S'SERVER_PORT'
p2241
asbag67
(g88
g69
NtRp2242
(dp2243
g72
(dp2244
g99
g100
ssg81
g2233
sg74
(lp2245
S':'
asbag67
(g88
g69
NtRp2246
(dp2247
g72
(dp2248
sg81
g2233
sg74
(lp2249
g67
(g68
g69
NtRp2250
(dp2251
g72
(dp2252
g80
I3
ssg81
g2246
sg74
(lp2253
g839
asbasbasbag67
(g83
g69
NtRp2254
(dp2255
g72
(dp2256
sg81
g1893
sg74
(lp2257
g67
(g88
g69
NtRp2258
(dp2259
g72
(dp2260
g92
g93
ssg81
g2254
sg74
(lp2261
S'SERVER_PROTOCOL'
p2262
asbag67
(g88
g69
NtRp2263
(dp2264
g72
(dp2265
g99
g100
ssg81
g2254
sg74
(lp2266
S':'
asbag67
(g88
g69
NtRp2267
(dp2268
g72
(dp2269
sg81
g2254
sg74
(lp2270
g67
(g68
g69
NtRp2271
(dp2272
g72
(dp2273
g80
I3
ssg81
g2267
sg74
(lp2274
g861
asbasbasbag67
(g83
g69
NtRp2275
(dp2276
g72
(dp2277
sg81
g1893
sg74
(lp2278
g67
(g88
g69
NtRp2279
(dp2280
g72
(dp2281
g92
g93
ssg81
g2275
sg74
(lp2282
S'SERVER_SOFTWARE'
p2283
asbag67
(g88
g69
NtRp2284
(dp2285
g72
(dp2286
g99
g100
ssg81
g2275
sg74
(lp2287
S':'
asbag67
(g88
g69
NtRp2288
(dp2289
g72
(dp2290
sg81
g2275
sg74
(lp2291
g67
(g68
g69
NtRp2292
(dp2293
g72
(dp2294
g80
I3
ssg81
g2288
sg74
(lp2295
g883
asbasbasbag67
(g83
g69
NtRp2296
(dp2297
g72
(dp2298
sg81
g1893
sg74
(lp2299
g67
(g88
g69
NtRp2300
(dp2301
g72
(dp2302
g92
g93
ssg81
g2296
sg74
(lp2303
S'WEB2PY_ORIGINAL_URI'
p2304
asbag67
(g88
g69
NtRp2305
(dp2306
g72
(dp2307
g99
g100
ssg81
g2296
sg74
(lp2308
S':'
asbag67
(g88
g69
NtRp2309
(dp2310
g72
(dp2311
sg81
g2296
sg74
(lp2312
g67
(g68
g69
NtRp2313
(dp2314
g72
(dp2315
g80
I3
ssg81
g2309
sg74
(lp2316
S'/'
asbasbasbag67
(g83
g69
NtRp2317
(dp2318
g72
(dp2319
sg81
g1893
sg74
(lp2320
g67
(g88
g69
NtRp2321
(dp2322
g72
(dp2323
g92
g93
ssg81
g2317
sg74
(lp2324
S'wsgi.errors'
p2325
asbag67
(g88
g69
NtRp2326
(dp2327
g72
(dp2328
g99
g100
ssg81
g2317
sg74
(lp2329
S':'
asbag67
(g88
g69
NtRp2330
(dp2331
g72
(dp2332
sg81
g2317
sg74
(lp2333
g67
(g68
g69
NtRp2334
(dp2335
g72
(dp2336
g80
I3
ssg81
g2330
sg74
(lp2337
S"<open file '<stderr>', mode 'w' at 0x7f5f4a912270>"
p2338
asbasbasbag67
(g83
g69
NtRp2339
(dp2340
g72
(dp2341
sg81
g1893
sg74
(lp2342
g67
(g88
g69
NtRp2343
(dp2344
g72
(dp2345
g92
g93
ssg81
g2339
sg74
(lp2346
S'wsgi.file_wrapper'
p2347
asbag67
(g88
g69
NtRp2348
(dp2349
g72
(dp2350
g99
g100
ssg81
g2339
sg74
(lp2351
S':'
asbag67
(g88
g69
NtRp2352
(dp2353
g72
(dp2354
sg81
g2339
sg74
(lp2355
g67
(g68
g69
NtRp2356
(dp2357
g72
(dp2358
g80
I3
ssg81
g2352
sg74
(lp2359
S'<class wsgiref.util.FileWrapper at 0x1f71f58>'
p2360
asbasbasbag67
(g83
g69
NtRp2361
(dp2362
g72
(dp2363
sg81
g1893
sg74
(lp2364
g67
(g88
g69
NtRp2365
(dp2366
g72
(dp2367
g92
g93
ssg81
g2361
sg74
(lp2368
S'wsgi.input'
p2369
asbag67
(g88
g69
NtRp2370
(dp2371
g72
(dp2372
g99
g100
ssg81
g2361
sg74
(lp2373
S':'
asbag67
(g88
g69
NtRp2374
(dp2375
g72
(dp2376
sg81
g2361
sg74
(lp2377
g67
(g68
g69
NtRp2378
(dp2379
g72
(dp2380
g80
I3
ssg81
g2374
sg74
(lp2381
S'<cStringIO.StringO object at 0x20ae7d8>'
p2382
asbasbasbag67
(g83
g69
NtRp2383
(dp2384
g72
(dp2385
sg81
g1893
sg74
(lp2386
g67
(g88
g69
NtRp2387
(dp2388
g72
(dp2389
g92
g93
ssg81
g2383
sg74
(lp2390
S'wsgi.multiprocess'
p2391
asbag67
(g88
g69
NtRp2392
(dp2393
g72
(dp2394
g99
g100
ssg81
g2383
sg74
(lp2395
S':'
asbag67
(g88
g69
NtRp2396
(dp2397
g72
(dp2398
sg81
g2383
sg74
(lp2399
g67
(g68
g69
NtRp2400
(dp2401
g72
(dp2402
g80
I3
ssg81
g2396
sg74
(lp2403
g110
asbasbasbag67
(g83
g69
NtRp2404
(dp2405
g72
(dp2406
sg81
g1893
sg74
(lp2407
g67
(g88
g69
NtRp2408
(dp2409
g72
(dp2410
g92
g93
ssg81
g2404
sg74
(lp2411
S'wsgi.multithread'
p2412
asbag67
(g88
g69
NtRp2413
(dp2414
g72
(dp2415
g99
g100
ssg81
g2404
sg74
(lp2416
S':'
asbag67
(g88
g69
NtRp2417
(dp2418
g72
(dp2419
sg81
g2404
sg74
(lp2420
g67
(g68
g69
NtRp2421
(dp2422
g72
(dp2423
g80
I3
ssg81
g2417
sg74
(lp2424
g1144
asbasbasbag67
(g83
g69
NtRp2425
(dp2426
g72
(dp2427
sg81
g1893
sg74
(lp2428
g67
(g88
g69
NtRp2429
(dp2430
g72
(dp2431
g92
g93
ssg81
g2425
sg74
(lp2432
S'wsgi.run_once'
p2433
asbag67
(g88
g69
NtRp2434
(dp2435
g72
(dp2436
g99
g100
ssg81
g2425
sg74
(lp2437
S':'
asbag67
(g88
g69
NtRp2438
(dp2439
g72
(dp2440
sg81
g2425
sg74
(lp2441
g67
(g68
g69
NtRp2442
(dp2443
g72
(dp2444
g80
I3
ssg81
g2438
sg74
(lp2445
g110
asbasbasbag67
(g83
g69
NtRp2446
(dp2447
g72
(dp2448
sg81
g1893
sg74
(lp2449
g67
(g88
g69
NtRp2450
(dp2451
g72
(dp2452
g92
g93
ssg81
g2446
sg74
(lp2453
S'wsgi.url_scheme'
p2454
asbag67
(g88
g69
NtRp2455
(dp2456
g72
(dp2457
g99
g100
ssg81
g2446
sg74
(lp2458
S':'
asbag67
(g88
g69
NtRp2459
(dp2460
g72
(dp2461
sg81
g2446
sg74
(lp2462
g67
(g68
g69
NtRp2463
(dp2464
g72
(dp2465
g80
I3
ssg81
g2459
sg74
(lp2466
g1187
asbasbasbag67
(g83
g69
NtRp2467
(dp2468
g72
(dp2469
sg81
g1893
sg74
(lp2470
g67
(g88
g69
NtRp2471
(dp2472
g72
(dp2473
g92
g93
ssg81
g2467
sg74
(lp2474
S'wsgi.version'
p2475
asbag67
(g88
g69
NtRp2476
(dp2477
g72
(dp2478
g99
g100
ssg81
g2467
sg74
(lp2479
S':'
asbag67
(g88
g69
NtRp2480
(dp2481
g72
(dp2482
sg81
g2467
sg74
(lp2483
g67
(g68
g69
NtRp2484
(dp2485
g72
(dp2486
g80
I3
ssg81
g2480
sg74
(lp2487
S'1'
asbasbasbasbasbasbasbasbasbasbasbasbasbsS'frames'
p2488
(lp2489
(dp2490
S'file'
p2491
S'/home/goshawk/web2py/gluon/restricted.py'
p2492
sS'dump'
p2493
(dp2494
S'environment'
p2495
S"{'A': <class 'gluon.html.A'>, 'Auth': <class 'gluon.tools.Auth'>, 'B': <class 'gluon.html.B'>, 'BEAUTIFY': <class 'gluon.html.BEAUTIFY'>, 'BODY': <class 'gluon.html.BODY'>, 'BR': <class 'gluon.html.BR'>, 'BUTTON': <class 'gluon.html.BUTTON'>, 'CAT': <class 'gluon.html.CAT'>, 'CENTER': <class 'gluon.html.CENTER'>, 'CLEANUP': <class 'gluon.validators.CLEANUP'>, ...}"
p2496
sS'ccode'
p2497
S'<code object <module> at 0x20a6730, file "/home/.../web2py/applications/milo/models/db.py", line 12>'
p2498
ssS'lnum'
p2499
I205
sS'lines'
p2500
(dp2501
I200
S'    try:'
p2502
sI201
S'        if type(code) == types.CodeType:'
p2503
sI202
S'            ccode = code'
p2504
sI203
S'        else:'
p2505
sI204
S'            ccode = compile2(code,layer)'
p2506
sI205
S'        exec ccode in environment'
p2507
sI206
S'    except HTTP:'
p2508
sI207
S'        raise'
p2509
sI208
S'    except RestrictedError:'
p2510
sI209
S'        # do not encapsulate (obfuscate) the original RestrictedError'
p2511
ssS'call'
p2512
S'(code="# -*- coding: utf-8 -*-\\n\\n#######################...t)),\\n        Field(\'times\', \'integer\')\\n        )\\n", environment={\'A\': <class \'gluon.html.A\'>, \'Auth\': <class \'gluon.tools.Auth\'>, \'B\': <class \'gluon.html.B\'>, \'BEAUTIFY\': <class \'gluon.html.BEAUTIFY\'>, \'BODY\': <class \'gluon.html.BODY\'>, \'BR\': <class \'gluon.html.BR\'>, \'BUTTON\': <class \'gluon.html.BUTTON\'>, \'CAT\': <class \'gluon.html.CAT\'>, \'CENTER\': <class \'gluon.html.CENTER\'>, \'CLEANUP\': <class \'gluon.validators.CLEANUP\'>, ...}, layer=\'/home/goshawk/web2py/applications/milo/models/db.py\')'
p2513
sS'func'
p2514
S'restricted'
p2515
sa(dp2516
g2491
S'/home/goshawk/web2py/applications/milo/models/db.py'
p2517
sg2493
(dp2518
S'db'
p2519
S"<DAL {'auth_event': <Table {'origin': <gluon.dal...': <gluon.dal.Field object at 0x7f5f341f4510>}>}>"
p2520
sS'IS_IN_DB'
p2521
S"<class 'gluon.validators.IS_IN_DB'>"
p2522
sS'Field'
p2523
S"<class 'gluon.dal.Field'>"
p2524
sS'db.roles._format'
p2525
S'None'
p2526
sS'db.roles'
p2527
S"<Table {'ALL': <gluon.dal.SQLALL object at 0x7f5...id': <gluon.dal.Field object at 0x7f5f34c65f10>}>"
p2528
sS'requires'
p2529
S'undefined'
p2530
ssg2499
I136
sg2500
(dp2531
I131
S'        )'
p2532
sI132
S''
sI133
S"db.define_table('cast',"
p2533
sI134
S"        Field('movie', db.movies, requires = IS_IN_DB(db, 'movies.id', db.movies._format)),"
p2534
sI135
S"        Field('person', db.persons, requires = IS_IN_DB(db, 'persons.id', db.persons._format)),"
p2535
sI136
S"        Field('role', db.roles, requires = IS_IN_DB(db, 'roles.id', db.roles._format))"
p2536
sI137
S'        )'
p2537
sI138
S''
sI139
S"db.define_table('ratings',"
p2538
sI140
S"        Field('iuser', db.users, requires = IS_IN_DB(db,'users.id',db.users._format)),"
p2539
ssg2512
S'()'
p2540
sg2514
S'<module>'
p2541
sa(dp2542
g2491
S'/home/goshawk/web2py/gluon/dal.py'
p2543
sg2493
(dp2544
S'polymodel'
p2545
S'None'
p2546
ssg2499
I6320
sg2500
(dp2547
I6315
S"        if migrate or self._adapter.dbengine=='google:datastore':"
p2548
sI6316
S'            try:'
p2549
sI6317
S'                sql_locker.acquire()'
p2550
sI6318
S'                self._adapter.create_table(t,migrate=migrate,'
p2551
sI6319
S'                                           fake_migrate=fake_migrate,'
p2552
sI6320
S'                                           polymodel=polymodel)'
p2553
sI6321
S'            finally:'
p2554
sI6322
S'                sql_locker.release()'
p2555
sI6323
S'        else:'
p2556
sI6324
S'            t._dbt = None'
p2557
ssg2512
S"(self=<DAL {'auth_event': <Table {'origin': <gluon.dal...': <gluon.dal.Field object at 0x7f5f341f4510>}>}>, tablename='cast', *fields=(<gluon.dal.Field object>, <gluon.dal.Field object>, <gluon.dal.Field object>), **args={})"
p2558
sg2514
S'define_table'
p2559
sa(dp2560
g2491
S'/home/goshawk/web2py/gluon/dal.py'
p2561
sg2493
(dp2562
S'query'
p2563
S"'CREATE TABLE cast(\\n    id SERIAL PRIMARY KEY,\\n  ...INTEGER REFERENCES roles(id) ON DELETE CASCADE\\n);'"
p2564
sS'self'
p2565
S'<gluon.dal.PostgreSQLAdapter object>'
p2566
sS'table'
p2567
S"<Table {'ALL': <gluon.dal.SQLALL object at 0x7f5...id': <gluon.dal.Field object at 0x7f5f34cbb250>}>"
p2568
sS'self.create_sequence_and_triggers'
p2569
S'<bound method PostgreSQLAdapter.create_sequence_...triggers of <gluon.dal.PostgreSQLAdapter object>>'
p2570
ssg2499
I719
sg2500
(dp2571
I714
S'            if table._dbt:'
p2572
sI715
S"                logfile.write('timestamp: %s\\n'"
p2573
sI716
S'                               % datetime.datetime.today().isoformat())'
p2574
sI717
S"                logfile.write(query + '\\n')"
p2575
sI718
S'            if not fake_migrate:'
p2576
sI719
S'                self.create_sequence_and_triggers(query,table)'
p2577
sI720
S'                table._db.commit()'
p2578
sI721
S'            if table._dbt:'
p2579
sI722
S"                tfile = self.file_open(table._dbt, 'w')"
p2580
sI723
S'                cPickle.dump(sql_fields, tfile)'
p2581
ssg2512
S"(self=<gluon.dal.PostgreSQLAdapter object>, table=<Table {'ALL': <gluon.dal.SQLALL object at 0x7f5...id': <gluon.dal.Field object at 0x7f5f34cbb250>}>, migrate=True, fake_migrate=False, polymodel=None)"
p2582
sg2514
S'create_table'
p2583
sa(dp2584
g2491
S'/home/goshawk/web2py/gluon/dal.py'
p2585
sg2493
(dp2586
S'query'
p2587
S"'CREATE TABLE cast(\\n    id SERIAL PRIMARY KEY,\\n  ...INTEGER REFERENCES roles(id) ON DELETE CASCADE\\n);'"
p2588
sS'self'
p2589
S'<gluon.dal.PostgreSQLAdapter object>'
p2590
sS'self.execute'
p2591
S'<bound method PostgreSQLAdapter.execute of <gluon.dal.PostgreSQLAdapter object>>'
p2592
ssg2499
I1954
sg2500
(dp2593
I1952
S'        # self.execute("ALTER TABLE %s ALTER COLUMN %s SET DEFAULT NEXTVAL(\'%s\');" \\'
p2594
sI1953
S'        #              % (table._tablename, table._fieldname, table._sequence_name))'
p2595
sI1954
S'        self.execute(query)'
p2596
sI1955
S''
sI1956
S"    def __init__(self,db,uri,pool_size=0,folder=None,db_codec ='UTF-8',"
p2597
sI1957
S'                 credential_decoder=lambda x:x, driver_args={},'
p2598
sI1958
S'                 adapter_args={}):'
p2599
sI1949
S'    def create_sequence_and_triggers(self, query, table, **args):'
p2600
sI1950
S'        # following lines should only be executed if table._sequence_name does not exist'
p2601
sI1951
S"        # self.execute('CREATE SEQUENCE %s;' % table._sequence_name)"
p2602
ssg2512
S"(self=<gluon.dal.PostgreSQLAdapter object>, query='CREATE TABLE cast(\\n    id SERIAL PRIMARY KEY,\\n  ...INTEGER REFERENCES roles(id) ON DELETE CASCADE\\n);', table=<Table {'ALL': <gluon.dal.SQLALL object at 0x7f5...id': <gluon.dal.Field object at 0x7f5f34cbb250>}>, **args={})"
p2603
sg2514
S'create_sequence_and_triggers'
p2604
sa(dp2605
g2491
S'/home/goshawk/web2py/gluon/dal.py'
p2606
sg2493
(dp2607
S'a'
S"('CREATE TABLE cast(\\n    id SERIAL PRIMARY KEY,\\n  ...INTEGER REFERENCES roles(id) ON DELETE CASCADE\\n);',)"
p2608
sS'self'
p2609
S'<gluon.dal.PostgreSQLAdapter object>'
p2610
sS'b'
S'{}'
p2611
sS'self.log_execute'
p2612
S'<bound method PostgreSQLAdapter.log_execute of <gluon.dal.PostgreSQLAdapter object>>'
p2613
ssg2499
I1392
sg2500
(dp2614
I1387
S'        self.db._timings.append((a[0],time.time()-t0))'
p2615
sI1388
S'        del self.db._timings[:-TIMINGSSIZE]'
p2616
sI1389
S'        return ret'
p2617
sI1390
S''
sI1391
S'    def execute(self, *a, **b):'
p2618
sI1392
S'        return self.log_execute(*a, **b)'
p2619
sI1393
S''
sI1394
S'    def represent(self, obj, fieldtype):'
p2620
sI1395
S'        if isinstance(obj, CALLABLETYPES):'
p2621
sI1396
S'            obj = obj()'
p2622
ssg2512
S"(self=<gluon.dal.PostgreSQLAdapter object>, *a=('CREATE TABLE cast(\\n    id SERIAL PRIMARY KEY,\\n  ...INTEGER REFERENCES roles(id) ON DELETE CASCADE\\n);',), **b={})"
p2623
sg2514
S'execute'
p2624
sa(dp2625
g2491
S'/home/goshawk/web2py/gluon/dal.py'
p2626
sg2493
(dp2627
S'a'
S"('CREATE TABLE cast(\\n    id SERIAL PRIMARY KEY,\\n  ...INTEGER REFERENCES roles(id) ON DELETE CASCADE\\n);',)"
p2628
sS'b'
g2611
sS'self'
p2629
S'<gluon.dal.PostgreSQLAdapter object>'
p2630
sS'ret'
p2631
g2530
sS'self.cursor'
p2632
S'<cursor object at 0x1fe1908; closed: 0>'
p2633
sS'self.cursor.execute'
p2634
S'<built-in method execute of psycopg2._psycopg.cursor object>'
p2635
ssg2499
I1386
sg2500
(dp2636
I1381
S'        self.execute(query)'
p2637
sI1382
S''
sI1383
S'    def log_execute(self, *a, **b):'
p2638
sI1384
S'        self.db._lastsql = a[0]'
p2639
sI1385
S'        t0 = time.time()'
p2640
sI1386
S'        ret = self.cursor.execute(*a, **b)'
p2641
sI1387
S'        self.db._timings.append((a[0],time.time()-t0))'
p2642
sI1388
S'        del self.db._timings[:-TIMINGSSIZE]'
p2643
sI1389
S'        return ret'
p2644
sI1390
S''
ssg2512
S"(self=<gluon.dal.PostgreSQLAdapter object>, *a=('CREATE TABLE cast(\\n    id SERIAL PRIMARY KEY,\\n  ...INTEGER REFERENCES roles(id) ON DELETE CASCADE\\n);',), **b={})"
p2645
sg2514
S'log_execute'
p2646
sasS'pyver'
p2647
S'Python 2.7.3: /usr/bin/python'
p2648
sS'session'
p2649
g67
(g68
g69
NtRp2650
(dp2651
g72
(dp2652
sg74
(lp2653
g67
(g76
g69
NtRp2654
(dp2655
g72
(dp2656
g80
I5
ssg81
Nsg74
(lp2657
sbasbsS'etype'
p2658
S"<class 'psycopg2.ProgrammingError'>"
p2659
sS'date'
p2660
S'Mon Jul 23 10:52:24 2012'
p2661
sS'response'
p2662
g67
(g68
g69
NtRp2663
(dp2664
g72
(dp2665
sg74
(lp2666
g67
(g76
g69
NtRp2667
(dp2668
g72
(dp2669
g80
I5
ssg81
Nsg74
(lp2670
g67
(g83
g69
NtRp2671
(dp2672
g72
(dp2673
sg81
g2667
sg74
(lp2674
g67
(g88
g69
NtRp2675
(dp2676
g72
(dp2677
g92
g93
ssg81
g2671
sg74
(lp2678
g165
asbag67
(g88
g69
NtRp2679
(dp2680
g72
(dp2681
g99
g100
ssg81
g2671
sg74
(lp2682
S':'
asbag67
(g88
g69
NtRp2683
(dp2684
g72
(dp2685
sg81
g2671
sg74
(lp2686
g67
(g68
g69
NtRp2687
(dp2688
g72
(dp2689
g80
I5
ssg81
g2683
sg74
(lp2690
S'<cStringIO.StringO object at 0x20ae3b0>'
p2691
asbasbasbag67
(g83
g69
NtRp2692
(dp2693
g72
(dp2694
sg81
g2667
sg74
(lp2695
g67
(g88
g69
NtRp2696
(dp2697
g72
(dp2698
g92
g93
ssg81
g2692
sg74
(lp2699
g231
asbag67
(g88
g69
NtRp2700
(dp2701
g72
(dp2702
g99
g100
ssg81
g2692
sg74
(lp2703
S':'
asbag67
(g88
g69
NtRp2704
(dp2705
g72
(dp2706
sg81
g2692
sg74
(lp2707
g67
(g68
g69
NtRp2708
(dp2709
g72
(dp2710
g80
I5
ssg81
g2704
sg74
(lp2711
g67
(g76
g69
NtRp2712
(dp2713
g72
(dp2714
g80
I4
ssg81
Nsg74
(lp2715
g67
(g83
g69
NtRp2716
(dp2717
g72
(dp2718
sg81
g2712
sg74
(lp2719
g67
(g88
g69
NtRp2720
(dp2721
g72
(dp2722
g92
g93
ssg81
g2716
sg74
(lp2723
S'session_id_milo'
p2724
asbag67
(g88
g69
NtRp2725
(dp2726
g72
(dp2727
g99
g100
ssg81
g2716
sg74
(lp2728
S':'
asbag67
(g88
g69
NtRp2729
(dp2730
g72
(dp2731
sg81
g2716
sg74
(lp2732
g67
(g68
g69
NtRp2733
(dp2734
g72
(dp2735
g80
I4
ssg81
g2729
sg74
(lp2736
g67
(g76
g69
NtRp2737
(dp2738
g72
(dp2739
g80
I3
ssg81
Nsg74
(lp2740
g67
(g83
g69
NtRp2741
(dp2742
g72
(dp2743
sg81
g2737
sg74
(lp2744
g67
(g88
g69
NtRp2745
(dp2746
g72
(dp2747
g92
g93
ssg81
g2741
sg74
(lp2748
S'comment'
p2749
asbag67
(g88
g69
NtRp2750
(dp2751
g72
(dp2752
g99
g100
ssg81
g2741
sg74
(lp2753
S':'
asbag67
(g88
g69
NtRp2754
(dp2755
g72
(dp2756
sg81
g2741
sg74
(lp2757
g67
(g68
g69
NtRp2758
(dp2759
g72
(dp2760
g80
I3
ssg81
g2754
sg74
(lp2761
S''
asbasbasbag67
(g83
g69
NtRp2762
(dp2763
g72
(dp2764
sg81
g2737
sg74
(lp2765
g67
(g88
g69
NtRp2766
(dp2767
g72
(dp2768
g92
g93
ssg81
g2762
sg74
(lp2769
S'domain'
p2770
asbag67
(g88
g69
NtRp2771
(dp2772
g72
(dp2773
g99
g100
ssg81
g2762
sg74
(lp2774
S':'
asbag67
(g88
g69
NtRp2775
(dp2776
g72
(dp2777
sg81
g2762
sg74
(lp2778
g67
(g68
g69
NtRp2779
(dp2780
g72
(dp2781
g80
I3
ssg81
g2775
sg74
(lp2782
S''
asbasbasbag67
(g83
g69
NtRp2783
(dp2784
g72
(dp2785
sg81
g2737
sg74
(lp2786
g67
(g88
g69
NtRp2787
(dp2788
g72
(dp2789
g92
g93
ssg81
g2783
sg74
(lp2790
S'expires'
p2791
asbag67
(g88
g69
NtRp2792
(dp2793
g72
(dp2794
g99
g100
ssg81
g2783
sg74
(lp2795
S':'
asbag67
(g88
g69
NtRp2796
(dp2797
g72
(dp2798
sg81
g2783
sg74
(lp2799
g67
(g68
g69
NtRp2800
(dp2801
g72
(dp2802
g80
I3
ssg81
g2796
sg74
(lp2803
S''
asbasbasbag67
(g83
g69
NtRp2804
(dp2805
g72
(dp2806
sg81
g2737
sg74
(lp2807
g67
(g88
g69
NtRp2808
(dp2809
g72
(dp2810
g92
g93
ssg81
g2804
sg74
(lp2811
S'httponly'
p2812
asbag67
(g88
g69
NtRp2813
(dp2814
g72
(dp2815
g99
g100
ssg81
g2804
sg74
(lp2816
S':'
asbag67
(g88
g69
NtRp2817
(dp2818
g72
(dp2819
sg81
g2804
sg74
(lp2820
g67
(g68
g69
NtRp2821
(dp2822
g72
(dp2823
g80
I3
ssg81
g2817
sg74
(lp2824
S''
asbasbasbag67
(g83
g69
NtRp2825
(dp2826
g72
(dp2827
sg81
g2737
sg74
(lp2828
g67
(g88
g69
NtRp2829
(dp2830
g72
(dp2831
g92
g93
ssg81
g2825
sg74
(lp2832
S'max-age'
p2833
asbag67
(g88
g69
NtRp2834
(dp2835
g72
(dp2836
g99
g100
ssg81
g2825
sg74
(lp2837
S':'
asbag67
(g88
g69
NtRp2838
(dp2839
g72
(dp2840
sg81
g2825
sg74
(lp2841
g67
(g68
g69
NtRp2842
(dp2843
g72
(dp2844
g80
I3
ssg81
g2838
sg74
(lp2845
S''
asbasbasbag67
(g83
g69
NtRp2846
(dp2847
g72
(dp2848
sg81
g2737
sg74
(lp2849
g67
(g88
g69
NtRp2850
(dp2851
g72
(dp2852
g92
g93
ssg81
g2846
sg74
(lp2853
S'path'
p2854
asbag67
(g88
g69
NtRp2855
(dp2856
g72
(dp2857
g99
g100
ssg81
g2846
sg74
(lp2858
S':'
asbag67
(g88
g69
NtRp2859
(dp2860
g72
(dp2861
sg81
g2846
sg74
(lp2862
g67
(g68
g69
NtRp2863
(dp2864
g72
(dp2865
g80
I3
ssg81
g2859
sg74
(lp2866
S'/'
asbasbasbag67
(g83
g69
NtRp2867
(dp2868
g72
(dp2869
sg81
g2737
sg74
(lp2870
g67
(g88
g69
NtRp2871
(dp2872
g72
(dp2873
g92
g93
ssg81
g2867
sg74
(lp2874
S'secure'
p2875
asbag67
(g88
g69
NtRp2876
(dp2877
g72
(dp2878
g99
g100
ssg81
g2867
sg74
(lp2879
S':'
asbag67
(g88
g69
NtRp2880
(dp2881
g72
(dp2882
sg81
g2867
sg74
(lp2883
g67
(g68
g69
NtRp2884
(dp2885
g72
(dp2886
g80
I3
ssg81
g2880
sg74
(lp2887
S''
asbasbasbag67
(g83
g69
NtRp2888
(dp2889
g72
(dp2890
sg81
g2737
sg74
(lp2891
g67
(g88
g69
NtRp2892
(dp2893
g72
(dp2894
g92
g93
ssg81
g2888
sg74
(lp2895
S'version'
p2896
asbag67
(g88
g69
NtRp2897
(dp2898
g72
(dp2899
g99
g100
ssg81
g2888
sg74
(lp2900
S':'
asbag67
(g88
g69
NtRp2901
(dp2902
g72
(dp2903
sg81
g2888
sg74
(lp2904
g67
(g68
g69
NtRp2905
(dp2906
g72
(dp2907
g80
I3
ssg81
g2901
sg74
(lp2908
S''
asbasbasbasbasbasbasbasbasbasbasbag67
(g83
g69
NtRp2909
(dp2910
g72
(dp2911
sg81
g2667
sg74
(lp2912
g67
(g88
g69
NtRp2913
(dp2914
g72
(dp2915
g92
g93
ssg81
g2909
sg74
(lp2916
S'delimiters'
p2917
asbag67
(g88
g69
NtRp2918
(dp2919
g72
(dp2920
g99
g100
ssg81
g2909
sg74
(lp2921
S':'
asbag67
(g88
g69
NtRp2922
(dp2923
g72
(dp2924
sg81
g2909
sg74
(lp2925
g67
(g68
g69
NtRp2926
(dp2927
g72
(dp2928
g80
I5
ssg81
g2922
sg74
(lp2929
g67
(g76
g69
NtRp2930
(dp2931
g72
(dp2932
g80
I4
ssg81
Nsg74
(lp2933
g67
(g83
g69
NtRp2934
(dp2935
g72
(dp2936
sg81
g2930
sg74
(lp2937
g67
(g88
g69
NtRp2938
(dp2939
g72
(dp2940
sg81
g2934
sg74
(lp2941
g67
(g68
g69
NtRp2942
(dp2943
g72
(dp2944
g80
I4
ssg81
g2938
sg74
(lp2945
S'{{'
p2946
asbasbasbag67
(g83
g69
NtRp2947
(dp2948
g72
(dp2949
sg81
g2930
sg74
(lp2950
g67
(g88
g69
NtRp2951
(dp2952
g72
(dp2953
sg81
g2947
sg74
(lp2954
g67
(g68
g69
NtRp2955
(dp2956
g72
(dp2957
g80
I4
ssg81
g2951
sg74
(lp2958
S'}}'
p2959
asbasbasbasbasbasbasbag67
(g83
g69
NtRp2960
(dp2961
g72
(dp2962
sg81
g2667
sg74
(lp2963
g67
(g88
g69
NtRp2964
(dp2965
g72
(dp2966
g92
g93
ssg81
g2960
sg74
(lp2967
S'files'
p2968
asbag67
(g88
g69
NtRp2969
(dp2970
g72
(dp2971
g99
g100
ssg81
g2960
sg74
(lp2972
S':'
asbag67
(g88
g69
NtRp2973
(dp2974
g72
(dp2975
sg81
g2960
sg74
(lp2976
g67
(g68
g69
NtRp2977
(dp2978
g72
(dp2979
g80
I5
ssg81
g2973
sg74
(lp2980
g67
(g76
g69
NtRp2981
(dp2982
g72
(dp2983
g80
I4
ssg81
Nsg74
(lp2984
sbasbasbasbag67
(g83
g69
NtRp2985
(dp2986
g72
(dp2987
sg81
g2667
sg74
(lp2988
g67
(g88
g69
NtRp2989
(dp2990
g72
(dp2991
g92
g93
ssg81
g2985
sg74
(lp2992
S'flash'
p2993
asbag67
(g88
g69
NtRp2994
(dp2995
g72
(dp2996
g99
g100
ssg81
g2985
sg74
(lp2997
S':'
asbag67
(g88
g69
NtRp2998
(dp2999
g72
(dp3000
sg81
g2985
sg74
(lp3001
g67
(g68
g69
NtRp3002
(dp3003
g72
(dp3004
g80
I5
ssg81
g2998
sg74
(lp3005
S''
asbasbasbag67
(g83
g69
NtRp3006
(dp3007
g72
(dp3008
sg81
g2667
sg74
(lp3009
g67
(g88
g69
NtRp3010
(dp3011
g72
(dp3012
g92
g93
ssg81
g3006
sg74
(lp3013
S'generic_patterns'
p3014
asbag67
(g88
g69
NtRp3015
(dp3016
g72
(dp3017
g99
g100
ssg81
g3006
sg74
(lp3018
S':'
asbag67
(g88
g69
NtRp3019
(dp3020
g72
(dp3021
sg81
g3006
sg74
(lp3022
g67
(g68
g69
NtRp3023
(dp3024
g72
(dp3025
g80
I5
ssg81
g3019
sg74
(lp3026
g67
(g76
g69
NtRp3027
(dp3028
g72
(dp3029
g80
I4
ssg81
Nsg74
(lp3030
g67
(g83
g69
NtRp3031
(dp3032
g72
(dp3033
sg81
g3027
sg74
(lp3034
g67
(g88
g69
NtRp3035
(dp3036
g72
(dp3037
sg81
g3031
sg74
(lp3038
g67
(g68
g69
NtRp3039
(dp3040
g72
(dp3041
g80
I4
ssg81
g3035
sg74
(lp3042
S'*'
asbasbasbasbasbasbasbag67
(g83
g69
NtRp3043
(dp3044
g72
(dp3045
sg81
g2667
sg74
(lp3046
g67
(g88
g69
NtRp3047
(dp3048
g72
(dp3049
g92
g93
ssg81
g3043
sg74
(lp3050
S'headers'
p3051
asbag67
(g88
g69
NtRp3052
(dp3053
g72
(dp3054
g99
g100
ssg81
g3043
sg74
(lp3055
S':'
asbag67
(g88
g69
NtRp3056
(dp3057
g72
(dp3058
sg81
g3043
sg74
(lp3059
g67
(g68
g69
NtRp3060
(dp3061
g72
(dp3062
g80
I5
ssg81
g3056
sg74
(lp3063
g67
(g76
g69
NtRp3064
(dp3065
g72
(dp3066
g80
I4
ssg81
Nsg74
(lp3067
g67
(g83
g69
NtRp3068
(dp3069
g72
(dp3070
sg81
g3064
sg74
(lp3071
g67
(g88
g69
NtRp3072
(dp3073
g72
(dp3074
g92
g93
ssg81
g3068
sg74
(lp3075
S'Cache-Control'
p3076
asbag67
(g88
g69
NtRp3077
(dp3078
g72
(dp3079
g99
g100
ssg81
g3068
sg74
(lp3080
S':'
asbag67
(g88
g69
NtRp3081
(dp3082
g72
(dp3083
sg81
g3068
sg74
(lp3084
g67
(g68
g69
NtRp3085
(dp3086
g72
(dp3087
g80
I4
ssg81
g3081
sg74
(lp3088
S'no-store, no-cache, must-revalidate, post-check=0, pre-check=0'
p3089
asbasbasbag67
(g83
g69
NtRp3090
(dp3091
g72
(dp3092
sg81
g3064
sg74
(lp3093
g67
(g88
g69
NtRp3094
(dp3095
g72
(dp3096
g92
g93
ssg81
g3090
sg74
(lp3097
S'Content-Type'
p3098
asbag67
(g88
g69
NtRp3099
(dp3100
g72
(dp3101
g99
g100
ssg81
g3090
sg74
(lp3102
S':'
asbag67
(g88
g69
NtRp3103
(dp3104
g72
(dp3105
sg81
g3090
sg74
(lp3106
g67
(g68
g69
NtRp3107
(dp3108
g72
(dp3109
g80
I4
ssg81
g3103
sg74
(lp3110
S'text/html; charset=utf-8'
p3111
asbasbasbag67
(g83
g69
NtRp3112
(dp3113
g72
(dp3114
sg81
g3064
sg74
(lp3115
g67
(g88
g69
NtRp3116
(dp3117
g72
(dp3118
g92
g93
ssg81
g3112
sg74
(lp3119
S'Expires'
p3120
asbag67
(g88
g69
NtRp3121
(dp3122
g72
(dp3123
g99
g100
ssg81
g3112
sg74
(lp3124
S':'
asbag67
(g88
g69
NtRp3125
(dp3126
g72
(dp3127
sg81
g3112
sg74
(lp3128
g67
(g68
g69
NtRp3129
(dp3130
g72
(dp3131
g80
I4
ssg81
g3125
sg74
(lp3132
S'Mon, 23 Jul 2012 08:52:21 GMT'
p3133
asbasbasbag67
(g83
g69
NtRp3134
(dp3135
g72
(dp3136
sg81
g3064
sg74
(lp3137
g67
(g88
g69
NtRp3138
(dp3139
g72
(dp3140
g92
g93
ssg81
g3134
sg74
(lp3141
S'Pragma'
p3142
asbag67
(g88
g69
NtRp3143
(dp3144
g72
(dp3145
g99
g100
ssg81
g3134
sg74
(lp3146
S':'
asbag67
(g88
g69
NtRp3147
(dp3148
g72
(dp3149
sg81
g3134
sg74
(lp3150
g67
(g68
g69
NtRp3151
(dp3152
g72
(dp3153
g80
I4
ssg81
g3147
sg74
(lp3154
S'no-cache'
p3155
asbasbasbag67
(g83
g69
NtRp3156
(dp3157
g72
(dp3158
sg81
g3064
sg74
(lp3159
g67
(g88
g69
NtRp3160
(dp3161
g72
(dp3162
g92
g93
ssg81
g3156
sg74
(lp3163
S'X-Powered-By'
p3164
asbag67
(g88
g69
NtRp3165
(dp3166
g72
(dp3167
g99
g100
ssg81
g3156
sg74
(lp3168
S':'
asbag67
(g88
g69
NtRp3169
(dp3170
g72
(dp3171
sg81
g3156
sg74
(lp3172
g67
(g68
g69
NtRp3173
(dp3174
g72
(dp3175
g80
I4
ssg81
g3169
sg74
(lp3176
S'web2py'
p3177
asbasbasbasbasbasbasbag67
(g83
g69
NtRp3178
(dp3179
g72
(dp3180
sg81
g2667
sg74
(lp3181
g67
(g88
g69
NtRp3182
(dp3183
g72
(dp3184
g92
g93
ssg81
g3178
sg74
(lp3185
S'menu'
p3186
asbag67
(g88
g69
NtRp3187
(dp3188
g72
(dp3189
g99
g100
ssg81
g3178
sg74
(lp3190
S':'
asbag67
(g88
g69
NtRp3191
(dp3192
g72
(dp3193
sg81
g3178
sg74
(lp3194
g67
(g68
g69
NtRp3195
(dp3196
g72
(dp3197
g80
I5
ssg81
g3191
sg74
(lp3198
g67
(g76
g69
NtRp3199
(dp3200
g72
(dp3201
g80
I4
ssg81
Nsg74
(lp3202
sbasbasbasbag67
(g83
g69
NtRp3203
(dp3204
g72
(dp3205
sg81
g2667
sg74
(lp3206
g67
(g88
g69
NtRp3207
(dp3208
g72
(dp3209
g92
g93
ssg81
g3203
sg74
(lp3210
S'meta'
p3211
asbag67
(g88
g69
NtRp3212
(dp3213
g72
(dp3214
g99
g100
ssg81
g3203
sg74
(lp3215
S':'
asbag67
(g88
g69
NtRp3216
(dp3217
g72
(dp3218
sg81
g3203
sg74
(lp3219
g67
(g68
g69
NtRp3220
(dp3221
g72
(dp3222
g80
I5
ssg81
g3216
sg74
(lp3223
g67
(g76
g69
NtRp3224
(dp3225
g72
(dp3226
g80
I4
ssg81
Nsg74
(lp3227
sbasbasbasbag67
(g83
g69
NtRp3228
(dp3229
g72
(dp3230
sg81
g2667
sg74
(lp3231
g67
(g88
g69
NtRp3232
(dp3233
g72
(dp3234
g92
g93
ssg81
g3228
sg74
(lp3235
S'postprocessing'
p3236
asbag67
(g88
g69
NtRp3237
(dp3238
g72
(dp3239
g99
g100
ssg81
g3228
sg74
(lp3240
S':'
asbag67
(g88
g69
NtRp3241
(dp3242
g72
(dp3243
sg81
g3228
sg74
(lp3244
g67
(g68
g69
NtRp3245
(dp3246
g72
(dp3247
g80
I5
ssg81
g3241
sg74
(lp3248
g67
(g76
g69
NtRp3249
(dp3250
g72
(dp3251
g80
I4
ssg81
Nsg74
(lp3252
sbasbasbasbag67
(g83
g69
NtRp3253
(dp3254
g72
(dp3255
sg81
g2667
sg74
(lp3256
g67
(g88
g69
NtRp3257
(dp3258
g72
(dp3259
g92
g93
ssg81
g3253
sg74
(lp3260
S'session_filename'
p3261
asbag67
(g88
g69
NtRp3262
(dp3263
g72
(dp3264
g99
g100
ssg81
g3253
sg74
(lp3265
S':'
asbag67
(g88
g69
NtRp3266
(dp3267
g72
(dp3268
sg81
g3253
sg74
(lp3269
g67
(g68
g69
NtRp3270
(dp3271
g72
(dp3272
g80
I5
ssg81
g3266
sg74
(lp3273
S'/home/goshawk/web2py/applications/milo/sessions/127.0.0.1-c7da725f-e50a-49e8-9120-1119d681967d'
p3274
asbasbasbag67
(g83
g69
NtRp3275
(dp3276
g72
(dp3277
sg81
g2667
sg74
(lp3278
g67
(g88
g69
NtRp3279
(dp3280
g72
(dp3281
g92
g93
ssg81
g3275
sg74
(lp3282
S'session_id'
p3283
asbag67
(g88
g69
NtRp3284
(dp3285
g72
(dp3286
g99
g100
ssg81
g3275
sg74
(lp3287
S':'
asbag67
(g88
g69
NtRp3288
(dp3289
g72
(dp3290
sg81
g3275
sg74
(lp3291
g67
(g68
g69
NtRp3292
(dp3293
g72
(dp3294
g80
I5
ssg81
g3288
sg74
(lp3295
S'127.0.0.1-c7da725f-e50a-49e8-9120-1119d681967d'
p3296
asbasbasbag67
(g83
g69
NtRp3297
(dp3298
g72
(dp3299
sg81
g2667
sg74
(lp3300
g67
(g88
g69
NtRp3301
(dp3302
g72
(dp3303
g92
g93
ssg81
g3297
sg74
(lp3304
S'session_id_name'
p3305
asbag67
(g88
g69
NtRp3306
(dp3307
g72
(dp3308
g99
g100
ssg81
g3297
sg74
(lp3309
S':'
asbag67
(g88
g69
NtRp3310
(dp3311
g72
(dp3312
sg81
g3297
sg74
(lp3313
g67
(g68
g69
NtRp3314
(dp3315
g72
(dp3316
g80
I5
ssg81
g3310
sg74
(lp3317
g2724
asbasbasbag67
(g83
g69
NtRp3318
(dp3319
g72
(dp3320
sg81
g2667
sg74
(lp3321
g67
(g88
g69
NtRp3322
(dp3323
g72
(dp3324
g92
g93
ssg81
g3318
sg74
(lp3325
S'session_new'
p3326
asbag67
(g88
g69
NtRp3327
(dp3328
g72
(dp3329
g99
g100
ssg81
g3318
sg74
(lp3330
S':'
asbag67
(g88
g69
NtRp3331
(dp3332
g72
(dp3333
sg81
g3318
sg74
(lp3334
g67
(g68
g69
NtRp3335
(dp3336
g72
(dp3337
g80
I5
ssg81
g3331
sg74
(lp3338
g1144
asbasbasbag67
(g83
g69
NtRp3339
(dp3340
g72
(dp3341
sg81
g2667
sg74
(lp3342
g67
(g88
g69
NtRp3343
(dp3344
g72
(dp3345
g92
g93
ssg81
g3339
sg74
(lp3346
S'status'
p3347
asbag67
(g88
g69
NtRp3348
(dp3349
g72
(dp3350
g99
g100
ssg81
g3339
sg74
(lp3351
S':'
asbag67
(g88
g69
NtRp3352
(dp3353
g72
(dp3354
sg81
g3339
sg74
(lp3355
g67
(g68
g69
NtRp3356
(dp3357
g72
(dp3358
g80
I5
ssg81
g3352
sg74
(lp3359
S'200'
p3360
asbasbasbag67
(g83
g69
NtRp3361
(dp3362
g72
(dp3363
sg81
g2667
sg74
(lp3364
g67
(g88
g69
NtRp3365
(dp3366
g72
(dp3367
g92
g93
ssg81
g3361
sg74
(lp3368
g1808
asbag67
(g88
g69
NtRp3369
(dp3370
g72
(dp3371
g99
g100
ssg81
g3361
sg74
(lp3372
S':'
asbag67
(g88
g69
NtRp3373
(dp3374
g72
(dp3375
sg81
g3361
sg74
(lp3376
g67
(g68
g69
NtRp3377
(dp3378
g72
(dp3379
g80
I5
ssg81
g3373
sg74
(lp3380
g1821
asbasbasbag67
(g83
g69
NtRp3381
(dp3382
g72
(dp3383
sg81
g2667
sg74
(lp3384
g67
(g88
g69
NtRp3385
(dp3386
g72
(dp3387
g92
g93
ssg81
g3381
sg74
(lp3388
S'view'
p3389
asbag67
(g88
g69
NtRp3390
(dp3391
g72
(dp3392
g99
g100
ssg81
g3381
sg74
(lp3393
S':'
asbag67
(g88
g69
NtRp3394
(dp3395
g72
(dp3396
sg81
g3381
sg74
(lp3397
g67
(g68
g69
NtRp3398
(dp3399
g72
(dp3400
g80
I5
ssg81
g3394
sg74
(lp3401
S'default/index.html'
p3402
asbasbasbasbasbsS'locals'
p3403
(dp3404
S'a'
S"('CREATE TABLE cast(\\n    id SERIAL PRIMARY KEY,\\n  ...INTEGER REFERENCES roles(id) ON DELETE CASCADE\\n);',)"
p3405
sS'self'
p3406
S'<gluon.dal.PostgreSQLAdapter object>'
p3407
sS'b'
g2611
sS't0'
p3408
S'1343033544.181358'
p3409
sssS'traceback'
p3410
S'Traceback (most recent call last):\n  File "/home/goshawk/web2py/gluon/restricted.py", line 205, in restricted\n    exec ccode in environment\n  File "/home/goshawk/web2py/applications/milo/models/db.py", line 136, in <module>\n    Field(\'role\', db.roles, requires = IS_IN_DB(db, \'roles.id\', db.roles._format))\n  File "/home/goshawk/web2py/gluon/dal.py", line 6320, in define_table\n    polymodel=polymodel)\n  File "/home/goshawk/web2py/gluon/dal.py", line 719, in create_table\n    self.create_sequence_and_triggers(query,table)\n  File "/home/goshawk/web2py/gluon/dal.py", line 1954, in create_sequence_and_triggers\n    self.execute(query)\n  File "/home/goshawk/web2py/gluon/dal.py", line 1392, in execute\n    return self.log_execute(*a, **b)\n  File "/home/goshawk/web2py/gluon/dal.py", line 1386, in log_execute\n    ret = self.cursor.execute(*a, **b)\nProgrammingError: syntax error at or near "cast"\nLINE 1: CREATE TABLE cast(\n                     ^\n\n'
p3411
s.