(dp1
S'output'
p2
S"<class 'sqlalchemy.exc.OperationalError'> (OperationalError) FATAL:  remaining connection slots are reserved for non-replication superuser connections\n None None"
p3
sS'layer'
p4
S'/home/goshawk/web2py/applications/milo/models/db.py'
p5
sS'code'
p6
S"# -*- coding: utf-8 -*-\n\n#########################################################################\n## This scaffolding model makes your app work on Google App Engine too\n## File is released under public domain and you can use without limitations\n#########################################################################\n\n## if SSL/HTTPS is properly configured and you want all HTTP requests to\n## be redirected to HTTPS, uncomment the line below:\n# request.requires_https()\n\nif not request.env.web2py_runtime_gae:\n    ## if NOT running on Google App Engine use SQLite or other DB\n    db = DAL('postgres://milo:milosecret@localhost/milo-reloaded')\nelse:\n    ## connect to Google BigTable (optional 'google:datastore://namespace')\n    db = DAL('google:datastore')\n    ## store sessions and tickets there\n    session.connect(request, response, db = db)\n    ## or store session in Memcache, Redis, etc.\n    ## from gluon.contrib.memdb import MEMDB\n    ## from google.appengine.api.memcache import Client\n    ## session.connect(request, response, db = MEMDB(Client()))\n\n## by default give a view/generic.extension to all actions from localhost\n## none otherwise. a pattern can be 'controller/function.extension'\nresponse.generic_patterns = ['*'] if request.is_local else []\n## (optional) optimize handling of static files\n# response.optimize_css = 'concat,minify,inline'\n# response.optimize_js = 'concat,minify,inline'\n\n#########################################################################\n## Here is sample code if you need for\n## - email capabilities\n## - authentication (registration, login, logout, ... )\n## - authorization (role based authorization)\n## - services (xml, csv, json, xmlrpc, jsonrpc, amf, rss)\n## - old style crud actions\n## (more options discussed in gluon/tools.py)\n#########################################################################\n\nfrom gluon.tools import Auth, Crud, Service, PluginManager, prettydate\nauth = Auth(db, hmac_key=Auth.get_or_create_key())\ncrud, service, plugins = Crud(db), Service(), PluginManager()\n\n## create all tables needed by auth if not custom tables\nauth.define_tables()\n\n## configure email\nmail=auth.settings.mailer\nmail.settings.server = 'logging' or 'smtp.gmail.com:587'\nmail.settings.sender = 'you@gmail.com'\nmail.settings.login = 'username:password'\n\n## configure auth policy\nauth.settings.registration_requires_verification = False\nauth.settings.registration_requires_approval = False\nauth.settings.reset_password_requires_verification = True\n\n## if you need to use OpenID, Facebook, MySpace, Twitter, Linkedin, etc.\n## register with janrain.com, write your domain:api_key in private/janrain.key\nfrom gluon.contrib.login_methods.rpx_account import use_janrain\nuse_janrain(auth,filename='private/janrain.key')\n\n#########################################################################\n## Define your tables below (or better in another model file) for example\n##\n## >>> db.define_table('mytable',Field('myfield','string'))\n##\n## Fields can be 'string','text','password','integer','double','boolean'\n##       'date','time','datetime','blob','upload', 'reference TABLENAME'\n## There is an implicit 'id integer autoincrement' field\n## Consult manual for more options, validators, etc.\n##\n## More API examples for controllers:\n##\n## >>> db.mytable.insert(myfield='value')\n## >>> rows=db(db.mytable.myfield=='value').select(db.mytable.ALL)\n## >>> for row in rows: print row.id, row.myfield\n#########################################################################\n\nimport imdb\n\nimdb_connection_str = 'postgres://imdb:imdbsecret@localhost/imdb'\n\nim = imdb.IMDb('sql', uri=imdb_connection_str)\n\n\ndb.define_table('users',\n        Field('name'),\n        Field('email'),\n        Field('imdb_id', 'integer')\n        )\n\ndb.define_table('movies',\n        Field('imdb_id', 'integer')\n        )\n\ndb.define_table('ratings',\n        Field('iuser', db.users, requires = IS_IN_DB(db,'users.id',db.users._format)),\n        Field('imovie', db.movies, requires = IS_IN_DB(db,'movies.id',db.movies._format)),\n        Field('rating', 'double')\n        )\n\n\n#for x in db(db.ratings).select(db.ratings.ALL):\n#    for y in db(db.ratings.id>x.id).select(db.ratings.ALL):\n#        if y.iuser == x.iuser and y.imovie == x.imovie:\n#            y.delete_record()\n#    db.commit()\n\n#run only once\n#db.executesql('CREATE UNIQUE INDEX iuser_imovie ON ratings (iuser,imovie);')\n\n\ndb.define_table('features',\n        Field('name'),\n        Field('type')\n        )\n\ndb.define_table('movies_features',\n        Field('movie', db.movies, requires = IS_IN_DB(db,'movies.id',db.movies._format)),\n        Field('feature', db.features, requires = IS_IN_DB(db,'features.id',db.features._format)),\n        Field('times', 'integer')\n        )\n"
p7
sS'snapshot'
p8
(dp9
S'exception'
p10
(dp11
S'__module__'
p12
S"'sqlalchemy.exc'"
p13
sS'__getslice__'
p14
S"<method-wrapper '__getslice__' of OperationalError object>"
p15
sS'__str__'
p16
S"<bound method OperationalError.__str__ of Operat...d for non-replication superuser connections\\n',)>"
p17
sS'__reduce__'
p18
S'<built-in method __reduce__ of OperationalError object>'
p19
sS'__dict__'
p20
S"{'connection_invalidated': False, 'orig': OperationalError('FATAL:  remaining connection s...ed for non-replication superuser connections\\n',), 'params': None, 'statement': None}"
p21
sS'__sizeof__'
p22
S'<built-in method __sizeof__ of OperationalError object>'
p23
sS'__weakref__'
p24
S'None'
p25
sS'__init__'
p26
S"<bound method OperationalError.__init__ of Opera...d for non-replication superuser connections\\n',)>"
p27
sS'orig'
p28
S"OperationalError('FATAL:  remaining connection s...ed for non-replication superuser connections\\n',)"
p29
sS'__setattr__'
p30
S"<method-wrapper '__setattr__' of OperationalError object>"
p31
sS'__reduce_ex__'
p32
S'<built-in method __reduce_ex__ of OperationalError object>'
p33
sS'__new__'
p34
S'<built-in method __new__ of type object>'
p35
sS'__format__'
p36
S'<built-in method __format__ of OperationalError object>'
p37
sS'__class__'
p38
S"<class 'sqlalchemy.exc.OperationalError'>"
p39
sS'instance'
p40
S"<bound method type.instance of <class 'sqlalchemy.exc.OperationalError'>>"
p41
sS'params'
p42
S'None'
p43
sS'statement'
p44
S'None'
p45
sS'__doc__'
p46
S"'Wraps a DB-API OperationalError.'"
p47
sS'connection_invalidated'
p48
S'False'
p49
sS'__getitem__'
p50
S"<method-wrapper '__getitem__' of OperationalError object>"
p51
sS'__setstate__'
p52
S'<built-in method __setstate__ of OperationalError object>'
p53
sS'__getattribute__'
p54
S"<method-wrapper '__getattribute__' of OperationalError object>"
p55
sS'args'
p56
S"('(OperationalError) FATAL:  remaining connection ...served for non-replication superuser connections\\n',)"
p57
sS'__subclasshook__'
p58
S'<built-in method __subclasshook__ of type object>'
p59
sS'__unicode__'
p60
S'<built-in method __unicode__ of OperationalError object>'
p61
sS'__delattr__'
p62
S"<method-wrapper '__delattr__' of OperationalError object>"
p63
sS'__repr__'
p64
S"<method-wrapper '__repr__' of OperationalError object>"
p65
sS'__hash__'
p66
S"<method-wrapper '__hash__' of OperationalError object>"
p67
ssS'evalue'
p68
S'(OperationalError) FATAL:  remaining connection slots are reserved for non-replication superuser connections\n None None'
p69
sS'request'
p70
ccopy_reg
_reconstructor
p71
(cgluon.html
BEAUTIFY
p72
c__builtin__
object
p73
NtRp74
(dp75
S'attributes'
p76
(dp77
sS'components'
p78
(lp79
g71
(cgluon.html
TABLE
p80
g73
NtRp81
(dp82
g76
(dp83
S'level'
p84
I5
ssS'parent'
p85
Nsg78
(lp86
g71
(cgluon.html
TR
p87
g73
NtRp88
(dp89
g76
(dp90
sg85
g81
sg78
(lp91
g71
(cgluon.html
TD
p92
g73
NtRp93
(dp94
g76
(dp95
S'_style'
p96
S'font-weight:bold;vertical-align:top'
p97
ssg85
g88
sg78
(lp98
S'ajax'
p99
asbag71
(g92
g73
NtRp100
(dp101
g76
(dp102
S'_valign'
p103
S'top'
p104
ssg85
g88
sg78
(lp105
S':'
asbag71
(g92
g73
NtRp106
(dp107
g76
(dp108
sg85
g88
sg78
(lp109
g71
(g72
g73
NtRp110
(dp111
g76
(dp112
g84
I5
ssg85
g106
sg78
(lp113
S'True'
p114
asbasbasbag71
(g87
g73
NtRp115
(dp116
g76
(dp117
sg85
g81
sg78
(lp118
g71
(g92
g73
NtRp119
(dp120
g76
(dp121
g96
g97
ssg85
g115
sg78
(lp122
S'application'
p123
asbag71
(g92
g73
NtRp124
(dp125
g76
(dp126
g103
g104
ssg85
g115
sg78
(lp127
S':'
asbag71
(g92
g73
NtRp128
(dp129
g76
(dp130
sg85
g115
sg78
(lp131
g71
(g72
g73
NtRp132
(dp133
g76
(dp134
g84
I5
ssg85
g128
sg78
(lp135
S'milo'
p136
asbasbasbag71
(g87
g73
NtRp137
(dp138
g76
(dp139
sg85
g81
sg78
(lp140
g71
(g92
g73
NtRp141
(dp142
g76
(dp143
g96
g97
ssg85
g137
sg78
(lp144
g56
asbag71
(g92
g73
NtRp145
(dp146
g76
(dp147
g103
g104
ssg85
g137
sg78
(lp148
S':'
asbag71
(g92
g73
NtRp149
(dp150
g76
(dp151
sg85
g137
sg78
(lp152
g71
(g72
g73
NtRp153
(dp154
g76
(dp155
g84
I5
ssg85
g149
sg78
(lp156
g71
(g80
g73
NtRp157
(dp158
g76
(dp159
g84
I4
ssg85
Nsg78
(lp160
g71
(g87
g73
NtRp161
(dp162
g76
(dp163
sg85
g157
sg78
(lp164
g71
(g92
g73
NtRp165
(dp166
g76
(dp167
sg85
g161
sg78
(lp168
g71
(g72
g73
NtRp169
(dp170
g76
(dp171
g84
I4
ssg85
g165
sg78
(lp172
S'_CosNgbr_II_knn'
p173
asbasbasbasbasbasbasbag71
(g87
g73
NtRp174
(dp175
g76
(dp176
sg85
g81
sg78
(lp177
g71
(g92
g73
NtRp178
(dp179
g76
(dp180
g96
g97
ssg85
g174
sg78
(lp181
S'body'
p182
asbag71
(g92
g73
NtRp183
(dp184
g76
(dp185
g103
g104
ssg85
g174
sg78
(lp186
S':'
asbag71
(g92
g73
NtRp187
(dp188
g76
(dp189
sg85
g174
sg78
(lp190
g71
(g72
g73
NtRp191
(dp192
g76
(dp193
g84
I5
ssg85
g187
sg78
(lp194
S'<cStringIO.StringO object at 0x7fb5b0b9bd18>'
p195
asbasbasbag71
(g87
g73
NtRp196
(dp197
g76
(dp198
sg85
g81
sg78
(lp199
g71
(g92
g73
NtRp200
(dp201
g76
(dp202
g96
g97
ssg85
g196
sg78
(lp203
S'client'
p204
asbag71
(g92
g73
NtRp205
(dp206
g76
(dp207
g103
g104
ssg85
g196
sg78
(lp208
S':'
asbag71
(g92
g73
NtRp209
(dp210
g76
(dp211
sg85
g196
sg78
(lp212
g71
(g72
g73
NtRp213
(dp214
g76
(dp215
g84
I5
ssg85
g209
sg78
(lp216
S'127.0.0.1'
p217
asbasbasbag71
(g87
g73
NtRp218
(dp219
g76
(dp220
sg85
g81
sg78
(lp221
g71
(g92
g73
NtRp222
(dp223
g76
(dp224
g96
g97
ssg85
g218
sg78
(lp225
S'controller'
p226
asbag71
(g92
g73
NtRp227
(dp228
g76
(dp229
g103
g104
ssg85
g218
sg78
(lp230
S':'
asbag71
(g92
g73
NtRp231
(dp232
g76
(dp233
sg85
g218
sg78
(lp234
g71
(g72
g73
NtRp235
(dp236
g76
(dp237
g84
I5
ssg85
g231
sg78
(lp238
S'admin'
p239
asbasbasbag71
(g87
g73
NtRp240
(dp241
g76
(dp242
sg85
g81
sg78
(lp243
g71
(g92
g73
NtRp244
(dp245
g76
(dp246
g96
g97
ssg85
g240
sg78
(lp247
S'cookies'
p248
asbag71
(g92
g73
NtRp249
(dp250
g76
(dp251
g103
g104
ssg85
g240
sg78
(lp252
S':'
asbag71
(g92
g73
NtRp253
(dp254
g76
(dp255
sg85
g240
sg78
(lp256
g71
(g72
g73
NtRp257
(dp258
g76
(dp259
g84
I5
ssg85
g253
sg78
(lp260
g71
(g80
g73
NtRp261
(dp262
g76
(dp263
g84
I4
ssg85
Nsg78
(lp264
g71
(g87
g73
NtRp265
(dp266
g76
(dp267
sg85
g261
sg78
(lp268
g71
(g92
g73
NtRp269
(dp270
g76
(dp271
g96
g97
ssg85
g265
sg78
(lp272
S'session_id_admin'
p273
asbag71
(g92
g73
NtRp274
(dp275
g76
(dp276
g103
g104
ssg85
g265
sg78
(lp277
S':'
asbag71
(g92
g73
NtRp278
(dp279
g76
(dp280
sg85
g265
sg78
(lp281
g71
(g72
g73
NtRp282
(dp283
g76
(dp284
g84
I4
ssg85
g278
sg78
(lp285
g71
(g80
g73
NtRp286
(dp287
g76
(dp288
g84
I3
ssg85
Nsg78
(lp289
g71
(g87
g73
NtRp290
(dp291
g76
(dp292
sg85
g286
sg78
(lp293
g71
(g92
g73
NtRp294
(dp295
g76
(dp296
g96
g97
ssg85
g290
sg78
(lp297
S'comment'
p298
asbag71
(g92
g73
NtRp299
(dp300
g76
(dp301
g103
g104
ssg85
g290
sg78
(lp302
S':'
asbag71
(g92
g73
NtRp303
(dp304
g76
(dp305
sg85
g290
sg78
(lp306
g71
(g72
g73
NtRp307
(dp308
g76
(dp309
g84
I3
ssg85
g303
sg78
(lp310
S''
asbasbasbag71
(g87
g73
NtRp311
(dp312
g76
(dp313
sg85
g286
sg78
(lp314
g71
(g92
g73
NtRp315
(dp316
g76
(dp317
g96
g97
ssg85
g311
sg78
(lp318
S'domain'
p319
asbag71
(g92
g73
NtRp320
(dp321
g76
(dp322
g103
g104
ssg85
g311
sg78
(lp323
S':'
asbag71
(g92
g73
NtRp324
(dp325
g76
(dp326
sg85
g311
sg78
(lp327
g71
(g72
g73
NtRp328
(dp329
g76
(dp330
g84
I3
ssg85
g324
sg78
(lp331
S''
asbasbasbag71
(g87
g73
NtRp332
(dp333
g76
(dp334
sg85
g286
sg78
(lp335
g71
(g92
g73
NtRp336
(dp337
g76
(dp338
g96
g97
ssg85
g332
sg78
(lp339
S'expires'
p340
asbag71
(g92
g73
NtRp341
(dp342
g76
(dp343
g103
g104
ssg85
g332
sg78
(lp344
S':'
asbag71
(g92
g73
NtRp345
(dp346
g76
(dp347
sg85
g332
sg78
(lp348
g71
(g72
g73
NtRp349
(dp350
g76
(dp351
g84
I3
ssg85
g345
sg78
(lp352
S''
asbasbasbag71
(g87
g73
NtRp353
(dp354
g76
(dp355
sg85
g286
sg78
(lp356
g71
(g92
g73
NtRp357
(dp358
g76
(dp359
g96
g97
ssg85
g353
sg78
(lp360
S'httponly'
p361
asbag71
(g92
g73
NtRp362
(dp363
g76
(dp364
g103
g104
ssg85
g353
sg78
(lp365
S':'
asbag71
(g92
g73
NtRp366
(dp367
g76
(dp368
sg85
g353
sg78
(lp369
g71
(g72
g73
NtRp370
(dp371
g76
(dp372
g84
I3
ssg85
g366
sg78
(lp373
S''
asbasbasbag71
(g87
g73
NtRp374
(dp375
g76
(dp376
sg85
g286
sg78
(lp377
g71
(g92
g73
NtRp378
(dp379
g76
(dp380
g96
g97
ssg85
g374
sg78
(lp381
S'max-age'
p382
asbag71
(g92
g73
NtRp383
(dp384
g76
(dp385
g103
g104
ssg85
g374
sg78
(lp386
S':'
asbag71
(g92
g73
NtRp387
(dp388
g76
(dp389
sg85
g374
sg78
(lp390
g71
(g72
g73
NtRp391
(dp392
g76
(dp393
g84
I3
ssg85
g387
sg78
(lp394
S''
asbasbasbag71
(g87
g73
NtRp395
(dp396
g76
(dp397
sg85
g286
sg78
(lp398
g71
(g92
g73
NtRp399
(dp400
g76
(dp401
g96
g97
ssg85
g395
sg78
(lp402
S'path'
p403
asbag71
(g92
g73
NtRp404
(dp405
g76
(dp406
g103
g104
ssg85
g395
sg78
(lp407
S':'
asbag71
(g92
g73
NtRp408
(dp409
g76
(dp410
sg85
g395
sg78
(lp411
g71
(g72
g73
NtRp412
(dp413
g76
(dp414
g84
I3
ssg85
g408
sg78
(lp415
S''
asbasbasbag71
(g87
g73
NtRp416
(dp417
g76
(dp418
sg85
g286
sg78
(lp419
g71
(g92
g73
NtRp420
(dp421
g76
(dp422
g96
g97
ssg85
g416
sg78
(lp423
S'secure'
p424
asbag71
(g92
g73
NtRp425
(dp426
g76
(dp427
g103
g104
ssg85
g416
sg78
(lp428
S':'
asbag71
(g92
g73
NtRp429
(dp430
g76
(dp431
sg85
g416
sg78
(lp432
g71
(g72
g73
NtRp433
(dp434
g76
(dp435
g84
I3
ssg85
g429
sg78
(lp436
S''
asbasbasbag71
(g87
g73
NtRp437
(dp438
g76
(dp439
sg85
g286
sg78
(lp440
g71
(g92
g73
NtRp441
(dp442
g76
(dp443
g96
g97
ssg85
g437
sg78
(lp444
S'version'
p445
asbag71
(g92
g73
NtRp446
(dp447
g76
(dp448
g103
g104
ssg85
g437
sg78
(lp449
S':'
asbag71
(g92
g73
NtRp450
(dp451
g76
(dp452
sg85
g437
sg78
(lp453
g71
(g72
g73
NtRp454
(dp455
g76
(dp456
g84
I3
ssg85
g450
sg78
(lp457
S''
asbasbasbasbasbasbasbag71
(g87
g73
NtRp458
(dp459
g76
(dp460
sg85
g261
sg78
(lp461
g71
(g92
g73
NtRp462
(dp463
g76
(dp464
g96
g97
ssg85
g458
sg78
(lp465
S'session_id_milo'
p466
asbag71
(g92
g73
NtRp467
(dp468
g76
(dp469
g103
g104
ssg85
g458
sg78
(lp470
S':'
asbag71
(g92
g73
NtRp471
(dp472
g76
(dp473
sg85
g458
sg78
(lp474
g71
(g72
g73
NtRp475
(dp476
g76
(dp477
g84
I4
ssg85
g471
sg78
(lp478
g71
(g80
g73
NtRp479
(dp480
g76
(dp481
g84
I3
ssg85
Nsg78
(lp482
g71
(g87
g73
NtRp483
(dp484
g76
(dp485
sg85
g479
sg78
(lp486
g71
(g92
g73
NtRp487
(dp488
g76
(dp489
g96
g97
ssg85
g483
sg78
(lp490
g298
asbag71
(g92
g73
NtRp491
(dp492
g76
(dp493
g103
g104
ssg85
g483
sg78
(lp494
S':'
asbag71
(g92
g73
NtRp495
(dp496
g76
(dp497
sg85
g483
sg78
(lp498
g71
(g72
g73
NtRp499
(dp500
g76
(dp501
g84
I3
ssg85
g495
sg78
(lp502
S''
asbasbasbag71
(g87
g73
NtRp503
(dp504
g76
(dp505
sg85
g479
sg78
(lp506
g71
(g92
g73
NtRp507
(dp508
g76
(dp509
g96
g97
ssg85
g503
sg78
(lp510
g319
asbag71
(g92
g73
NtRp511
(dp512
g76
(dp513
g103
g104
ssg85
g503
sg78
(lp514
S':'
asbag71
(g92
g73
NtRp515
(dp516
g76
(dp517
sg85
g503
sg78
(lp518
g71
(g72
g73
NtRp519
(dp520
g76
(dp521
g84
I3
ssg85
g515
sg78
(lp522
S''
asbasbasbag71
(g87
g73
NtRp523
(dp524
g76
(dp525
sg85
g479
sg78
(lp526
g71
(g92
g73
NtRp527
(dp528
g76
(dp529
g96
g97
ssg85
g523
sg78
(lp530
g340
asbag71
(g92
g73
NtRp531
(dp532
g76
(dp533
g103
g104
ssg85
g523
sg78
(lp534
S':'
asbag71
(g92
g73
NtRp535
(dp536
g76
(dp537
sg85
g523
sg78
(lp538
g71
(g72
g73
NtRp539
(dp540
g76
(dp541
g84
I3
ssg85
g535
sg78
(lp542
S''
asbasbasbag71
(g87
g73
NtRp543
(dp544
g76
(dp545
sg85
g479
sg78
(lp546
g71
(g92
g73
NtRp547
(dp548
g76
(dp549
g96
g97
ssg85
g543
sg78
(lp550
g361
asbag71
(g92
g73
NtRp551
(dp552
g76
(dp553
g103
g104
ssg85
g543
sg78
(lp554
S':'
asbag71
(g92
g73
NtRp555
(dp556
g76
(dp557
sg85
g543
sg78
(lp558
g71
(g72
g73
NtRp559
(dp560
g76
(dp561
g84
I3
ssg85
g555
sg78
(lp562
S''
asbasbasbag71
(g87
g73
NtRp563
(dp564
g76
(dp565
sg85
g479
sg78
(lp566
g71
(g92
g73
NtRp567
(dp568
g76
(dp569
g96
g97
ssg85
g563
sg78
(lp570
g382
asbag71
(g92
g73
NtRp571
(dp572
g76
(dp573
g103
g104
ssg85
g563
sg78
(lp574
S':'
asbag71
(g92
g73
NtRp575
(dp576
g76
(dp577
sg85
g563
sg78
(lp578
g71
(g72
g73
NtRp579
(dp580
g76
(dp581
g84
I3
ssg85
g575
sg78
(lp582
S''
asbasbasbag71
(g87
g73
NtRp583
(dp584
g76
(dp585
sg85
g479
sg78
(lp586
g71
(g92
g73
NtRp587
(dp588
g76
(dp589
g96
g97
ssg85
g583
sg78
(lp590
g403
asbag71
(g92
g73
NtRp591
(dp592
g76
(dp593
g103
g104
ssg85
g583
sg78
(lp594
S':'
asbag71
(g92
g73
NtRp595
(dp596
g76
(dp597
sg85
g583
sg78
(lp598
g71
(g72
g73
NtRp599
(dp600
g76
(dp601
g84
I3
ssg85
g595
sg78
(lp602
S''
asbasbasbag71
(g87
g73
NtRp603
(dp604
g76
(dp605
sg85
g479
sg78
(lp606
g71
(g92
g73
NtRp607
(dp608
g76
(dp609
g96
g97
ssg85
g603
sg78
(lp610
g424
asbag71
(g92
g73
NtRp611
(dp612
g76
(dp613
g103
g104
ssg85
g603
sg78
(lp614
S':'
asbag71
(g92
g73
NtRp615
(dp616
g76
(dp617
sg85
g603
sg78
(lp618
g71
(g72
g73
NtRp619
(dp620
g76
(dp621
g84
I3
ssg85
g615
sg78
(lp622
S''
asbasbasbag71
(g87
g73
NtRp623
(dp624
g76
(dp625
sg85
g479
sg78
(lp626
g71
(g92
g73
NtRp627
(dp628
g76
(dp629
g96
g97
ssg85
g623
sg78
(lp630
g445
asbag71
(g92
g73
NtRp631
(dp632
g76
(dp633
g103
g104
ssg85
g623
sg78
(lp634
S':'
asbag71
(g92
g73
NtRp635
(dp636
g76
(dp637
sg85
g623
sg78
(lp638
g71
(g72
g73
NtRp639
(dp640
g76
(dp641
g84
I3
ssg85
g635
sg78
(lp642
S''
asbasbasbasbasbasbasbasbasbasbasbag71
(g87
g73
NtRp643
(dp644
g76
(dp645
sg85
g81
sg78
(lp646
g71
(g92
g73
NtRp647
(dp648
g76
(dp649
g96
g97
ssg85
g643
sg78
(lp650
S'env'
p651
asbag71
(g92
g73
NtRp652
(dp653
g76
(dp654
g103
g104
ssg85
g643
sg78
(lp655
S':'
asbag71
(g92
g73
NtRp656
(dp657
g76
(dp658
sg85
g643
sg78
(lp659
g71
(g72
g73
NtRp660
(dp661
g76
(dp662
g84
I5
ssg85
g656
sg78
(lp663
g71
(g80
g73
NtRp664
(dp665
g76
(dp666
g84
I4
ssg85
Nsg78
(lp667
g71
(g87
g73
NtRp668
(dp669
g76
(dp670
sg85
g664
sg78
(lp671
g71
(g92
g73
NtRp672
(dp673
g76
(dp674
g96
g97
ssg85
g668
sg78
(lp675
S'app_folders'
p676
asbag71
(g92
g73
NtRp677
(dp678
g76
(dp679
g103
g104
ssg85
g668
sg78
(lp680
S':'
asbag71
(g92
g73
NtRp681
(dp682
g76
(dp683
sg85
g668
sg78
(lp684
g71
(g72
g73
NtRp685
(dp686
g76
(dp687
g84
I4
ssg85
g681
sg78
(lp688
S"set(['/home/goshawk/web2py/applications/milo/', '/home/goshawk/web2py/applications/admin/'])"
p689
asbasbasbag71
(g87
g73
NtRp690
(dp691
g76
(dp692
sg85
g664
sg78
(lp693
g71
(g92
g73
NtRp694
(dp695
g76
(dp696
g96
g97
ssg85
g690
sg78
(lp697
S'applications_parent'
p698
asbag71
(g92
g73
NtRp699
(dp700
g76
(dp701
g103
g104
ssg85
g690
sg78
(lp702
S':'
asbag71
(g92
g73
NtRp703
(dp704
g76
(dp705
sg85
g690
sg78
(lp706
g71
(g72
g73
NtRp707
(dp708
g76
(dp709
g84
I4
ssg85
g703
sg78
(lp710
S'/home/goshawk/web2py'
p711
asbasbasbag71
(g87
g73
NtRp712
(dp713
g76
(dp714
sg85
g664
sg78
(lp715
g71
(g92
g73
NtRp716
(dp717
g76
(dp718
g96
g97
ssg85
g712
sg78
(lp719
S'cmd_args'
p720
asbag71
(g92
g73
NtRp721
(dp722
g76
(dp723
g103
g104
ssg85
g712
sg78
(lp724
S':'
asbag71
(g92
g73
NtRp725
(dp726
g76
(dp727
sg85
g712
sg78
(lp728
g71
(g72
g73
NtRp729
(dp730
g76
(dp731
g84
I4
ssg85
g725
sg78
(lp732
g71
(g80
g73
NtRp733
(dp734
g76
(dp735
g84
I3
ssg85
Nsg78
(lp736
sbasbasbasbag71
(g87
g73
NtRp737
(dp738
g76
(dp739
sg85
g664
sg78
(lp740
g71
(g92
g73
NtRp741
(dp742
g76
(dp743
g96
g97
ssg85
g737
sg78
(lp744
S'cmd_options'
p745
asbag71
(g92
g73
NtRp746
(dp747
g76
(dp748
g103
g104
ssg85
g737
sg78
(lp749
S':'
asbag71
(g92
g73
NtRp750
(dp751
g76
(dp752
sg85
g737
sg78
(lp753
g71
(g72
g73
NtRp754
(dp755
g76
(dp756
g84
I4
ssg85
g750
sg78
(lp757
S"<Values at 0x18e20e0: {'verbose': False, 'ip': '127.0.0.1', 'shutdown_timeout': 5, 'taskbar': False, 'nocron': False, 'pid_filename': 'httpserver.pid', 'maxthreads': None, 'softcron': False, 'server_name': 'whisperer', 'bpython': False, 'nogui': False, 'port': 8000, 'extcron': False, 'debuglevel': 30, 'test': None, 'folder': '/home/goshawk/web2py', 'config': '', 'import_models': False, 'winservice': '', 'shell': None, 'run': '', 'log_filename': 'httpserver.log', 'args': [''], 'socket_timeout': 5, 'ssl_ca_certificate': None, 'scheduler': None, 'profiler_filename': None, 'ssl_private_key': '', 'password': 'admin', 'request_queue_size': 5, 'ssl_certificate': '', 'cronjob': False, 'numthreads': None, 'quiet': False, 'interfaces': None, 'minthreads': None, 'timeout': 10, 'plain': False, 'nobanner': False}>"
p758
asbasbasbag71
(g87
g73
NtRp759
(dp760
g76
(dp761
sg85
g664
sg78
(lp762
g71
(g92
g73
NtRp763
(dp764
g76
(dp765
g96
g97
ssg85
g759
sg78
(lp766
S'db_sessions'
p767
asbag71
(g92
g73
NtRp768
(dp769
g76
(dp770
g103
g104
ssg85
g759
sg78
(lp771
S':'
asbag71
(g92
g73
NtRp772
(dp773
g76
(dp774
sg85
g759
sg78
(lp775
g71
(g72
g73
NtRp776
(dp777
g76
(dp778
g84
I4
ssg85
g772
sg78
(lp779
S'set([])'
p780
asbasbasbag71
(g87
g73
NtRp781
(dp782
g76
(dp783
sg85
g664
sg78
(lp784
g71
(g92
g73
NtRp785
(dp786
g76
(dp787
g96
g97
ssg85
g781
sg78
(lp788
S'debugging'
p789
asbag71
(g92
g73
NtRp790
(dp791
g76
(dp792
g103
g104
ssg85
g781
sg78
(lp793
S':'
asbag71
(g92
g73
NtRp794
(dp795
g76
(dp796
sg85
g781
sg78
(lp797
g71
(g72
g73
NtRp798
(dp799
g76
(dp800
g84
I4
ssg85
g794
sg78
(lp801
g49
asbasbasbag71
(g87
g73
NtRp802
(dp803
g76
(dp804
sg85
g664
sg78
(lp805
g71
(g92
g73
NtRp806
(dp807
g76
(dp808
g96
g97
ssg85
g802
sg78
(lp809
S'gluon_parent'
p810
asbag71
(g92
g73
NtRp811
(dp812
g76
(dp813
g103
g104
ssg85
g802
sg78
(lp814
S':'
asbag71
(g92
g73
NtRp815
(dp816
g76
(dp817
sg85
g802
sg78
(lp818
g71
(g72
g73
NtRp819
(dp820
g76
(dp821
g84
I4
ssg85
g815
sg78
(lp822
S'/home/goshawk/web2py'
p823
asbasbasbag71
(g87
g73
NtRp824
(dp825
g76
(dp826
sg85
g664
sg78
(lp827
g71
(g92
g73
NtRp828
(dp829
g76
(dp830
g96
g97
ssg85
g824
sg78
(lp831
S'http_accept'
p832
asbag71
(g92
g73
NtRp833
(dp834
g76
(dp835
g103
g104
ssg85
g824
sg78
(lp836
S':'
asbag71
(g92
g73
NtRp837
(dp838
g76
(dp839
sg85
g824
sg78
(lp840
g71
(g72
g73
NtRp841
(dp842
g76
(dp843
g84
I4
ssg85
g837
sg78
(lp844
S'*/*'
p845
asbasbasbag71
(g87
g73
NtRp846
(dp847
g76
(dp848
sg85
g664
sg78
(lp849
g71
(g92
g73
NtRp850
(dp851
g76
(dp852
g96
g97
ssg85
g846
sg78
(lp853
S'http_accept_charset'
p854
asbag71
(g92
g73
NtRp855
(dp856
g76
(dp857
g103
g104
ssg85
g846
sg78
(lp858
S':'
asbag71
(g92
g73
NtRp859
(dp860
g76
(dp861
sg85
g846
sg78
(lp862
g71
(g72
g73
NtRp863
(dp864
g76
(dp865
g84
I4
ssg85
g859
sg78
(lp866
S'ISO-8859-1,utf-8;q=0.7,*;q=0.3'
p867
asbasbasbag71
(g87
g73
NtRp868
(dp869
g76
(dp870
sg85
g664
sg78
(lp871
g71
(g92
g73
NtRp872
(dp873
g76
(dp874
g96
g97
ssg85
g868
sg78
(lp875
S'http_accept_encoding'
p876
asbag71
(g92
g73
NtRp877
(dp878
g76
(dp879
g103
g104
ssg85
g868
sg78
(lp880
S':'
asbag71
(g92
g73
NtRp881
(dp882
g76
(dp883
sg85
g868
sg78
(lp884
g71
(g72
g73
NtRp885
(dp886
g76
(dp887
g84
I4
ssg85
g881
sg78
(lp888
S'gzip,deflate,sdch'
p889
asbasbasbag71
(g87
g73
NtRp890
(dp891
g76
(dp892
sg85
g664
sg78
(lp893
g71
(g92
g73
NtRp894
(dp895
g76
(dp896
g96
g97
ssg85
g890
sg78
(lp897
S'http_accept_language'
p898
asbag71
(g92
g73
NtRp899
(dp900
g76
(dp901
g103
g104
ssg85
g890
sg78
(lp902
S':'
asbag71
(g92
g73
NtRp903
(dp904
g76
(dp905
sg85
g890
sg78
(lp906
g71
(g72
g73
NtRp907
(dp908
g76
(dp909
g84
I4
ssg85
g903
sg78
(lp910
S'en-US,en;q=0.8'
p911
asbasbasbag71
(g87
g73
NtRp912
(dp913
g76
(dp914
sg85
g664
sg78
(lp915
g71
(g92
g73
NtRp916
(dp917
g76
(dp918
g96
g97
ssg85
g912
sg78
(lp919
S'http_connection'
p920
asbag71
(g92
g73
NtRp921
(dp922
g76
(dp923
g103
g104
ssg85
g912
sg78
(lp924
S':'
asbag71
(g92
g73
NtRp925
(dp926
g76
(dp927
sg85
g912
sg78
(lp928
g71
(g72
g73
NtRp929
(dp930
g76
(dp931
g84
I4
ssg85
g925
sg78
(lp932
S'keep-alive'
p933
asbasbasbag71
(g87
g73
NtRp934
(dp935
g76
(dp936
sg85
g664
sg78
(lp937
g71
(g92
g73
NtRp938
(dp939
g76
(dp940
g96
g97
ssg85
g934
sg78
(lp941
S'http_cookie'
p942
asbag71
(g92
g73
NtRp943
(dp944
g76
(dp945
g103
g104
ssg85
g934
sg78
(lp946
S':'
asbag71
(g92
g73
NtRp947
(dp948
g76
(dp949
sg85
g934
sg78
(lp950
g71
(g72
g73
NtRp951
(dp952
g76
(dp953
g84
I4
ssg85
g947
sg78
(lp954
S'session_id_admin=127.0.0.1-51b8b453-d18a-4366-84a7-3f495dca0da7; session_id_milo=127.0.0.1-6726e75c-c87c-483a-a678-8d6ddb4c0bea'
p955
asbasbasbag71
(g87
g73
NtRp956
(dp957
g76
(dp958
sg85
g664
sg78
(lp959
g71
(g92
g73
NtRp960
(dp961
g76
(dp962
g96
g97
ssg85
g956
sg78
(lp963
S'http_host'
p964
asbag71
(g92
g73
NtRp965
(dp966
g76
(dp967
g103
g104
ssg85
g956
sg78
(lp968
S':'
asbag71
(g92
g73
NtRp969
(dp970
g76
(dp971
sg85
g956
sg78
(lp972
g71
(g72
g73
NtRp973
(dp974
g76
(dp975
g84
I4
ssg85
g969
sg78
(lp976
S'localhost:8000'
p977
asbasbasbag71
(g87
g73
NtRp978
(dp979
g76
(dp980
sg85
g664
sg78
(lp981
g71
(g92
g73
NtRp982
(dp983
g76
(dp984
g96
g97
ssg85
g978
sg78
(lp985
S'http_referer'
p986
asbag71
(g92
g73
NtRp987
(dp988
g76
(dp989
g103
g104
ssg85
g978
sg78
(lp990
S':'
asbag71
(g92
g73
NtRp991
(dp992
g76
(dp993
sg85
g978
sg78
(lp994
g71
(g72
g73
NtRp995
(dp996
g76
(dp997
g84
I4
ssg85
g991
sg78
(lp998
S'http://localhost:8000/milo/admin/index'
p999
asbasbasbag71
(g87
g73
NtRp1000
(dp1001
g76
(dp1002
sg85
g664
sg78
(lp1003
g71
(g92
g73
NtRp1004
(dp1005
g76
(dp1006
g96
g97
ssg85
g1000
sg78
(lp1007
S'http_user_agent'
p1008
asbag71
(g92
g73
NtRp1009
(dp1010
g76
(dp1011
g103
g104
ssg85
g1000
sg78
(lp1012
S':'
asbag71
(g92
g73
NtRp1013
(dp1014
g76
(dp1015
sg85
g1000
sg78
(lp1016
g71
(g72
g73
NtRp1017
(dp1018
g76
(dp1019
g84
I4
ssg85
g1013
sg78
(lp1020
S'Mozilla/5.0 (X11; Linux x86_64) AppleWebKit/535.19 (KHTML, like Gecko) Ubuntu/12.04 Chromium/18.0.1025.168 Chrome/18.0.1025.168 Safari/535.19'
p1021
asbasbasbag71
(g87
g73
NtRp1022
(dp1023
g76
(dp1024
sg85
g664
sg78
(lp1025
g71
(g92
g73
NtRp1026
(dp1027
g76
(dp1028
g96
g97
ssg85
g1022
sg78
(lp1029
S'http_x_requested_with'
p1030
asbag71
(g92
g73
NtRp1031
(dp1032
g76
(dp1033
g103
g104
ssg85
g1022
sg78
(lp1034
S':'
asbag71
(g92
g73
NtRp1035
(dp1036
g76
(dp1037
sg85
g1022
sg78
(lp1038
g71
(g72
g73
NtRp1039
(dp1040
g76
(dp1041
g84
I4
ssg85
g1035
sg78
(lp1042
S'XMLHttpRequest'
p1043
asbasbasbag71
(g87
g73
NtRp1044
(dp1045
g76
(dp1046
sg85
g664
sg78
(lp1047
g71
(g92
g73
NtRp1048
(dp1049
g76
(dp1050
g96
g97
ssg85
g1044
sg78
(lp1051
S'is_jython'
p1052
asbag71
(g92
g73
NtRp1053
(dp1054
g76
(dp1055
g103
g104
ssg85
g1044
sg78
(lp1056
S':'
asbag71
(g92
g73
NtRp1057
(dp1058
g76
(dp1059
sg85
g1044
sg78
(lp1060
g71
(g72
g73
NtRp1061
(dp1062
g76
(dp1063
g84
I4
ssg85
g1057
sg78
(lp1064
g49
asbasbasbag71
(g87
g73
NtRp1065
(dp1066
g76
(dp1067
sg85
g664
sg78
(lp1068
g71
(g92
g73
NtRp1069
(dp1070
g76
(dp1071
g96
g97
ssg85
g1065
sg78
(lp1072
S'is_pypy'
p1073
asbag71
(g92
g73
NtRp1074
(dp1075
g76
(dp1076
g103
g104
ssg85
g1065
sg78
(lp1077
S':'
asbag71
(g92
g73
NtRp1078
(dp1079
g76
(dp1080
sg85
g1065
sg78
(lp1081
g71
(g72
g73
NtRp1082
(dp1083
g76
(dp1084
g84
I4
ssg85
g1078
sg78
(lp1085
g49
asbasbasbag71
(g87
g73
NtRp1086
(dp1087
g76
(dp1088
sg85
g664
sg78
(lp1089
g71
(g92
g73
NtRp1090
(dp1091
g76
(dp1092
g96
g97
ssg85
g1086
sg78
(lp1093
S'path_info'
p1094
asbag71
(g92
g73
NtRp1095
(dp1096
g76
(dp1097
g103
g104
ssg85
g1086
sg78
(lp1098
S':'
asbag71
(g92
g73
NtRp1099
(dp1100
g76
(dp1101
sg85
g1086
sg78
(lp1102
g71
(g72
g73
NtRp1103
(dp1104
g76
(dp1105
g84
I4
ssg85
g1099
sg78
(lp1106
S'/milo/admin/info_algorithm/_CosNgbr_II_knn'
p1107
asbasbasbag71
(g87
g73
NtRp1108
(dp1109
g76
(dp1110
sg85
g664
sg78
(lp1111
g71
(g92
g73
NtRp1112
(dp1113
g76
(dp1114
g96
g97
ssg85
g1108
sg78
(lp1115
S'query_string'
p1116
asbag71
(g92
g73
NtRp1117
(dp1118
g76
(dp1119
g103
g104
ssg85
g1108
sg78
(lp1120
S':'
asbag71
(g92
g73
NtRp1121
(dp1122
g76
(dp1123
sg85
g1108
sg78
(lp1124
g71
(g72
g73
NtRp1125
(dp1126
g76
(dp1127
g84
I4
ssg85
g1121
sg78
(lp1128
S''
asbasbasbag71
(g87
g73
NtRp1129
(dp1130
g76
(dp1131
sg85
g664
sg78
(lp1132
g71
(g92
g73
NtRp1133
(dp1134
g76
(dp1135
g96
g97
ssg85
g1129
sg78
(lp1136
S'remote_addr'
p1137
asbag71
(g92
g73
NtRp1138
(dp1139
g76
(dp1140
g103
g104
ssg85
g1129
sg78
(lp1141
S':'
asbag71
(g92
g73
NtRp1142
(dp1143
g76
(dp1144
sg85
g1129
sg78
(lp1145
g71
(g72
g73
NtRp1146
(dp1147
g76
(dp1148
g84
I4
ssg85
g1142
sg78
(lp1149
g217
asbasbasbag71
(g87
g73
NtRp1150
(dp1151
g76
(dp1152
sg85
g664
sg78
(lp1153
g71
(g92
g73
NtRp1154
(dp1155
g76
(dp1156
g96
g97
ssg85
g1150
sg78
(lp1157
S'remote_port'
p1158
asbag71
(g92
g73
NtRp1159
(dp1160
g76
(dp1161
g103
g104
ssg85
g1150
sg78
(lp1162
S':'
asbag71
(g92
g73
NtRp1163
(dp1164
g76
(dp1165
sg85
g1150
sg78
(lp1166
g71
(g72
g73
NtRp1167
(dp1168
g76
(dp1169
g84
I4
ssg85
g1163
sg78
(lp1170
S'37062'
p1171
asbasbasbag71
(g87
g73
NtRp1172
(dp1173
g76
(dp1174
sg85
g664
sg78
(lp1175
g71
(g92
g73
NtRp1176
(dp1177
g76
(dp1178
g96
g97
ssg85
g1172
sg78
(lp1179
S'request_method'
p1180
asbag71
(g92
g73
NtRp1181
(dp1182
g76
(dp1183
g103
g104
ssg85
g1172
sg78
(lp1184
S':'
asbag71
(g92
g73
NtRp1185
(dp1186
g76
(dp1187
sg85
g1172
sg78
(lp1188
g71
(g72
g73
NtRp1189
(dp1190
g76
(dp1191
g84
I4
ssg85
g1185
sg78
(lp1192
S'GET'
p1193
asbasbasbag71
(g87
g73
NtRp1194
(dp1195
g76
(dp1196
sg85
g664
sg78
(lp1197
g71
(g92
g73
NtRp1198
(dp1199
g76
(dp1200
g96
g97
ssg85
g1194
sg78
(lp1201
S'request_uri'
p1202
asbag71
(g92
g73
NtRp1203
(dp1204
g76
(dp1205
g103
g104
ssg85
g1194
sg78
(lp1206
S':'
asbag71
(g92
g73
NtRp1207
(dp1208
g76
(dp1209
sg85
g1194
sg78
(lp1210
g71
(g72
g73
NtRp1211
(dp1212
g76
(dp1213
g84
I4
ssg85
g1207
sg78
(lp1214
g1107
asbasbasbag71
(g87
g73
NtRp1215
(dp1216
g76
(dp1217
sg85
g664
sg78
(lp1218
g71
(g92
g73
NtRp1219
(dp1220
g76
(dp1221
g96
g97
ssg85
g1215
sg78
(lp1222
S'script_name'
p1223
asbag71
(g92
g73
NtRp1224
(dp1225
g76
(dp1226
g103
g104
ssg85
g1215
sg78
(lp1227
S':'
asbag71
(g92
g73
NtRp1228
(dp1229
g76
(dp1230
sg85
g1215
sg78
(lp1231
g71
(g72
g73
NtRp1232
(dp1233
g76
(dp1234
g84
I4
ssg85
g1228
sg78
(lp1235
S''
asbasbasbag71
(g87
g73
NtRp1236
(dp1237
g76
(dp1238
sg85
g664
sg78
(lp1239
g71
(g92
g73
NtRp1240
(dp1241
g76
(dp1242
g96
g97
ssg85
g1236
sg78
(lp1243
S'server_name'
p1244
asbag71
(g92
g73
NtRp1245
(dp1246
g76
(dp1247
g103
g104
ssg85
g1236
sg78
(lp1248
S':'
asbag71
(g92
g73
NtRp1249
(dp1250
g76
(dp1251
sg85
g1236
sg78
(lp1252
g71
(g72
g73
NtRp1253
(dp1254
g76
(dp1255
g84
I4
ssg85
g1249
sg78
(lp1256
S'whisperer'
p1257
asbasbasbag71
(g87
g73
NtRp1258
(dp1259
g76
(dp1260
sg85
g664
sg78
(lp1261
g71
(g92
g73
NtRp1262
(dp1263
g76
(dp1264
g96
g97
ssg85
g1258
sg78
(lp1265
S'server_port'
p1266
asbag71
(g92
g73
NtRp1267
(dp1268
g76
(dp1269
g103
g104
ssg85
g1258
sg78
(lp1270
S':'
asbag71
(g92
g73
NtRp1271
(dp1272
g76
(dp1273
sg85
g1258
sg78
(lp1274
g71
(g72
g73
NtRp1275
(dp1276
g76
(dp1277
g84
I4
ssg85
g1271
sg78
(lp1278
S'8000'
p1279
asbasbasbag71
(g87
g73
NtRp1280
(dp1281
g76
(dp1282
sg85
g664
sg78
(lp1283
g71
(g92
g73
NtRp1284
(dp1285
g76
(dp1286
g96
g97
ssg85
g1280
sg78
(lp1287
S'server_protocol'
p1288
asbag71
(g92
g73
NtRp1289
(dp1290
g76
(dp1291
g103
g104
ssg85
g1280
sg78
(lp1292
S':'
asbag71
(g92
g73
NtRp1293
(dp1294
g76
(dp1295
sg85
g1280
sg78
(lp1296
g71
(g72
g73
NtRp1297
(dp1298
g76
(dp1299
g84
I4
ssg85
g1293
sg78
(lp1300
S'HTTP/1.1'
p1301
asbasbasbag71
(g87
g73
NtRp1302
(dp1303
g76
(dp1304
sg85
g664
sg78
(lp1305
g71
(g92
g73
NtRp1306
(dp1307
g76
(dp1308
g96
g97
ssg85
g1302
sg78
(lp1309
S'server_software'
p1310
asbag71
(g92
g73
NtRp1311
(dp1312
g76
(dp1313
g103
g104
ssg85
g1302
sg78
(lp1314
S':'
asbag71
(g92
g73
NtRp1315
(dp1316
g76
(dp1317
sg85
g1302
sg78
(lp1318
g71
(g72
g73
NtRp1319
(dp1320
g76
(dp1321
g84
I4
ssg85
g1315
sg78
(lp1322
S'Rocket 1.2.4'
p1323
asbasbasbag71
(g87
g73
NtRp1324
(dp1325
g76
(dp1326
sg85
g664
sg78
(lp1327
g71
(g92
g73
NtRp1328
(dp1329
g76
(dp1330
g96
g97
ssg85
g1324
sg78
(lp1331
S'web2py_crontype'
p1332
asbag71
(g92
g73
NtRp1333
(dp1334
g76
(dp1335
g103
g104
ssg85
g1324
sg78
(lp1336
S':'
asbag71
(g92
g73
NtRp1337
(dp1338
g76
(dp1339
sg85
g1324
sg78
(lp1340
g71
(g72
g73
NtRp1341
(dp1342
g76
(dp1343
g84
I4
ssg85
g1337
sg78
(lp1344
S'hard'
p1345
asbasbasbag71
(g87
g73
NtRp1346
(dp1347
g76
(dp1348
sg85
g664
sg78
(lp1349
g71
(g92
g73
NtRp1350
(dp1351
g76
(dp1352
g96
g97
ssg85
g1346
sg78
(lp1353
S'web2py_original_uri'
p1354
asbag71
(g92
g73
NtRp1355
(dp1356
g76
(dp1357
g103
g104
ssg85
g1346
sg78
(lp1358
S':'
asbag71
(g92
g73
NtRp1359
(dp1360
g76
(dp1361
sg85
g1346
sg78
(lp1362
g71
(g72
g73
NtRp1363
(dp1364
g76
(dp1365
g84
I4
ssg85
g1359
sg78
(lp1366
g1107
asbasbasbag71
(g87
g73
NtRp1367
(dp1368
g76
(dp1369
sg85
g664
sg78
(lp1370
g71
(g92
g73
NtRp1371
(dp1372
g76
(dp1373
g96
g97
ssg85
g1367
sg78
(lp1374
S'web2py_path'
p1375
asbag71
(g92
g73
NtRp1376
(dp1377
g76
(dp1378
g103
g104
ssg85
g1367
sg78
(lp1379
S':'
asbag71
(g92
g73
NtRp1380
(dp1381
g76
(dp1382
sg85
g1367
sg78
(lp1383
g71
(g72
g73
NtRp1384
(dp1385
g76
(dp1386
g84
I4
ssg85
g1380
sg78
(lp1387
g711
asbasbasbag71
(g87
g73
NtRp1388
(dp1389
g76
(dp1390
sg85
g664
sg78
(lp1391
g71
(g92
g73
NtRp1392
(dp1393
g76
(dp1394
g96
g97
ssg85
g1388
sg78
(lp1395
S'web2py_version'
p1396
asbag71
(g92
g73
NtRp1397
(dp1398
g76
(dp1399
g103
g104
ssg85
g1388
sg78
(lp1400
S':'
asbag71
(g92
g73
NtRp1401
(dp1402
g76
(dp1403
sg85
g1388
sg78
(lp1404
g71
(g72
g73
NtRp1405
(dp1406
g76
(dp1407
g84
I4
ssg85
g1401
sg78
(lp1408
g71
(g80
g73
NtRp1409
(dp1410
g76
(dp1411
g84
I3
ssg85
Nsg78
(lp1412
g71
(g87
g73
NtRp1413
(dp1414
g76
(dp1415
sg85
g1409
sg78
(lp1416
g71
(g92
g73
NtRp1417
(dp1418
g76
(dp1419
sg85
g1413
sg78
(lp1420
g71
(g72
g73
NtRp1421
(dp1422
g76
(dp1423
g84
I3
ssg85
g1417
sg78
(lp1424
S'1'
asbasbasbag71
(g87
g73
NtRp1425
(dp1426
g76
(dp1427
sg85
g1409
sg78
(lp1428
g71
(g92
g73
NtRp1429
(dp1430
g76
(dp1431
sg85
g1425
sg78
(lp1432
g71
(g72
g73
NtRp1433
(dp1434
g76
(dp1435
g84
I3
ssg85
g1429
sg78
(lp1436
S'99'
p1437
asbasbasbag71
(g87
g73
NtRp1438
(dp1439
g76
(dp1440
sg85
g1409
sg78
(lp1441
g71
(g92
g73
NtRp1442
(dp1443
g76
(dp1444
sg85
g1438
sg78
(lp1445
g71
(g72
g73
NtRp1446
(dp1447
g76
(dp1448
g84
I3
ssg85
g1442
sg78
(lp1449
S'7'
asbasbasbag71
(g87
g73
NtRp1450
(dp1451
g76
(dp1452
sg85
g1409
sg78
(lp1453
g71
(g92
g73
NtRp1454
(dp1455
g76
(dp1456
sg85
g1450
sg78
(lp1457
g71
(g72
g73
NtRp1458
(dp1459
g76
(dp1460
g84
I3
ssg85
g1454
sg78
(lp1461
S'datetime.datetime(2012, 3, 4, 22, 12, 8)'
p1462
asbasbasbag71
(g87
g73
NtRp1463
(dp1464
g76
(dp1465
sg85
g1409
sg78
(lp1466
g71
(g92
g73
NtRp1467
(dp1468
g76
(dp1469
sg85
g1463
sg78
(lp1470
g71
(g72
g73
NtRp1471
(dp1472
g76
(dp1473
g84
I3
ssg85
g1467
sg78
(lp1474
S'stable'
p1475
asbasbasbasbasbasbasbag71
(g87
g73
NtRp1476
(dp1477
g76
(dp1478
sg85
g664
sg78
(lp1479
g71
(g92
g73
NtRp1480
(dp1481
g76
(dp1482
g96
g97
ssg85
g1476
sg78
(lp1483
S'wsgi_errors'
p1484
asbag71
(g92
g73
NtRp1485
(dp1486
g76
(dp1487
g103
g104
ssg85
g1476
sg78
(lp1488
S':'
asbag71
(g92
g73
NtRp1489
(dp1490
g76
(dp1491
sg85
g1476
sg78
(lp1492
g71
(g72
g73
NtRp1493
(dp1494
g76
(dp1495
g84
I4
ssg85
g1489
sg78
(lp1496
S"<open file '<stderr>', mode 'w' at 0x7fb5cedfb270>"
p1497
asbasbasbag71
(g87
g73
NtRp1498
(dp1499
g76
(dp1500
sg85
g664
sg78
(lp1501
g71
(g92
g73
NtRp1502
(dp1503
g76
(dp1504
g96
g97
ssg85
g1498
sg78
(lp1505
S'wsgi_file_wrapper'
p1506
asbag71
(g92
g73
NtRp1507
(dp1508
g76
(dp1509
g103
g104
ssg85
g1498
sg78
(lp1510
S':'
asbag71
(g92
g73
NtRp1511
(dp1512
g76
(dp1513
sg85
g1498
sg78
(lp1514
g71
(g72
g73
NtRp1515
(dp1516
g76
(dp1517
g84
I4
ssg85
g1511
sg78
(lp1518
S'<class wsgiref.util.FileWrapper at 0x180ef58>'
p1519
asbasbasbag71
(g87
g73
NtRp1520
(dp1521
g76
(dp1522
sg85
g664
sg78
(lp1523
g71
(g92
g73
NtRp1524
(dp1525
g76
(dp1526
g96
g97
ssg85
g1520
sg78
(lp1527
S'wsgi_input'
p1528
asbag71
(g92
g73
NtRp1529
(dp1530
g76
(dp1531
g103
g104
ssg85
g1520
sg78
(lp1532
S':'
asbag71
(g92
g73
NtRp1533
(dp1534
g76
(dp1535
sg85
g1520
sg78
(lp1536
g71
(g72
g73
NtRp1537
(dp1538
g76
(dp1539
g84
I4
ssg85
g1533
sg78
(lp1540
S'<socket._fileobject object at 0x7fb5a44b67d0>'
p1541
asbasbasbag71
(g87
g73
NtRp1542
(dp1543
g76
(dp1544
sg85
g664
sg78
(lp1545
g71
(g92
g73
NtRp1546
(dp1547
g76
(dp1548
g96
g97
ssg85
g1542
sg78
(lp1549
S'wsgi_multiprocess'
p1550
asbag71
(g92
g73
NtRp1551
(dp1552
g76
(dp1553
g103
g104
ssg85
g1542
sg78
(lp1554
S':'
asbag71
(g92
g73
NtRp1555
(dp1556
g76
(dp1557
sg85
g1542
sg78
(lp1558
g71
(g72
g73
NtRp1559
(dp1560
g76
(dp1561
g84
I4
ssg85
g1555
sg78
(lp1562
g49
asbasbasbag71
(g87
g73
NtRp1563
(dp1564
g76
(dp1565
sg85
g664
sg78
(lp1566
g71
(g92
g73
NtRp1567
(dp1568
g76
(dp1569
g96
g97
ssg85
g1563
sg78
(lp1570
S'wsgi_multithread'
p1571
asbag71
(g92
g73
NtRp1572
(dp1573
g76
(dp1574
g103
g104
ssg85
g1563
sg78
(lp1575
S':'
asbag71
(g92
g73
NtRp1576
(dp1577
g76
(dp1578
sg85
g1563
sg78
(lp1579
g71
(g72
g73
NtRp1580
(dp1581
g76
(dp1582
g84
I4
ssg85
g1576
sg78
(lp1583
g114
asbasbasbag71
(g87
g73
NtRp1584
(dp1585
g76
(dp1586
sg85
g664
sg78
(lp1587
g71
(g92
g73
NtRp1588
(dp1589
g76
(dp1590
g96
g97
ssg85
g1584
sg78
(lp1591
S'wsgi_run_once'
p1592
asbag71
(g92
g73
NtRp1593
(dp1594
g76
(dp1595
g103
g104
ssg85
g1584
sg78
(lp1596
S':'
asbag71
(g92
g73
NtRp1597
(dp1598
g76
(dp1599
sg85
g1584
sg78
(lp1600
g71
(g72
g73
NtRp1601
(dp1602
g76
(dp1603
g84
I4
ssg85
g1597
sg78
(lp1604
g49
asbasbasbag71
(g87
g73
NtRp1605
(dp1606
g76
(dp1607
sg85
g664
sg78
(lp1608
g71
(g92
g73
NtRp1609
(dp1610
g76
(dp1611
g96
g97
ssg85
g1605
sg78
(lp1612
S'wsgi_url_scheme'
p1613
asbag71
(g92
g73
NtRp1614
(dp1615
g76
(dp1616
g103
g104
ssg85
g1605
sg78
(lp1617
S':'
asbag71
(g92
g73
NtRp1618
(dp1619
g76
(dp1620
sg85
g1605
sg78
(lp1621
g71
(g72
g73
NtRp1622
(dp1623
g76
(dp1624
g84
I4
ssg85
g1618
sg78
(lp1625
S'http'
p1626
asbasbasbag71
(g87
g73
NtRp1627
(dp1628
g76
(dp1629
sg85
g664
sg78
(lp1630
g71
(g92
g73
NtRp1631
(dp1632
g76
(dp1633
g96
g97
ssg85
g1627
sg78
(lp1634
S'wsgi_version'
p1635
asbag71
(g92
g73
NtRp1636
(dp1637
g76
(dp1638
g103
g104
ssg85
g1627
sg78
(lp1639
S':'
asbag71
(g92
g73
NtRp1640
(dp1641
g76
(dp1642
sg85
g1627
sg78
(lp1643
g71
(g72
g73
NtRp1644
(dp1645
g76
(dp1646
g84
I4
ssg85
g1640
sg78
(lp1647
g71
(g80
g73
NtRp1648
(dp1649
g76
(dp1650
g84
I3
ssg85
Nsg78
(lp1651
g71
(g87
g73
NtRp1652
(dp1653
g76
(dp1654
sg85
g1648
sg78
(lp1655
g71
(g92
g73
NtRp1656
(dp1657
g76
(dp1658
sg85
g1652
sg78
(lp1659
g71
(g72
g73
NtRp1660
(dp1661
g76
(dp1662
g84
I3
ssg85
g1656
sg78
(lp1663
S'1'
asbasbasbag71
(g87
g73
NtRp1664
(dp1665
g76
(dp1666
sg85
g1648
sg78
(lp1667
g71
(g92
g73
NtRp1668
(dp1669
g76
(dp1670
sg85
g1664
sg78
(lp1671
g71
(g72
g73
NtRp1672
(dp1673
g76
(dp1674
g84
I3
ssg85
g1668
sg78
(lp1675
S'0'
asbasbasbasbasbasbasbasbasbasbasbag71
(g87
g73
NtRp1676
(dp1677
g76
(dp1678
sg85
g81
sg78
(lp1679
g71
(g92
g73
NtRp1680
(dp1681
g76
(dp1682
g96
g97
ssg85
g1676
sg78
(lp1683
S'extension'
p1684
asbag71
(g92
g73
NtRp1685
(dp1686
g76
(dp1687
g103
g104
ssg85
g1676
sg78
(lp1688
S':'
asbag71
(g92
g73
NtRp1689
(dp1690
g76
(dp1691
sg85
g1676
sg78
(lp1692
g71
(g72
g73
NtRp1693
(dp1694
g76
(dp1695
g84
I5
ssg85
g1689
sg78
(lp1696
S'html'
p1697
asbasbasbag71
(g87
g73
NtRp1698
(dp1699
g76
(dp1700
sg85
g81
sg78
(lp1701
g71
(g92
g73
NtRp1702
(dp1703
g76
(dp1704
g96
g97
ssg85
g1698
sg78
(lp1705
S'folder'
p1706
asbag71
(g92
g73
NtRp1707
(dp1708
g76
(dp1709
g103
g104
ssg85
g1698
sg78
(lp1710
S':'
asbag71
(g92
g73
NtRp1711
(dp1712
g76
(dp1713
sg85
g1698
sg78
(lp1714
g71
(g72
g73
NtRp1715
(dp1716
g76
(dp1717
g84
I5
ssg85
g1711
sg78
(lp1718
S'/home/goshawk/web2py/applications/milo/'
p1719
asbasbasbag71
(g87
g73
NtRp1720
(dp1721
g76
(dp1722
sg85
g81
sg78
(lp1723
g71
(g92
g73
NtRp1724
(dp1725
g76
(dp1726
g96
g97
ssg85
g1720
sg78
(lp1727
S'function'
p1728
asbag71
(g92
g73
NtRp1729
(dp1730
g76
(dp1731
g103
g104
ssg85
g1720
sg78
(lp1732
S':'
asbag71
(g92
g73
NtRp1733
(dp1734
g76
(dp1735
sg85
g1720
sg78
(lp1736
g71
(g72
g73
NtRp1737
(dp1738
g76
(dp1739
g84
I5
ssg85
g1733
sg78
(lp1740
S'info_algorithm'
p1741
asbasbasbag71
(g87
g73
NtRp1742
(dp1743
g76
(dp1744
sg85
g81
sg78
(lp1745
g71
(g92
g73
NtRp1746
(dp1747
g76
(dp1748
g96
g97
ssg85
g1742
sg78
(lp1749
S'get_vars'
p1750
asbag71
(g92
g73
NtRp1751
(dp1752
g76
(dp1753
g103
g104
ssg85
g1742
sg78
(lp1754
S':'
asbag71
(g92
g73
NtRp1755
(dp1756
g76
(dp1757
sg85
g1742
sg78
(lp1758
g71
(g72
g73
NtRp1759
(dp1760
g76
(dp1761
g84
I5
ssg85
g1755
sg78
(lp1762
g71
(g80
g73
NtRp1763
(dp1764
g76
(dp1765
g84
I4
ssg85
Nsg78
(lp1766
sbasbasbasbag71
(g87
g73
NtRp1767
(dp1768
g76
(dp1769
sg85
g81
sg78
(lp1770
g71
(g92
g73
NtRp1771
(dp1772
g76
(dp1773
g96
g97
ssg85
g1767
sg78
(lp1774
S'global_settings'
p1775
asbag71
(g92
g73
NtRp1776
(dp1777
g76
(dp1778
g103
g104
ssg85
g1767
sg78
(lp1779
S':'
asbag71
(g92
g73
NtRp1780
(dp1781
g76
(dp1782
sg85
g1767
sg78
(lp1783
g71
(g72
g73
NtRp1784
(dp1785
g76
(dp1786
g84
I5
ssg85
g1780
sg78
(lp1787
g71
(g80
g73
NtRp1788
(dp1789
g76
(dp1790
g84
I4
ssg85
Nsg78
(lp1791
g71
(g87
g73
NtRp1792
(dp1793
g76
(dp1794
sg85
g1788
sg78
(lp1795
g71
(g92
g73
NtRp1796
(dp1797
g76
(dp1798
g96
g97
ssg85
g1792
sg78
(lp1799
g676
asbag71
(g92
g73
NtRp1800
(dp1801
g76
(dp1802
g103
g104
ssg85
g1792
sg78
(lp1803
S':'
asbag71
(g92
g73
NtRp1804
(dp1805
g76
(dp1806
sg85
g1792
sg78
(lp1807
g71
(g72
g73
NtRp1808
(dp1809
g76
(dp1810
g84
I4
ssg85
g1804
sg78
(lp1811
S"set(['/home/goshawk/web2py/applications/milo/', '/home/goshawk/web2py/applications/admin/'])"
p1812
asbasbasbag71
(g87
g73
NtRp1813
(dp1814
g76
(dp1815
sg85
g1788
sg78
(lp1816
g71
(g92
g73
NtRp1817
(dp1818
g76
(dp1819
g96
g97
ssg85
g1813
sg78
(lp1820
g698
asbag71
(g92
g73
NtRp1821
(dp1822
g76
(dp1823
g103
g104
ssg85
g1813
sg78
(lp1824
S':'
asbag71
(g92
g73
NtRp1825
(dp1826
g76
(dp1827
sg85
g1813
sg78
(lp1828
g71
(g72
g73
NtRp1829
(dp1830
g76
(dp1831
g84
I4
ssg85
g1825
sg78
(lp1832
g711
asbasbasbag71
(g87
g73
NtRp1833
(dp1834
g76
(dp1835
sg85
g1788
sg78
(lp1836
g71
(g92
g73
NtRp1837
(dp1838
g76
(dp1839
g96
g97
ssg85
g1833
sg78
(lp1840
g720
asbag71
(g92
g73
NtRp1841
(dp1842
g76
(dp1843
g103
g104
ssg85
g1833
sg78
(lp1844
S':'
asbag71
(g92
g73
NtRp1845
(dp1846
g76
(dp1847
sg85
g1833
sg78
(lp1848
g71
(g72
g73
NtRp1849
(dp1850
g76
(dp1851
g84
I4
ssg85
g1845
sg78
(lp1852
g71
(g80
g73
NtRp1853
(dp1854
g76
(dp1855
g84
I3
ssg85
Nsg78
(lp1856
sbasbasbasbag71
(g87
g73
NtRp1857
(dp1858
g76
(dp1859
sg85
g1788
sg78
(lp1860
g71
(g92
g73
NtRp1861
(dp1862
g76
(dp1863
g96
g97
ssg85
g1857
sg78
(lp1864
g745
asbag71
(g92
g73
NtRp1865
(dp1866
g76
(dp1867
g103
g104
ssg85
g1857
sg78
(lp1868
S':'
asbag71
(g92
g73
NtRp1869
(dp1870
g76
(dp1871
sg85
g1857
sg78
(lp1872
g71
(g72
g73
NtRp1873
(dp1874
g76
(dp1875
g84
I4
ssg85
g1869
sg78
(lp1876
S"<Values at 0x18e20e0: {'verbose': False, 'ip': '127.0.0.1', 'shutdown_timeout': 5, 'taskbar': False, 'nocron': False, 'pid_filename': 'httpserver.pid', 'maxthreads': None, 'softcron': False, 'server_name': 'whisperer', 'bpython': False, 'nogui': False, 'port': 8000, 'extcron': False, 'debuglevel': 30, 'test': None, 'folder': '/home/goshawk/web2py', 'config': '', 'import_models': False, 'winservice': '', 'shell': None, 'run': '', 'log_filename': 'httpserver.log', 'args': [''], 'socket_timeout': 5, 'ssl_ca_certificate': None, 'scheduler': None, 'profiler_filename': None, 'ssl_private_key': '', 'password': 'admin', 'request_queue_size': 5, 'ssl_certificate': '', 'cronjob': False, 'numthreads': None, 'quiet': False, 'interfaces': None, 'minthreads': None, 'timeout': 10, 'plain': False, 'nobanner': False}>"
p1877
asbasbasbag71
(g87
g73
NtRp1878
(dp1879
g76
(dp1880
sg85
g1788
sg78
(lp1881
g71
(g92
g73
NtRp1882
(dp1883
g76
(dp1884
g96
g97
ssg85
g1878
sg78
(lp1885
g767
asbag71
(g92
g73
NtRp1886
(dp1887
g76
(dp1888
g103
g104
ssg85
g1878
sg78
(lp1889
S':'
asbag71
(g92
g73
NtRp1890
(dp1891
g76
(dp1892
sg85
g1878
sg78
(lp1893
g71
(g72
g73
NtRp1894
(dp1895
g76
(dp1896
g84
I4
ssg85
g1890
sg78
(lp1897
S'set([])'
p1898
asbasbasbag71
(g87
g73
NtRp1899
(dp1900
g76
(dp1901
sg85
g1788
sg78
(lp1902
g71
(g92
g73
NtRp1903
(dp1904
g76
(dp1905
g96
g97
ssg85
g1899
sg78
(lp1906
g789
asbag71
(g92
g73
NtRp1907
(dp1908
g76
(dp1909
g103
g104
ssg85
g1899
sg78
(lp1910
S':'
asbag71
(g92
g73
NtRp1911
(dp1912
g76
(dp1913
sg85
g1899
sg78
(lp1914
g71
(g72
g73
NtRp1915
(dp1916
g76
(dp1917
g84
I4
ssg85
g1911
sg78
(lp1918
g49
asbasbasbag71
(g87
g73
NtRp1919
(dp1920
g76
(dp1921
sg85
g1788
sg78
(lp1922
g71
(g92
g73
NtRp1923
(dp1924
g76
(dp1925
g96
g97
ssg85
g1919
sg78
(lp1926
g810
asbag71
(g92
g73
NtRp1927
(dp1928
g76
(dp1929
g103
g104
ssg85
g1919
sg78
(lp1930
S':'
asbag71
(g92
g73
NtRp1931
(dp1932
g76
(dp1933
sg85
g1919
sg78
(lp1934
g71
(g72
g73
NtRp1935
(dp1936
g76
(dp1937
g84
I4
ssg85
g1931
sg78
(lp1938
g823
asbasbasbag71
(g87
g73
NtRp1939
(dp1940
g76
(dp1941
sg85
g1788
sg78
(lp1942
g71
(g92
g73
NtRp1943
(dp1944
g76
(dp1945
g96
g97
ssg85
g1939
sg78
(lp1946
g1052
asbag71
(g92
g73
NtRp1947
(dp1948
g76
(dp1949
g103
g104
ssg85
g1939
sg78
(lp1950
S':'
asbag71
(g92
g73
NtRp1951
(dp1952
g76
(dp1953
sg85
g1939
sg78
(lp1954
g71
(g72
g73
NtRp1955
(dp1956
g76
(dp1957
g84
I4
ssg85
g1951
sg78
(lp1958
g49
asbasbasbag71
(g87
g73
NtRp1959
(dp1960
g76
(dp1961
sg85
g1788
sg78
(lp1962
g71
(g92
g73
NtRp1963
(dp1964
g76
(dp1965
g96
g97
ssg85
g1959
sg78
(lp1966
g1073
asbag71
(g92
g73
NtRp1967
(dp1968
g76
(dp1969
g103
g104
ssg85
g1959
sg78
(lp1970
S':'
asbag71
(g92
g73
NtRp1971
(dp1972
g76
(dp1973
sg85
g1959
sg78
(lp1974
g71
(g72
g73
NtRp1975
(dp1976
g76
(dp1977
g84
I4
ssg85
g1971
sg78
(lp1978
g49
asbasbasbag71
(g87
g73
NtRp1979
(dp1980
g76
(dp1981
sg85
g1788
sg78
(lp1982
g71
(g92
g73
NtRp1983
(dp1984
g76
(dp1985
g96
g97
ssg85
g1979
sg78
(lp1986
g1332
asbag71
(g92
g73
NtRp1987
(dp1988
g76
(dp1989
g103
g104
ssg85
g1979
sg78
(lp1990
S':'
asbag71
(g92
g73
NtRp1991
(dp1992
g76
(dp1993
sg85
g1979
sg78
(lp1994
g71
(g72
g73
NtRp1995
(dp1996
g76
(dp1997
g84
I4
ssg85
g1991
sg78
(lp1998
g1345
asbasbasbag71
(g87
g73
NtRp1999
(dp2000
g76
(dp2001
sg85
g1788
sg78
(lp2002
g71
(g92
g73
NtRp2003
(dp2004
g76
(dp2005
g96
g97
ssg85
g1999
sg78
(lp2006
g1396
asbag71
(g92
g73
NtRp2007
(dp2008
g76
(dp2009
g103
g104
ssg85
g1999
sg78
(lp2010
S':'
asbag71
(g92
g73
NtRp2011
(dp2012
g76
(dp2013
sg85
g1999
sg78
(lp2014
g71
(g72
g73
NtRp2015
(dp2016
g76
(dp2017
g84
I4
ssg85
g2011
sg78
(lp2018
g71
(g80
g73
NtRp2019
(dp2020
g76
(dp2021
g84
I3
ssg85
Nsg78
(lp2022
g71
(g87
g73
NtRp2023
(dp2024
g76
(dp2025
sg85
g2019
sg78
(lp2026
g71
(g92
g73
NtRp2027
(dp2028
g76
(dp2029
sg85
g2023
sg78
(lp2030
g71
(g72
g73
NtRp2031
(dp2032
g76
(dp2033
g84
I3
ssg85
g2027
sg78
(lp2034
S'1'
asbasbasbag71
(g87
g73
NtRp2035
(dp2036
g76
(dp2037
sg85
g2019
sg78
(lp2038
g71
(g92
g73
NtRp2039
(dp2040
g76
(dp2041
sg85
g2035
sg78
(lp2042
g71
(g72
g73
NtRp2043
(dp2044
g76
(dp2045
g84
I3
ssg85
g2039
sg78
(lp2046
S'99'
p2047
asbasbasbag71
(g87
g73
NtRp2048
(dp2049
g76
(dp2050
sg85
g2019
sg78
(lp2051
g71
(g92
g73
NtRp2052
(dp2053
g76
(dp2054
sg85
g2048
sg78
(lp2055
g71
(g72
g73
NtRp2056
(dp2057
g76
(dp2058
g84
I3
ssg85
g2052
sg78
(lp2059
S'7'
asbasbasbag71
(g87
g73
NtRp2060
(dp2061
g76
(dp2062
sg85
g2019
sg78
(lp2063
g71
(g92
g73
NtRp2064
(dp2065
g76
(dp2066
sg85
g2060
sg78
(lp2067
g71
(g72
g73
NtRp2068
(dp2069
g76
(dp2070
g84
I3
ssg85
g2064
sg78
(lp2071
S'datetime.datetime(2012, 3, 4, 22, 12, 8)'
p2072
asbasbasbag71
(g87
g73
NtRp2073
(dp2074
g76
(dp2075
sg85
g2019
sg78
(lp2076
g71
(g92
g73
NtRp2077
(dp2078
g76
(dp2079
sg85
g2073
sg78
(lp2080
g71
(g72
g73
NtRp2081
(dp2082
g76
(dp2083
g84
I3
ssg85
g2077
sg78
(lp2084
g1475
asbasbasbasbasbasbasbasbasbasbasbag71
(g87
g73
NtRp2085
(dp2086
g76
(dp2087
sg85
g81
sg78
(lp2088
g71
(g92
g73
NtRp2089
(dp2090
g76
(dp2091
g96
g97
ssg85
g2085
sg78
(lp2092
S'is_https'
p2093
asbag71
(g92
g73
NtRp2094
(dp2095
g76
(dp2096
g103
g104
ssg85
g2085
sg78
(lp2097
S':'
asbag71
(g92
g73
NtRp2098
(dp2099
g76
(dp2100
sg85
g2085
sg78
(lp2101
g71
(g72
g73
NtRp2102
(dp2103
g76
(dp2104
g84
I5
ssg85
g2098
sg78
(lp2105
g49
asbasbasbag71
(g87
g73
NtRp2106
(dp2107
g76
(dp2108
sg85
g81
sg78
(lp2109
g71
(g92
g73
NtRp2110
(dp2111
g76
(dp2112
g96
g97
ssg85
g2106
sg78
(lp2113
S'is_local'
p2114
asbag71
(g92
g73
NtRp2115
(dp2116
g76
(dp2117
g103
g104
ssg85
g2106
sg78
(lp2118
S':'
asbag71
(g92
g73
NtRp2119
(dp2120
g76
(dp2121
sg85
g2106
sg78
(lp2122
g71
(g72
g73
NtRp2123
(dp2124
g76
(dp2125
g84
I5
ssg85
g2119
sg78
(lp2126
g114
asbasbasbag71
(g87
g73
NtRp2127
(dp2128
g76
(dp2129
sg85
g81
sg78
(lp2130
g71
(g92
g73
NtRp2131
(dp2132
g76
(dp2133
g96
g97
ssg85
g2127
sg78
(lp2134
S'is_restful'
p2135
asbag71
(g92
g73
NtRp2136
(dp2137
g76
(dp2138
g103
g104
ssg85
g2127
sg78
(lp2139
S':'
asbag71
(g92
g73
NtRp2140
(dp2141
g76
(dp2142
sg85
g2127
sg78
(lp2143
g71
(g72
g73
NtRp2144
(dp2145
g76
(dp2146
g84
I5
ssg85
g2140
sg78
(lp2147
g49
asbasbasbag71
(g87
g73
NtRp2148
(dp2149
g76
(dp2150
sg85
g81
sg78
(lp2151
g71
(g92
g73
NtRp2152
(dp2153
g76
(dp2154
g96
g97
ssg85
g2148
sg78
(lp2155
S'now'
p2156
asbag71
(g92
g73
NtRp2157
(dp2158
g76
(dp2159
g103
g104
ssg85
g2148
sg78
(lp2160
S':'
asbag71
(g92
g73
NtRp2161
(dp2162
g76
(dp2163
sg85
g2148
sg78
(lp2164
g71
(g72
g73
NtRp2165
(dp2166
g76
(dp2167
g84
I5
ssg85
g2161
sg78
(lp2168
S'datetime.datetime(2012, 7, 15, 5, 51, 17, 474187)'
p2169
asbasbasbag71
(g87
g73
NtRp2170
(dp2171
g76
(dp2172
sg85
g81
sg78
(lp2173
g71
(g92
g73
NtRp2174
(dp2175
g76
(dp2176
g96
g97
ssg85
g2170
sg78
(lp2177
S'post_vars'
p2178
asbag71
(g92
g73
NtRp2179
(dp2180
g76
(dp2181
g103
g104
ssg85
g2170
sg78
(lp2182
S':'
asbag71
(g92
g73
NtRp2183
(dp2184
g76
(dp2185
sg85
g2170
sg78
(lp2186
g71
(g72
g73
NtRp2187
(dp2188
g76
(dp2189
g84
I5
ssg85
g2183
sg78
(lp2190
g71
(g80
g73
NtRp2191
(dp2192
g76
(dp2193
g84
I4
ssg85
Nsg78
(lp2194
sbasbasbasbag71
(g87
g73
NtRp2195
(dp2196
g76
(dp2197
sg85
g81
sg78
(lp2198
g71
(g92
g73
NtRp2199
(dp2200
g76
(dp2201
g96
g97
ssg85
g2195
sg78
(lp2202
S'raw_args'
p2203
asbag71
(g92
g73
NtRp2204
(dp2205
g76
(dp2206
g103
g104
ssg85
g2195
sg78
(lp2207
S':'
asbag71
(g92
g73
NtRp2208
(dp2209
g76
(dp2210
sg85
g2195
sg78
(lp2211
g71
(g72
g73
NtRp2212
(dp2213
g76
(dp2214
g84
I5
ssg85
g2208
sg78
(lp2215
g173
asbasbasbag71
(g87
g73
NtRp2216
(dp2217
g76
(dp2218
sg85
g81
sg78
(lp2219
g71
(g92
g73
NtRp2220
(dp2221
g76
(dp2222
g96
g97
ssg85
g2216
sg78
(lp2223
S'url'
p2224
asbag71
(g92
g73
NtRp2225
(dp2226
g76
(dp2227
g103
g104
ssg85
g2216
sg78
(lp2228
S':'
asbag71
(g92
g73
NtRp2229
(dp2230
g76
(dp2231
sg85
g2216
sg78
(lp2232
g71
(g72
g73
NtRp2233
(dp2234
g76
(dp2235
g84
I5
ssg85
g2229
sg78
(lp2236
S'/milo/admin/info_algorithm/_CosNgbr_II_knn'
p2237
asbasbasbag71
(g87
g73
NtRp2238
(dp2239
g76
(dp2240
sg85
g81
sg78
(lp2241
g71
(g92
g73
NtRp2242
(dp2243
g76
(dp2244
g96
g97
ssg85
g2238
sg78
(lp2245
S'utcnow'
p2246
asbag71
(g92
g73
NtRp2247
(dp2248
g76
(dp2249
g103
g104
ssg85
g2238
sg78
(lp2250
S':'
asbag71
(g92
g73
NtRp2251
(dp2252
g76
(dp2253
sg85
g2238
sg78
(lp2254
g71
(g72
g73
NtRp2255
(dp2256
g76
(dp2257
g84
I5
ssg85
g2251
sg78
(lp2258
S'datetime.datetime(2012, 7, 15, 3, 51, 17, 474215)'
p2259
asbasbasbag71
(g87
g73
NtRp2260
(dp2261
g76
(dp2262
sg85
g81
sg78
(lp2263
g71
(g92
g73
NtRp2264
(dp2265
g76
(dp2266
g96
g97
ssg85
g2260
sg78
(lp2267
S'uuid'
p2268
asbag71
(g92
g73
NtRp2269
(dp2270
g76
(dp2271
g103
g104
ssg85
g2260
sg78
(lp2272
S':'
asbag71
(g92
g73
NtRp2273
(dp2274
g76
(dp2275
sg85
g2260
sg78
(lp2276
g71
(g72
g73
NtRp2277
(dp2278
g76
(dp2279
g84
I5
ssg85
g2273
sg78
(lp2280
S'milo/127.0.0.1.2012-07-15.05-51-17.6a163e50-46e3-4e38-a253-cdf962074a37'
p2281
asbasbasbag71
(g87
g73
NtRp2282
(dp2283
g76
(dp2284
sg85
g81
sg78
(lp2285
g71
(g92
g73
NtRp2286
(dp2287
g76
(dp2288
g96
g97
ssg85
g2282
sg78
(lp2289
S'vars'
p2290
asbag71
(g92
g73
NtRp2291
(dp2292
g76
(dp2293
g103
g104
ssg85
g2282
sg78
(lp2294
S':'
asbag71
(g92
g73
NtRp2295
(dp2296
g76
(dp2297
sg85
g2282
sg78
(lp2298
g71
(g72
g73
NtRp2299
(dp2300
g76
(dp2301
g84
I5
ssg85
g2295
sg78
(lp2302
g71
(g80
g73
NtRp2303
(dp2304
g76
(dp2305
g84
I4
ssg85
Nsg78
(lp2306
sbasbasbasbag71
(g87
g73
NtRp2307
(dp2308
g76
(dp2309
sg85
g81
sg78
(lp2310
g71
(g92
g73
NtRp2311
(dp2312
g76
(dp2313
g96
g97
ssg85
g2307
sg78
(lp2314
S'wsgi'
p2315
asbag71
(g92
g73
NtRp2316
(dp2317
g76
(dp2318
g103
g104
ssg85
g2307
sg78
(lp2319
S':'
asbag71
(g92
g73
NtRp2320
(dp2321
g76
(dp2322
sg85
g2307
sg78
(lp2323
g71
(g72
g73
NtRp2324
(dp2325
g76
(dp2326
g84
I5
ssg85
g2320
sg78
(lp2327
g71
(g80
g73
NtRp2328
(dp2329
g76
(dp2330
g84
I4
ssg85
Nsg78
(lp2331
g71
(g87
g73
NtRp2332
(dp2333
g76
(dp2334
sg85
g2328
sg78
(lp2335
g71
(g92
g73
NtRp2336
(dp2337
g76
(dp2338
g96
g97
ssg85
g2332
sg78
(lp2339
S'environ'
p2340
asbag71
(g92
g73
NtRp2341
(dp2342
g76
(dp2343
g103
g104
ssg85
g2332
sg78
(lp2344
S':'
asbag71
(g92
g73
NtRp2345
(dp2346
g76
(dp2347
sg85
g2332
sg78
(lp2348
g71
(g72
g73
NtRp2349
(dp2350
g76
(dp2351
g84
I4
ssg85
g2345
sg78
(lp2352
g71
(g80
g73
NtRp2353
(dp2354
g76
(dp2355
g84
I3
ssg85
Nsg78
(lp2356
g71
(g87
g73
NtRp2357
(dp2358
g76
(dp2359
sg85
g2353
sg78
(lp2360
g71
(g92
g73
NtRp2361
(dp2362
g76
(dp2363
g96
g97
ssg85
g2357
sg78
(lp2364
S'HTTP_ACCEPT'
p2365
asbag71
(g92
g73
NtRp2366
(dp2367
g76
(dp2368
g103
g104
ssg85
g2357
sg78
(lp2369
S':'
asbag71
(g92
g73
NtRp2370
(dp2371
g76
(dp2372
sg85
g2357
sg78
(lp2373
g71
(g72
g73
NtRp2374
(dp2375
g76
(dp2376
g84
I3
ssg85
g2370
sg78
(lp2377
g845
asbasbasbag71
(g87
g73
NtRp2378
(dp2379
g76
(dp2380
sg85
g2353
sg78
(lp2381
g71
(g92
g73
NtRp2382
(dp2383
g76
(dp2384
g96
g97
ssg85
g2378
sg78
(lp2385
S'HTTP_ACCEPT_CHARSET'
p2386
asbag71
(g92
g73
NtRp2387
(dp2388
g76
(dp2389
g103
g104
ssg85
g2378
sg78
(lp2390
S':'
asbag71
(g92
g73
NtRp2391
(dp2392
g76
(dp2393
sg85
g2378
sg78
(lp2394
g71
(g72
g73
NtRp2395
(dp2396
g76
(dp2397
g84
I3
ssg85
g2391
sg78
(lp2398
g867
asbasbasbag71
(g87
g73
NtRp2399
(dp2400
g76
(dp2401
sg85
g2353
sg78
(lp2402
g71
(g92
g73
NtRp2403
(dp2404
g76
(dp2405
g96
g97
ssg85
g2399
sg78
(lp2406
S'HTTP_ACCEPT_ENCODING'
p2407
asbag71
(g92
g73
NtRp2408
(dp2409
g76
(dp2410
g103
g104
ssg85
g2399
sg78
(lp2411
S':'
asbag71
(g92
g73
NtRp2412
(dp2413
g76
(dp2414
sg85
g2399
sg78
(lp2415
g71
(g72
g73
NtRp2416
(dp2417
g76
(dp2418
g84
I3
ssg85
g2412
sg78
(lp2419
g889
asbasbasbag71
(g87
g73
NtRp2420
(dp2421
g76
(dp2422
sg85
g2353
sg78
(lp2423
g71
(g92
g73
NtRp2424
(dp2425
g76
(dp2426
g96
g97
ssg85
g2420
sg78
(lp2427
S'HTTP_ACCEPT_LANGUAGE'
p2428
asbag71
(g92
g73
NtRp2429
(dp2430
g76
(dp2431
g103
g104
ssg85
g2420
sg78
(lp2432
S':'
asbag71
(g92
g73
NtRp2433
(dp2434
g76
(dp2435
sg85
g2420
sg78
(lp2436
g71
(g72
g73
NtRp2437
(dp2438
g76
(dp2439
g84
I3
ssg85
g2433
sg78
(lp2440
g911
asbasbasbag71
(g87
g73
NtRp2441
(dp2442
g76
(dp2443
sg85
g2353
sg78
(lp2444
g71
(g92
g73
NtRp2445
(dp2446
g76
(dp2447
g96
g97
ssg85
g2441
sg78
(lp2448
S'HTTP_CONNECTION'
p2449
asbag71
(g92
g73
NtRp2450
(dp2451
g76
(dp2452
g103
g104
ssg85
g2441
sg78
(lp2453
S':'
asbag71
(g92
g73
NtRp2454
(dp2455
g76
(dp2456
sg85
g2441
sg78
(lp2457
g71
(g72
g73
NtRp2458
(dp2459
g76
(dp2460
g84
I3
ssg85
g2454
sg78
(lp2461
g933
asbasbasbag71
(g87
g73
NtRp2462
(dp2463
g76
(dp2464
sg85
g2353
sg78
(lp2465
g71
(g92
g73
NtRp2466
(dp2467
g76
(dp2468
g96
g97
ssg85
g2462
sg78
(lp2469
S'HTTP_COOKIE'
p2470
asbag71
(g92
g73
NtRp2471
(dp2472
g76
(dp2473
g103
g104
ssg85
g2462
sg78
(lp2474
S':'
asbag71
(g92
g73
NtRp2475
(dp2476
g76
(dp2477
sg85
g2462
sg78
(lp2478
g71
(g72
g73
NtRp2479
(dp2480
g76
(dp2481
g84
I3
ssg85
g2475
sg78
(lp2482
g955
asbasbasbag71
(g87
g73
NtRp2483
(dp2484
g76
(dp2485
sg85
g2353
sg78
(lp2486
g71
(g92
g73
NtRp2487
(dp2488
g76
(dp2489
g96
g97
ssg85
g2483
sg78
(lp2490
S'HTTP_HOST'
p2491
asbag71
(g92
g73
NtRp2492
(dp2493
g76
(dp2494
g103
g104
ssg85
g2483
sg78
(lp2495
S':'
asbag71
(g92
g73
NtRp2496
(dp2497
g76
(dp2498
sg85
g2483
sg78
(lp2499
g71
(g72
g73
NtRp2500
(dp2501
g76
(dp2502
g84
I3
ssg85
g2496
sg78
(lp2503
g977
asbasbasbag71
(g87
g73
NtRp2504
(dp2505
g76
(dp2506
sg85
g2353
sg78
(lp2507
g71
(g92
g73
NtRp2508
(dp2509
g76
(dp2510
g96
g97
ssg85
g2504
sg78
(lp2511
S'HTTP_REFERER'
p2512
asbag71
(g92
g73
NtRp2513
(dp2514
g76
(dp2515
g103
g104
ssg85
g2504
sg78
(lp2516
S':'
asbag71
(g92
g73
NtRp2517
(dp2518
g76
(dp2519
sg85
g2504
sg78
(lp2520
g71
(g72
g73
NtRp2521
(dp2522
g76
(dp2523
g84
I3
ssg85
g2517
sg78
(lp2524
g999
asbasbasbag71
(g87
g73
NtRp2525
(dp2526
g76
(dp2527
sg85
g2353
sg78
(lp2528
g71
(g92
g73
NtRp2529
(dp2530
g76
(dp2531
g96
g97
ssg85
g2525
sg78
(lp2532
S'HTTP_USER_AGENT'
p2533
asbag71
(g92
g73
NtRp2534
(dp2535
g76
(dp2536
g103
g104
ssg85
g2525
sg78
(lp2537
S':'
asbag71
(g92
g73
NtRp2538
(dp2539
g76
(dp2540
sg85
g2525
sg78
(lp2541
g71
(g72
g73
NtRp2542
(dp2543
g76
(dp2544
g84
I3
ssg85
g2538
sg78
(lp2545
g1021
asbasbasbag71
(g87
g73
NtRp2546
(dp2547
g76
(dp2548
sg85
g2353
sg78
(lp2549
g71
(g92
g73
NtRp2550
(dp2551
g76
(dp2552
g96
g97
ssg85
g2546
sg78
(lp2553
S'HTTP_X_REQUESTED_WITH'
p2554
asbag71
(g92
g73
NtRp2555
(dp2556
g76
(dp2557
g103
g104
ssg85
g2546
sg78
(lp2558
S':'
asbag71
(g92
g73
NtRp2559
(dp2560
g76
(dp2561
sg85
g2546
sg78
(lp2562
g71
(g72
g73
NtRp2563
(dp2564
g76
(dp2565
g84
I3
ssg85
g2559
sg78
(lp2566
g1043
asbasbasbag71
(g87
g73
NtRp2567
(dp2568
g76
(dp2569
sg85
g2353
sg78
(lp2570
g71
(g92
g73
NtRp2571
(dp2572
g76
(dp2573
g96
g97
ssg85
g2567
sg78
(lp2574
S'PATH_INFO'
p2575
asbag71
(g92
g73
NtRp2576
(dp2577
g76
(dp2578
g103
g104
ssg85
g2567
sg78
(lp2579
S':'
asbag71
(g92
g73
NtRp2580
(dp2581
g76
(dp2582
sg85
g2567
sg78
(lp2583
g71
(g72
g73
NtRp2584
(dp2585
g76
(dp2586
g84
I3
ssg85
g2580
sg78
(lp2587
g1107
asbasbasbag71
(g87
g73
NtRp2588
(dp2589
g76
(dp2590
sg85
g2353
sg78
(lp2591
g71
(g92
g73
NtRp2592
(dp2593
g76
(dp2594
g96
g97
ssg85
g2588
sg78
(lp2595
S'QUERY_STRING'
p2596
asbag71
(g92
g73
NtRp2597
(dp2598
g76
(dp2599
g103
g104
ssg85
g2588
sg78
(lp2600
S':'
asbag71
(g92
g73
NtRp2601
(dp2602
g76
(dp2603
sg85
g2588
sg78
(lp2604
g71
(g72
g73
NtRp2605
(dp2606
g76
(dp2607
g84
I3
ssg85
g2601
sg78
(lp2608
S''
asbasbasbag71
(g87
g73
NtRp2609
(dp2610
g76
(dp2611
sg85
g2353
sg78
(lp2612
g71
(g92
g73
NtRp2613
(dp2614
g76
(dp2615
g96
g97
ssg85
g2609
sg78
(lp2616
S'REMOTE_ADDR'
p2617
asbag71
(g92
g73
NtRp2618
(dp2619
g76
(dp2620
g103
g104
ssg85
g2609
sg78
(lp2621
S':'
asbag71
(g92
g73
NtRp2622
(dp2623
g76
(dp2624
sg85
g2609
sg78
(lp2625
g71
(g72
g73
NtRp2626
(dp2627
g76
(dp2628
g84
I3
ssg85
g2622
sg78
(lp2629
g217
asbasbasbag71
(g87
g73
NtRp2630
(dp2631
g76
(dp2632
sg85
g2353
sg78
(lp2633
g71
(g92
g73
NtRp2634
(dp2635
g76
(dp2636
g96
g97
ssg85
g2630
sg78
(lp2637
S'REMOTE_PORT'
p2638
asbag71
(g92
g73
NtRp2639
(dp2640
g76
(dp2641
g103
g104
ssg85
g2630
sg78
(lp2642
S':'
asbag71
(g92
g73
NtRp2643
(dp2644
g76
(dp2645
sg85
g2630
sg78
(lp2646
g71
(g72
g73
NtRp2647
(dp2648
g76
(dp2649
g84
I3
ssg85
g2643
sg78
(lp2650
g1171
asbasbasbag71
(g87
g73
NtRp2651
(dp2652
g76
(dp2653
sg85
g2353
sg78
(lp2654
g71
(g92
g73
NtRp2655
(dp2656
g76
(dp2657
g96
g97
ssg85
g2651
sg78
(lp2658
S'REQUEST_METHOD'
p2659
asbag71
(g92
g73
NtRp2660
(dp2661
g76
(dp2662
g103
g104
ssg85
g2651
sg78
(lp2663
S':'
asbag71
(g92
g73
NtRp2664
(dp2665
g76
(dp2666
sg85
g2651
sg78
(lp2667
g71
(g72
g73
NtRp2668
(dp2669
g76
(dp2670
g84
I3
ssg85
g2664
sg78
(lp2671
g1193
asbasbasbag71
(g87
g73
NtRp2672
(dp2673
g76
(dp2674
sg85
g2353
sg78
(lp2675
g71
(g92
g73
NtRp2676
(dp2677
g76
(dp2678
g96
g97
ssg85
g2672
sg78
(lp2679
S'REQUEST_URI'
p2680
asbag71
(g92
g73
NtRp2681
(dp2682
g76
(dp2683
g103
g104
ssg85
g2672
sg78
(lp2684
S':'
asbag71
(g92
g73
NtRp2685
(dp2686
g76
(dp2687
sg85
g2672
sg78
(lp2688
g71
(g72
g73
NtRp2689
(dp2690
g76
(dp2691
g84
I3
ssg85
g2685
sg78
(lp2692
g1107
asbasbasbag71
(g87
g73
NtRp2693
(dp2694
g76
(dp2695
sg85
g2353
sg78
(lp2696
g71
(g92
g73
NtRp2697
(dp2698
g76
(dp2699
g96
g97
ssg85
g2693
sg78
(lp2700
S'SCRIPT_NAME'
p2701
asbag71
(g92
g73
NtRp2702
(dp2703
g76
(dp2704
g103
g104
ssg85
g2693
sg78
(lp2705
S':'
asbag71
(g92
g73
NtRp2706
(dp2707
g76
(dp2708
sg85
g2693
sg78
(lp2709
g71
(g72
g73
NtRp2710
(dp2711
g76
(dp2712
g84
I3
ssg85
g2706
sg78
(lp2713
S''
asbasbasbag71
(g87
g73
NtRp2714
(dp2715
g76
(dp2716
sg85
g2353
sg78
(lp2717
g71
(g92
g73
NtRp2718
(dp2719
g76
(dp2720
g96
g97
ssg85
g2714
sg78
(lp2721
S'SERVER_NAME'
p2722
asbag71
(g92
g73
NtRp2723
(dp2724
g76
(dp2725
g103
g104
ssg85
g2714
sg78
(lp2726
S':'
asbag71
(g92
g73
NtRp2727
(dp2728
g76
(dp2729
sg85
g2714
sg78
(lp2730
g71
(g72
g73
NtRp2731
(dp2732
g76
(dp2733
g84
I3
ssg85
g2727
sg78
(lp2734
g1257
asbasbasbag71
(g87
g73
NtRp2735
(dp2736
g76
(dp2737
sg85
g2353
sg78
(lp2738
g71
(g92
g73
NtRp2739
(dp2740
g76
(dp2741
g96
g97
ssg85
g2735
sg78
(lp2742
S'SERVER_PORT'
p2743
asbag71
(g92
g73
NtRp2744
(dp2745
g76
(dp2746
g103
g104
ssg85
g2735
sg78
(lp2747
S':'
asbag71
(g92
g73
NtRp2748
(dp2749
g76
(dp2750
sg85
g2735
sg78
(lp2751
g71
(g72
g73
NtRp2752
(dp2753
g76
(dp2754
g84
I3
ssg85
g2748
sg78
(lp2755
g1279
asbasbasbag71
(g87
g73
NtRp2756
(dp2757
g76
(dp2758
sg85
g2353
sg78
(lp2759
g71
(g92
g73
NtRp2760
(dp2761
g76
(dp2762
g96
g97
ssg85
g2756
sg78
(lp2763
S'SERVER_PROTOCOL'
p2764
asbag71
(g92
g73
NtRp2765
(dp2766
g76
(dp2767
g103
g104
ssg85
g2756
sg78
(lp2768
S':'
asbag71
(g92
g73
NtRp2769
(dp2770
g76
(dp2771
sg85
g2756
sg78
(lp2772
g71
(g72
g73
NtRp2773
(dp2774
g76
(dp2775
g84
I3
ssg85
g2769
sg78
(lp2776
g1301
asbasbasbag71
(g87
g73
NtRp2777
(dp2778
g76
(dp2779
sg85
g2353
sg78
(lp2780
g71
(g92
g73
NtRp2781
(dp2782
g76
(dp2783
g96
g97
ssg85
g2777
sg78
(lp2784
S'SERVER_SOFTWARE'
p2785
asbag71
(g92
g73
NtRp2786
(dp2787
g76
(dp2788
g103
g104
ssg85
g2777
sg78
(lp2789
S':'
asbag71
(g92
g73
NtRp2790
(dp2791
g76
(dp2792
sg85
g2777
sg78
(lp2793
g71
(g72
g73
NtRp2794
(dp2795
g76
(dp2796
g84
I3
ssg85
g2790
sg78
(lp2797
g1323
asbasbasbag71
(g87
g73
NtRp2798
(dp2799
g76
(dp2800
sg85
g2353
sg78
(lp2801
g71
(g92
g73
NtRp2802
(dp2803
g76
(dp2804
g96
g97
ssg85
g2798
sg78
(lp2805
S'WEB2PY_ORIGINAL_URI'
p2806
asbag71
(g92
g73
NtRp2807
(dp2808
g76
(dp2809
g103
g104
ssg85
g2798
sg78
(lp2810
S':'
asbag71
(g92
g73
NtRp2811
(dp2812
g76
(dp2813
sg85
g2798
sg78
(lp2814
g71
(g72
g73
NtRp2815
(dp2816
g76
(dp2817
g84
I3
ssg85
g2811
sg78
(lp2818
g1107
asbasbasbag71
(g87
g73
NtRp2819
(dp2820
g76
(dp2821
sg85
g2353
sg78
(lp2822
g71
(g92
g73
NtRp2823
(dp2824
g76
(dp2825
g96
g97
ssg85
g2819
sg78
(lp2826
S'wsgi.errors'
p2827
asbag71
(g92
g73
NtRp2828
(dp2829
g76
(dp2830
g103
g104
ssg85
g2819
sg78
(lp2831
S':'
asbag71
(g92
g73
NtRp2832
(dp2833
g76
(dp2834
sg85
g2819
sg78
(lp2835
g71
(g72
g73
NtRp2836
(dp2837
g76
(dp2838
g84
I3
ssg85
g2832
sg78
(lp2839
S"<open file '<stderr>', mode 'w' at 0x7fb5cedfb270>"
p2840
asbasbasbag71
(g87
g73
NtRp2841
(dp2842
g76
(dp2843
sg85
g2353
sg78
(lp2844
g71
(g92
g73
NtRp2845
(dp2846
g76
(dp2847
g96
g97
ssg85
g2841
sg78
(lp2848
S'wsgi.file_wrapper'
p2849
asbag71
(g92
g73
NtRp2850
(dp2851
g76
(dp2852
g103
g104
ssg85
g2841
sg78
(lp2853
S':'
asbag71
(g92
g73
NtRp2854
(dp2855
g76
(dp2856
sg85
g2841
sg78
(lp2857
g71
(g72
g73
NtRp2858
(dp2859
g76
(dp2860
g84
I3
ssg85
g2854
sg78
(lp2861
S'<class wsgiref.util.FileWrapper at 0x180ef58>'
p2862
asbasbasbag71
(g87
g73
NtRp2863
(dp2864
g76
(dp2865
sg85
g2353
sg78
(lp2866
g71
(g92
g73
NtRp2867
(dp2868
g76
(dp2869
g96
g97
ssg85
g2863
sg78
(lp2870
S'wsgi.input'
p2871
asbag71
(g92
g73
NtRp2872
(dp2873
g76
(dp2874
g103
g104
ssg85
g2863
sg78
(lp2875
S':'
asbag71
(g92
g73
NtRp2876
(dp2877
g76
(dp2878
sg85
g2863
sg78
(lp2879
g71
(g72
g73
NtRp2880
(dp2881
g76
(dp2882
g84
I3
ssg85
g2876
sg78
(lp2883
S'<cStringIO.StringO object at 0x7fb5b0b9bd18>'
p2884
asbasbasbag71
(g87
g73
NtRp2885
(dp2886
g76
(dp2887
sg85
g2353
sg78
(lp2888
g71
(g92
g73
NtRp2889
(dp2890
g76
(dp2891
g96
g97
ssg85
g2885
sg78
(lp2892
S'wsgi.multiprocess'
p2893
asbag71
(g92
g73
NtRp2894
(dp2895
g76
(dp2896
g103
g104
ssg85
g2885
sg78
(lp2897
S':'
asbag71
(g92
g73
NtRp2898
(dp2899
g76
(dp2900
sg85
g2885
sg78
(lp2901
g71
(g72
g73
NtRp2902
(dp2903
g76
(dp2904
g84
I3
ssg85
g2898
sg78
(lp2905
g49
asbasbasbag71
(g87
g73
NtRp2906
(dp2907
g76
(dp2908
sg85
g2353
sg78
(lp2909
g71
(g92
g73
NtRp2910
(dp2911
g76
(dp2912
g96
g97
ssg85
g2906
sg78
(lp2913
S'wsgi.multithread'
p2914
asbag71
(g92
g73
NtRp2915
(dp2916
g76
(dp2917
g103
g104
ssg85
g2906
sg78
(lp2918
S':'
asbag71
(g92
g73
NtRp2919
(dp2920
g76
(dp2921
sg85
g2906
sg78
(lp2922
g71
(g72
g73
NtRp2923
(dp2924
g76
(dp2925
g84
I3
ssg85
g2919
sg78
(lp2926
g114
asbasbasbag71
(g87
g73
NtRp2927
(dp2928
g76
(dp2929
sg85
g2353
sg78
(lp2930
g71
(g92
g73
NtRp2931
(dp2932
g76
(dp2933
g96
g97
ssg85
g2927
sg78
(lp2934
S'wsgi.run_once'
p2935
asbag71
(g92
g73
NtRp2936
(dp2937
g76
(dp2938
g103
g104
ssg85
g2927
sg78
(lp2939
S':'
asbag71
(g92
g73
NtRp2940
(dp2941
g76
(dp2942
sg85
g2927
sg78
(lp2943
g71
(g72
g73
NtRp2944
(dp2945
g76
(dp2946
g84
I3
ssg85
g2940
sg78
(lp2947
g49
asbasbasbag71
(g87
g73
NtRp2948
(dp2949
g76
(dp2950
sg85
g2353
sg78
(lp2951
g71
(g92
g73
NtRp2952
(dp2953
g76
(dp2954
g96
g97
ssg85
g2948
sg78
(lp2955
S'wsgi.url_scheme'
p2956
asbag71
(g92
g73
NtRp2957
(dp2958
g76
(dp2959
g103
g104
ssg85
g2948
sg78
(lp2960
S':'
asbag71
(g92
g73
NtRp2961
(dp2962
g76
(dp2963
sg85
g2948
sg78
(lp2964
g71
(g72
g73
NtRp2965
(dp2966
g76
(dp2967
g84
I3
ssg85
g2961
sg78
(lp2968
g1626
asbasbasbag71
(g87
g73
NtRp2969
(dp2970
g76
(dp2971
sg85
g2353
sg78
(lp2972
g71
(g92
g73
NtRp2973
(dp2974
g76
(dp2975
g96
g97
ssg85
g2969
sg78
(lp2976
S'wsgi.version'
p2977
asbag71
(g92
g73
NtRp2978
(dp2979
g76
(dp2980
g103
g104
ssg85
g2969
sg78
(lp2981
S':'
asbag71
(g92
g73
NtRp2982
(dp2983
g76
(dp2984
sg85
g2969
sg78
(lp2985
g71
(g72
g73
NtRp2986
(dp2987
g76
(dp2988
g84
I3
ssg85
g2982
sg78
(lp2989
S'1'
asbasbasbasbasbasbasbasbasbasbasbasbasbsS'frames'
p2990
(lp2991
(dp2992
S'file'
p2993
S'/home/goshawk/web2py/gluon/restricted.py'
p2994
sS'dump'
p2995
(dp2996
S'environment'
p2997
S"{'A': <class 'gluon.html.A'>, 'Auth': <class 'gluon.tools.Auth'>, 'B': <class 'gluon.html.B'>, 'BEAUTIFY': <class 'gluon.html.BEAUTIFY'>, 'BODY': <class 'gluon.html.BODY'>, 'BR': <class 'gluon.html.BR'>, 'BUTTON': <class 'gluon.html.BUTTON'>, 'CAT': <class 'gluon.html.CAT'>, 'CENTER': <class 'gluon.html.CENTER'>, 'CLEANUP': <class 'gluon.validators.CLEANUP'>, ...}"
p2998
sS'ccode'
p2999
S'<code object <module> at 0x7fb5a44b6c30, file "/.../web2py/applications/milo/models/db.py", line 12>'
p3000
ssS'lnum'
p3001
I205
sS'lines'
p3002
(dp3003
I200
S'    try:'
p3004
sI201
S'        if type(code) == types.CodeType:'
p3005
sI202
S'            ccode = code'
p3006
sI203
S'        else:'
p3007
sI204
S'            ccode = compile2(code,layer)'
p3008
sI205
S'        exec ccode in environment'
p3009
sI206
S'    except HTTP:'
p3010
sI207
S'        raise'
p3011
sI208
S'    except RestrictedError:'
p3012
sI209
S'        # do not encapsulate (obfuscate) the original RestrictedError'
p3013
ssS'call'
p3014
S'(code="# -*- coding: utf-8 -*-\\n\\n#######################...t)),\\n        Field(\'times\', \'integer\')\\n        )\\n", environment={\'A\': <class \'gluon.html.A\'>, \'Auth\': <class \'gluon.tools.Auth\'>, \'B\': <class \'gluon.html.B\'>, \'BEAUTIFY\': <class \'gluon.html.BEAUTIFY\'>, \'BODY\': <class \'gluon.html.BODY\'>, \'BR\': <class \'gluon.html.BR\'>, \'BUTTON\': <class \'gluon.html.BUTTON\'>, \'CAT\': <class \'gluon.html.CAT\'>, \'CENTER\': <class \'gluon.html.CENTER\'>, \'CLEANUP\': <class \'gluon.validators.CLEANUP\'>, ...}, layer=\'/home/goshawk/web2py/applications/milo/models/db.py\')'
p3015
sS'func'
p3016
S'restricted'
p3017
sa(dp3018
g2993
S'/home/goshawk/web2py/applications/milo/models/db.py'
p3019
sg2995
(dp3020
S'imdb'
p3021
S"<module 'imdb' from '/usr/local/lib/python2.7/dist-packages/imdb/__init__.pyc'>"
p3022
sS'imdb_connection_str'
p3023
S"'postgres://imdb:imdbsecret@localhost/imdb'"
p3024
sS'imdb.IMDb'
p3025
S'<function IMDb>'
p3026
sS'im'
p3027
S'undefined'
p3028
sS'uri'
p3029
g3028
ssg3001
I86
sg3002
(dp3030
I81
S''
sI82
S'import imdb'
p3031
sI83
S''
sI84
S"imdb_connection_str = 'postgres://imdb:imdbsecret@localhost/imdb'"
p3032
sI85
S''
sI86
S"im = imdb.IMDb('sql', uri=imdb_connection_str)"
p3033
sI87
S''
sI88
S''
sI89
S"db.define_table('users',"
p3034
sI90
S"        Field('name'),"
p3035
ssg3014
S'()'
p3036
sg3016
S'<module>'
p3037
sa(dp3038
g2993
S'/usr/local/lib/python2.7/dist-packages/imdb/__init__.py'
p3039
sg2995
(dp3040
S'keywords'
p3041
S"{'uri': 'postgres://imdb:imdbsecret@localhost/imdb'}"
p3042
sS'arguments'
p3043
S'()'
p3044
sS'IMDbSqlAccessSystem'
p3045
S'<class imdb.parser.sql.IMDbSqlAccessSystem>'
p3046
ssg3001
I199
sg3002
(dp3047
I194
S"    elif accessSystem in ('sql', 'db', 'database'):"
p3048
sI195
S'        try:'
p3049
sI196
S'            from parser.sql import IMDbSqlAccessSystem'
p3050
sI197
S'        except ImportError:'
p3051
sI198
S"            raise IMDbError('the sql access system is not installed')"
p3052
sI199
S'        return IMDbSqlAccessSystem(*arguments, **keywords)'
p3053
sI200
S'    else:'
p3054
sI201
S'        raise IMDbError(\'unknown kind of data access system: "%s"\' \\'
p3055
sI202
S'                            % accessSystem)'
p3056
sI203
S''
ssg3014
S"(accessSystem='sql', *arguments=(), **keywords={'uri': 'postgres://imdb:imdbsecret@localhost/imdb'})"
p3057
sg3016
S'IMDb'
p3058
sa(dp3059
g2993
S'/usr/local/lib/python2.7/dist-packages/imdb/parser/sql/__init__.py'
p3060
sg2995
(dp3061
S'KindType.select'
p3062
S'<bound method TableAdapter.select of <TableAdapt...kind_type>), schema=None)) [id=140418462474320]>>'
p3063
sS'global KindType'
p3064
S"<TableAdapter(table=Table('kind_type', MetaData(...<kind_type>), schema=None)) [id=140418462474320]>"
p3065
sS'kt'
p3066
g3028
ssg3001
I606
sg3002
(dp3067
I608
S'                self._kindRev[str(kt.kind)] = kt.id'
p3068
sI609
S'        except self.Error:'
p3069
sI610
S'            # NOTE: you can also get the error, but - at least with'
p3070
sI601
S'        # Maps some IDs to the corresponding strings.'
p3071
sI602
S'        self._kind = {}'
p3072
sI603
S'        self._kindRev = {}'
p3073
sI604
S"        self._sql_logger.debug('reading constants from the database')"
p3074
sI605
S'        try:'
p3075
sI606
S'            for kt in KindType.select():'
p3076
sI607
S'                self._kind[kt.id] = kt.kind'
p3077
ssg3014
S"(self=<imdb.parser.sql.IMDbSqlAccessSystem instance>, uri='postgres://imdb:imdbsecret@localhost/imdb', adultSearch=1, useORM=('sqlobject', 'sqlalchemy'), *arguments=(), **keywords={})"
p3078
sg3016
g26
sa(dp3079
g2993
S'/usr/local/lib/python2.7/dist-packages/imdb/parser/sql/alchemyadapter.py'
p3080
sg2995
(dp3081
S'self'
p3082
S"<TableAdapter(table=Table('kind_type', MetaData(...<kind_type>), schema=None)) [id=140418462474320]>"
p3083
sS').execute'
p3084
g3028
sS'conditions'
p3085
S'None'
p3086
sS'result'
p3087
g3028
sS'self._ta_select'
p3088
S"<bound method Table.select of Table('kind_type',...estring=False), table=<kind_type>), schema=None)>"
p3089
ssg3001
I283
sg3002
(dp3090
I278
S'        self.q = QAdapter(self.table, colMap=self.colMap)'
p3091
sI279
S'        self.sqlmeta = SQLMetaAdapter(self.table, colMap=self.colMap)'
p3092
sI280
S''
sI281
S'    def select(self, conditions=None):'
p3093
sI282
S'        """Return a list of results."""'
p3094
sI283
S'        result = self._ta_select(conditions).execute()'
p3095
sI284
S'        return ResultAdapter(result, self.table, colMap=self.colMap)'
p3096
sI285
S''
sI286
S'    def get(self, theID):'
p3097
sI287
S'        """Get an object given its ID."""'
p3098
ssg3014
S"(self=<TableAdapter(table=Table('kind_type', MetaData(...<kind_type>), schema=None)) [id=140418462474320]>, conditions=None)"
p3099
sg3016
S'select'
p3100
sa(dp3101
g2993
S'/usr/local/lib/python2.7/dist-packages/SQLAlchemy-0.7.0-py2.7-linux-x86_64.egg/sqlalchemy/sql/expression.py'
p3102
sg2995
(dp3103
S'e._execute_clauseelement'
p3104
S'<bound method Engine._execute_clauseelement of Engine(postgres://imdb:imdbsecret@localhost/imdb)>'
p3105
sS'self'
p3106
S'<sqlalchemy.sql.expression.Select at 0x7fb5b0ba6410; Select object>'
p3107
sS'e'
S'Engine(postgres://imdb:imdbsecret@localhost/imdb)'
p3108
sS'multiparams'
p3109
S'()'
p3110
sS'params'
p3111
S'{}'
p3112
ssg3001
I2730
sg3002
(dp3113
I2725
S"            label = getattr(self, 'description', self.__class__.__name__)"
p3114
sI2726
S"            msg = ('This %s is not directly bound to a Connection or Engine.'"
p3115
sI2727
S"                   'Use the .execute() method of a Connection or Engine '"
p3116
sI2728
S"                   'to execute this construct.' % label)"
p3117
sI2729
S'            raise exc.UnboundExecutionError(msg)'
p3118
sI2730
S'        return e._execute_clauseelement(self, multiparams, params)'
p3119
sI2731
S''
sI2732
S'    def scalar(self, *multiparams, **params):'
p3120
sI2733
S'        """Compile and execute this :class:`.Executable`, returning the'
p3121
sI2734
S"        result's scalar representation."
p3122
ssg3014
S'(self=<sqlalchemy.sql.expression.Select at 0x7fb5b0ba6410; Select object>, *multiparams=(), **params={})'
p3123
sg3016
S'execute'
p3124
sa(dp3125
g2993
S'/usr/local/lib/python2.7/dist-packages/SQLAlchemy-0.7.0-py2.7-linux-x86_64.egg/sqlalchemy/engine/base.py'
p3126
sg2995
(dp3127
S'self.contextual_connect'
p3128
S'<bound method Engine.contextual_connect of Engine(postgres://imdb:imdbsecret@localhost/imdb)>'
p3129
sS'connection'
p3130
g3028
sS'close_with_result'
p3131
g3028
sS'self'
p3132
S'Engine(postgres://imdb:imdbsecret@localhost/imdb)'
p3133
sS'builtinTrue'
p3134
g114
ssg3001
I2063
sg3002
(dp3135
I2058
S''
sI2059
S'    def scalar(self, statement, *multiparams, **params):'
p3136
sI2060
S'        return self.execute(statement, *multiparams, **params).scalar()'
p3137
sI2061
S''
sI2062
S'    def _execute_clauseelement(self, elem, multiparams=None, params=None):'
p3138
sI2063
S'        connection = self.contextual_connect(close_with_result=True)'
p3139
sI2064
S'        return connection._execute_clauseelement(elem, multiparams, params)'
p3140
sI2065
S''
sI2066
S'    def _execute_compiled(self, compiled, multiparams, params):'
p3141
sI2067
S'        connection = self.contextual_connect(close_with_result=True)'
p3142
ssg3014
S'(self=Engine(postgres://imdb:imdbsecret@localhost/imdb), elem=<sqlalchemy.sql.expression.Select at 0x7fb5b0ba6410; Select object>, multiparams=(), params={})'
p3143
sg3016
S'_execute_clauseelement'
p3144
sa(dp3145
g2993
S'/usr/local/lib/python2.7/dist-packages/SQLAlchemy-0.7.0-py2.7-linux-x86_64.egg/sqlalchemy/engine/base.py'
p3146
sg2995
(dp3147
S'self'
p3148
S'Engine(postgres://imdb:imdbsecret@localhost/imdb)'
p3149
sS'self.pool.connect'
p3150
S'<bound method QueuePool.connect of <sqlalchemy.pool.QueuePool object>>'
p3151
sS'self.pool'
p3152
S'<sqlalchemy.pool.QueuePool object>'
p3153
ssg3001
I2098
sg3002
(dp3154
I2093
S'          by the :meth:`.Engine.execute` method.'
p3155
sI2094
S''
sI2095
S'        """'
p3156
sI2096
S''
sI2097
S'        return self._connection_cls(self,'
p3157
sI2098
S'                                    self.pool.connect(),'
p3158
sI2099
S'                                    close_with_result=close_with_result,'
p3159
sI2100
S'                                    **kwargs)'
p3160
sI2101
S''
sI2102
S'    def table_names(self, schema=None, connection=None):'
p3161
ssg3014
S'(self=Engine(postgres://imdb:imdbsecret@localhost/imdb), close_with_result=True, **kwargs={})'
p3162
sg3016
S'contextual_connect'
p3163
sa(dp3164
g2993
S'/usr/local/lib/python2.7/dist-packages/SQLAlchemy-0.7.0-py2.7-linux-x86_64.egg/sqlalchemy/pool.py'
p3165
sg2995
(dp3166
S'self'
p3167
S'<sqlalchemy.pool.QueuePool object>'
p3168
sS').checkout'
p3169
g3028
sS'global _ConnectionFairy'
p3170
S"<class 'sqlalchemy.pool._ConnectionFairy'>"
p3171
ssg3001
I209
sg3002
(dp3172
I204
S'        ``close()`` method is called, the connection will be returned to'
p3173
sI205
S'        the pool.'
p3174
sI206
S''
sI207
S'        """'
p3175
sI208
S'        if not self._use_threadlocal:'
p3176
sI209
S'            return _ConnectionFairy(self).checkout()'
p3177
sI210
S''
sI211
S'        try:'
p3178
sI212
S'            rec = self._threadconns.current()'
p3179
sI213
S'            if rec:'
p3180
ssg3014
S'(self=<sqlalchemy.pool.QueuePool object>)'
p3181
sg3016
S'connect'
p3182
sa(dp3183
g2993
S'/usr/local/lib/python2.7/dist-packages/SQLAlchemy-0.7.0-py2.7-linux-x86_64.egg/sqlalchemy/pool.py'
p3184
sg2995
(dp3185
S'rec'
p3186
g3028
sS'self'
p3187
S'<sqlalchemy.pool._ConnectionFairy object>'
p3188
sS'pool'
p3189
S'<sqlalchemy.pool.QueuePool object>'
p3190
sS'self._connection_record'
p3191
S'None'
p3192
sS'pool._do_get'
p3193
S'<bound method QueuePool._do_get of <sqlalchemy.pool.QueuePool object>>'
p3194
ssg3001
I370
sg3002
(dp3195
I365
S'    def __init__(self, pool):'
p3196
sI366
S'        self._pool = pool'
p3197
sI367
S'        self.__counter = 0'
p3198
sI368
S'        self._echo = _echo = pool._should_log_debug()'
p3199
sI369
S'        try:'
p3200
sI370
S'            rec = self._connection_record = pool._do_get()'
p3201
sI371
S'            conn = self.connection = self._connection_record.get_connection()'
p3202
sI372
S'            rec.fairy = weakref.ref('
p3203
sI373
S'                            self,'
p3204
sI374
S'                            lambda ref:_finalize_fairy(conn, rec, pool, ref, _echo)'
p3205
ssg3014
S'(self=<sqlalchemy.pool._ConnectionFairy object>, pool=<sqlalchemy.pool.QueuePool object>)'
p3206
sg3016
g26
sa(dp3207
g2993
S'/usr/local/lib/python2.7/dist-packages/SQLAlchemy-0.7.0-py2.7-linux-x86_64.egg/sqlalchemy/pool.py'
p3208
sg2995
(dp3209
S'self'
p3210
S'<sqlalchemy.pool.QueuePool object>'
p3211
sS'self._create_connection'
p3212
S'<bound method QueuePool._create_connection of <sqlalchemy.pool.QueuePool object>>'
p3213
sS'con'
p3214
g3028
ssg3001
I696
sg3002
(dp3215
I691
S'                if self._overflow_lock is not None:'
p3216
sI692
S'                    self._overflow_lock.release()'
p3217
sI693
S'                return self._do_get()'
p3218
sI694
S''
sI695
S'            try:'
p3219
sI696
S'                con = self._create_connection()'
p3220
sI697
S'                self._overflow += 1'
p3221
sI698
S'            finally:'
p3222
sI699
S'                if self._overflow_lock is not None:'
p3223
sI700
S'                    self._overflow_lock.release()'
p3224
ssg3014
S'(self=<sqlalchemy.pool.QueuePool object>)'
p3225
sg3016
S'_do_get'
p3226
sa(dp3227
g2993
S'/usr/local/lib/python2.7/dist-packages/SQLAlchemy-0.7.0-py2.7-linux-x86_64.egg/sqlalchemy/pool.py'
p3228
sg2995
(dp3229
S'self'
p3230
S'<sqlalchemy.pool.QueuePool object>'
p3231
sS'global _ConnectionRecord'
p3232
S"<class 'sqlalchemy.pool._ConnectionRecord'>"
p3233
ssg3001
I174
sg3002
(dp3234
I169
S'        return _ConnectionFairy(self).checkout()'
p3235
sI170
S''
sI171
S'    def _create_connection(self):'
p3236
sI172
S'        """Called by subclasses to create a new ConnectionRecord."""'
p3237
sI173
S''
sI174
S'        return _ConnectionRecord(self)'
p3238
sI175
S''
sI176
S'    def recreate(self):'
p3239
sI177
S'        """Return a new :class:`.Pool`, of the same class as this one'
p3240
sI178
S'        and configured with identical creation arguments.'
p3241
ssg3014
S'(self=<sqlalchemy.pool.QueuePool object>)'
p3242
sg3016
S'_create_connection'
p3243
sa(dp3244
g2993
S'/usr/local/lib/python2.7/dist-packages/SQLAlchemy-0.7.0-py2.7-linux-x86_64.egg/sqlalchemy/pool.py'
p3245
sg2995
(dp3246
S'self'
p3247
S'<sqlalchemy.pool._ConnectionRecord object>'
p3248
sS'self.connection'
p3249
g3028
sS'self.__connect'
p3250
g3028
ssg3001
I255
sg3002
(dp3251
I256
S'        self.info = {}'
p3252
sI257
S''
sI258
S'        pool.dispatch.first_connect.exec_once(self.connection, self)'
p3253
sI259
S'        pool.dispatch.connect(self.connection, self)'
p3254
sI250
S'class _ConnectionRecord(object):'
p3255
sI251
S'    finalize_callback = None'
p3256
sI252
S''
sI253
S'    def __init__(self, pool):'
p3257
sI254
S'        self.__pool = pool'
p3258
sI255
S'        self.connection = self.__connect()'
p3259
ssg3014
S'(self=<sqlalchemy.pool._ConnectionRecord object>, pool=<sqlalchemy.pool.QueuePool object>)'
p3260
sg3016
g26
sa(dp3261
g2993
S'/usr/local/lib/python2.7/dist-packages/SQLAlchemy-0.7.0-py2.7-linux-x86_64.egg/sqlalchemy/pool.py'
p3262
sg2995
(dp3263
S'connection'
p3264
g3028
sS'self.__pool'
p3265
g3028
sS'self'
p3266
S'<sqlalchemy.pool._ConnectionRecord object>'
p3267
ssg3001
I315
sg3002
(dp3268
I310
S'                        self.connection, e)'
p3269
sI311
S''
sI312
S'    def __connect(self):'
p3270
sI313
S'        try:'
p3271
sI314
S'            self.starttime = time.time()'
p3272
sI315
S'            connection = self.__pool._creator()'
p3273
sI316
S'            self.__pool.logger.debug("Created new connection %r", connection)'
p3274
sI317
S'            return connection'
p3275
sI318
S'        except Exception, e:'
p3276
sI319
S'            self.__pool.logger.debug("Error on connect(): %s", e)'
p3277
ssg3014
S'(self=<sqlalchemy.pool._ConnectionRecord object>)'
p3278
sg3016
S'__connect'
p3279
sa(dp3280
g2993
S'/usr/local/lib/python2.7/dist-packages/SQLAlchemy-0.7.0-py2.7-linux-x86_64.egg/sqlalchemy/engine/strategies.py'
p3281
sg2995
(dp3282
S'dialect'
p3283
S'<sqlalchemy.dialects.postgresql.psycopg2.PGDialect_psycopg2 object>'
p3284
sS'cparams'
p3285
S"{'database': 'imdb', 'host': 'localhost', 'password': 'imdbsecret', 'user': 'imdb'}"
p3286
sS'cargs'
p3287
S'[]'
p3288
sS'dialect.connect'
p3289
S'<bound method PGDialect_psycopg2.connect of <sql...s.postgresql.psycopg2.PGDialect_psycopg2 object>>'
p3290
ssg3001
I80
sg3002
(dp3291
I75
S'        # look for existing pool or create'
p3292
sI76
S"        pool = kwargs.pop('pool', None)"
p3293
sI77
S'        if pool is None:'
p3294
sI78
S'            def connect():'
p3295
sI79
S'                try:'
p3296
sI80
S'                    return dialect.connect(*cargs, **cparams)'
p3297
sI81
S'                except Exception, e:'
p3298
sI82
S'                    # Py3K'
p3299
sI83
S'                    #raise exc.DBAPIError.instance(None, None,'
p3300
sI84
S'                    #                   e, dialect.dbapi.Error) from e'
p3301
ssg3014
S'()'
p3302
sg3016
g3182
sa(dp3303
g2993
S'/usr/local/lib/python2.7/dist-packages/SQLAlchemy-0.7.0-py2.7-linux-x86_64.egg/sqlalchemy/engine/default.py'
p3304
sg2995
(dp3305
S'self.dbapi.connect'
p3306
S'<function connect>'
p3307
sS'self'
p3308
S'<sqlalchemy.dialects.postgresql.psycopg2.PGDialect_psycopg2 object>'
p3309
sS'cparams'
p3310
S"{'database': 'imdb', 'host': 'localhost', 'password': 'imdbsecret', 'user': 'imdb'}"
p3311
sS'self.dbapi'
p3312
S"<module 'psycopg2' from '/usr/lib/python2.7/dist-packages/psycopg2/__init__.pyc'>"
p3313
sS'cargs'
p3314
S'()'
p3315
ssg3001
I275
sg3002
(dp3316
I270
S'                "Identifier \'%s\' exceeds maximum length of %d characters" %'
p3317
sI271
S'                (ident, self.max_identifier_length)'
p3318
sI272
S'            )'
p3319
sI273
S''
sI274
S'    def connect(self, *cargs, **cparams):'
p3320
sI275
S'        return self.dbapi.connect(*cargs, **cparams)'
p3321
sI276
S''
sI277
S'    def create_connect_args(self, url):'
p3322
sI278
S'        opts = url.translate_connect_args()'
p3323
sI279
S'        opts.update(url.query)'
p3324
ssg3014
S"(self=<sqlalchemy.dialects.postgresql.psycopg2.PGDialect_psycopg2 object>, *cargs=(), **cparams={'database': 'imdb', 'host': 'localhost', 'password': 'imdbsecret', 'user': 'imdb'})"
p3325
sg3016
g3182
sa(dp3326
g2993
S'/usr/lib/python2.7/dist-packages/psycopg2/__init__.py'
p3327
sg2995
(dp3328
S'async'
p3329
g49
sS'connection_factory'
p3330
S'None'
p3331
ssg3001
I179
sg3002
(dp3332
I174
S''
sI175
S'        if not dsn:'
p3333
sI176
S"            raise InterfaceError('missing dsn and no parameters')"
p3334
sI177
S''
sI178
S'    return _connect(dsn,'
p3335
sI179
S'        connection_factory=connection_factory, async=async)'
p3336
sI180
S''
sI181
S''
sI182
S"__all__ = filter(lambda k: not k.startswith('_'), locals().keys())"
p3337
sI183
S''
ssg3014
S"(dsn='dbname=imdb user=imdb password=imdbsecret host=localhost', database='imdb', user='imdb', password='imdbsecret', host='localhost', port=None, connection_factory=None, async=False, **kwargs={})"
p3338
sg3016
g3182
sasS'pyver'
p3339
S'Python 2.7.3: /usr/bin/python'
p3340
sS'session'
p3341
g71
(g72
g73
NtRp3342
(dp3343
g76
(dp3344
sg78
(lp3345
g71
(g80
g73
NtRp3346
(dp3347
g76
(dp3348
g84
I5
ssg85
Nsg78
(lp3349
sbasbsS'etype'
p3350
S"<class 'sqlalchemy.exc.OperationalError'>"
p3351
sS'date'
p3352
S'Sun Jul 15 05:51:17 2012'
p3353
sS'response'
p3354
g71
(g72
g73
NtRp3355
(dp3356
g76
(dp3357
sg78
(lp3358
g71
(g80
g73
NtRp3359
(dp3360
g76
(dp3361
g84
I5
ssg85
Nsg78
(lp3362
g71
(g87
g73
NtRp3363
(dp3364
g76
(dp3365
sg85
g3359
sg78
(lp3366
g71
(g92
g73
NtRp3367
(dp3368
g76
(dp3369
g96
g97
ssg85
g3363
sg78
(lp3370
g182
asbag71
(g92
g73
NtRp3371
(dp3372
g76
(dp3373
g103
g104
ssg85
g3363
sg78
(lp3374
S':'
asbag71
(g92
g73
NtRp3375
(dp3376
g76
(dp3377
sg85
g3363
sg78
(lp3378
g71
(g72
g73
NtRp3379
(dp3380
g76
(dp3381
g84
I5
ssg85
g3375
sg78
(lp3382
S'<cStringIO.StringO object at 0x7fb5b0b9b5a8>'
p3383
asbasbasbag71
(g87
g73
NtRp3384
(dp3385
g76
(dp3386
sg85
g3359
sg78
(lp3387
g71
(g92
g73
NtRp3388
(dp3389
g76
(dp3390
g96
g97
ssg85
g3384
sg78
(lp3391
g248
asbag71
(g92
g73
NtRp3392
(dp3393
g76
(dp3394
g103
g104
ssg85
g3384
sg78
(lp3395
S':'
asbag71
(g92
g73
NtRp3396
(dp3397
g76
(dp3398
sg85
g3384
sg78
(lp3399
g71
(g72
g73
NtRp3400
(dp3401
g76
(dp3402
g84
I5
ssg85
g3396
sg78
(lp3403
g71
(g80
g73
NtRp3404
(dp3405
g76
(dp3406
g84
I4
ssg85
Nsg78
(lp3407
g71
(g87
g73
NtRp3408
(dp3409
g76
(dp3410
sg85
g3404
sg78
(lp3411
g71
(g92
g73
NtRp3412
(dp3413
g76
(dp3414
g96
g97
ssg85
g3408
sg78
(lp3415
S'session_id_milo'
p3416
asbag71
(g92
g73
NtRp3417
(dp3418
g76
(dp3419
g103
g104
ssg85
g3408
sg78
(lp3420
S':'
asbag71
(g92
g73
NtRp3421
(dp3422
g76
(dp3423
sg85
g3408
sg78
(lp3424
g71
(g72
g73
NtRp3425
(dp3426
g76
(dp3427
g84
I4
ssg85
g3421
sg78
(lp3428
g71
(g80
g73
NtRp3429
(dp3430
g76
(dp3431
g84
I3
ssg85
Nsg78
(lp3432
g71
(g87
g73
NtRp3433
(dp3434
g76
(dp3435
sg85
g3429
sg78
(lp3436
g71
(g92
g73
NtRp3437
(dp3438
g76
(dp3439
g96
g97
ssg85
g3433
sg78
(lp3440
g298
asbag71
(g92
g73
NtRp3441
(dp3442
g76
(dp3443
g103
g104
ssg85
g3433
sg78
(lp3444
S':'
asbag71
(g92
g73
NtRp3445
(dp3446
g76
(dp3447
sg85
g3433
sg78
(lp3448
g71
(g72
g73
NtRp3449
(dp3450
g76
(dp3451
g84
I3
ssg85
g3445
sg78
(lp3452
S''
asbasbasbag71
(g87
g73
NtRp3453
(dp3454
g76
(dp3455
sg85
g3429
sg78
(lp3456
g71
(g92
g73
NtRp3457
(dp3458
g76
(dp3459
g96
g97
ssg85
g3453
sg78
(lp3460
g319
asbag71
(g92
g73
NtRp3461
(dp3462
g76
(dp3463
g103
g104
ssg85
g3453
sg78
(lp3464
S':'
asbag71
(g92
g73
NtRp3465
(dp3466
g76
(dp3467
sg85
g3453
sg78
(lp3468
g71
(g72
g73
NtRp3469
(dp3470
g76
(dp3471
g84
I3
ssg85
g3465
sg78
(lp3472
S''
asbasbasbag71
(g87
g73
NtRp3473
(dp3474
g76
(dp3475
sg85
g3429
sg78
(lp3476
g71
(g92
g73
NtRp3477
(dp3478
g76
(dp3479
g96
g97
ssg85
g3473
sg78
(lp3480
g340
asbag71
(g92
g73
NtRp3481
(dp3482
g76
(dp3483
g103
g104
ssg85
g3473
sg78
(lp3484
S':'
asbag71
(g92
g73
NtRp3485
(dp3486
g76
(dp3487
sg85
g3473
sg78
(lp3488
g71
(g72
g73
NtRp3489
(dp3490
g76
(dp3491
g84
I3
ssg85
g3485
sg78
(lp3492
S''
asbasbasbag71
(g87
g73
NtRp3493
(dp3494
g76
(dp3495
sg85
g3429
sg78
(lp3496
g71
(g92
g73
NtRp3497
(dp3498
g76
(dp3499
g96
g97
ssg85
g3493
sg78
(lp3500
g361
asbag71
(g92
g73
NtRp3501
(dp3502
g76
(dp3503
g103
g104
ssg85
g3493
sg78
(lp3504
S':'
asbag71
(g92
g73
NtRp3505
(dp3506
g76
(dp3507
sg85
g3493
sg78
(lp3508
g71
(g72
g73
NtRp3509
(dp3510
g76
(dp3511
g84
I3
ssg85
g3505
sg78
(lp3512
S''
asbasbasbag71
(g87
g73
NtRp3513
(dp3514
g76
(dp3515
sg85
g3429
sg78
(lp3516
g71
(g92
g73
NtRp3517
(dp3518
g76
(dp3519
g96
g97
ssg85
g3513
sg78
(lp3520
g382
asbag71
(g92
g73
NtRp3521
(dp3522
g76
(dp3523
g103
g104
ssg85
g3513
sg78
(lp3524
S':'
asbag71
(g92
g73
NtRp3525
(dp3526
g76
(dp3527
sg85
g3513
sg78
(lp3528
g71
(g72
g73
NtRp3529
(dp3530
g76
(dp3531
g84
I3
ssg85
g3525
sg78
(lp3532
S''
asbasbasbag71
(g87
g73
NtRp3533
(dp3534
g76
(dp3535
sg85
g3429
sg78
(lp3536
g71
(g92
g73
NtRp3537
(dp3538
g76
(dp3539
g96
g97
ssg85
g3533
sg78
(lp3540
g403
asbag71
(g92
g73
NtRp3541
(dp3542
g76
(dp3543
g103
g104
ssg85
g3533
sg78
(lp3544
S':'
asbag71
(g92
g73
NtRp3545
(dp3546
g76
(dp3547
sg85
g3533
sg78
(lp3548
g71
(g72
g73
NtRp3549
(dp3550
g76
(dp3551
g84
I3
ssg85
g3545
sg78
(lp3552
S'/'
asbasbasbag71
(g87
g73
NtRp3553
(dp3554
g76
(dp3555
sg85
g3429
sg78
(lp3556
g71
(g92
g73
NtRp3557
(dp3558
g76
(dp3559
g96
g97
ssg85
g3553
sg78
(lp3560
g424
asbag71
(g92
g73
NtRp3561
(dp3562
g76
(dp3563
g103
g104
ssg85
g3553
sg78
(lp3564
S':'
asbag71
(g92
g73
NtRp3565
(dp3566
g76
(dp3567
sg85
g3553
sg78
(lp3568
g71
(g72
g73
NtRp3569
(dp3570
g76
(dp3571
g84
I3
ssg85
g3565
sg78
(lp3572
S''
asbasbasbag71
(g87
g73
NtRp3573
(dp3574
g76
(dp3575
sg85
g3429
sg78
(lp3576
g71
(g92
g73
NtRp3577
(dp3578
g76
(dp3579
g96
g97
ssg85
g3573
sg78
(lp3580
g445
asbag71
(g92
g73
NtRp3581
(dp3582
g76
(dp3583
g103
g104
ssg85
g3573
sg78
(lp3584
S':'
asbag71
(g92
g73
NtRp3585
(dp3586
g76
(dp3587
sg85
g3573
sg78
(lp3588
g71
(g72
g73
NtRp3589
(dp3590
g76
(dp3591
g84
I3
ssg85
g3585
sg78
(lp3592
S''
asbasbasbasbasbasbasbasbasbasbasbag71
(g87
g73
NtRp3593
(dp3594
g76
(dp3595
sg85
g3359
sg78
(lp3596
g71
(g92
g73
NtRp3597
(dp3598
g76
(dp3599
g96
g97
ssg85
g3593
sg78
(lp3600
S'delimiters'
p3601
asbag71
(g92
g73
NtRp3602
(dp3603
g76
(dp3604
g103
g104
ssg85
g3593
sg78
(lp3605
S':'
asbag71
(g92
g73
NtRp3606
(dp3607
g76
(dp3608
sg85
g3593
sg78
(lp3609
g71
(g72
g73
NtRp3610
(dp3611
g76
(dp3612
g84
I5
ssg85
g3606
sg78
(lp3613
g71
(g80
g73
NtRp3614
(dp3615
g76
(dp3616
g84
I4
ssg85
Nsg78
(lp3617
g71
(g87
g73
NtRp3618
(dp3619
g76
(dp3620
sg85
g3614
sg78
(lp3621
g71
(g92
g73
NtRp3622
(dp3623
g76
(dp3624
sg85
g3618
sg78
(lp3625
g71
(g72
g73
NtRp3626
(dp3627
g76
(dp3628
g84
I4
ssg85
g3622
sg78
(lp3629
S'{{'
p3630
asbasbasbag71
(g87
g73
NtRp3631
(dp3632
g76
(dp3633
sg85
g3614
sg78
(lp3634
g71
(g92
g73
NtRp3635
(dp3636
g76
(dp3637
sg85
g3631
sg78
(lp3638
g71
(g72
g73
NtRp3639
(dp3640
g76
(dp3641
g84
I4
ssg85
g3635
sg78
(lp3642
S'}}'
p3643
asbasbasbasbasbasbasbag71
(g87
g73
NtRp3644
(dp3645
g76
(dp3646
sg85
g3359
sg78
(lp3647
g71
(g92
g73
NtRp3648
(dp3649
g76
(dp3650
g96
g97
ssg85
g3644
sg78
(lp3651
S'files'
p3652
asbag71
(g92
g73
NtRp3653
(dp3654
g76
(dp3655
g103
g104
ssg85
g3644
sg78
(lp3656
S':'
asbag71
(g92
g73
NtRp3657
(dp3658
g76
(dp3659
sg85
g3644
sg78
(lp3660
g71
(g72
g73
NtRp3661
(dp3662
g76
(dp3663
g84
I5
ssg85
g3657
sg78
(lp3664
g71
(g80
g73
NtRp3665
(dp3666
g76
(dp3667
g84
I4
ssg85
Nsg78
(lp3668
sbasbasbasbag71
(g87
g73
NtRp3669
(dp3670
g76
(dp3671
sg85
g3359
sg78
(lp3672
g71
(g92
g73
NtRp3673
(dp3674
g76
(dp3675
g96
g97
ssg85
g3669
sg78
(lp3676
S'flash'
p3677
asbag71
(g92
g73
NtRp3678
(dp3679
g76
(dp3680
g103
g104
ssg85
g3669
sg78
(lp3681
S':'
asbag71
(g92
g73
NtRp3682
(dp3683
g76
(dp3684
sg85
g3669
sg78
(lp3685
g71
(g72
g73
NtRp3686
(dp3687
g76
(dp3688
g84
I5
ssg85
g3682
sg78
(lp3689
S''
asbasbasbag71
(g87
g73
NtRp3690
(dp3691
g76
(dp3692
sg85
g3359
sg78
(lp3693
g71
(g92
g73
NtRp3694
(dp3695
g76
(dp3696
g96
g97
ssg85
g3690
sg78
(lp3697
S'generic_patterns'
p3698
asbag71
(g92
g73
NtRp3699
(dp3700
g76
(dp3701
g103
g104
ssg85
g3690
sg78
(lp3702
S':'
asbag71
(g92
g73
NtRp3703
(dp3704
g76
(dp3705
sg85
g3690
sg78
(lp3706
g71
(g72
g73
NtRp3707
(dp3708
g76
(dp3709
g84
I5
ssg85
g3703
sg78
(lp3710
g71
(g80
g73
NtRp3711
(dp3712
g76
(dp3713
g84
I4
ssg85
Nsg78
(lp3714
g71
(g87
g73
NtRp3715
(dp3716
g76
(dp3717
sg85
g3711
sg78
(lp3718
g71
(g92
g73
NtRp3719
(dp3720
g76
(dp3721
sg85
g3715
sg78
(lp3722
g71
(g72
g73
NtRp3723
(dp3724
g76
(dp3725
g84
I4
ssg85
g3719
sg78
(lp3726
S'*'
asbasbasbasbasbasbasbag71
(g87
g73
NtRp3727
(dp3728
g76
(dp3729
sg85
g3359
sg78
(lp3730
g71
(g92
g73
NtRp3731
(dp3732
g76
(dp3733
g96
g97
ssg85
g3727
sg78
(lp3734
S'headers'
p3735
asbag71
(g92
g73
NtRp3736
(dp3737
g76
(dp3738
g103
g104
ssg85
g3727
sg78
(lp3739
S':'
asbag71
(g92
g73
NtRp3740
(dp3741
g76
(dp3742
sg85
g3727
sg78
(lp3743
g71
(g72
g73
NtRp3744
(dp3745
g76
(dp3746
g84
I5
ssg85
g3740
sg78
(lp3747
g71
(g80
g73
NtRp3748
(dp3749
g76
(dp3750
g84
I4
ssg85
Nsg78
(lp3751
g71
(g87
g73
NtRp3752
(dp3753
g76
(dp3754
sg85
g3748
sg78
(lp3755
g71
(g92
g73
NtRp3756
(dp3757
g76
(dp3758
g96
g97
ssg85
g3752
sg78
(lp3759
S'Cache-Control'
p3760
asbag71
(g92
g73
NtRp3761
(dp3762
g76
(dp3763
g103
g104
ssg85
g3752
sg78
(lp3764
S':'
asbag71
(g92
g73
NtRp3765
(dp3766
g76
(dp3767
sg85
g3752
sg78
(lp3768
g71
(g72
g73
NtRp3769
(dp3770
g76
(dp3771
g84
I4
ssg85
g3765
sg78
(lp3772
S'no-store, no-cache, must-revalidate, post-check=0, pre-check=0'
p3773
asbasbasbag71
(g87
g73
NtRp3774
(dp3775
g76
(dp3776
sg85
g3748
sg78
(lp3777
g71
(g92
g73
NtRp3778
(dp3779
g76
(dp3780
g96
g97
ssg85
g3774
sg78
(lp3781
S'Content-Type'
p3782
asbag71
(g92
g73
NtRp3783
(dp3784
g76
(dp3785
g103
g104
ssg85
g3774
sg78
(lp3786
S':'
asbag71
(g92
g73
NtRp3787
(dp3788
g76
(dp3789
sg85
g3774
sg78
(lp3790
g71
(g72
g73
NtRp3791
(dp3792
g76
(dp3793
g84
I4
ssg85
g3787
sg78
(lp3794
S'text/html; charset=utf-8'
p3795
asbasbasbag71
(g87
g73
NtRp3796
(dp3797
g76
(dp3798
sg85
g3748
sg78
(lp3799
g71
(g92
g73
NtRp3800
(dp3801
g76
(dp3802
g96
g97
ssg85
g3796
sg78
(lp3803
S'Expires'
p3804
asbag71
(g92
g73
NtRp3805
(dp3806
g76
(dp3807
g103
g104
ssg85
g3796
sg78
(lp3808
S':'
asbag71
(g92
g73
NtRp3809
(dp3810
g76
(dp3811
sg85
g3796
sg78
(lp3812
g71
(g72
g73
NtRp3813
(dp3814
g76
(dp3815
g84
I4
ssg85
g3809
sg78
(lp3816
S'Sun, 15 Jul 2012 03:51:17 GMT'
p3817
asbasbasbag71
(g87
g73
NtRp3818
(dp3819
g76
(dp3820
sg85
g3748
sg78
(lp3821
g71
(g92
g73
NtRp3822
(dp3823
g76
(dp3824
g96
g97
ssg85
g3818
sg78
(lp3825
S'Pragma'
p3826
asbag71
(g92
g73
NtRp3827
(dp3828
g76
(dp3829
g103
g104
ssg85
g3818
sg78
(lp3830
S':'
asbag71
(g92
g73
NtRp3831
(dp3832
g76
(dp3833
sg85
g3818
sg78
(lp3834
g71
(g72
g73
NtRp3835
(dp3836
g76
(dp3837
g84
I4
ssg85
g3831
sg78
(lp3838
S'no-cache'
p3839
asbasbasbag71
(g87
g73
NtRp3840
(dp3841
g76
(dp3842
sg85
g3748
sg78
(lp3843
g71
(g92
g73
NtRp3844
(dp3845
g76
(dp3846
g96
g97
ssg85
g3840
sg78
(lp3847
S'X-Powered-By'
p3848
asbag71
(g92
g73
NtRp3849
(dp3850
g76
(dp3851
g103
g104
ssg85
g3840
sg78
(lp3852
S':'
asbag71
(g92
g73
NtRp3853
(dp3854
g76
(dp3855
sg85
g3840
sg78
(lp3856
g71
(g72
g73
NtRp3857
(dp3858
g76
(dp3859
g84
I4
ssg85
g3853
sg78
(lp3860
S'web2py'
p3861
asbasbasbasbasbasbasbag71
(g87
g73
NtRp3862
(dp3863
g76
(dp3864
sg85
g3359
sg78
(lp3865
g71
(g92
g73
NtRp3866
(dp3867
g76
(dp3868
g96
g97
ssg85
g3862
sg78
(lp3869
S'menu'
p3870
asbag71
(g92
g73
NtRp3871
(dp3872
g76
(dp3873
g103
g104
ssg85
g3862
sg78
(lp3874
S':'
asbag71
(g92
g73
NtRp3875
(dp3876
g76
(dp3877
sg85
g3862
sg78
(lp3878
g71
(g72
g73
NtRp3879
(dp3880
g76
(dp3881
g84
I5
ssg85
g3875
sg78
(lp3882
g71
(g80
g73
NtRp3883
(dp3884
g76
(dp3885
g84
I4
ssg85
Nsg78
(lp3886
sbasbasbasbag71
(g87
g73
NtRp3887
(dp3888
g76
(dp3889
sg85
g3359
sg78
(lp3890
g71
(g92
g73
NtRp3891
(dp3892
g76
(dp3893
g96
g97
ssg85
g3887
sg78
(lp3894
S'meta'
p3895
asbag71
(g92
g73
NtRp3896
(dp3897
g76
(dp3898
g103
g104
ssg85
g3887
sg78
(lp3899
S':'
asbag71
(g92
g73
NtRp3900
(dp3901
g76
(dp3902
sg85
g3887
sg78
(lp3903
g71
(g72
g73
NtRp3904
(dp3905
g76
(dp3906
g84
I5
ssg85
g3900
sg78
(lp3907
g71
(g80
g73
NtRp3908
(dp3909
g76
(dp3910
g84
I4
ssg85
Nsg78
(lp3911
sbasbasbasbag71
(g87
g73
NtRp3912
(dp3913
g76
(dp3914
sg85
g3359
sg78
(lp3915
g71
(g92
g73
NtRp3916
(dp3917
g76
(dp3918
g96
g97
ssg85
g3912
sg78
(lp3919
S'postprocessing'
p3920
asbag71
(g92
g73
NtRp3921
(dp3922
g76
(dp3923
g103
g104
ssg85
g3912
sg78
(lp3924
S':'
asbag71
(g92
g73
NtRp3925
(dp3926
g76
(dp3927
sg85
g3912
sg78
(lp3928
g71
(g72
g73
NtRp3929
(dp3930
g76
(dp3931
g84
I5
ssg85
g3925
sg78
(lp3932
g71
(g80
g73
NtRp3933
(dp3934
g76
(dp3935
g84
I4
ssg85
Nsg78
(lp3936
sbasbasbasbag71
(g87
g73
NtRp3937
(dp3938
g76
(dp3939
sg85
g3359
sg78
(lp3940
g71
(g92
g73
NtRp3941
(dp3942
g76
(dp3943
g96
g97
ssg85
g3937
sg78
(lp3944
S'session_file'
p3945
asbag71
(g92
g73
NtRp3946
(dp3947
g76
(dp3948
g103
g104
ssg85
g3937
sg78
(lp3949
S':'
asbag71
(g92
g73
NtRp3950
(dp3951
g76
(dp3952
sg85
g3937
sg78
(lp3953
g71
(g72
g73
NtRp3954
(dp3955
g76
(dp3956
g84
I5
ssg85
g3950
sg78
(lp3957
S"<open file '/home/goshawk/web2py/applications/milo/sessions/127.0.0.1-6726e75c-c87c-483a-a678-8d6ddb4c0bea', mode 'rb+' at 0x7fb5a43296f0>"
p3958
asbasbasbag71
(g87
g73
NtRp3959
(dp3960
g76
(dp3961
sg85
g3359
sg78
(lp3962
g71
(g92
g73
NtRp3963
(dp3964
g76
(dp3965
g96
g97
ssg85
g3959
sg78
(lp3966
S'session_filename'
p3967
asbag71
(g92
g73
NtRp3968
(dp3969
g76
(dp3970
g103
g104
ssg85
g3959
sg78
(lp3971
S':'
asbag71
(g92
g73
NtRp3972
(dp3973
g76
(dp3974
sg85
g3959
sg78
(lp3975
g71
(g72
g73
NtRp3976
(dp3977
g76
(dp3978
g84
I5
ssg85
g3972
sg78
(lp3979
S'/home/goshawk/web2py/applications/milo/sessions/127.0.0.1-6726e75c-c87c-483a-a678-8d6ddb4c0bea'
p3980
asbasbasbag71
(g87
g73
NtRp3981
(dp3982
g76
(dp3983
sg85
g3359
sg78
(lp3984
g71
(g92
g73
NtRp3985
(dp3986
g76
(dp3987
g96
g97
ssg85
g3981
sg78
(lp3988
S'session_id'
p3989
asbag71
(g92
g73
NtRp3990
(dp3991
g76
(dp3992
g103
g104
ssg85
g3981
sg78
(lp3993
S':'
asbag71
(g92
g73
NtRp3994
(dp3995
g76
(dp3996
sg85
g3981
sg78
(lp3997
g71
(g72
g73
NtRp3998
(dp3999
g76
(dp4000
g84
I5
ssg85
g3994
sg78
(lp4001
S'127.0.0.1-6726e75c-c87c-483a-a678-8d6ddb4c0bea'
p4002
asbasbasbag71
(g87
g73
NtRp4003
(dp4004
g76
(dp4005
sg85
g3359
sg78
(lp4006
g71
(g92
g73
NtRp4007
(dp4008
g76
(dp4009
g96
g97
ssg85
g4003
sg78
(lp4010
S'session_id_name'
p4011
asbag71
(g92
g73
NtRp4012
(dp4013
g76
(dp4014
g103
g104
ssg85
g4003
sg78
(lp4015
S':'
asbag71
(g92
g73
NtRp4016
(dp4017
g76
(dp4018
sg85
g4003
sg78
(lp4019
g71
(g72
g73
NtRp4020
(dp4021
g76
(dp4022
g84
I5
ssg85
g4016
sg78
(lp4023
g3416
asbasbasbag71
(g87
g73
NtRp4024
(dp4025
g76
(dp4026
sg85
g3359
sg78
(lp4027
g71
(g92
g73
NtRp4028
(dp4029
g76
(dp4030
g96
g97
ssg85
g4024
sg78
(lp4031
S'session_locked'
p4032
asbag71
(g92
g73
NtRp4033
(dp4034
g76
(dp4035
g103
g104
ssg85
g4024
sg78
(lp4036
S':'
asbag71
(g92
g73
NtRp4037
(dp4038
g76
(dp4039
sg85
g4024
sg78
(lp4040
g71
(g72
g73
NtRp4041
(dp4042
g76
(dp4043
g84
I5
ssg85
g4037
sg78
(lp4044
g114
asbasbasbag71
(g87
g73
NtRp4045
(dp4046
g76
(dp4047
sg85
g3359
sg78
(lp4048
g71
(g92
g73
NtRp4049
(dp4050
g76
(dp4051
g96
g97
ssg85
g4045
sg78
(lp4052
S'session_new'
p4053
asbag71
(g92
g73
NtRp4054
(dp4055
g76
(dp4056
g103
g104
ssg85
g4045
sg78
(lp4057
S':'
asbag71
(g92
g73
NtRp4058
(dp4059
g76
(dp4060
sg85
g4045
sg78
(lp4061
g71
(g72
g73
NtRp4062
(dp4063
g76
(dp4064
g84
I5
ssg85
g4058
sg78
(lp4065
g49
asbasbasbag71
(g87
g73
NtRp4066
(dp4067
g76
(dp4068
sg85
g3359
sg78
(lp4069
g71
(g92
g73
NtRp4070
(dp4071
g76
(dp4072
g96
g97
ssg85
g4066
sg78
(lp4073
S'status'
p4074
asbag71
(g92
g73
NtRp4075
(dp4076
g76
(dp4077
g103
g104
ssg85
g4066
sg78
(lp4078
S':'
asbag71
(g92
g73
NtRp4079
(dp4080
g76
(dp4081
sg85
g4066
sg78
(lp4082
g71
(g72
g73
NtRp4083
(dp4084
g76
(dp4085
g84
I5
ssg85
g4079
sg78
(lp4086
S'200'
p4087
asbasbasbag71
(g87
g73
NtRp4088
(dp4089
g76
(dp4090
sg85
g3359
sg78
(lp4091
g71
(g92
g73
NtRp4092
(dp4093
g76
(dp4094
g96
g97
ssg85
g4088
sg78
(lp4095
g2268
asbag71
(g92
g73
NtRp4096
(dp4097
g76
(dp4098
g103
g104
ssg85
g4088
sg78
(lp4099
S':'
asbag71
(g92
g73
NtRp4100
(dp4101
g76
(dp4102
sg85
g4088
sg78
(lp4103
g71
(g72
g73
NtRp4104
(dp4105
g76
(dp4106
g84
I5
ssg85
g4100
sg78
(lp4107
g2281
asbasbasbag71
(g87
g73
NtRp4108
(dp4109
g76
(dp4110
sg85
g3359
sg78
(lp4111
g71
(g92
g73
NtRp4112
(dp4113
g76
(dp4114
g96
g97
ssg85
g4108
sg78
(lp4115
S'view'
p4116
asbag71
(g92
g73
NtRp4117
(dp4118
g76
(dp4119
g103
g104
ssg85
g4108
sg78
(lp4120
S':'
asbag71
(g92
g73
NtRp4121
(dp4122
g76
(dp4123
sg85
g4108
sg78
(lp4124
g71
(g72
g73
NtRp4125
(dp4126
g76
(dp4127
g84
I5
ssg85
g4121
sg78
(lp4128
S'admin/info_algorithm.html'
p4129
asbasbasbasbasbsS'locals'
p4130
(dp4131
S'database'
p4132
S"'imdb'"
p4133
sS'items'
p4134
S"[('dbname', 'imdb'), ('user', 'imdb'), ('password', 'imdbsecret'), ('host', 'localhost')]"
p4135
sS'k'
S"'host'"
p4136
sS'kwargs'
p4137
g3112
sS'connection_factory'
p4138
S'None'
p4139
sS'dsn'
p4140
S"'dbname=imdb user=imdb password=imdbsecret host=localhost'"
p4141
sS'host'
p4142
S"'localhost'"
p4143
sS'user'
p4144
S"'imdb'"
p4145
sS'v'
S"'localhost'"
p4146
sS'async'
p4147
g49
sS'password'
p4148
S"'imdbsecret'"
p4149
sS'port'
p4150
S'None'
p4151
sssS'traceback'
p4152
S'Traceback (most recent call last):\n  File "/home/goshawk/web2py/gluon/restricted.py", line 205, in restricted\n    exec ccode in environment\n  File "/home/goshawk/web2py/applications/milo/models/db.py", line 86, in <module>\n    im = imdb.IMDb(\'sql\', uri=imdb_connection_str)\n  File "/usr/local/lib/python2.7/dist-packages/imdb/__init__.py", line 199, in IMDb\n    return IMDbSqlAccessSystem(*arguments, **keywords)\n  File "/usr/local/lib/python2.7/dist-packages/imdb/parser/sql/__init__.py", line 606, in __init__\n    for kt in KindType.select():\n  File "/usr/local/lib/python2.7/dist-packages/imdb/parser/sql/alchemyadapter.py", line 283, in select\n    result = self._ta_select(conditions).execute()\n  File "/usr/local/lib/python2.7/dist-packages/SQLAlchemy-0.7.0-py2.7-linux-x86_64.egg/sqlalchemy/sql/expression.py", line 2730, in execute\n    return e._execute_clauseelement(self, multiparams, params)\n  File "/usr/local/lib/python2.7/dist-packages/SQLAlchemy-0.7.0-py2.7-linux-x86_64.egg/sqlalchemy/engine/base.py", line 2063, in _execute_clauseelement\n    connection = self.contextual_connect(close_with_result=True)\n  File "/usr/local/lib/python2.7/dist-packages/SQLAlchemy-0.7.0-py2.7-linux-x86_64.egg/sqlalchemy/engine/base.py", line 2098, in contextual_connect\n    self.pool.connect(),\n  File "/usr/local/lib/python2.7/dist-packages/SQLAlchemy-0.7.0-py2.7-linux-x86_64.egg/sqlalchemy/pool.py", line 209, in connect\n    return _ConnectionFairy(self).checkout()\n  File "/usr/local/lib/python2.7/dist-packages/SQLAlchemy-0.7.0-py2.7-linux-x86_64.egg/sqlalchemy/pool.py", line 370, in __init__\n    rec = self._connection_record = pool._do_get()\n  File "/usr/local/lib/python2.7/dist-packages/SQLAlchemy-0.7.0-py2.7-linux-x86_64.egg/sqlalchemy/pool.py", line 696, in _do_get\n    con = self._create_connection()\n  File "/usr/local/lib/python2.7/dist-packages/SQLAlchemy-0.7.0-py2.7-linux-x86_64.egg/sqlalchemy/pool.py", line 174, in _create_connection\n    return _ConnectionRecord(self)\n  File "/usr/local/lib/python2.7/dist-packages/SQLAlchemy-0.7.0-py2.7-linux-x86_64.egg/sqlalchemy/pool.py", line 255, in __init__\n    self.connection = self.__connect()\n  File "/usr/local/lib/python2.7/dist-packages/SQLAlchemy-0.7.0-py2.7-linux-x86_64.egg/sqlalchemy/pool.py", line 315, in __connect\n    connection = self.__pool._creator()\n  File "/usr/local/lib/python2.7/dist-packages/SQLAlchemy-0.7.0-py2.7-linux-x86_64.egg/sqlalchemy/engine/strategies.py", line 80, in connect\n    return dialect.connect(*cargs, **cparams)\n  File "/usr/local/lib/python2.7/dist-packages/SQLAlchemy-0.7.0-py2.7-linux-x86_64.egg/sqlalchemy/engine/default.py", line 275, in connect\n    return self.dbapi.connect(*cargs, **cparams)\n  File "/usr/lib/python2.7/dist-packages/psycopg2/__init__.py", line 179, in connect\n    connection_factory=connection_factory, async=async)\nOperationalError: (OperationalError) FATAL:  remaining connection slots are reserved for non-replication superuser connections\n None None\n'
p4153
s.