(dp1
S'output'
p2
S"<type 'exceptions.ValueError'> invalid literal for int() with base 10: 'milo'"
p3
sS'layer'
p4
S'/home/goshawk/web2py/applications/milo/controllers/default.py'
p5
sS'code'
p6
S'# -*- coding: utf-8 -*-\n# this file is released under public domain and you can use without limitations\n\n#########################################################################\n## This is a samples controller\n## - index is the default action of any application\n## - user is required for authentication and authorization\n## - download is for downloading files uploaded in the db (does streaming)\n## - call exposes all registered services (none by default)\n#########################################################################\n\nITEMS_PER_PAGE = 12\n\ndef index():\n    page = 0 if not request.args(0) else int(request.args(0))\n    query = db(movies_with_ratings&movies_with_titles&with_poster)\n    list_movies = query.select(limitby=(page*ITEMS_PER_PAGE,page*ITEMS_PER_PAGE+ITEMS_PER_PAGE)).as_list()\n    max_items = query.count() \n    return dict(list_movies = list_movies, slider_movies = list_movies, page = page, max_items=max_items, items_per_page=ITEMS_PER_PAGE)\n\ndef user():\n    """\n    exposes:\n    http://..../[app]/default/user/login\n    http://..../[app]/default/user/logout\n    http://..../[app]/default/user/register\n    http://..../[app]/default/user/profile\n    http://..../[app]/default/user/retrieve_password\n    http://..../[app]/default/user/change_password\n    use @auth.requires_login()\n        @auth.requires_membership(\'group name\')\n        @auth.requires_permission(\'read\',\'table name\',record_id)\n    to decorate functions that need access control\n    """\n    return dict(form=auth())\n\n\ndef download():\n    """\n    allows downloading of uploaded files\n    http://..../[app]/default/download/[filename]\n    """\n    return response.download(request,db)\n\n\ndef call():\n    """\n    exposes services. for example:\n    http://..../[app]/default/call/jsonrpc\n    decorate with @services.jsonrpc the functions to expose\n    supports xml, json, xmlrpc, jsonrpc, amfrpc, rss, csv\n    """\n    return service()\n\n\n@auth.requires_signature()\ndef data():\n    """\n    http://..../[app]/default/data/tables\n    http://..../[app]/default/data/create/[table]\n    http://..../[app]/default/data/read/[table]/[id]\n    http://..../[app]/default/data/update/[table]/[id]\n    http://..../[app]/default/data/delete/[table]/[id]\n    http://..../[app]/default/data/select/[table]\n    http://..../[app]/default/data/search/[table]\n    but URLs must be signed, i.e. linked with\n      A(\'table\',_href=URL(\'data/tables\',user_signature=True))\n    or with the signed load operator\n      LOAD(\'default\',\'data.load\',args=\'tables\',ajax=True,user_signature=True)\n    """\n    return dict(form=crud())\n\n\nresponse._vars=response._caller(index)\n'
p7
sS'snapshot'
p8
(dp9
S'exception'
p10
(dp11
S'__hash__'
p12
S"<method-wrapper '__hash__' of exceptions.ValueError object>"
p13
sS'__setattr__'
p14
S"<method-wrapper '__setattr__' of exceptions.ValueError object>"
p15
sS'__reduce_ex__'
p16
S'<built-in method __reduce_ex__ of exceptions.ValueError object>'
p17
sS'__getslice__'
p18
S"<method-wrapper '__getslice__' of exceptions.ValueError object>"
p19
sS'__getitem__'
p20
S"<method-wrapper '__getitem__' of exceptions.ValueError object>"
p21
sS'__setstate__'
p22
S'<built-in method __setstate__ of exceptions.ValueError object>'
p23
sS'args'
p24
S'("invalid literal for int() with base 10: \'milo\'",)'
p25
sS'__reduce__'
p26
S'<built-in method __reduce__ of exceptions.ValueError object>'
p27
sS'__str__'
p28
S"<method-wrapper '__str__' of exceptions.ValueError object>"
p29
sS'__format__'
p30
S'<built-in method __format__ of exceptions.ValueError object>'
p31
sS'__getattribute__'
p32
S"<method-wrapper '__getattribute__' of exceptions.ValueError object>"
p33
sS'__class__'
p34
S"<type 'exceptions.ValueError'>"
p35
sS'__unicode__'
p36
S'<built-in method __unicode__ of exceptions.ValueError object>'
p37
sS'__delattr__'
p38
S"<method-wrapper '__delattr__' of exceptions.ValueError object>"
p39
sS'__subclasshook__'
p40
S'<built-in method __subclasshook__ of type object>'
p41
sS'__repr__'
p42
S"<method-wrapper '__repr__' of exceptions.ValueError object>"
p43
sS'__dict__'
p44
S'{}'
p45
sS'__sizeof__'
p46
S'<built-in method __sizeof__ of exceptions.ValueError object>'
p47
sS'__doc__'
p48
S"'Inappropriate argument value (of correct type).'"
p49
sS'__init__'
p50
S"<method-wrapper '__init__' of exceptions.ValueError object>"
p51
sS'__new__'
p52
S'<built-in method __new__ of type object>'
p53
ssS'evalue'
p54
S"invalid literal for int() with base 10: 'milo'"
p55
sS'request'
p56
ccopy_reg
_reconstructor
p57
(cgluon.html
BEAUTIFY
p58
c__builtin__
object
p59
NtRp60
(dp61
S'attributes'
p62
(dp63
sS'components'
p64
(lp65
g57
(cgluon.html
TABLE
p66
g59
NtRp67
(dp68
g62
(dp69
S'level'
p70
I5
ssS'parent'
p71
Nsg64
(lp72
g57
(cgluon.html
TR
p73
g59
NtRp74
(dp75
g62
(dp76
sg71
g67
sg64
(lp77
g57
(cgluon.html
TD
p78
g59
NtRp79
(dp80
g62
(dp81
S'_style'
p82
S'font-weight:bold;vertical-align:top'
p83
ssg71
g74
sg64
(lp84
S'ajax'
p85
asbag57
(g78
g59
NtRp86
(dp87
g62
(dp88
S'_valign'
p89
S'top'
p90
ssg71
g74
sg64
(lp91
S':'
asbag57
(g78
g59
NtRp92
(dp93
g62
(dp94
sg71
g74
sg64
(lp95
g57
(g58
g59
NtRp96
(dp97
g62
(dp98
g70
I5
ssg71
g92
sg64
(lp99
S'False'
p100
asbasbasbag57
(g73
g59
NtRp101
(dp102
g62
(dp103
sg71
g67
sg64
(lp104
g57
(g78
g59
NtRp105
(dp106
g62
(dp107
g82
g83
ssg71
g101
sg64
(lp108
S'application'
p109
asbag57
(g78
g59
NtRp110
(dp111
g62
(dp112
g89
g90
ssg71
g101
sg64
(lp113
S':'
asbag57
(g78
g59
NtRp114
(dp115
g62
(dp116
sg71
g101
sg64
(lp117
g57
(g58
g59
NtRp118
(dp119
g62
(dp120
g70
I5
ssg71
g114
sg64
(lp121
S'milo'
p122
asbasbasbag57
(g73
g59
NtRp123
(dp124
g62
(dp125
sg71
g67
sg64
(lp126
g57
(g78
g59
NtRp127
(dp128
g62
(dp129
g82
g83
ssg71
g123
sg64
(lp130
g24
asbag57
(g78
g59
NtRp131
(dp132
g62
(dp133
g89
g90
ssg71
g123
sg64
(lp134
S':'
asbag57
(g78
g59
NtRp135
(dp136
g62
(dp137
sg71
g123
sg64
(lp138
g57
(g58
g59
NtRp139
(dp140
g62
(dp141
g70
I5
ssg71
g135
sg64
(lp142
g57
(g66
g59
NtRp143
(dp144
g62
(dp145
g70
I4
ssg71
Nsg64
(lp146
g57
(g73
g59
NtRp147
(dp148
g62
(dp149
sg71
g143
sg64
(lp150
g57
(g78
g59
NtRp151
(dp152
g62
(dp153
sg71
g147
sg64
(lp154
g57
(g58
g59
NtRp155
(dp156
g62
(dp157
g70
I4
ssg71
g151
sg64
(lp158
S'milo'
p159
asbasbasbag57
(g73
g59
NtRp160
(dp161
g62
(dp162
sg71
g143
sg64
(lp163
g57
(g78
g59
NtRp164
(dp165
g62
(dp166
sg71
g160
sg64
(lp167
g57
(g58
g59
NtRp168
(dp169
g62
(dp170
g70
I4
ssg71
g164
sg64
(lp171
S'static'
p172
asbasbasbag57
(g73
g59
NtRp173
(dp174
g62
(dp175
sg71
g143
sg64
(lp176
g57
(g78
g59
NtRp177
(dp178
g62
(dp179
sg71
g173
sg64
(lp180
g57
(g58
g59
NtRp181
(dp182
g62
(dp183
g70
I4
ssg71
g177
sg64
(lp184
S'images'
p185
asbasbasbag57
(g73
g59
NtRp186
(dp187
g62
(dp188
sg71
g143
sg64
(lp189
g57
(g78
g59
NtRp190
(dp191
g62
(dp192
sg71
g186
sg64
(lp193
g57
(g58
g59
NtRp194
(dp195
g62
(dp196
g70
I4
ssg71
g190
sg64
(lp197
S'movies'
p198
asbasbasbag57
(g73
g59
NtRp199
(dp200
g62
(dp201
sg71
g143
sg64
(lp202
g57
(g78
g59
NtRp203
(dp204
g62
(dp205
sg71
g199
sg64
(lp206
g57
(g58
g59
NtRp207
(dp208
g62
(dp209
g70
I4
ssg71
g203
sg64
(lp210
S'posters'
p211
asbasbasbag57
(g73
g59
NtRp212
(dp213
g62
(dp214
sg71
g143
sg64
(lp215
g57
(g78
g59
NtRp216
(dp217
g62
(dp218
sg71
g212
sg64
(lp219
g57
(g58
g59
NtRp220
(dp221
g62
(dp222
g70
I4
ssg71
g216
sg64
(lp223
S'111772.jpg'
p224
asbasbasbasbasbasbasbag57
(g73
g59
NtRp225
(dp226
g62
(dp227
sg71
g67
sg64
(lp228
g57
(g78
g59
NtRp229
(dp230
g62
(dp231
g82
g83
ssg71
g225
sg64
(lp232
S'body'
p233
asbag57
(g78
g59
NtRp234
(dp235
g62
(dp236
g89
g90
ssg71
g225
sg64
(lp237
S':'
asbag57
(g78
g59
NtRp238
(dp239
g62
(dp240
sg71
g225
sg64
(lp241
g57
(g58
g59
NtRp242
(dp243
g62
(dp244
g70
I5
ssg71
g238
sg64
(lp245
S'<cStringIO.StringO object at 0x7fb4804c8ce0>'
p246
asbasbasbag57
(g73
g59
NtRp247
(dp248
g62
(dp249
sg71
g67
sg64
(lp250
g57
(g78
g59
NtRp251
(dp252
g62
(dp253
g82
g83
ssg71
g247
sg64
(lp254
S'client'
p255
asbag57
(g78
g59
NtRp256
(dp257
g62
(dp258
g89
g90
ssg71
g247
sg64
(lp259
S':'
asbag57
(g78
g59
NtRp260
(dp261
g62
(dp262
sg71
g247
sg64
(lp263
g57
(g58
g59
NtRp264
(dp265
g62
(dp266
g70
I5
ssg71
g260
sg64
(lp267
S'127.0.0.1'
p268
asbasbasbag57
(g73
g59
NtRp269
(dp270
g62
(dp271
sg71
g67
sg64
(lp272
g57
(g78
g59
NtRp273
(dp274
g62
(dp275
g82
g83
ssg71
g269
sg64
(lp276
S'controller'
p277
asbag57
(g78
g59
NtRp278
(dp279
g62
(dp280
g89
g90
ssg71
g269
sg64
(lp281
S':'
asbag57
(g78
g59
NtRp282
(dp283
g62
(dp284
sg71
g269
sg64
(lp285
g57
(g58
g59
NtRp286
(dp287
g62
(dp288
g70
I5
ssg71
g282
sg64
(lp289
S'default'
p290
asbasbasbag57
(g73
g59
NtRp291
(dp292
g62
(dp293
sg71
g67
sg64
(lp294
g57
(g78
g59
NtRp295
(dp296
g62
(dp297
g82
g83
ssg71
g291
sg64
(lp298
S'cookies'
p299
asbag57
(g78
g59
NtRp300
(dp301
g62
(dp302
g89
g90
ssg71
g291
sg64
(lp303
S':'
asbag57
(g78
g59
NtRp304
(dp305
g62
(dp306
sg71
g291
sg64
(lp307
g57
(g58
g59
NtRp308
(dp309
g62
(dp310
g70
I5
ssg71
g304
sg64
(lp311
g57
(g66
g59
NtRp312
(dp313
g62
(dp314
g70
I4
ssg71
Nsg64
(lp315
g57
(g73
g59
NtRp316
(dp317
g62
(dp318
sg71
g312
sg64
(lp319
g57
(g78
g59
NtRp320
(dp321
g62
(dp322
g82
g83
ssg71
g316
sg64
(lp323
S'session_id_admin'
p324
asbag57
(g78
g59
NtRp325
(dp326
g62
(dp327
g89
g90
ssg71
g316
sg64
(lp328
S':'
asbag57
(g78
g59
NtRp329
(dp330
g62
(dp331
sg71
g316
sg64
(lp332
g57
(g58
g59
NtRp333
(dp334
g62
(dp335
g70
I4
ssg71
g329
sg64
(lp336
g57
(g66
g59
NtRp337
(dp338
g62
(dp339
g70
I3
ssg71
Nsg64
(lp340
g57
(g73
g59
NtRp341
(dp342
g62
(dp343
sg71
g337
sg64
(lp344
g57
(g78
g59
NtRp345
(dp346
g62
(dp347
g82
g83
ssg71
g341
sg64
(lp348
S'comment'
p349
asbag57
(g78
g59
NtRp350
(dp351
g62
(dp352
g89
g90
ssg71
g341
sg64
(lp353
S':'
asbag57
(g78
g59
NtRp354
(dp355
g62
(dp356
sg71
g341
sg64
(lp357
g57
(g58
g59
NtRp358
(dp359
g62
(dp360
g70
I3
ssg71
g354
sg64
(lp361
S''
asbasbasbag57
(g73
g59
NtRp362
(dp363
g62
(dp364
sg71
g337
sg64
(lp365
g57
(g78
g59
NtRp366
(dp367
g62
(dp368
g82
g83
ssg71
g362
sg64
(lp369
S'domain'
p370
asbag57
(g78
g59
NtRp371
(dp372
g62
(dp373
g89
g90
ssg71
g362
sg64
(lp374
S':'
asbag57
(g78
g59
NtRp375
(dp376
g62
(dp377
sg71
g362
sg64
(lp378
g57
(g58
g59
NtRp379
(dp380
g62
(dp381
g70
I3
ssg71
g375
sg64
(lp382
S''
asbasbasbag57
(g73
g59
NtRp383
(dp384
g62
(dp385
sg71
g337
sg64
(lp386
g57
(g78
g59
NtRp387
(dp388
g62
(dp389
g82
g83
ssg71
g383
sg64
(lp390
S'expires'
p391
asbag57
(g78
g59
NtRp392
(dp393
g62
(dp394
g89
g90
ssg71
g383
sg64
(lp395
S':'
asbag57
(g78
g59
NtRp396
(dp397
g62
(dp398
sg71
g383
sg64
(lp399
g57
(g58
g59
NtRp400
(dp401
g62
(dp402
g70
I3
ssg71
g396
sg64
(lp403
S''
asbasbasbag57
(g73
g59
NtRp404
(dp405
g62
(dp406
sg71
g337
sg64
(lp407
g57
(g78
g59
NtRp408
(dp409
g62
(dp410
g82
g83
ssg71
g404
sg64
(lp411
S'httponly'
p412
asbag57
(g78
g59
NtRp413
(dp414
g62
(dp415
g89
g90
ssg71
g404
sg64
(lp416
S':'
asbag57
(g78
g59
NtRp417
(dp418
g62
(dp419
sg71
g404
sg64
(lp420
g57
(g58
g59
NtRp421
(dp422
g62
(dp423
g70
I3
ssg71
g417
sg64
(lp424
S''
asbasbasbag57
(g73
g59
NtRp425
(dp426
g62
(dp427
sg71
g337
sg64
(lp428
g57
(g78
g59
NtRp429
(dp430
g62
(dp431
g82
g83
ssg71
g425
sg64
(lp432
S'max-age'
p433
asbag57
(g78
g59
NtRp434
(dp435
g62
(dp436
g89
g90
ssg71
g425
sg64
(lp437
S':'
asbag57
(g78
g59
NtRp438
(dp439
g62
(dp440
sg71
g425
sg64
(lp441
g57
(g58
g59
NtRp442
(dp443
g62
(dp444
g70
I3
ssg71
g438
sg64
(lp445
S''
asbasbasbag57
(g73
g59
NtRp446
(dp447
g62
(dp448
sg71
g337
sg64
(lp449
g57
(g78
g59
NtRp450
(dp451
g62
(dp452
g82
g83
ssg71
g446
sg64
(lp453
S'path'
p454
asbag57
(g78
g59
NtRp455
(dp456
g62
(dp457
g89
g90
ssg71
g446
sg64
(lp458
S':'
asbag57
(g78
g59
NtRp459
(dp460
g62
(dp461
sg71
g446
sg64
(lp462
g57
(g58
g59
NtRp463
(dp464
g62
(dp465
g70
I3
ssg71
g459
sg64
(lp466
S''
asbasbasbag57
(g73
g59
NtRp467
(dp468
g62
(dp469
sg71
g337
sg64
(lp470
g57
(g78
g59
NtRp471
(dp472
g62
(dp473
g82
g83
ssg71
g467
sg64
(lp474
S'secure'
p475
asbag57
(g78
g59
NtRp476
(dp477
g62
(dp478
g89
g90
ssg71
g467
sg64
(lp479
S':'
asbag57
(g78
g59
NtRp480
(dp481
g62
(dp482
sg71
g467
sg64
(lp483
g57
(g58
g59
NtRp484
(dp485
g62
(dp486
g70
I3
ssg71
g480
sg64
(lp487
S''
asbasbasbag57
(g73
g59
NtRp488
(dp489
g62
(dp490
sg71
g337
sg64
(lp491
g57
(g78
g59
NtRp492
(dp493
g62
(dp494
g82
g83
ssg71
g488
sg64
(lp495
S'version'
p496
asbag57
(g78
g59
NtRp497
(dp498
g62
(dp499
g89
g90
ssg71
g488
sg64
(lp500
S':'
asbag57
(g78
g59
NtRp501
(dp502
g62
(dp503
sg71
g488
sg64
(lp504
g57
(g58
g59
NtRp505
(dp506
g62
(dp507
g70
I3
ssg71
g501
sg64
(lp508
S''
asbasbasbasbasbasbasbag57
(g73
g59
NtRp509
(dp510
g62
(dp511
sg71
g312
sg64
(lp512
g57
(g78
g59
NtRp513
(dp514
g62
(dp515
g82
g83
ssg71
g509
sg64
(lp516
S'session_id_milo'
p517
asbag57
(g78
g59
NtRp518
(dp519
g62
(dp520
g89
g90
ssg71
g509
sg64
(lp521
S':'
asbag57
(g78
g59
NtRp522
(dp523
g62
(dp524
sg71
g509
sg64
(lp525
g57
(g58
g59
NtRp526
(dp527
g62
(dp528
g70
I4
ssg71
g522
sg64
(lp529
g57
(g66
g59
NtRp530
(dp531
g62
(dp532
g70
I3
ssg71
Nsg64
(lp533
g57
(g73
g59
NtRp534
(dp535
g62
(dp536
sg71
g530
sg64
(lp537
g57
(g78
g59
NtRp538
(dp539
g62
(dp540
g82
g83
ssg71
g534
sg64
(lp541
g349
asbag57
(g78
g59
NtRp542
(dp543
g62
(dp544
g89
g90
ssg71
g534
sg64
(lp545
S':'
asbag57
(g78
g59
NtRp546
(dp547
g62
(dp548
sg71
g534
sg64
(lp549
g57
(g58
g59
NtRp550
(dp551
g62
(dp552
g70
I3
ssg71
g546
sg64
(lp553
S''
asbasbasbag57
(g73
g59
NtRp554
(dp555
g62
(dp556
sg71
g530
sg64
(lp557
g57
(g78
g59
NtRp558
(dp559
g62
(dp560
g82
g83
ssg71
g554
sg64
(lp561
g370
asbag57
(g78
g59
NtRp562
(dp563
g62
(dp564
g89
g90
ssg71
g554
sg64
(lp565
S':'
asbag57
(g78
g59
NtRp566
(dp567
g62
(dp568
sg71
g554
sg64
(lp569
g57
(g58
g59
NtRp570
(dp571
g62
(dp572
g70
I3
ssg71
g566
sg64
(lp573
S''
asbasbasbag57
(g73
g59
NtRp574
(dp575
g62
(dp576
sg71
g530
sg64
(lp577
g57
(g78
g59
NtRp578
(dp579
g62
(dp580
g82
g83
ssg71
g574
sg64
(lp581
g391
asbag57
(g78
g59
NtRp582
(dp583
g62
(dp584
g89
g90
ssg71
g574
sg64
(lp585
S':'
asbag57
(g78
g59
NtRp586
(dp587
g62
(dp588
sg71
g574
sg64
(lp589
g57
(g58
g59
NtRp590
(dp591
g62
(dp592
g70
I3
ssg71
g586
sg64
(lp593
S''
asbasbasbag57
(g73
g59
NtRp594
(dp595
g62
(dp596
sg71
g530
sg64
(lp597
g57
(g78
g59
NtRp598
(dp599
g62
(dp600
g82
g83
ssg71
g594
sg64
(lp601
g412
asbag57
(g78
g59
NtRp602
(dp603
g62
(dp604
g89
g90
ssg71
g594
sg64
(lp605
S':'
asbag57
(g78
g59
NtRp606
(dp607
g62
(dp608
sg71
g594
sg64
(lp609
g57
(g58
g59
NtRp610
(dp611
g62
(dp612
g70
I3
ssg71
g606
sg64
(lp613
S''
asbasbasbag57
(g73
g59
NtRp614
(dp615
g62
(dp616
sg71
g530
sg64
(lp617
g57
(g78
g59
NtRp618
(dp619
g62
(dp620
g82
g83
ssg71
g614
sg64
(lp621
g433
asbag57
(g78
g59
NtRp622
(dp623
g62
(dp624
g89
g90
ssg71
g614
sg64
(lp625
S':'
asbag57
(g78
g59
NtRp626
(dp627
g62
(dp628
sg71
g614
sg64
(lp629
g57
(g58
g59
NtRp630
(dp631
g62
(dp632
g70
I3
ssg71
g626
sg64
(lp633
S''
asbasbasbag57
(g73
g59
NtRp634
(dp635
g62
(dp636
sg71
g530
sg64
(lp637
g57
(g78
g59
NtRp638
(dp639
g62
(dp640
g82
g83
ssg71
g634
sg64
(lp641
g454
asbag57
(g78
g59
NtRp642
(dp643
g62
(dp644
g89
g90
ssg71
g634
sg64
(lp645
S':'
asbag57
(g78
g59
NtRp646
(dp647
g62
(dp648
sg71
g634
sg64
(lp649
g57
(g58
g59
NtRp650
(dp651
g62
(dp652
g70
I3
ssg71
g646
sg64
(lp653
S''
asbasbasbag57
(g73
g59
NtRp654
(dp655
g62
(dp656
sg71
g530
sg64
(lp657
g57
(g78
g59
NtRp658
(dp659
g62
(dp660
g82
g83
ssg71
g654
sg64
(lp661
g475
asbag57
(g78
g59
NtRp662
(dp663
g62
(dp664
g89
g90
ssg71
g654
sg64
(lp665
S':'
asbag57
(g78
g59
NtRp666
(dp667
g62
(dp668
sg71
g654
sg64
(lp669
g57
(g58
g59
NtRp670
(dp671
g62
(dp672
g70
I3
ssg71
g666
sg64
(lp673
S''
asbasbasbag57
(g73
g59
NtRp674
(dp675
g62
(dp676
sg71
g530
sg64
(lp677
g57
(g78
g59
NtRp678
(dp679
g62
(dp680
g82
g83
ssg71
g674
sg64
(lp681
g496
asbag57
(g78
g59
NtRp682
(dp683
g62
(dp684
g89
g90
ssg71
g674
sg64
(lp685
S':'
asbag57
(g78
g59
NtRp686
(dp687
g62
(dp688
sg71
g674
sg64
(lp689
g57
(g58
g59
NtRp690
(dp691
g62
(dp692
g70
I3
ssg71
g686
sg64
(lp693
S''
asbasbasbasbasbasbasbag57
(g73
g59
NtRp694
(dp695
g62
(dp696
sg71
g312
sg64
(lp697
g57
(g78
g59
NtRp698
(dp699
g62
(dp700
g82
g83
ssg71
g694
sg64
(lp701
S'session_id_welcome'
p702
asbag57
(g78
g59
NtRp703
(dp704
g62
(dp705
g89
g90
ssg71
g694
sg64
(lp706
S':'
asbag57
(g78
g59
NtRp707
(dp708
g62
(dp709
sg71
g694
sg64
(lp710
g57
(g58
g59
NtRp711
(dp712
g62
(dp713
g70
I4
ssg71
g707
sg64
(lp714
g57
(g66
g59
NtRp715
(dp716
g62
(dp717
g70
I3
ssg71
Nsg64
(lp718
g57
(g73
g59
NtRp719
(dp720
g62
(dp721
sg71
g715
sg64
(lp722
g57
(g78
g59
NtRp723
(dp724
g62
(dp725
g82
g83
ssg71
g719
sg64
(lp726
g349
asbag57
(g78
g59
NtRp727
(dp728
g62
(dp729
g89
g90
ssg71
g719
sg64
(lp730
S':'
asbag57
(g78
g59
NtRp731
(dp732
g62
(dp733
sg71
g719
sg64
(lp734
g57
(g58
g59
NtRp735
(dp736
g62
(dp737
g70
I3
ssg71
g731
sg64
(lp738
S''
asbasbasbag57
(g73
g59
NtRp739
(dp740
g62
(dp741
sg71
g715
sg64
(lp742
g57
(g78
g59
NtRp743
(dp744
g62
(dp745
g82
g83
ssg71
g739
sg64
(lp746
g370
asbag57
(g78
g59
NtRp747
(dp748
g62
(dp749
g89
g90
ssg71
g739
sg64
(lp750
S':'
asbag57
(g78
g59
NtRp751
(dp752
g62
(dp753
sg71
g739
sg64
(lp754
g57
(g58
g59
NtRp755
(dp756
g62
(dp757
g70
I3
ssg71
g751
sg64
(lp758
S''
asbasbasbag57
(g73
g59
NtRp759
(dp760
g62
(dp761
sg71
g715
sg64
(lp762
g57
(g78
g59
NtRp763
(dp764
g62
(dp765
g82
g83
ssg71
g759
sg64
(lp766
g391
asbag57
(g78
g59
NtRp767
(dp768
g62
(dp769
g89
g90
ssg71
g759
sg64
(lp770
S':'
asbag57
(g78
g59
NtRp771
(dp772
g62
(dp773
sg71
g759
sg64
(lp774
g57
(g58
g59
NtRp775
(dp776
g62
(dp777
g70
I3
ssg71
g771
sg64
(lp778
S''
asbasbasbag57
(g73
g59
NtRp779
(dp780
g62
(dp781
sg71
g715
sg64
(lp782
g57
(g78
g59
NtRp783
(dp784
g62
(dp785
g82
g83
ssg71
g779
sg64
(lp786
g412
asbag57
(g78
g59
NtRp787
(dp788
g62
(dp789
g89
g90
ssg71
g779
sg64
(lp790
S':'
asbag57
(g78
g59
NtRp791
(dp792
g62
(dp793
sg71
g779
sg64
(lp794
g57
(g58
g59
NtRp795
(dp796
g62
(dp797
g70
I3
ssg71
g791
sg64
(lp798
S''
asbasbasbag57
(g73
g59
NtRp799
(dp800
g62
(dp801
sg71
g715
sg64
(lp802
g57
(g78
g59
NtRp803
(dp804
g62
(dp805
g82
g83
ssg71
g799
sg64
(lp806
g433
asbag57
(g78
g59
NtRp807
(dp808
g62
(dp809
g89
g90
ssg71
g799
sg64
(lp810
S':'
asbag57
(g78
g59
NtRp811
(dp812
g62
(dp813
sg71
g799
sg64
(lp814
g57
(g58
g59
NtRp815
(dp816
g62
(dp817
g70
I3
ssg71
g811
sg64
(lp818
S''
asbasbasbag57
(g73
g59
NtRp819
(dp820
g62
(dp821
sg71
g715
sg64
(lp822
g57
(g78
g59
NtRp823
(dp824
g62
(dp825
g82
g83
ssg71
g819
sg64
(lp826
g454
asbag57
(g78
g59
NtRp827
(dp828
g62
(dp829
g89
g90
ssg71
g819
sg64
(lp830
S':'
asbag57
(g78
g59
NtRp831
(dp832
g62
(dp833
sg71
g819
sg64
(lp834
g57
(g58
g59
NtRp835
(dp836
g62
(dp837
g70
I3
ssg71
g831
sg64
(lp838
S''
asbasbasbag57
(g73
g59
NtRp839
(dp840
g62
(dp841
sg71
g715
sg64
(lp842
g57
(g78
g59
NtRp843
(dp844
g62
(dp845
g82
g83
ssg71
g839
sg64
(lp846
g475
asbag57
(g78
g59
NtRp847
(dp848
g62
(dp849
g89
g90
ssg71
g839
sg64
(lp850
S':'
asbag57
(g78
g59
NtRp851
(dp852
g62
(dp853
sg71
g839
sg64
(lp854
g57
(g58
g59
NtRp855
(dp856
g62
(dp857
g70
I3
ssg71
g851
sg64
(lp858
S''
asbasbasbag57
(g73
g59
NtRp859
(dp860
g62
(dp861
sg71
g715
sg64
(lp862
g57
(g78
g59
NtRp863
(dp864
g62
(dp865
g82
g83
ssg71
g859
sg64
(lp866
g496
asbag57
(g78
g59
NtRp867
(dp868
g62
(dp869
g89
g90
ssg71
g859
sg64
(lp870
S':'
asbag57
(g78
g59
NtRp871
(dp872
g62
(dp873
sg71
g859
sg64
(lp874
g57
(g58
g59
NtRp875
(dp876
g62
(dp877
g70
I3
ssg71
g871
sg64
(lp878
S''
asbasbasbasbasbasbasbasbasbasbasbag57
(g73
g59
NtRp879
(dp880
g62
(dp881
sg71
g67
sg64
(lp882
g57
(g78
g59
NtRp883
(dp884
g62
(dp885
g82
g83
ssg71
g879
sg64
(lp886
S'env'
p887
asbag57
(g78
g59
NtRp888
(dp889
g62
(dp890
g89
g90
ssg71
g879
sg64
(lp891
S':'
asbag57
(g78
g59
NtRp892
(dp893
g62
(dp894
sg71
g879
sg64
(lp895
g57
(g58
g59
NtRp896
(dp897
g62
(dp898
g70
I5
ssg71
g892
sg64
(lp899
g57
(g66
g59
NtRp900
(dp901
g62
(dp902
g70
I4
ssg71
Nsg64
(lp903
g57
(g73
g59
NtRp904
(dp905
g62
(dp906
sg71
g900
sg64
(lp907
g57
(g78
g59
NtRp908
(dp909
g62
(dp910
g82
g83
ssg71
g904
sg64
(lp911
S'app_folders'
p912
asbag57
(g78
g59
NtRp913
(dp914
g62
(dp915
g89
g90
ssg71
g904
sg64
(lp916
S':'
asbag57
(g78
g59
NtRp917
(dp918
g62
(dp919
sg71
g904
sg64
(lp920
g57
(g58
g59
NtRp921
(dp922
g62
(dp923
g70
I4
ssg71
g917
sg64
(lp924
S"set(['/home/goshawk/web2py/applications/milo/', '/home/goshawk/web2py/applications/admin/'])"
p925
asbasbasbag57
(g73
g59
NtRp926
(dp927
g62
(dp928
sg71
g900
sg64
(lp929
g57
(g78
g59
NtRp930
(dp931
g62
(dp932
g82
g83
ssg71
g926
sg64
(lp933
S'applications_parent'
p934
asbag57
(g78
g59
NtRp935
(dp936
g62
(dp937
g89
g90
ssg71
g926
sg64
(lp938
S':'
asbag57
(g78
g59
NtRp939
(dp940
g62
(dp941
sg71
g926
sg64
(lp942
g57
(g58
g59
NtRp943
(dp944
g62
(dp945
g70
I4
ssg71
g939
sg64
(lp946
S'/home/goshawk/web2py'
p947
asbasbasbag57
(g73
g59
NtRp948
(dp949
g62
(dp950
sg71
g900
sg64
(lp951
g57
(g78
g59
NtRp952
(dp953
g62
(dp954
g82
g83
ssg71
g948
sg64
(lp955
S'cmd_args'
p956
asbag57
(g78
g59
NtRp957
(dp958
g62
(dp959
g89
g90
ssg71
g948
sg64
(lp960
S':'
asbag57
(g78
g59
NtRp961
(dp962
g62
(dp963
sg71
g948
sg64
(lp964
g57
(g58
g59
NtRp965
(dp966
g62
(dp967
g70
I4
ssg71
g961
sg64
(lp968
g57
(g66
g59
NtRp969
(dp970
g62
(dp971
g70
I3
ssg71
Nsg64
(lp972
sbasbasbasbag57
(g73
g59
NtRp973
(dp974
g62
(dp975
sg71
g900
sg64
(lp976
g57
(g78
g59
NtRp977
(dp978
g62
(dp979
g82
g83
ssg71
g973
sg64
(lp980
S'cmd_options'
p981
asbag57
(g78
g59
NtRp982
(dp983
g62
(dp984
g89
g90
ssg71
g973
sg64
(lp985
S':'
asbag57
(g78
g59
NtRp986
(dp987
g62
(dp988
sg71
g973
sg64
(lp989
g57
(g58
g59
NtRp990
(dp991
g62
(dp992
g70
I4
ssg71
g986
sg64
(lp993
S"<Values at 0x1cc90e0: {'verbose': False, 'ip': '127.0.0.1', 'shutdown_timeout': 5, 'taskbar': False, 'nocron': False, 'pid_filename': 'httpserver.pid', 'maxthreads': None, 'softcron': False, 'server_name': 'whisperer', 'bpython': False, 'nogui': False, 'port': 8000, 'extcron': False, 'debuglevel': 30, 'test': None, 'folder': '/home/goshawk/web2py', 'config': '', 'import_models': False, 'winservice': '', 'shell': None, 'run': '', 'log_filename': 'httpserver.log', 'args': [''], 'socket_timeout': 5, 'ssl_ca_certificate': None, 'scheduler': None, 'profiler_filename': None, 'ssl_private_key': '', 'password': 'admin', 'request_queue_size': 5, 'ssl_certificate': '', 'cronjob': False, 'numthreads': None, 'quiet': False, 'interfaces': None, 'minthreads': None, 'timeout': 10, 'plain': False, 'nobanner': False}>"
p994
asbasbasbag57
(g73
g59
NtRp995
(dp996
g62
(dp997
sg71
g900
sg64
(lp998
g57
(g78
g59
NtRp999
(dp1000
g62
(dp1001
g82
g83
ssg71
g995
sg64
(lp1002
S'db_sessions'
p1003
asbag57
(g78
g59
NtRp1004
(dp1005
g62
(dp1006
g89
g90
ssg71
g995
sg64
(lp1007
S':'
asbag57
(g78
g59
NtRp1008
(dp1009
g62
(dp1010
sg71
g995
sg64
(lp1011
g57
(g58
g59
NtRp1012
(dp1013
g62
(dp1014
g70
I4
ssg71
g1008
sg64
(lp1015
S'set([])'
p1016
asbasbasbag57
(g73
g59
NtRp1017
(dp1018
g62
(dp1019
sg71
g900
sg64
(lp1020
g57
(g78
g59
NtRp1021
(dp1022
g62
(dp1023
g82
g83
ssg71
g1017
sg64
(lp1024
S'debugging'
p1025
asbag57
(g78
g59
NtRp1026
(dp1027
g62
(dp1028
g89
g90
ssg71
g1017
sg64
(lp1029
S':'
asbag57
(g78
g59
NtRp1030
(dp1031
g62
(dp1032
sg71
g1017
sg64
(lp1033
g57
(g58
g59
NtRp1034
(dp1035
g62
(dp1036
g70
I4
ssg71
g1030
sg64
(lp1037
g100
asbasbasbag57
(g73
g59
NtRp1038
(dp1039
g62
(dp1040
sg71
g900
sg64
(lp1041
g57
(g78
g59
NtRp1042
(dp1043
g62
(dp1044
g82
g83
ssg71
g1038
sg64
(lp1045
S'gluon_parent'
p1046
asbag57
(g78
g59
NtRp1047
(dp1048
g62
(dp1049
g89
g90
ssg71
g1038
sg64
(lp1050
S':'
asbag57
(g78
g59
NtRp1051
(dp1052
g62
(dp1053
sg71
g1038
sg64
(lp1054
g57
(g58
g59
NtRp1055
(dp1056
g62
(dp1057
g70
I4
ssg71
g1051
sg64
(lp1058
S'/home/goshawk/web2py'
p1059
asbasbasbag57
(g73
g59
NtRp1060
(dp1061
g62
(dp1062
sg71
g900
sg64
(lp1063
g57
(g78
g59
NtRp1064
(dp1065
g62
(dp1066
g82
g83
ssg71
g1060
sg64
(lp1067
S'http_accept'
p1068
asbag57
(g78
g59
NtRp1069
(dp1070
g62
(dp1071
g89
g90
ssg71
g1060
sg64
(lp1072
S':'
asbag57
(g78
g59
NtRp1073
(dp1074
g62
(dp1075
sg71
g1060
sg64
(lp1076
g57
(g58
g59
NtRp1077
(dp1078
g62
(dp1079
g70
I4
ssg71
g1073
sg64
(lp1080
S'*/*'
p1081
asbasbasbag57
(g73
g59
NtRp1082
(dp1083
g62
(dp1084
sg71
g900
sg64
(lp1085
g57
(g78
g59
NtRp1086
(dp1087
g62
(dp1088
g82
g83
ssg71
g1082
sg64
(lp1089
S'http_accept_charset'
p1090
asbag57
(g78
g59
NtRp1091
(dp1092
g62
(dp1093
g89
g90
ssg71
g1082
sg64
(lp1094
S':'
asbag57
(g78
g59
NtRp1095
(dp1096
g62
(dp1097
sg71
g1082
sg64
(lp1098
g57
(g58
g59
NtRp1099
(dp1100
g62
(dp1101
g70
I4
ssg71
g1095
sg64
(lp1102
S'ISO-8859-1,utf-8;q=0.7,*;q=0.3'
p1103
asbasbasbag57
(g73
g59
NtRp1104
(dp1105
g62
(dp1106
sg71
g900
sg64
(lp1107
g57
(g78
g59
NtRp1108
(dp1109
g62
(dp1110
g82
g83
ssg71
g1104
sg64
(lp1111
S'http_accept_encoding'
p1112
asbag57
(g78
g59
NtRp1113
(dp1114
g62
(dp1115
g89
g90
ssg71
g1104
sg64
(lp1116
S':'
asbag57
(g78
g59
NtRp1117
(dp1118
g62
(dp1119
sg71
g1104
sg64
(lp1120
g57
(g58
g59
NtRp1121
(dp1122
g62
(dp1123
g70
I4
ssg71
g1117
sg64
(lp1124
S'gzip,deflate,sdch'
p1125
asbasbasbag57
(g73
g59
NtRp1126
(dp1127
g62
(dp1128
sg71
g900
sg64
(lp1129
g57
(g78
g59
NtRp1130
(dp1131
g62
(dp1132
g82
g83
ssg71
g1126
sg64
(lp1133
S'http_accept_language'
p1134
asbag57
(g78
g59
NtRp1135
(dp1136
g62
(dp1137
g89
g90
ssg71
g1126
sg64
(lp1138
S':'
asbag57
(g78
g59
NtRp1139
(dp1140
g62
(dp1141
sg71
g1126
sg64
(lp1142
g57
(g58
g59
NtRp1143
(dp1144
g62
(dp1145
g70
I4
ssg71
g1139
sg64
(lp1146
S'en-US,en;q=0.8'
p1147
asbasbasbag57
(g73
g59
NtRp1148
(dp1149
g62
(dp1150
sg71
g900
sg64
(lp1151
g57
(g78
g59
NtRp1152
(dp1153
g62
(dp1154
g82
g83
ssg71
g1148
sg64
(lp1155
S'http_cache_control'
p1156
asbag57
(g78
g59
NtRp1157
(dp1158
g62
(dp1159
g89
g90
ssg71
g1148
sg64
(lp1160
S':'
asbag57
(g78
g59
NtRp1161
(dp1162
g62
(dp1163
sg71
g1148
sg64
(lp1164
g57
(g58
g59
NtRp1165
(dp1166
g62
(dp1167
g70
I4
ssg71
g1161
sg64
(lp1168
S'max-age=0'
p1169
asbasbasbag57
(g73
g59
NtRp1170
(dp1171
g62
(dp1172
sg71
g900
sg64
(lp1173
g57
(g78
g59
NtRp1174
(dp1175
g62
(dp1176
g82
g83
ssg71
g1170
sg64
(lp1177
S'http_connection'
p1178
asbag57
(g78
g59
NtRp1179
(dp1180
g62
(dp1181
g89
g90
ssg71
g1170
sg64
(lp1182
S':'
asbag57
(g78
g59
NtRp1183
(dp1184
g62
(dp1185
sg71
g1170
sg64
(lp1186
g57
(g58
g59
NtRp1187
(dp1188
g62
(dp1189
g70
I4
ssg71
g1183
sg64
(lp1190
S'keep-alive'
p1191
asbasbasbag57
(g73
g59
NtRp1192
(dp1193
g62
(dp1194
sg71
g900
sg64
(lp1195
g57
(g78
g59
NtRp1196
(dp1197
g62
(dp1198
g82
g83
ssg71
g1192
sg64
(lp1199
S'http_cookie'
p1200
asbag57
(g78
g59
NtRp1201
(dp1202
g62
(dp1203
g89
g90
ssg71
g1192
sg64
(lp1204
S':'
asbag57
(g78
g59
NtRp1205
(dp1206
g62
(dp1207
sg71
g1192
sg64
(lp1208
g57
(g58
g59
NtRp1209
(dp1210
g62
(dp1211
g70
I4
ssg71
g1205
sg64
(lp1212
S'session_id_welcome=127.0.0.1-11c8edfe-641e-45e8-a22e-9242a5dc89a6; session_id_admin=127.0.0.1-cc2f36f7-d4cc-4b49-a888-a3154d16ac8e; session_id_milo=127.0.0.1-6c16d76a-1f8c-4e9b-9b63-cec19a96b9d8'
p1213
asbasbasbag57
(g73
g59
NtRp1214
(dp1215
g62
(dp1216
sg71
g900
sg64
(lp1217
g57
(g78
g59
NtRp1218
(dp1219
g62
(dp1220
g82
g83
ssg71
g1214
sg64
(lp1221
S'http_host'
p1222
asbag57
(g78
g59
NtRp1223
(dp1224
g62
(dp1225
g89
g90
ssg71
g1214
sg64
(lp1226
S':'
asbag57
(g78
g59
NtRp1227
(dp1228
g62
(dp1229
sg71
g1214
sg64
(lp1230
g57
(g58
g59
NtRp1231
(dp1232
g62
(dp1233
g70
I4
ssg71
g1227
sg64
(lp1234
S'127.0.0.1:8000'
p1235
asbasbasbag57
(g73
g59
NtRp1236
(dp1237
g62
(dp1238
sg71
g900
sg64
(lp1239
g57
(g78
g59
NtRp1240
(dp1241
g62
(dp1242
g82
g83
ssg71
g1236
sg64
(lp1243
S'http_referer'
p1244
asbag57
(g78
g59
NtRp1245
(dp1246
g62
(dp1247
g89
g90
ssg71
g1236
sg64
(lp1248
S':'
asbag57
(g78
g59
NtRp1249
(dp1250
g62
(dp1251
sg71
g1236
sg64
(lp1252
g57
(g58
g59
NtRp1253
(dp1254
g62
(dp1255
g70
I4
ssg71
g1249
sg64
(lp1256
S'http://127.0.0.1:8000/milo/default/index/1'
p1257
asbasbasbag57
(g73
g59
NtRp1258
(dp1259
g62
(dp1260
sg71
g900
sg64
(lp1261
g57
(g78
g59
NtRp1262
(dp1263
g62
(dp1264
g82
g83
ssg71
g1258
sg64
(lp1265
S'http_user_agent'
p1266
asbag57
(g78
g59
NtRp1267
(dp1268
g62
(dp1269
g89
g90
ssg71
g1258
sg64
(lp1270
S':'
asbag57
(g78
g59
NtRp1271
(dp1272
g62
(dp1273
sg71
g1258
sg64
(lp1274
g57
(g58
g59
NtRp1275
(dp1276
g62
(dp1277
g70
I4
ssg71
g1271
sg64
(lp1278
S'Mozilla/5.0 (X11; Linux x86_64) AppleWebKit/535.19 (KHTML, like Gecko) Ubuntu/12.04 Chromium/18.0.1025.168 Chrome/18.0.1025.168 Safari/535.19'
p1279
asbasbasbag57
(g73
g59
NtRp1280
(dp1281
g62
(dp1282
sg71
g900
sg64
(lp1283
g57
(g78
g59
NtRp1284
(dp1285
g62
(dp1286
g82
g83
ssg71
g1280
sg64
(lp1287
S'is_jython'
p1288
asbag57
(g78
g59
NtRp1289
(dp1290
g62
(dp1291
g89
g90
ssg71
g1280
sg64
(lp1292
S':'
asbag57
(g78
g59
NtRp1293
(dp1294
g62
(dp1295
sg71
g1280
sg64
(lp1296
g57
(g58
g59
NtRp1297
(dp1298
g62
(dp1299
g70
I4
ssg71
g1293
sg64
(lp1300
g100
asbasbasbag57
(g73
g59
NtRp1301
(dp1302
g62
(dp1303
sg71
g900
sg64
(lp1304
g57
(g78
g59
NtRp1305
(dp1306
g62
(dp1307
g82
g83
ssg71
g1301
sg64
(lp1308
S'is_pypy'
p1309
asbag57
(g78
g59
NtRp1310
(dp1311
g62
(dp1312
g89
g90
ssg71
g1301
sg64
(lp1313
S':'
asbag57
(g78
g59
NtRp1314
(dp1315
g62
(dp1316
sg71
g1301
sg64
(lp1317
g57
(g58
g59
NtRp1318
(dp1319
g62
(dp1320
g70
I4
ssg71
g1314
sg64
(lp1321
g100
asbasbasbag57
(g73
g59
NtRp1322
(dp1323
g62
(dp1324
sg71
g900
sg64
(lp1325
g57
(g78
g59
NtRp1326
(dp1327
g62
(dp1328
g82
g83
ssg71
g1322
sg64
(lp1329
S'path_info'
p1330
asbag57
(g78
g59
NtRp1331
(dp1332
g62
(dp1333
g89
g90
ssg71
g1322
sg64
(lp1334
S':'
asbag57
(g78
g59
NtRp1335
(dp1336
g62
(dp1337
sg71
g1322
sg64
(lp1338
g57
(g58
g59
NtRp1339
(dp1340
g62
(dp1341
g70
I4
ssg71
g1335
sg64
(lp1342
S'/milo/default/index/milo/static/images/movies/posters/111772.jpg'
p1343
asbasbasbag57
(g73
g59
NtRp1344
(dp1345
g62
(dp1346
sg71
g900
sg64
(lp1347
g57
(g78
g59
NtRp1348
(dp1349
g62
(dp1350
g82
g83
ssg71
g1344
sg64
(lp1351
S'query_string'
p1352
asbag57
(g78
g59
NtRp1353
(dp1354
g62
(dp1355
g89
g90
ssg71
g1344
sg64
(lp1356
S':'
asbag57
(g78
g59
NtRp1357
(dp1358
g62
(dp1359
sg71
g1344
sg64
(lp1360
g57
(g58
g59
NtRp1361
(dp1362
g62
(dp1363
g70
I4
ssg71
g1357
sg64
(lp1364
S''
asbasbasbag57
(g73
g59
NtRp1365
(dp1366
g62
(dp1367
sg71
g900
sg64
(lp1368
g57
(g78
g59
NtRp1369
(dp1370
g62
(dp1371
g82
g83
ssg71
g1365
sg64
(lp1372
S'remote_addr'
p1373
asbag57
(g78
g59
NtRp1374
(dp1375
g62
(dp1376
g89
g90
ssg71
g1365
sg64
(lp1377
S':'
asbag57
(g78
g59
NtRp1378
(dp1379
g62
(dp1380
sg71
g1365
sg64
(lp1381
g57
(g58
g59
NtRp1382
(dp1383
g62
(dp1384
g70
I4
ssg71
g1378
sg64
(lp1385
g268
asbasbasbag57
(g73
g59
NtRp1386
(dp1387
g62
(dp1388
sg71
g900
sg64
(lp1389
g57
(g78
g59
NtRp1390
(dp1391
g62
(dp1392
g82
g83
ssg71
g1386
sg64
(lp1393
S'remote_port'
p1394
asbag57
(g78
g59
NtRp1395
(dp1396
g62
(dp1397
g89
g90
ssg71
g1386
sg64
(lp1398
S':'
asbag57
(g78
g59
NtRp1399
(dp1400
g62
(dp1401
sg71
g1386
sg64
(lp1402
g57
(g58
g59
NtRp1403
(dp1404
g62
(dp1405
g70
I4
ssg71
g1399
sg64
(lp1406
S'53525'
p1407
asbasbasbag57
(g73
g59
NtRp1408
(dp1409
g62
(dp1410
sg71
g900
sg64
(lp1411
g57
(g78
g59
NtRp1412
(dp1413
g62
(dp1414
g82
g83
ssg71
g1408
sg64
(lp1415
S'request_method'
p1416
asbag57
(g78
g59
NtRp1417
(dp1418
g62
(dp1419
g89
g90
ssg71
g1408
sg64
(lp1420
S':'
asbag57
(g78
g59
NtRp1421
(dp1422
g62
(dp1423
sg71
g1408
sg64
(lp1424
g57
(g58
g59
NtRp1425
(dp1426
g62
(dp1427
g70
I4
ssg71
g1421
sg64
(lp1428
S'GET'
p1429
asbasbasbag57
(g73
g59
NtRp1430
(dp1431
g62
(dp1432
sg71
g900
sg64
(lp1433
g57
(g78
g59
NtRp1434
(dp1435
g62
(dp1436
g82
g83
ssg71
g1430
sg64
(lp1437
S'request_uri'
p1438
asbag57
(g78
g59
NtRp1439
(dp1440
g62
(dp1441
g89
g90
ssg71
g1430
sg64
(lp1442
S':'
asbag57
(g78
g59
NtRp1443
(dp1444
g62
(dp1445
sg71
g1430
sg64
(lp1446
g57
(g58
g59
NtRp1447
(dp1448
g62
(dp1449
g70
I4
ssg71
g1443
sg64
(lp1450
g1343
asbasbasbag57
(g73
g59
NtRp1451
(dp1452
g62
(dp1453
sg71
g900
sg64
(lp1454
g57
(g78
g59
NtRp1455
(dp1456
g62
(dp1457
g82
g83
ssg71
g1451
sg64
(lp1458
S'script_name'
p1459
asbag57
(g78
g59
NtRp1460
(dp1461
g62
(dp1462
g89
g90
ssg71
g1451
sg64
(lp1463
S':'
asbag57
(g78
g59
NtRp1464
(dp1465
g62
(dp1466
sg71
g1451
sg64
(lp1467
g57
(g58
g59
NtRp1468
(dp1469
g62
(dp1470
g70
I4
ssg71
g1464
sg64
(lp1471
S''
asbasbasbag57
(g73
g59
NtRp1472
(dp1473
g62
(dp1474
sg71
g900
sg64
(lp1475
g57
(g78
g59
NtRp1476
(dp1477
g62
(dp1478
g82
g83
ssg71
g1472
sg64
(lp1479
S'server_name'
p1480
asbag57
(g78
g59
NtRp1481
(dp1482
g62
(dp1483
g89
g90
ssg71
g1472
sg64
(lp1484
S':'
asbag57
(g78
g59
NtRp1485
(dp1486
g62
(dp1487
sg71
g1472
sg64
(lp1488
g57
(g58
g59
NtRp1489
(dp1490
g62
(dp1491
g70
I4
ssg71
g1485
sg64
(lp1492
S'whisperer'
p1493
asbasbasbag57
(g73
g59
NtRp1494
(dp1495
g62
(dp1496
sg71
g900
sg64
(lp1497
g57
(g78
g59
NtRp1498
(dp1499
g62
(dp1500
g82
g83
ssg71
g1494
sg64
(lp1501
S'server_port'
p1502
asbag57
(g78
g59
NtRp1503
(dp1504
g62
(dp1505
g89
g90
ssg71
g1494
sg64
(lp1506
S':'
asbag57
(g78
g59
NtRp1507
(dp1508
g62
(dp1509
sg71
g1494
sg64
(lp1510
g57
(g58
g59
NtRp1511
(dp1512
g62
(dp1513
g70
I4
ssg71
g1507
sg64
(lp1514
S'8000'
p1515
asbasbasbag57
(g73
g59
NtRp1516
(dp1517
g62
(dp1518
sg71
g900
sg64
(lp1519
g57
(g78
g59
NtRp1520
(dp1521
g62
(dp1522
g82
g83
ssg71
g1516
sg64
(lp1523
S'server_protocol'
p1524
asbag57
(g78
g59
NtRp1525
(dp1526
g62
(dp1527
g89
g90
ssg71
g1516
sg64
(lp1528
S':'
asbag57
(g78
g59
NtRp1529
(dp1530
g62
(dp1531
sg71
g1516
sg64
(lp1532
g57
(g58
g59
NtRp1533
(dp1534
g62
(dp1535
g70
I4
ssg71
g1529
sg64
(lp1536
S'HTTP/1.1'
p1537
asbasbasbag57
(g73
g59
NtRp1538
(dp1539
g62
(dp1540
sg71
g900
sg64
(lp1541
g57
(g78
g59
NtRp1542
(dp1543
g62
(dp1544
g82
g83
ssg71
g1538
sg64
(lp1545
S'server_software'
p1546
asbag57
(g78
g59
NtRp1547
(dp1548
g62
(dp1549
g89
g90
ssg71
g1538
sg64
(lp1550
S':'
asbag57
(g78
g59
NtRp1551
(dp1552
g62
(dp1553
sg71
g1538
sg64
(lp1554
g57
(g58
g59
NtRp1555
(dp1556
g62
(dp1557
g70
I4
ssg71
g1551
sg64
(lp1558
S'Rocket 1.2.4'
p1559
asbasbasbag57
(g73
g59
NtRp1560
(dp1561
g62
(dp1562
sg71
g900
sg64
(lp1563
g57
(g78
g59
NtRp1564
(dp1565
g62
(dp1566
g82
g83
ssg71
g1560
sg64
(lp1567
S'web2py_crontype'
p1568
asbag57
(g78
g59
NtRp1569
(dp1570
g62
(dp1571
g89
g90
ssg71
g1560
sg64
(lp1572
S':'
asbag57
(g78
g59
NtRp1573
(dp1574
g62
(dp1575
sg71
g1560
sg64
(lp1576
g57
(g58
g59
NtRp1577
(dp1578
g62
(dp1579
g70
I4
ssg71
g1573
sg64
(lp1580
S'hard'
p1581
asbasbasbag57
(g73
g59
NtRp1582
(dp1583
g62
(dp1584
sg71
g900
sg64
(lp1585
g57
(g78
g59
NtRp1586
(dp1587
g62
(dp1588
g82
g83
ssg71
g1582
sg64
(lp1589
S'web2py_original_uri'
p1590
asbag57
(g78
g59
NtRp1591
(dp1592
g62
(dp1593
g89
g90
ssg71
g1582
sg64
(lp1594
S':'
asbag57
(g78
g59
NtRp1595
(dp1596
g62
(dp1597
sg71
g1582
sg64
(lp1598
g57
(g58
g59
NtRp1599
(dp1600
g62
(dp1601
g70
I4
ssg71
g1595
sg64
(lp1602
g1343
asbasbasbag57
(g73
g59
NtRp1603
(dp1604
g62
(dp1605
sg71
g900
sg64
(lp1606
g57
(g78
g59
NtRp1607
(dp1608
g62
(dp1609
g82
g83
ssg71
g1603
sg64
(lp1610
S'web2py_path'
p1611
asbag57
(g78
g59
NtRp1612
(dp1613
g62
(dp1614
g89
g90
ssg71
g1603
sg64
(lp1615
S':'
asbag57
(g78
g59
NtRp1616
(dp1617
g62
(dp1618
sg71
g1603
sg64
(lp1619
g57
(g58
g59
NtRp1620
(dp1621
g62
(dp1622
g70
I4
ssg71
g1616
sg64
(lp1623
g947
asbasbasbag57
(g73
g59
NtRp1624
(dp1625
g62
(dp1626
sg71
g900
sg64
(lp1627
g57
(g78
g59
NtRp1628
(dp1629
g62
(dp1630
g82
g83
ssg71
g1624
sg64
(lp1631
S'web2py_version'
p1632
asbag57
(g78
g59
NtRp1633
(dp1634
g62
(dp1635
g89
g90
ssg71
g1624
sg64
(lp1636
S':'
asbag57
(g78
g59
NtRp1637
(dp1638
g62
(dp1639
sg71
g1624
sg64
(lp1640
g57
(g58
g59
NtRp1641
(dp1642
g62
(dp1643
g70
I4
ssg71
g1637
sg64
(lp1644
g57
(g66
g59
NtRp1645
(dp1646
g62
(dp1647
g70
I3
ssg71
Nsg64
(lp1648
g57
(g73
g59
NtRp1649
(dp1650
g62
(dp1651
sg71
g1645
sg64
(lp1652
g57
(g78
g59
NtRp1653
(dp1654
g62
(dp1655
sg71
g1649
sg64
(lp1656
g57
(g58
g59
NtRp1657
(dp1658
g62
(dp1659
g70
I3
ssg71
g1653
sg64
(lp1660
S'1'
asbasbasbag57
(g73
g59
NtRp1661
(dp1662
g62
(dp1663
sg71
g1645
sg64
(lp1664
g57
(g78
g59
NtRp1665
(dp1666
g62
(dp1667
sg71
g1661
sg64
(lp1668
g57
(g58
g59
NtRp1669
(dp1670
g62
(dp1671
g70
I3
ssg71
g1665
sg64
(lp1672
S'99'
p1673
asbasbasbag57
(g73
g59
NtRp1674
(dp1675
g62
(dp1676
sg71
g1645
sg64
(lp1677
g57
(g78
g59
NtRp1678
(dp1679
g62
(dp1680
sg71
g1674
sg64
(lp1681
g57
(g58
g59
NtRp1682
(dp1683
g62
(dp1684
g70
I3
ssg71
g1678
sg64
(lp1685
S'7'
asbasbasbag57
(g73
g59
NtRp1686
(dp1687
g62
(dp1688
sg71
g1645
sg64
(lp1689
g57
(g78
g59
NtRp1690
(dp1691
g62
(dp1692
sg71
g1686
sg64
(lp1693
g57
(g58
g59
NtRp1694
(dp1695
g62
(dp1696
g70
I3
ssg71
g1690
sg64
(lp1697
S'datetime.datetime(2012, 3, 4, 22, 12, 8)'
p1698
asbasbasbag57
(g73
g59
NtRp1699
(dp1700
g62
(dp1701
sg71
g1645
sg64
(lp1702
g57
(g78
g59
NtRp1703
(dp1704
g62
(dp1705
sg71
g1699
sg64
(lp1706
g57
(g58
g59
NtRp1707
(dp1708
g62
(dp1709
g70
I3
ssg71
g1703
sg64
(lp1710
S'stable'
p1711
asbasbasbasbasbasbasbag57
(g73
g59
NtRp1712
(dp1713
g62
(dp1714
sg71
g900
sg64
(lp1715
g57
(g78
g59
NtRp1716
(dp1717
g62
(dp1718
g82
g83
ssg71
g1712
sg64
(lp1719
S'wsgi_errors'
p1720
asbag57
(g78
g59
NtRp1721
(dp1722
g62
(dp1723
g89
g90
ssg71
g1712
sg64
(lp1724
S':'
asbag57
(g78
g59
NtRp1725
(dp1726
g62
(dp1727
sg71
g1712
sg64
(lp1728
g57
(g58
g59
NtRp1729
(dp1730
g62
(dp1731
g70
I4
ssg71
g1725
sg64
(lp1732
S"<open file '<stderr>', mode 'w' at 0x7fb4b1797270>"
p1733
asbasbasbag57
(g73
g59
NtRp1734
(dp1735
g62
(dp1736
sg71
g900
sg64
(lp1737
g57
(g78
g59
NtRp1738
(dp1739
g62
(dp1740
g82
g83
ssg71
g1734
sg64
(lp1741
S'wsgi_file_wrapper'
p1742
asbag57
(g78
g59
NtRp1743
(dp1744
g62
(dp1745
g89
g90
ssg71
g1734
sg64
(lp1746
S':'
asbag57
(g78
g59
NtRp1747
(dp1748
g62
(dp1749
sg71
g1734
sg64
(lp1750
g57
(g58
g59
NtRp1751
(dp1752
g62
(dp1753
g70
I4
ssg71
g1747
sg64
(lp1754
S'<class wsgiref.util.FileWrapper at 0x1bf5f58>'
p1755
asbasbasbag57
(g73
g59
NtRp1756
(dp1757
g62
(dp1758
sg71
g900
sg64
(lp1759
g57
(g78
g59
NtRp1760
(dp1761
g62
(dp1762
g82
g83
ssg71
g1756
sg64
(lp1763
S'wsgi_input'
p1764
asbag57
(g78
g59
NtRp1765
(dp1766
g62
(dp1767
g89
g90
ssg71
g1756
sg64
(lp1768
S':'
asbag57
(g78
g59
NtRp1769
(dp1770
g62
(dp1771
sg71
g1756
sg64
(lp1772
g57
(g58
g59
NtRp1773
(dp1774
g62
(dp1775
g70
I4
ssg71
g1769
sg64
(lp1776
S'<socket._fileobject object at 0x7fb49d86ced0>'
p1777
asbasbasbag57
(g73
g59
NtRp1778
(dp1779
g62
(dp1780
sg71
g900
sg64
(lp1781
g57
(g78
g59
NtRp1782
(dp1783
g62
(dp1784
g82
g83
ssg71
g1778
sg64
(lp1785
S'wsgi_multiprocess'
p1786
asbag57
(g78
g59
NtRp1787
(dp1788
g62
(dp1789
g89
g90
ssg71
g1778
sg64
(lp1790
S':'
asbag57
(g78
g59
NtRp1791
(dp1792
g62
(dp1793
sg71
g1778
sg64
(lp1794
g57
(g58
g59
NtRp1795
(dp1796
g62
(dp1797
g70
I4
ssg71
g1791
sg64
(lp1798
g100
asbasbasbag57
(g73
g59
NtRp1799
(dp1800
g62
(dp1801
sg71
g900
sg64
(lp1802
g57
(g78
g59
NtRp1803
(dp1804
g62
(dp1805
g82
g83
ssg71
g1799
sg64
(lp1806
S'wsgi_multithread'
p1807
asbag57
(g78
g59
NtRp1808
(dp1809
g62
(dp1810
g89
g90
ssg71
g1799
sg64
(lp1811
S':'
asbag57
(g78
g59
NtRp1812
(dp1813
g62
(dp1814
sg71
g1799
sg64
(lp1815
g57
(g58
g59
NtRp1816
(dp1817
g62
(dp1818
g70
I4
ssg71
g1812
sg64
(lp1819
S'True'
p1820
asbasbasbag57
(g73
g59
NtRp1821
(dp1822
g62
(dp1823
sg71
g900
sg64
(lp1824
g57
(g78
g59
NtRp1825
(dp1826
g62
(dp1827
g82
g83
ssg71
g1821
sg64
(lp1828
S'wsgi_run_once'
p1829
asbag57
(g78
g59
NtRp1830
(dp1831
g62
(dp1832
g89
g90
ssg71
g1821
sg64
(lp1833
S':'
asbag57
(g78
g59
NtRp1834
(dp1835
g62
(dp1836
sg71
g1821
sg64
(lp1837
g57
(g58
g59
NtRp1838
(dp1839
g62
(dp1840
g70
I4
ssg71
g1834
sg64
(lp1841
g100
asbasbasbag57
(g73
g59
NtRp1842
(dp1843
g62
(dp1844
sg71
g900
sg64
(lp1845
g57
(g78
g59
NtRp1846
(dp1847
g62
(dp1848
g82
g83
ssg71
g1842
sg64
(lp1849
S'wsgi_url_scheme'
p1850
asbag57
(g78
g59
NtRp1851
(dp1852
g62
(dp1853
g89
g90
ssg71
g1842
sg64
(lp1854
S':'
asbag57
(g78
g59
NtRp1855
(dp1856
g62
(dp1857
sg71
g1842
sg64
(lp1858
g57
(g58
g59
NtRp1859
(dp1860
g62
(dp1861
g70
I4
ssg71
g1855
sg64
(lp1862
S'http'
p1863
asbasbasbag57
(g73
g59
NtRp1864
(dp1865
g62
(dp1866
sg71
g900
sg64
(lp1867
g57
(g78
g59
NtRp1868
(dp1869
g62
(dp1870
g82
g83
ssg71
g1864
sg64
(lp1871
S'wsgi_version'
p1872
asbag57
(g78
g59
NtRp1873
(dp1874
g62
(dp1875
g89
g90
ssg71
g1864
sg64
(lp1876
S':'
asbag57
(g78
g59
NtRp1877
(dp1878
g62
(dp1879
sg71
g1864
sg64
(lp1880
g57
(g58
g59
NtRp1881
(dp1882
g62
(dp1883
g70
I4
ssg71
g1877
sg64
(lp1884
g57
(g66
g59
NtRp1885
(dp1886
g62
(dp1887
g70
I3
ssg71
Nsg64
(lp1888
g57
(g73
g59
NtRp1889
(dp1890
g62
(dp1891
sg71
g1885
sg64
(lp1892
g57
(g78
g59
NtRp1893
(dp1894
g62
(dp1895
sg71
g1889
sg64
(lp1896
g57
(g58
g59
NtRp1897
(dp1898
g62
(dp1899
g70
I3
ssg71
g1893
sg64
(lp1900
S'1'
asbasbasbag57
(g73
g59
NtRp1901
(dp1902
g62
(dp1903
sg71
g1885
sg64
(lp1904
g57
(g78
g59
NtRp1905
(dp1906
g62
(dp1907
sg71
g1901
sg64
(lp1908
g57
(g58
g59
NtRp1909
(dp1910
g62
(dp1911
g70
I3
ssg71
g1905
sg64
(lp1912
S'0'
asbasbasbasbasbasbasbasbasbasbasbag57
(g73
g59
NtRp1913
(dp1914
g62
(dp1915
sg71
g67
sg64
(lp1916
g57
(g78
g59
NtRp1917
(dp1918
g62
(dp1919
g82
g83
ssg71
g1913
sg64
(lp1920
S'extension'
p1921
asbag57
(g78
g59
NtRp1922
(dp1923
g62
(dp1924
g89
g90
ssg71
g1913
sg64
(lp1925
S':'
asbag57
(g78
g59
NtRp1926
(dp1927
g62
(dp1928
sg71
g1913
sg64
(lp1929
g57
(g58
g59
NtRp1930
(dp1931
g62
(dp1932
g70
I5
ssg71
g1926
sg64
(lp1933
S'html'
p1934
asbasbasbag57
(g73
g59
NtRp1935
(dp1936
g62
(dp1937
sg71
g67
sg64
(lp1938
g57
(g78
g59
NtRp1939
(dp1940
g62
(dp1941
g82
g83
ssg71
g1935
sg64
(lp1942
S'folder'
p1943
asbag57
(g78
g59
NtRp1944
(dp1945
g62
(dp1946
g89
g90
ssg71
g1935
sg64
(lp1947
S':'
asbag57
(g78
g59
NtRp1948
(dp1949
g62
(dp1950
sg71
g1935
sg64
(lp1951
g57
(g58
g59
NtRp1952
(dp1953
g62
(dp1954
g70
I5
ssg71
g1948
sg64
(lp1955
S'/home/goshawk/web2py/applications/milo/'
p1956
asbasbasbag57
(g73
g59
NtRp1957
(dp1958
g62
(dp1959
sg71
g67
sg64
(lp1960
g57
(g78
g59
NtRp1961
(dp1962
g62
(dp1963
g82
g83
ssg71
g1957
sg64
(lp1964
S'function'
p1965
asbag57
(g78
g59
NtRp1966
(dp1967
g62
(dp1968
g89
g90
ssg71
g1957
sg64
(lp1969
S':'
asbag57
(g78
g59
NtRp1970
(dp1971
g62
(dp1972
sg71
g1957
sg64
(lp1973
g57
(g58
g59
NtRp1974
(dp1975
g62
(dp1976
g70
I5
ssg71
g1970
sg64
(lp1977
S'index'
p1978
asbasbasbag57
(g73
g59
NtRp1979
(dp1980
g62
(dp1981
sg71
g67
sg64
(lp1982
g57
(g78
g59
NtRp1983
(dp1984
g62
(dp1985
g82
g83
ssg71
g1979
sg64
(lp1986
S'get_vars'
p1987
asbag57
(g78
g59
NtRp1988
(dp1989
g62
(dp1990
g89
g90
ssg71
g1979
sg64
(lp1991
S':'
asbag57
(g78
g59
NtRp1992
(dp1993
g62
(dp1994
sg71
g1979
sg64
(lp1995
g57
(g58
g59
NtRp1996
(dp1997
g62
(dp1998
g70
I5
ssg71
g1992
sg64
(lp1999
g57
(g66
g59
NtRp2000
(dp2001
g62
(dp2002
g70
I4
ssg71
Nsg64
(lp2003
sbasbasbasbag57
(g73
g59
NtRp2004
(dp2005
g62
(dp2006
sg71
g67
sg64
(lp2007
g57
(g78
g59
NtRp2008
(dp2009
g62
(dp2010
g82
g83
ssg71
g2004
sg64
(lp2011
S'global_settings'
p2012
asbag57
(g78
g59
NtRp2013
(dp2014
g62
(dp2015
g89
g90
ssg71
g2004
sg64
(lp2016
S':'
asbag57
(g78
g59
NtRp2017
(dp2018
g62
(dp2019
sg71
g2004
sg64
(lp2020
g57
(g58
g59
NtRp2021
(dp2022
g62
(dp2023
g70
I5
ssg71
g2017
sg64
(lp2024
g57
(g66
g59
NtRp2025
(dp2026
g62
(dp2027
g70
I4
ssg71
Nsg64
(lp2028
g57
(g73
g59
NtRp2029
(dp2030
g62
(dp2031
sg71
g2025
sg64
(lp2032
g57
(g78
g59
NtRp2033
(dp2034
g62
(dp2035
g82
g83
ssg71
g2029
sg64
(lp2036
g912
asbag57
(g78
g59
NtRp2037
(dp2038
g62
(dp2039
g89
g90
ssg71
g2029
sg64
(lp2040
S':'
asbag57
(g78
g59
NtRp2041
(dp2042
g62
(dp2043
sg71
g2029
sg64
(lp2044
g57
(g58
g59
NtRp2045
(dp2046
g62
(dp2047
g70
I4
ssg71
g2041
sg64
(lp2048
S"set(['/home/goshawk/web2py/applications/milo/', '/home/goshawk/web2py/applications/admin/'])"
p2049
asbasbasbag57
(g73
g59
NtRp2050
(dp2051
g62
(dp2052
sg71
g2025
sg64
(lp2053
g57
(g78
g59
NtRp2054
(dp2055
g62
(dp2056
g82
g83
ssg71
g2050
sg64
(lp2057
g934
asbag57
(g78
g59
NtRp2058
(dp2059
g62
(dp2060
g89
g90
ssg71
g2050
sg64
(lp2061
S':'
asbag57
(g78
g59
NtRp2062
(dp2063
g62
(dp2064
sg71
g2050
sg64
(lp2065
g57
(g58
g59
NtRp2066
(dp2067
g62
(dp2068
g70
I4
ssg71
g2062
sg64
(lp2069
g947
asbasbasbag57
(g73
g59
NtRp2070
(dp2071
g62
(dp2072
sg71
g2025
sg64
(lp2073
g57
(g78
g59
NtRp2074
(dp2075
g62
(dp2076
g82
g83
ssg71
g2070
sg64
(lp2077
g956
asbag57
(g78
g59
NtRp2078
(dp2079
g62
(dp2080
g89
g90
ssg71
g2070
sg64
(lp2081
S':'
asbag57
(g78
g59
NtRp2082
(dp2083
g62
(dp2084
sg71
g2070
sg64
(lp2085
g57
(g58
g59
NtRp2086
(dp2087
g62
(dp2088
g70
I4
ssg71
g2082
sg64
(lp2089
g57
(g66
g59
NtRp2090
(dp2091
g62
(dp2092
g70
I3
ssg71
Nsg64
(lp2093
sbasbasbasbag57
(g73
g59
NtRp2094
(dp2095
g62
(dp2096
sg71
g2025
sg64
(lp2097
g57
(g78
g59
NtRp2098
(dp2099
g62
(dp2100
g82
g83
ssg71
g2094
sg64
(lp2101
g981
asbag57
(g78
g59
NtRp2102
(dp2103
g62
(dp2104
g89
g90
ssg71
g2094
sg64
(lp2105
S':'
asbag57
(g78
g59
NtRp2106
(dp2107
g62
(dp2108
sg71
g2094
sg64
(lp2109
g57
(g58
g59
NtRp2110
(dp2111
g62
(dp2112
g70
I4
ssg71
g2106
sg64
(lp2113
S"<Values at 0x1cc90e0: {'verbose': False, 'ip': '127.0.0.1', 'shutdown_timeout': 5, 'taskbar': False, 'nocron': False, 'pid_filename': 'httpserver.pid', 'maxthreads': None, 'softcron': False, 'server_name': 'whisperer', 'bpython': False, 'nogui': False, 'port': 8000, 'extcron': False, 'debuglevel': 30, 'test': None, 'folder': '/home/goshawk/web2py', 'config': '', 'import_models': False, 'winservice': '', 'shell': None, 'run': '', 'log_filename': 'httpserver.log', 'args': [''], 'socket_timeout': 5, 'ssl_ca_certificate': None, 'scheduler': None, 'profiler_filename': None, 'ssl_private_key': '', 'password': 'admin', 'request_queue_size': 5, 'ssl_certificate': '', 'cronjob': False, 'numthreads': None, 'quiet': False, 'interfaces': None, 'minthreads': None, 'timeout': 10, 'plain': False, 'nobanner': False}>"
p2114
asbasbasbag57
(g73
g59
NtRp2115
(dp2116
g62
(dp2117
sg71
g2025
sg64
(lp2118
g57
(g78
g59
NtRp2119
(dp2120
g62
(dp2121
g82
g83
ssg71
g2115
sg64
(lp2122
g1003
asbag57
(g78
g59
NtRp2123
(dp2124
g62
(dp2125
g89
g90
ssg71
g2115
sg64
(lp2126
S':'
asbag57
(g78
g59
NtRp2127
(dp2128
g62
(dp2129
sg71
g2115
sg64
(lp2130
g57
(g58
g59
NtRp2131
(dp2132
g62
(dp2133
g70
I4
ssg71
g2127
sg64
(lp2134
S'set([])'
p2135
asbasbasbag57
(g73
g59
NtRp2136
(dp2137
g62
(dp2138
sg71
g2025
sg64
(lp2139
g57
(g78
g59
NtRp2140
(dp2141
g62
(dp2142
g82
g83
ssg71
g2136
sg64
(lp2143
g1025
asbag57
(g78
g59
NtRp2144
(dp2145
g62
(dp2146
g89
g90
ssg71
g2136
sg64
(lp2147
S':'
asbag57
(g78
g59
NtRp2148
(dp2149
g62
(dp2150
sg71
g2136
sg64
(lp2151
g57
(g58
g59
NtRp2152
(dp2153
g62
(dp2154
g70
I4
ssg71
g2148
sg64
(lp2155
g100
asbasbasbag57
(g73
g59
NtRp2156
(dp2157
g62
(dp2158
sg71
g2025
sg64
(lp2159
g57
(g78
g59
NtRp2160
(dp2161
g62
(dp2162
g82
g83
ssg71
g2156
sg64
(lp2163
g1046
asbag57
(g78
g59
NtRp2164
(dp2165
g62
(dp2166
g89
g90
ssg71
g2156
sg64
(lp2167
S':'
asbag57
(g78
g59
NtRp2168
(dp2169
g62
(dp2170
sg71
g2156
sg64
(lp2171
g57
(g58
g59
NtRp2172
(dp2173
g62
(dp2174
g70
I4
ssg71
g2168
sg64
(lp2175
g1059
asbasbasbag57
(g73
g59
NtRp2176
(dp2177
g62
(dp2178
sg71
g2025
sg64
(lp2179
g57
(g78
g59
NtRp2180
(dp2181
g62
(dp2182
g82
g83
ssg71
g2176
sg64
(lp2183
g1288
asbag57
(g78
g59
NtRp2184
(dp2185
g62
(dp2186
g89
g90
ssg71
g2176
sg64
(lp2187
S':'
asbag57
(g78
g59
NtRp2188
(dp2189
g62
(dp2190
sg71
g2176
sg64
(lp2191
g57
(g58
g59
NtRp2192
(dp2193
g62
(dp2194
g70
I4
ssg71
g2188
sg64
(lp2195
g100
asbasbasbag57
(g73
g59
NtRp2196
(dp2197
g62
(dp2198
sg71
g2025
sg64
(lp2199
g57
(g78
g59
NtRp2200
(dp2201
g62
(dp2202
g82
g83
ssg71
g2196
sg64
(lp2203
g1309
asbag57
(g78
g59
NtRp2204
(dp2205
g62
(dp2206
g89
g90
ssg71
g2196
sg64
(lp2207
S':'
asbag57
(g78
g59
NtRp2208
(dp2209
g62
(dp2210
sg71
g2196
sg64
(lp2211
g57
(g58
g59
NtRp2212
(dp2213
g62
(dp2214
g70
I4
ssg71
g2208
sg64
(lp2215
g100
asbasbasbag57
(g73
g59
NtRp2216
(dp2217
g62
(dp2218
sg71
g2025
sg64
(lp2219
g57
(g78
g59
NtRp2220
(dp2221
g62
(dp2222
g82
g83
ssg71
g2216
sg64
(lp2223
g1568
asbag57
(g78
g59
NtRp2224
(dp2225
g62
(dp2226
g89
g90
ssg71
g2216
sg64
(lp2227
S':'
asbag57
(g78
g59
NtRp2228
(dp2229
g62
(dp2230
sg71
g2216
sg64
(lp2231
g57
(g58
g59
NtRp2232
(dp2233
g62
(dp2234
g70
I4
ssg71
g2228
sg64
(lp2235
g1581
asbasbasbag57
(g73
g59
NtRp2236
(dp2237
g62
(dp2238
sg71
g2025
sg64
(lp2239
g57
(g78
g59
NtRp2240
(dp2241
g62
(dp2242
g82
g83
ssg71
g2236
sg64
(lp2243
g1632
asbag57
(g78
g59
NtRp2244
(dp2245
g62
(dp2246
g89
g90
ssg71
g2236
sg64
(lp2247
S':'
asbag57
(g78
g59
NtRp2248
(dp2249
g62
(dp2250
sg71
g2236
sg64
(lp2251
g57
(g58
g59
NtRp2252
(dp2253
g62
(dp2254
g70
I4
ssg71
g2248
sg64
(lp2255
g57
(g66
g59
NtRp2256
(dp2257
g62
(dp2258
g70
I3
ssg71
Nsg64
(lp2259
g57
(g73
g59
NtRp2260
(dp2261
g62
(dp2262
sg71
g2256
sg64
(lp2263
g57
(g78
g59
NtRp2264
(dp2265
g62
(dp2266
sg71
g2260
sg64
(lp2267
g57
(g58
g59
NtRp2268
(dp2269
g62
(dp2270
g70
I3
ssg71
g2264
sg64
(lp2271
S'1'
asbasbasbag57
(g73
g59
NtRp2272
(dp2273
g62
(dp2274
sg71
g2256
sg64
(lp2275
g57
(g78
g59
NtRp2276
(dp2277
g62
(dp2278
sg71
g2272
sg64
(lp2279
g57
(g58
g59
NtRp2280
(dp2281
g62
(dp2282
g70
I3
ssg71
g2276
sg64
(lp2283
S'99'
p2284
asbasbasbag57
(g73
g59
NtRp2285
(dp2286
g62
(dp2287
sg71
g2256
sg64
(lp2288
g57
(g78
g59
NtRp2289
(dp2290
g62
(dp2291
sg71
g2285
sg64
(lp2292
g57
(g58
g59
NtRp2293
(dp2294
g62
(dp2295
g70
I3
ssg71
g2289
sg64
(lp2296
S'7'
asbasbasbag57
(g73
g59
NtRp2297
(dp2298
g62
(dp2299
sg71
g2256
sg64
(lp2300
g57
(g78
g59
NtRp2301
(dp2302
g62
(dp2303
sg71
g2297
sg64
(lp2304
g57
(g58
g59
NtRp2305
(dp2306
g62
(dp2307
g70
I3
ssg71
g2301
sg64
(lp2308
S'datetime.datetime(2012, 3, 4, 22, 12, 8)'
p2309
asbasbasbag57
(g73
g59
NtRp2310
(dp2311
g62
(dp2312
sg71
g2256
sg64
(lp2313
g57
(g78
g59
NtRp2314
(dp2315
g62
(dp2316
sg71
g2310
sg64
(lp2317
g57
(g58
g59
NtRp2318
(dp2319
g62
(dp2320
g70
I3
ssg71
g2314
sg64
(lp2321
g1711
asbasbasbasbasbasbasbasbasbasbasbag57
(g73
g59
NtRp2322
(dp2323
g62
(dp2324
sg71
g67
sg64
(lp2325
g57
(g78
g59
NtRp2326
(dp2327
g62
(dp2328
g82
g83
ssg71
g2322
sg64
(lp2329
S'is_https'
p2330
asbag57
(g78
g59
NtRp2331
(dp2332
g62
(dp2333
g89
g90
ssg71
g2322
sg64
(lp2334
S':'
asbag57
(g78
g59
NtRp2335
(dp2336
g62
(dp2337
sg71
g2322
sg64
(lp2338
g57
(g58
g59
NtRp2339
(dp2340
g62
(dp2341
g70
I5
ssg71
g2335
sg64
(lp2342
g100
asbasbasbag57
(g73
g59
NtRp2343
(dp2344
g62
(dp2345
sg71
g67
sg64
(lp2346
g57
(g78
g59
NtRp2347
(dp2348
g62
(dp2349
g82
g83
ssg71
g2343
sg64
(lp2350
S'is_local'
p2351
asbag57
(g78
g59
NtRp2352
(dp2353
g62
(dp2354
g89
g90
ssg71
g2343
sg64
(lp2355
S':'
asbag57
(g78
g59
NtRp2356
(dp2357
g62
(dp2358
sg71
g2343
sg64
(lp2359
g57
(g58
g59
NtRp2360
(dp2361
g62
(dp2362
g70
I5
ssg71
g2356
sg64
(lp2363
g1820
asbasbasbag57
(g73
g59
NtRp2364
(dp2365
g62
(dp2366
sg71
g67
sg64
(lp2367
g57
(g78
g59
NtRp2368
(dp2369
g62
(dp2370
g82
g83
ssg71
g2364
sg64
(lp2371
S'is_restful'
p2372
asbag57
(g78
g59
NtRp2373
(dp2374
g62
(dp2375
g89
g90
ssg71
g2364
sg64
(lp2376
S':'
asbag57
(g78
g59
NtRp2377
(dp2378
g62
(dp2379
sg71
g2364
sg64
(lp2380
g57
(g58
g59
NtRp2381
(dp2382
g62
(dp2383
g70
I5
ssg71
g2377
sg64
(lp2384
g100
asbasbasbag57
(g73
g59
NtRp2385
(dp2386
g62
(dp2387
sg71
g67
sg64
(lp2388
g57
(g78
g59
NtRp2389
(dp2390
g62
(dp2391
g82
g83
ssg71
g2385
sg64
(lp2392
S'now'
p2393
asbag57
(g78
g59
NtRp2394
(dp2395
g62
(dp2396
g89
g90
ssg71
g2385
sg64
(lp2397
S':'
asbag57
(g78
g59
NtRp2398
(dp2399
g62
(dp2400
sg71
g2385
sg64
(lp2401
g57
(g58
g59
NtRp2402
(dp2403
g62
(dp2404
g70
I5
ssg71
g2398
sg64
(lp2405
S'datetime.datetime(2012, 7, 20, 8, 46, 46, 812964)'
p2406
asbasbasbag57
(g73
g59
NtRp2407
(dp2408
g62
(dp2409
sg71
g67
sg64
(lp2410
g57
(g78
g59
NtRp2411
(dp2412
g62
(dp2413
g82
g83
ssg71
g2407
sg64
(lp2414
S'post_vars'
p2415
asbag57
(g78
g59
NtRp2416
(dp2417
g62
(dp2418
g89
g90
ssg71
g2407
sg64
(lp2419
S':'
asbag57
(g78
g59
NtRp2420
(dp2421
g62
(dp2422
sg71
g2407
sg64
(lp2423
g57
(g58
g59
NtRp2424
(dp2425
g62
(dp2426
g70
I5
ssg71
g2420
sg64
(lp2427
g57
(g66
g59
NtRp2428
(dp2429
g62
(dp2430
g70
I4
ssg71
Nsg64
(lp2431
sbasbasbasbag57
(g73
g59
NtRp2432
(dp2433
g62
(dp2434
sg71
g67
sg64
(lp2435
g57
(g78
g59
NtRp2436
(dp2437
g62
(dp2438
g82
g83
ssg71
g2432
sg64
(lp2439
S'raw_args'
p2440
asbag57
(g78
g59
NtRp2441
(dp2442
g62
(dp2443
g89
g90
ssg71
g2432
sg64
(lp2444
S':'
asbag57
(g78
g59
NtRp2445
(dp2446
g62
(dp2447
sg71
g2432
sg64
(lp2448
g57
(g58
g59
NtRp2449
(dp2450
g62
(dp2451
g70
I5
ssg71
g2445
sg64
(lp2452
S'milo/static/images/movies/posters/111772.jpg'
p2453
asbasbasbag57
(g73
g59
NtRp2454
(dp2455
g62
(dp2456
sg71
g67
sg64
(lp2457
g57
(g78
g59
NtRp2458
(dp2459
g62
(dp2460
g82
g83
ssg71
g2454
sg64
(lp2461
S'url'
p2462
asbag57
(g78
g59
NtRp2463
(dp2464
g62
(dp2465
g89
g90
ssg71
g2454
sg64
(lp2466
S':'
asbag57
(g78
g59
NtRp2467
(dp2468
g62
(dp2469
sg71
g2454
sg64
(lp2470
g57
(g58
g59
NtRp2471
(dp2472
g62
(dp2473
g70
I5
ssg71
g2467
sg64
(lp2474
S'/milo/default/index/milo/static/images/movies/posters/111772.jpg'
p2475
asbasbasbag57
(g73
g59
NtRp2476
(dp2477
g62
(dp2478
sg71
g67
sg64
(lp2479
g57
(g78
g59
NtRp2480
(dp2481
g62
(dp2482
g82
g83
ssg71
g2476
sg64
(lp2483
S'utcnow'
p2484
asbag57
(g78
g59
NtRp2485
(dp2486
g62
(dp2487
g89
g90
ssg71
g2476
sg64
(lp2488
S':'
asbag57
(g78
g59
NtRp2489
(dp2490
g62
(dp2491
sg71
g2476
sg64
(lp2492
g57
(g58
g59
NtRp2493
(dp2494
g62
(dp2495
g70
I5
ssg71
g2489
sg64
(lp2496
S'datetime.datetime(2012, 7, 20, 6, 46, 46, 812976)'
p2497
asbasbasbag57
(g73
g59
NtRp2498
(dp2499
g62
(dp2500
sg71
g67
sg64
(lp2501
g57
(g78
g59
NtRp2502
(dp2503
g62
(dp2504
g82
g83
ssg71
g2498
sg64
(lp2505
S'uuid'
p2506
asbag57
(g78
g59
NtRp2507
(dp2508
g62
(dp2509
g89
g90
ssg71
g2498
sg64
(lp2510
S':'
asbag57
(g78
g59
NtRp2511
(dp2512
g62
(dp2513
sg71
g2498
sg64
(lp2514
g57
(g58
g59
NtRp2515
(dp2516
g62
(dp2517
g70
I5
ssg71
g2511
sg64
(lp2518
S'milo/127.0.0.1.2012-07-20.08-46-46.f9ab6f28-ea7b-4cf9-be03-398d13ab896a'
p2519
asbasbasbag57
(g73
g59
NtRp2520
(dp2521
g62
(dp2522
sg71
g67
sg64
(lp2523
g57
(g78
g59
NtRp2524
(dp2525
g62
(dp2526
g82
g83
ssg71
g2520
sg64
(lp2527
S'vars'
p2528
asbag57
(g78
g59
NtRp2529
(dp2530
g62
(dp2531
g89
g90
ssg71
g2520
sg64
(lp2532
S':'
asbag57
(g78
g59
NtRp2533
(dp2534
g62
(dp2535
sg71
g2520
sg64
(lp2536
g57
(g58
g59
NtRp2537
(dp2538
g62
(dp2539
g70
I5
ssg71
g2533
sg64
(lp2540
g57
(g66
g59
NtRp2541
(dp2542
g62
(dp2543
g70
I4
ssg71
Nsg64
(lp2544
sbasbasbasbag57
(g73
g59
NtRp2545
(dp2546
g62
(dp2547
sg71
g67
sg64
(lp2548
g57
(g78
g59
NtRp2549
(dp2550
g62
(dp2551
g82
g83
ssg71
g2545
sg64
(lp2552
S'wsgi'
p2553
asbag57
(g78
g59
NtRp2554
(dp2555
g62
(dp2556
g89
g90
ssg71
g2545
sg64
(lp2557
S':'
asbag57
(g78
g59
NtRp2558
(dp2559
g62
(dp2560
sg71
g2545
sg64
(lp2561
g57
(g58
g59
NtRp2562
(dp2563
g62
(dp2564
g70
I5
ssg71
g2558
sg64
(lp2565
g57
(g66
g59
NtRp2566
(dp2567
g62
(dp2568
g70
I4
ssg71
Nsg64
(lp2569
g57
(g73
g59
NtRp2570
(dp2571
g62
(dp2572
sg71
g2566
sg64
(lp2573
g57
(g78
g59
NtRp2574
(dp2575
g62
(dp2576
g82
g83
ssg71
g2570
sg64
(lp2577
S'environ'
p2578
asbag57
(g78
g59
NtRp2579
(dp2580
g62
(dp2581
g89
g90
ssg71
g2570
sg64
(lp2582
S':'
asbag57
(g78
g59
NtRp2583
(dp2584
g62
(dp2585
sg71
g2570
sg64
(lp2586
g57
(g58
g59
NtRp2587
(dp2588
g62
(dp2589
g70
I4
ssg71
g2583
sg64
(lp2590
g57
(g66
g59
NtRp2591
(dp2592
g62
(dp2593
g70
I3
ssg71
Nsg64
(lp2594
g57
(g73
g59
NtRp2595
(dp2596
g62
(dp2597
sg71
g2591
sg64
(lp2598
g57
(g78
g59
NtRp2599
(dp2600
g62
(dp2601
g82
g83
ssg71
g2595
sg64
(lp2602
S'HTTP_ACCEPT'
p2603
asbag57
(g78
g59
NtRp2604
(dp2605
g62
(dp2606
g89
g90
ssg71
g2595
sg64
(lp2607
S':'
asbag57
(g78
g59
NtRp2608
(dp2609
g62
(dp2610
sg71
g2595
sg64
(lp2611
g57
(g58
g59
NtRp2612
(dp2613
g62
(dp2614
g70
I3
ssg71
g2608
sg64
(lp2615
g1081
asbasbasbag57
(g73
g59
NtRp2616
(dp2617
g62
(dp2618
sg71
g2591
sg64
(lp2619
g57
(g78
g59
NtRp2620
(dp2621
g62
(dp2622
g82
g83
ssg71
g2616
sg64
(lp2623
S'HTTP_ACCEPT_CHARSET'
p2624
asbag57
(g78
g59
NtRp2625
(dp2626
g62
(dp2627
g89
g90
ssg71
g2616
sg64
(lp2628
S':'
asbag57
(g78
g59
NtRp2629
(dp2630
g62
(dp2631
sg71
g2616
sg64
(lp2632
g57
(g58
g59
NtRp2633
(dp2634
g62
(dp2635
g70
I3
ssg71
g2629
sg64
(lp2636
g1103
asbasbasbag57
(g73
g59
NtRp2637
(dp2638
g62
(dp2639
sg71
g2591
sg64
(lp2640
g57
(g78
g59
NtRp2641
(dp2642
g62
(dp2643
g82
g83
ssg71
g2637
sg64
(lp2644
S'HTTP_ACCEPT_ENCODING'
p2645
asbag57
(g78
g59
NtRp2646
(dp2647
g62
(dp2648
g89
g90
ssg71
g2637
sg64
(lp2649
S':'
asbag57
(g78
g59
NtRp2650
(dp2651
g62
(dp2652
sg71
g2637
sg64
(lp2653
g57
(g58
g59
NtRp2654
(dp2655
g62
(dp2656
g70
I3
ssg71
g2650
sg64
(lp2657
g1125
asbasbasbag57
(g73
g59
NtRp2658
(dp2659
g62
(dp2660
sg71
g2591
sg64
(lp2661
g57
(g78
g59
NtRp2662
(dp2663
g62
(dp2664
g82
g83
ssg71
g2658
sg64
(lp2665
S'HTTP_ACCEPT_LANGUAGE'
p2666
asbag57
(g78
g59
NtRp2667
(dp2668
g62
(dp2669
g89
g90
ssg71
g2658
sg64
(lp2670
S':'
asbag57
(g78
g59
NtRp2671
(dp2672
g62
(dp2673
sg71
g2658
sg64
(lp2674
g57
(g58
g59
NtRp2675
(dp2676
g62
(dp2677
g70
I3
ssg71
g2671
sg64
(lp2678
g1147
asbasbasbag57
(g73
g59
NtRp2679
(dp2680
g62
(dp2681
sg71
g2591
sg64
(lp2682
g57
(g78
g59
NtRp2683
(dp2684
g62
(dp2685
g82
g83
ssg71
g2679
sg64
(lp2686
S'HTTP_CACHE_CONTROL'
p2687
asbag57
(g78
g59
NtRp2688
(dp2689
g62
(dp2690
g89
g90
ssg71
g2679
sg64
(lp2691
S':'
asbag57
(g78
g59
NtRp2692
(dp2693
g62
(dp2694
sg71
g2679
sg64
(lp2695
g57
(g58
g59
NtRp2696
(dp2697
g62
(dp2698
g70
I3
ssg71
g2692
sg64
(lp2699
g1169
asbasbasbag57
(g73
g59
NtRp2700
(dp2701
g62
(dp2702
sg71
g2591
sg64
(lp2703
g57
(g78
g59
NtRp2704
(dp2705
g62
(dp2706
g82
g83
ssg71
g2700
sg64
(lp2707
S'HTTP_CONNECTION'
p2708
asbag57
(g78
g59
NtRp2709
(dp2710
g62
(dp2711
g89
g90
ssg71
g2700
sg64
(lp2712
S':'
asbag57
(g78
g59
NtRp2713
(dp2714
g62
(dp2715
sg71
g2700
sg64
(lp2716
g57
(g58
g59
NtRp2717
(dp2718
g62
(dp2719
g70
I3
ssg71
g2713
sg64
(lp2720
g1191
asbasbasbag57
(g73
g59
NtRp2721
(dp2722
g62
(dp2723
sg71
g2591
sg64
(lp2724
g57
(g78
g59
NtRp2725
(dp2726
g62
(dp2727
g82
g83
ssg71
g2721
sg64
(lp2728
S'HTTP_COOKIE'
p2729
asbag57
(g78
g59
NtRp2730
(dp2731
g62
(dp2732
g89
g90
ssg71
g2721
sg64
(lp2733
S':'
asbag57
(g78
g59
NtRp2734
(dp2735
g62
(dp2736
sg71
g2721
sg64
(lp2737
g57
(g58
g59
NtRp2738
(dp2739
g62
(dp2740
g70
I3
ssg71
g2734
sg64
(lp2741
g1213
asbasbasbag57
(g73
g59
NtRp2742
(dp2743
g62
(dp2744
sg71
g2591
sg64
(lp2745
g57
(g78
g59
NtRp2746
(dp2747
g62
(dp2748
g82
g83
ssg71
g2742
sg64
(lp2749
S'HTTP_HOST'
p2750
asbag57
(g78
g59
NtRp2751
(dp2752
g62
(dp2753
g89
g90
ssg71
g2742
sg64
(lp2754
S':'
asbag57
(g78
g59
NtRp2755
(dp2756
g62
(dp2757
sg71
g2742
sg64
(lp2758
g57
(g58
g59
NtRp2759
(dp2760
g62
(dp2761
g70
I3
ssg71
g2755
sg64
(lp2762
g1235
asbasbasbag57
(g73
g59
NtRp2763
(dp2764
g62
(dp2765
sg71
g2591
sg64
(lp2766
g57
(g78
g59
NtRp2767
(dp2768
g62
(dp2769
g82
g83
ssg71
g2763
sg64
(lp2770
S'HTTP_REFERER'
p2771
asbag57
(g78
g59
NtRp2772
(dp2773
g62
(dp2774
g89
g90
ssg71
g2763
sg64
(lp2775
S':'
asbag57
(g78
g59
NtRp2776
(dp2777
g62
(dp2778
sg71
g2763
sg64
(lp2779
g57
(g58
g59
NtRp2780
(dp2781
g62
(dp2782
g70
I3
ssg71
g2776
sg64
(lp2783
g1257
asbasbasbag57
(g73
g59
NtRp2784
(dp2785
g62
(dp2786
sg71
g2591
sg64
(lp2787
g57
(g78
g59
NtRp2788
(dp2789
g62
(dp2790
g82
g83
ssg71
g2784
sg64
(lp2791
S'HTTP_USER_AGENT'
p2792
asbag57
(g78
g59
NtRp2793
(dp2794
g62
(dp2795
g89
g90
ssg71
g2784
sg64
(lp2796
S':'
asbag57
(g78
g59
NtRp2797
(dp2798
g62
(dp2799
sg71
g2784
sg64
(lp2800
g57
(g58
g59
NtRp2801
(dp2802
g62
(dp2803
g70
I3
ssg71
g2797
sg64
(lp2804
g1279
asbasbasbag57
(g73
g59
NtRp2805
(dp2806
g62
(dp2807
sg71
g2591
sg64
(lp2808
g57
(g78
g59
NtRp2809
(dp2810
g62
(dp2811
g82
g83
ssg71
g2805
sg64
(lp2812
S'PATH_INFO'
p2813
asbag57
(g78
g59
NtRp2814
(dp2815
g62
(dp2816
g89
g90
ssg71
g2805
sg64
(lp2817
S':'
asbag57
(g78
g59
NtRp2818
(dp2819
g62
(dp2820
sg71
g2805
sg64
(lp2821
g57
(g58
g59
NtRp2822
(dp2823
g62
(dp2824
g70
I3
ssg71
g2818
sg64
(lp2825
g1343
asbasbasbag57
(g73
g59
NtRp2826
(dp2827
g62
(dp2828
sg71
g2591
sg64
(lp2829
g57
(g78
g59
NtRp2830
(dp2831
g62
(dp2832
g82
g83
ssg71
g2826
sg64
(lp2833
S'QUERY_STRING'
p2834
asbag57
(g78
g59
NtRp2835
(dp2836
g62
(dp2837
g89
g90
ssg71
g2826
sg64
(lp2838
S':'
asbag57
(g78
g59
NtRp2839
(dp2840
g62
(dp2841
sg71
g2826
sg64
(lp2842
g57
(g58
g59
NtRp2843
(dp2844
g62
(dp2845
g70
I3
ssg71
g2839
sg64
(lp2846
S''
asbasbasbag57
(g73
g59
NtRp2847
(dp2848
g62
(dp2849
sg71
g2591
sg64
(lp2850
g57
(g78
g59
NtRp2851
(dp2852
g62
(dp2853
g82
g83
ssg71
g2847
sg64
(lp2854
S'REMOTE_ADDR'
p2855
asbag57
(g78
g59
NtRp2856
(dp2857
g62
(dp2858
g89
g90
ssg71
g2847
sg64
(lp2859
S':'
asbag57
(g78
g59
NtRp2860
(dp2861
g62
(dp2862
sg71
g2847
sg64
(lp2863
g57
(g58
g59
NtRp2864
(dp2865
g62
(dp2866
g70
I3
ssg71
g2860
sg64
(lp2867
g268
asbasbasbag57
(g73
g59
NtRp2868
(dp2869
g62
(dp2870
sg71
g2591
sg64
(lp2871
g57
(g78
g59
NtRp2872
(dp2873
g62
(dp2874
g82
g83
ssg71
g2868
sg64
(lp2875
S'REMOTE_PORT'
p2876
asbag57
(g78
g59
NtRp2877
(dp2878
g62
(dp2879
g89
g90
ssg71
g2868
sg64
(lp2880
S':'
asbag57
(g78
g59
NtRp2881
(dp2882
g62
(dp2883
sg71
g2868
sg64
(lp2884
g57
(g58
g59
NtRp2885
(dp2886
g62
(dp2887
g70
I3
ssg71
g2881
sg64
(lp2888
g1407
asbasbasbag57
(g73
g59
NtRp2889
(dp2890
g62
(dp2891
sg71
g2591
sg64
(lp2892
g57
(g78
g59
NtRp2893
(dp2894
g62
(dp2895
g82
g83
ssg71
g2889
sg64
(lp2896
S'REQUEST_METHOD'
p2897
asbag57
(g78
g59
NtRp2898
(dp2899
g62
(dp2900
g89
g90
ssg71
g2889
sg64
(lp2901
S':'
asbag57
(g78
g59
NtRp2902
(dp2903
g62
(dp2904
sg71
g2889
sg64
(lp2905
g57
(g58
g59
NtRp2906
(dp2907
g62
(dp2908
g70
I3
ssg71
g2902
sg64
(lp2909
g1429
asbasbasbag57
(g73
g59
NtRp2910
(dp2911
g62
(dp2912
sg71
g2591
sg64
(lp2913
g57
(g78
g59
NtRp2914
(dp2915
g62
(dp2916
g82
g83
ssg71
g2910
sg64
(lp2917
S'REQUEST_URI'
p2918
asbag57
(g78
g59
NtRp2919
(dp2920
g62
(dp2921
g89
g90
ssg71
g2910
sg64
(lp2922
S':'
asbag57
(g78
g59
NtRp2923
(dp2924
g62
(dp2925
sg71
g2910
sg64
(lp2926
g57
(g58
g59
NtRp2927
(dp2928
g62
(dp2929
g70
I3
ssg71
g2923
sg64
(lp2930
g1343
asbasbasbag57
(g73
g59
NtRp2931
(dp2932
g62
(dp2933
sg71
g2591
sg64
(lp2934
g57
(g78
g59
NtRp2935
(dp2936
g62
(dp2937
g82
g83
ssg71
g2931
sg64
(lp2938
S'SCRIPT_NAME'
p2939
asbag57
(g78
g59
NtRp2940
(dp2941
g62
(dp2942
g89
g90
ssg71
g2931
sg64
(lp2943
S':'
asbag57
(g78
g59
NtRp2944
(dp2945
g62
(dp2946
sg71
g2931
sg64
(lp2947
g57
(g58
g59
NtRp2948
(dp2949
g62
(dp2950
g70
I3
ssg71
g2944
sg64
(lp2951
S''
asbasbasbag57
(g73
g59
NtRp2952
(dp2953
g62
(dp2954
sg71
g2591
sg64
(lp2955
g57
(g78
g59
NtRp2956
(dp2957
g62
(dp2958
g82
g83
ssg71
g2952
sg64
(lp2959
S'SERVER_NAME'
p2960
asbag57
(g78
g59
NtRp2961
(dp2962
g62
(dp2963
g89
g90
ssg71
g2952
sg64
(lp2964
S':'
asbag57
(g78
g59
NtRp2965
(dp2966
g62
(dp2967
sg71
g2952
sg64
(lp2968
g57
(g58
g59
NtRp2969
(dp2970
g62
(dp2971
g70
I3
ssg71
g2965
sg64
(lp2972
g1493
asbasbasbag57
(g73
g59
NtRp2973
(dp2974
g62
(dp2975
sg71
g2591
sg64
(lp2976
g57
(g78
g59
NtRp2977
(dp2978
g62
(dp2979
g82
g83
ssg71
g2973
sg64
(lp2980
S'SERVER_PORT'
p2981
asbag57
(g78
g59
NtRp2982
(dp2983
g62
(dp2984
g89
g90
ssg71
g2973
sg64
(lp2985
S':'
asbag57
(g78
g59
NtRp2986
(dp2987
g62
(dp2988
sg71
g2973
sg64
(lp2989
g57
(g58
g59
NtRp2990
(dp2991
g62
(dp2992
g70
I3
ssg71
g2986
sg64
(lp2993
g1515
asbasbasbag57
(g73
g59
NtRp2994
(dp2995
g62
(dp2996
sg71
g2591
sg64
(lp2997
g57
(g78
g59
NtRp2998
(dp2999
g62
(dp3000
g82
g83
ssg71
g2994
sg64
(lp3001
S'SERVER_PROTOCOL'
p3002
asbag57
(g78
g59
NtRp3003
(dp3004
g62
(dp3005
g89
g90
ssg71
g2994
sg64
(lp3006
S':'
asbag57
(g78
g59
NtRp3007
(dp3008
g62
(dp3009
sg71
g2994
sg64
(lp3010
g57
(g58
g59
NtRp3011
(dp3012
g62
(dp3013
g70
I3
ssg71
g3007
sg64
(lp3014
g1537
asbasbasbag57
(g73
g59
NtRp3015
(dp3016
g62
(dp3017
sg71
g2591
sg64
(lp3018
g57
(g78
g59
NtRp3019
(dp3020
g62
(dp3021
g82
g83
ssg71
g3015
sg64
(lp3022
S'SERVER_SOFTWARE'
p3023
asbag57
(g78
g59
NtRp3024
(dp3025
g62
(dp3026
g89
g90
ssg71
g3015
sg64
(lp3027
S':'
asbag57
(g78
g59
NtRp3028
(dp3029
g62
(dp3030
sg71
g3015
sg64
(lp3031
g57
(g58
g59
NtRp3032
(dp3033
g62
(dp3034
g70
I3
ssg71
g3028
sg64
(lp3035
g1559
asbasbasbag57
(g73
g59
NtRp3036
(dp3037
g62
(dp3038
sg71
g2591
sg64
(lp3039
g57
(g78
g59
NtRp3040
(dp3041
g62
(dp3042
g82
g83
ssg71
g3036
sg64
(lp3043
S'WEB2PY_ORIGINAL_URI'
p3044
asbag57
(g78
g59
NtRp3045
(dp3046
g62
(dp3047
g89
g90
ssg71
g3036
sg64
(lp3048
S':'
asbag57
(g78
g59
NtRp3049
(dp3050
g62
(dp3051
sg71
g3036
sg64
(lp3052
g57
(g58
g59
NtRp3053
(dp3054
g62
(dp3055
g70
I3
ssg71
g3049
sg64
(lp3056
g1343
asbasbasbag57
(g73
g59
NtRp3057
(dp3058
g62
(dp3059
sg71
g2591
sg64
(lp3060
g57
(g78
g59
NtRp3061
(dp3062
g62
(dp3063
g82
g83
ssg71
g3057
sg64
(lp3064
S'wsgi.errors'
p3065
asbag57
(g78
g59
NtRp3066
(dp3067
g62
(dp3068
g89
g90
ssg71
g3057
sg64
(lp3069
S':'
asbag57
(g78
g59
NtRp3070
(dp3071
g62
(dp3072
sg71
g3057
sg64
(lp3073
g57
(g58
g59
NtRp3074
(dp3075
g62
(dp3076
g70
I3
ssg71
g3070
sg64
(lp3077
S"<open file '<stderr>', mode 'w' at 0x7fb4b1797270>"
p3078
asbasbasbag57
(g73
g59
NtRp3079
(dp3080
g62
(dp3081
sg71
g2591
sg64
(lp3082
g57
(g78
g59
NtRp3083
(dp3084
g62
(dp3085
g82
g83
ssg71
g3079
sg64
(lp3086
S'wsgi.file_wrapper'
p3087
asbag57
(g78
g59
NtRp3088
(dp3089
g62
(dp3090
g89
g90
ssg71
g3079
sg64
(lp3091
S':'
asbag57
(g78
g59
NtRp3092
(dp3093
g62
(dp3094
sg71
g3079
sg64
(lp3095
g57
(g58
g59
NtRp3096
(dp3097
g62
(dp3098
g70
I3
ssg71
g3092
sg64
(lp3099
S'<class wsgiref.util.FileWrapper at 0x1bf5f58>'
p3100
asbasbasbag57
(g73
g59
NtRp3101
(dp3102
g62
(dp3103
sg71
g2591
sg64
(lp3104
g57
(g78
g59
NtRp3105
(dp3106
g62
(dp3107
g82
g83
ssg71
g3101
sg64
(lp3108
S'wsgi.input'
p3109
asbag57
(g78
g59
NtRp3110
(dp3111
g62
(dp3112
g89
g90
ssg71
g3101
sg64
(lp3113
S':'
asbag57
(g78
g59
NtRp3114
(dp3115
g62
(dp3116
sg71
g3101
sg64
(lp3117
g57
(g58
g59
NtRp3118
(dp3119
g62
(dp3120
g70
I3
ssg71
g3114
sg64
(lp3121
S'<cStringIO.StringO object at 0x7fb4804c8ce0>'
p3122
asbasbasbag57
(g73
g59
NtRp3123
(dp3124
g62
(dp3125
sg71
g2591
sg64
(lp3126
g57
(g78
g59
NtRp3127
(dp3128
g62
(dp3129
g82
g83
ssg71
g3123
sg64
(lp3130
S'wsgi.multiprocess'
p3131
asbag57
(g78
g59
NtRp3132
(dp3133
g62
(dp3134
g89
g90
ssg71
g3123
sg64
(lp3135
S':'
asbag57
(g78
g59
NtRp3136
(dp3137
g62
(dp3138
sg71
g3123
sg64
(lp3139
g57
(g58
g59
NtRp3140
(dp3141
g62
(dp3142
g70
I3
ssg71
g3136
sg64
(lp3143
g100
asbasbasbag57
(g73
g59
NtRp3144
(dp3145
g62
(dp3146
sg71
g2591
sg64
(lp3147
g57
(g78
g59
NtRp3148
(dp3149
g62
(dp3150
g82
g83
ssg71
g3144
sg64
(lp3151
S'wsgi.multithread'
p3152
asbag57
(g78
g59
NtRp3153
(dp3154
g62
(dp3155
g89
g90
ssg71
g3144
sg64
(lp3156
S':'
asbag57
(g78
g59
NtRp3157
(dp3158
g62
(dp3159
sg71
g3144
sg64
(lp3160
g57
(g58
g59
NtRp3161
(dp3162
g62
(dp3163
g70
I3
ssg71
g3157
sg64
(lp3164
g1820
asbasbasbag57
(g73
g59
NtRp3165
(dp3166
g62
(dp3167
sg71
g2591
sg64
(lp3168
g57
(g78
g59
NtRp3169
(dp3170
g62
(dp3171
g82
g83
ssg71
g3165
sg64
(lp3172
S'wsgi.run_once'
p3173
asbag57
(g78
g59
NtRp3174
(dp3175
g62
(dp3176
g89
g90
ssg71
g3165
sg64
(lp3177
S':'
asbag57
(g78
g59
NtRp3178
(dp3179
g62
(dp3180
sg71
g3165
sg64
(lp3181
g57
(g58
g59
NtRp3182
(dp3183
g62
(dp3184
g70
I3
ssg71
g3178
sg64
(lp3185
g100
asbasbasbag57
(g73
g59
NtRp3186
(dp3187
g62
(dp3188
sg71
g2591
sg64
(lp3189
g57
(g78
g59
NtRp3190
(dp3191
g62
(dp3192
g82
g83
ssg71
g3186
sg64
(lp3193
S'wsgi.url_scheme'
p3194
asbag57
(g78
g59
NtRp3195
(dp3196
g62
(dp3197
g89
g90
ssg71
g3186
sg64
(lp3198
S':'
asbag57
(g78
g59
NtRp3199
(dp3200
g62
(dp3201
sg71
g3186
sg64
(lp3202
g57
(g58
g59
NtRp3203
(dp3204
g62
(dp3205
g70
I3
ssg71
g3199
sg64
(lp3206
g1863
asbasbasbag57
(g73
g59
NtRp3207
(dp3208
g62
(dp3209
sg71
g2591
sg64
(lp3210
g57
(g78
g59
NtRp3211
(dp3212
g62
(dp3213
g82
g83
ssg71
g3207
sg64
(lp3214
S'wsgi.version'
p3215
asbag57
(g78
g59
NtRp3216
(dp3217
g62
(dp3218
g89
g90
ssg71
g3207
sg64
(lp3219
S':'
asbag57
(g78
g59
NtRp3220
(dp3221
g62
(dp3222
sg71
g3207
sg64
(lp3223
g57
(g58
g59
NtRp3224
(dp3225
g62
(dp3226
g70
I3
ssg71
g3220
sg64
(lp3227
S'1'
asbasbasbasbasbasbasbasbasbasbasbasbasbsS'frames'
p3228
(lp3229
(dp3230
S'file'
p3231
S'/home/goshawk/web2py/gluon/restricted.py'
p3232
sS'dump'
p3233
(dp3234
S'environment'
p3235
S"{'A': <class 'gluon.html.A'>, 'Auth': <class 'gluon.tools.Auth'>, 'B': <class 'gluon.html.B'>, 'BEAUTIFY': <class 'gluon.html.BEAUTIFY'>, 'BODY': <class 'gluon.html.BODY'>, 'BR': <class 'gluon.html.BR'>, 'BUTTON': <class 'gluon.html.BUTTON'>, 'CAT': <class 'gluon.html.CAT'>, 'CENTER': <class 'gluon.html.CENTER'>, 'CLEANUP': <class 'gluon.validators.CLEANUP'>, ...}"
p3236
sS'ccode'
p3237
S'<code object <module> at 0x7fb47c13e730, file "/...plications/milo/controllers/default.py", line 12>'
p3238
ssS'lnum'
p3239
I205
sS'lines'
p3240
(dp3241
I200
S'    try:'
p3242
sI201
S'        if type(code) == types.CodeType:'
p3243
sI202
S'            ccode = code'
p3244
sI203
S'        else:'
p3245
sI204
S'            ccode = compile2(code,layer)'
p3246
sI205
S'        exec ccode in environment'
p3247
sI206
S'    except HTTP:'
p3248
sI207
S'        raise'
p3249
sI208
S'    except RestrictedError:'
p3250
sI209
S'        # do not encapsulate (obfuscate) the original RestrictedError'
p3251
ssS'call'
p3252
S"(code='# -*- coding: utf-8 -*-\\n# this file is released ...crud())\\n\\n\\nresponse._vars=response._caller(index)\\n', environment={'A': <class 'gluon.html.A'>, 'Auth': <class 'gluon.tools.Auth'>, 'B': <class 'gluon.html.B'>, 'BEAUTIFY': <class 'gluon.html.BEAUTIFY'>, 'BODY': <class 'gluon.html.BODY'>, 'BR': <class 'gluon.html.BR'>, 'BUTTON': <class 'gluon.html.BUTTON'>, 'CAT': <class 'gluon.html.CAT'>, 'CENTER': <class 'gluon.html.CENTER'>, 'CLEANUP': <class 'gluon.validators.CLEANUP'>, ...}, layer='/home/goshawk/web2py/applications/milo/controllers/default.py')"
p3253
sS'func'
p3254
S'restricted'
p3255
sa(dp3256
g3231
S'/home/goshawk/web2py/applications/milo/controllers/default.py'
p3257
sg3233
(dp3258
sg3239
I74
sg3240
(dp3259
I64
S'    http://..../[app]/default/data/select/[table]'
p3260
sI65
S'    http://..../[app]/default/data/search/[table]'
p3261
sI66
S'    but URLs must be signed, i.e. linked with'
p3262
sI67
S"      A('table',_href=URL('data/tables',user_signature=True))"
p3263
sI68
S'    or with the signed load operator'
p3264
sI69
S"      LOAD('default','data.load',args='tables',ajax=True,user_signature=True)"
p3265
sI70
S'    """'
p3266
sI71
S'    return dict(form=crud())'
p3267
sI72
S''
sI63
S'    http://..../[app]/default/data/delete/[table]/[id]'
p3268
ssg3252
S'()'
p3269
sg3254
S'<module>'
p3270
sa(dp3271
g3231
S'/home/goshawk/web2py/gluon/globals.py'
p3272
sg3233
(dp3273
S'self'
p3274
S'undefined'
p3275
sS'f'
S'<function index>'
p3276
ssg3239
I173
sg3240
(dp3277
I168
S'        self.menu = []             # used by the default view layout'
p3278
sI169
S'        self.files = []            # used by web2py_ajax.html'
p3279
sI170
S'        self.generic_patterns = [] # patterns to allow generic views'
p3280
sI171
S"        self.delimiters = ('{{','}}')"
p3281
sI172
S'        self._vars = None'
p3282
sI173
S'        self._caller = lambda f: f()'
p3283
sI174
S'        self._view_environment = None'
p3284
sI175
S'        self._custom_commit = None'
p3285
sI176
S'        self._custom_rollback = None'
p3286
sI177
S''
ssg3252
S'(f=<function index>)'
p3287
sg3254
S'<lambda>'
p3288
sa(dp3289
g3231
S'/home/goshawk/web2py/applications/milo/controllers/default.py'
p3290
sg3233
(dp3291
S'global request'
p3292
S"<Storage {'body': <cStringIO.StringO object at 0..._vars': <Storage {}>, 'post_vars': <Storage {}>}>"
p3293
sS'request.args'
p3294
S"['milo', 'static', 'images', 'movies', 'posters', '111772.jpg']"
p3295
sS'builtinint'
p3296
S"<type 'int'>"
p3297
sS'page'
p3298
g3275
ssg3239
I15
sg3240
(dp3299
I10
S'#########################################################################'
p3300
sI11
S''
sI12
S'ITEMS_PER_PAGE = 12'
p3301
sI13
S''
sI14
S'def index():'
p3302
sI15
S'    page = 0 if not request.args(0) else int(request.args(0))'
p3303
sI16
S'    query = db(movies_with_ratings&movies_with_titles&with_poster)'
p3304
sI17
S'    list_movies = query.select(limitby=(page*ITEMS_PER_PAGE,page*ITEMS_PER_PAGE+ITEMS_PER_PAGE)).as_list()'
p3305
sI18
S'    max_items = query.count()'
p3306
sI19
S'    return dict(list_movies = list_movies, slider_movies = list_movies, page = page, max_items=max_items, items_per_page=ITEMS_PER_PAGE)'
p3307
ssg3252
S'()'
p3308
sg3254
S'index'
p3309
sasS'pyver'
p3310
S'Python 2.7.3: /usr/bin/python'
p3311
sS'session'
p3312
g57
(g58
g59
NtRp3313
(dp3314
g62
(dp3315
sg64
(lp3316
g57
(g66
g59
NtRp3317
(dp3318
g62
(dp3319
g70
I5
ssg71
Nsg64
(lp3320
g57
(g73
g59
NtRp3321
(dp3322
g62
(dp3323
sg71
g3317
sg64
(lp3324
g57
(g78
g59
NtRp3325
(dp3326
g62
(dp3327
g82
g83
ssg71
g3321
sg64
(lp3328
S'last_query'
p3329
asbag57
(g78
g59
NtRp3330
(dp3331
g62
(dp3332
g89
g90
ssg71
g3321
sg64
(lp3333
S':'
asbag57
(g78
g59
NtRp3334
(dp3335
g62
(dp3336
sg71
g3321
sg64
(lp3337
g57
(g58
g59
NtRp3338
(dp3339
g62
(dp3340
g70
I5
ssg71
g3334
sg64
(lp3341
S"~(db.movies.poster.startswith('h'))"
p3342
asbasbasbasbasbsS'etype'
p3343
S"<type 'exceptions.ValueError'>"
p3344
sS'date'
p3345
S'Fri Jul 20 08:46:47 2012'
p3346
sS'response'
p3347
g57
(g58
g59
NtRp3348
(dp3349
g62
(dp3350
sg64
(lp3351
g57
(g66
g59
NtRp3352
(dp3353
g62
(dp3354
g70
I5
ssg71
Nsg64
(lp3355
g57
(g73
g59
NtRp3356
(dp3357
g62
(dp3358
sg71
g3352
sg64
(lp3359
g57
(g78
g59
NtRp3360
(dp3361
g62
(dp3362
g82
g83
ssg71
g3356
sg64
(lp3363
g233
asbag57
(g78
g59
NtRp3364
(dp3365
g62
(dp3366
g89
g90
ssg71
g3356
sg64
(lp3367
S':'
asbag57
(g78
g59
NtRp3368
(dp3369
g62
(dp3370
sg71
g3356
sg64
(lp3371
g57
(g58
g59
NtRp3372
(dp3373
g62
(dp3374
g70
I5
ssg71
g3368
sg64
(lp3375
S'<cStringIO.StringO object at 0x7fb4804c8a08>'
p3376
asbasbasbag57
(g73
g59
NtRp3377
(dp3378
g62
(dp3379
sg71
g3352
sg64
(lp3380
g57
(g78
g59
NtRp3381
(dp3382
g62
(dp3383
g82
g83
ssg71
g3377
sg64
(lp3384
g299
asbag57
(g78
g59
NtRp3385
(dp3386
g62
(dp3387
g89
g90
ssg71
g3377
sg64
(lp3388
S':'
asbag57
(g78
g59
NtRp3389
(dp3390
g62
(dp3391
sg71
g3377
sg64
(lp3392
g57
(g58
g59
NtRp3393
(dp3394
g62
(dp3395
g70
I5
ssg71
g3389
sg64
(lp3396
g57
(g66
g59
NtRp3397
(dp3398
g62
(dp3399
g70
I4
ssg71
Nsg64
(lp3400
g57
(g73
g59
NtRp3401
(dp3402
g62
(dp3403
sg71
g3397
sg64
(lp3404
g57
(g78
g59
NtRp3405
(dp3406
g62
(dp3407
g82
g83
ssg71
g3401
sg64
(lp3408
S'session_id_milo'
p3409
asbag57
(g78
g59
NtRp3410
(dp3411
g62
(dp3412
g89
g90
ssg71
g3401
sg64
(lp3413
S':'
asbag57
(g78
g59
NtRp3414
(dp3415
g62
(dp3416
sg71
g3401
sg64
(lp3417
g57
(g58
g59
NtRp3418
(dp3419
g62
(dp3420
g70
I4
ssg71
g3414
sg64
(lp3421
g57
(g66
g59
NtRp3422
(dp3423
g62
(dp3424
g70
I3
ssg71
Nsg64
(lp3425
g57
(g73
g59
NtRp3426
(dp3427
g62
(dp3428
sg71
g3422
sg64
(lp3429
g57
(g78
g59
NtRp3430
(dp3431
g62
(dp3432
g82
g83
ssg71
g3426
sg64
(lp3433
g349
asbag57
(g78
g59
NtRp3434
(dp3435
g62
(dp3436
g89
g90
ssg71
g3426
sg64
(lp3437
S':'
asbag57
(g78
g59
NtRp3438
(dp3439
g62
(dp3440
sg71
g3426
sg64
(lp3441
g57
(g58
g59
NtRp3442
(dp3443
g62
(dp3444
g70
I3
ssg71
g3438
sg64
(lp3445
S''
asbasbasbag57
(g73
g59
NtRp3446
(dp3447
g62
(dp3448
sg71
g3422
sg64
(lp3449
g57
(g78
g59
NtRp3450
(dp3451
g62
(dp3452
g82
g83
ssg71
g3446
sg64
(lp3453
g370
asbag57
(g78
g59
NtRp3454
(dp3455
g62
(dp3456
g89
g90
ssg71
g3446
sg64
(lp3457
S':'
asbag57
(g78
g59
NtRp3458
(dp3459
g62
(dp3460
sg71
g3446
sg64
(lp3461
g57
(g58
g59
NtRp3462
(dp3463
g62
(dp3464
g70
I3
ssg71
g3458
sg64
(lp3465
S''
asbasbasbag57
(g73
g59
NtRp3466
(dp3467
g62
(dp3468
sg71
g3422
sg64
(lp3469
g57
(g78
g59
NtRp3470
(dp3471
g62
(dp3472
g82
g83
ssg71
g3466
sg64
(lp3473
g391
asbag57
(g78
g59
NtRp3474
(dp3475
g62
(dp3476
g89
g90
ssg71
g3466
sg64
(lp3477
S':'
asbag57
(g78
g59
NtRp3478
(dp3479
g62
(dp3480
sg71
g3466
sg64
(lp3481
g57
(g58
g59
NtRp3482
(dp3483
g62
(dp3484
g70
I3
ssg71
g3478
sg64
(lp3485
S''
asbasbasbag57
(g73
g59
NtRp3486
(dp3487
g62
(dp3488
sg71
g3422
sg64
(lp3489
g57
(g78
g59
NtRp3490
(dp3491
g62
(dp3492
g82
g83
ssg71
g3486
sg64
(lp3493
g412
asbag57
(g78
g59
NtRp3494
(dp3495
g62
(dp3496
g89
g90
ssg71
g3486
sg64
(lp3497
S':'
asbag57
(g78
g59
NtRp3498
(dp3499
g62
(dp3500
sg71
g3486
sg64
(lp3501
g57
(g58
g59
NtRp3502
(dp3503
g62
(dp3504
g70
I3
ssg71
g3498
sg64
(lp3505
S''
asbasbasbag57
(g73
g59
NtRp3506
(dp3507
g62
(dp3508
sg71
g3422
sg64
(lp3509
g57
(g78
g59
NtRp3510
(dp3511
g62
(dp3512
g82
g83
ssg71
g3506
sg64
(lp3513
g433
asbag57
(g78
g59
NtRp3514
(dp3515
g62
(dp3516
g89
g90
ssg71
g3506
sg64
(lp3517
S':'
asbag57
(g78
g59
NtRp3518
(dp3519
g62
(dp3520
sg71
g3506
sg64
(lp3521
g57
(g58
g59
NtRp3522
(dp3523
g62
(dp3524
g70
I3
ssg71
g3518
sg64
(lp3525
S''
asbasbasbag57
(g73
g59
NtRp3526
(dp3527
g62
(dp3528
sg71
g3422
sg64
(lp3529
g57
(g78
g59
NtRp3530
(dp3531
g62
(dp3532
g82
g83
ssg71
g3526
sg64
(lp3533
g454
asbag57
(g78
g59
NtRp3534
(dp3535
g62
(dp3536
g89
g90
ssg71
g3526
sg64
(lp3537
S':'
asbag57
(g78
g59
NtRp3538
(dp3539
g62
(dp3540
sg71
g3526
sg64
(lp3541
g57
(g58
g59
NtRp3542
(dp3543
g62
(dp3544
g70
I3
ssg71
g3538
sg64
(lp3545
S'/'
asbasbasbag57
(g73
g59
NtRp3546
(dp3547
g62
(dp3548
sg71
g3422
sg64
(lp3549
g57
(g78
g59
NtRp3550
(dp3551
g62
(dp3552
g82
g83
ssg71
g3546
sg64
(lp3553
g475
asbag57
(g78
g59
NtRp3554
(dp3555
g62
(dp3556
g89
g90
ssg71
g3546
sg64
(lp3557
S':'
asbag57
(g78
g59
NtRp3558
(dp3559
g62
(dp3560
sg71
g3546
sg64
(lp3561
g57
(g58
g59
NtRp3562
(dp3563
g62
(dp3564
g70
I3
ssg71
g3558
sg64
(lp3565
S''
asbasbasbag57
(g73
g59
NtRp3566
(dp3567
g62
(dp3568
sg71
g3422
sg64
(lp3569
g57
(g78
g59
NtRp3570
(dp3571
g62
(dp3572
g82
g83
ssg71
g3566
sg64
(lp3573
g496
asbag57
(g78
g59
NtRp3574
(dp3575
g62
(dp3576
g89
g90
ssg71
g3566
sg64
(lp3577
S':'
asbag57
(g78
g59
NtRp3578
(dp3579
g62
(dp3580
sg71
g3566
sg64
(lp3581
g57
(g58
g59
NtRp3582
(dp3583
g62
(dp3584
g70
I3
ssg71
g3578
sg64
(lp3585
S''
asbasbasbasbasbasbasbasbasbasbasbag57
(g73
g59
NtRp3586
(dp3587
g62
(dp3588
sg71
g3352
sg64
(lp3589
g57
(g78
g59
NtRp3590
(dp3591
g62
(dp3592
g82
g83
ssg71
g3586
sg64
(lp3593
S'delimiters'
p3594
asbag57
(g78
g59
NtRp3595
(dp3596
g62
(dp3597
g89
g90
ssg71
g3586
sg64
(lp3598
S':'
asbag57
(g78
g59
NtRp3599
(dp3600
g62
(dp3601
sg71
g3586
sg64
(lp3602
g57
(g58
g59
NtRp3603
(dp3604
g62
(dp3605
g70
I5
ssg71
g3599
sg64
(lp3606
g57
(g66
g59
NtRp3607
(dp3608
g62
(dp3609
g70
I4
ssg71
Nsg64
(lp3610
g57
(g73
g59
NtRp3611
(dp3612
g62
(dp3613
sg71
g3607
sg64
(lp3614
g57
(g78
g59
NtRp3615
(dp3616
g62
(dp3617
sg71
g3611
sg64
(lp3618
g57
(g58
g59
NtRp3619
(dp3620
g62
(dp3621
g70
I4
ssg71
g3615
sg64
(lp3622
S'{{'
p3623
asbasbasbag57
(g73
g59
NtRp3624
(dp3625
g62
(dp3626
sg71
g3607
sg64
(lp3627
g57
(g78
g59
NtRp3628
(dp3629
g62
(dp3630
sg71
g3624
sg64
(lp3631
g57
(g58
g59
NtRp3632
(dp3633
g62
(dp3634
g70
I4
ssg71
g3628
sg64
(lp3635
S'}}'
p3636
asbasbasbasbasbasbasbag57
(g73
g59
NtRp3637
(dp3638
g62
(dp3639
sg71
g3352
sg64
(lp3640
g57
(g78
g59
NtRp3641
(dp3642
g62
(dp3643
g82
g83
ssg71
g3637
sg64
(lp3644
S'files'
p3645
asbag57
(g78
g59
NtRp3646
(dp3647
g62
(dp3648
g89
g90
ssg71
g3637
sg64
(lp3649
S':'
asbag57
(g78
g59
NtRp3650
(dp3651
g62
(dp3652
sg71
g3637
sg64
(lp3653
g57
(g58
g59
NtRp3654
(dp3655
g62
(dp3656
g70
I5
ssg71
g3650
sg64
(lp3657
g57
(g66
g59
NtRp3658
(dp3659
g62
(dp3660
g70
I4
ssg71
Nsg64
(lp3661
sbasbasbasbag57
(g73
g59
NtRp3662
(dp3663
g62
(dp3664
sg71
g3352
sg64
(lp3665
g57
(g78
g59
NtRp3666
(dp3667
g62
(dp3668
g82
g83
ssg71
g3662
sg64
(lp3669
S'flash'
p3670
asbag57
(g78
g59
NtRp3671
(dp3672
g62
(dp3673
g89
g90
ssg71
g3662
sg64
(lp3674
S':'
asbag57
(g78
g59
NtRp3675
(dp3676
g62
(dp3677
sg71
g3662
sg64
(lp3678
g57
(g58
g59
NtRp3679
(dp3680
g62
(dp3681
g70
I5
ssg71
g3675
sg64
(lp3682
S''
asbasbasbag57
(g73
g59
NtRp3683
(dp3684
g62
(dp3685
sg71
g3352
sg64
(lp3686
g57
(g78
g59
NtRp3687
(dp3688
g62
(dp3689
g82
g83
ssg71
g3683
sg64
(lp3690
S'generic_patterns'
p3691
asbag57
(g78
g59
NtRp3692
(dp3693
g62
(dp3694
g89
g90
ssg71
g3683
sg64
(lp3695
S':'
asbag57
(g78
g59
NtRp3696
(dp3697
g62
(dp3698
sg71
g3683
sg64
(lp3699
g57
(g58
g59
NtRp3700
(dp3701
g62
(dp3702
g70
I5
ssg71
g3696
sg64
(lp3703
g57
(g66
g59
NtRp3704
(dp3705
g62
(dp3706
g70
I4
ssg71
Nsg64
(lp3707
g57
(g73
g59
NtRp3708
(dp3709
g62
(dp3710
sg71
g3704
sg64
(lp3711
g57
(g78
g59
NtRp3712
(dp3713
g62
(dp3714
sg71
g3708
sg64
(lp3715
g57
(g58
g59
NtRp3716
(dp3717
g62
(dp3718
g70
I4
ssg71
g3712
sg64
(lp3719
S'*'
asbasbasbasbasbasbasbag57
(g73
g59
NtRp3720
(dp3721
g62
(dp3722
sg71
g3352
sg64
(lp3723
g57
(g78
g59
NtRp3724
(dp3725
g62
(dp3726
g82
g83
ssg71
g3720
sg64
(lp3727
S'headers'
p3728
asbag57
(g78
g59
NtRp3729
(dp3730
g62
(dp3731
g89
g90
ssg71
g3720
sg64
(lp3732
S':'
asbag57
(g78
g59
NtRp3733
(dp3734
g62
(dp3735
sg71
g3720
sg64
(lp3736
g57
(g58
g59
NtRp3737
(dp3738
g62
(dp3739
g70
I5
ssg71
g3733
sg64
(lp3740
g57
(g66
g59
NtRp3741
(dp3742
g62
(dp3743
g70
I4
ssg71
Nsg64
(lp3744
g57
(g73
g59
NtRp3745
(dp3746
g62
(dp3747
sg71
g3741
sg64
(lp3748
g57
(g78
g59
NtRp3749
(dp3750
g62
(dp3751
g82
g83
ssg71
g3745
sg64
(lp3752
S'Cache-Control'
p3753
asbag57
(g78
g59
NtRp3754
(dp3755
g62
(dp3756
g89
g90
ssg71
g3745
sg64
(lp3757
S':'
asbag57
(g78
g59
NtRp3758
(dp3759
g62
(dp3760
sg71
g3745
sg64
(lp3761
g57
(g58
g59
NtRp3762
(dp3763
g62
(dp3764
g70
I4
ssg71
g3758
sg64
(lp3765
S'no-store, no-cache, must-revalidate, post-check=0, pre-check=0'
p3766
asbasbasbag57
(g73
g59
NtRp3767
(dp3768
g62
(dp3769
sg71
g3741
sg64
(lp3770
g57
(g78
g59
NtRp3771
(dp3772
g62
(dp3773
g82
g83
ssg71
g3767
sg64
(lp3774
S'Content-Type'
p3775
asbag57
(g78
g59
NtRp3776
(dp3777
g62
(dp3778
g89
g90
ssg71
g3767
sg64
(lp3779
S':'
asbag57
(g78
g59
NtRp3780
(dp3781
g62
(dp3782
sg71
g3767
sg64
(lp3783
g57
(g58
g59
NtRp3784
(dp3785
g62
(dp3786
g70
I4
ssg71
g3780
sg64
(lp3787
S'text/html; charset=utf-8'
p3788
asbasbasbag57
(g73
g59
NtRp3789
(dp3790
g62
(dp3791
sg71
g3741
sg64
(lp3792
g57
(g78
g59
NtRp3793
(dp3794
g62
(dp3795
g82
g83
ssg71
g3789
sg64
(lp3796
S'Expires'
p3797
asbag57
(g78
g59
NtRp3798
(dp3799
g62
(dp3800
g89
g90
ssg71
g3789
sg64
(lp3801
S':'
asbag57
(g78
g59
NtRp3802
(dp3803
g62
(dp3804
sg71
g3789
sg64
(lp3805
g57
(g58
g59
NtRp3806
(dp3807
g62
(dp3808
g70
I4
ssg71
g3802
sg64
(lp3809
S'Fri, 20 Jul 2012 06:46:47 GMT'
p3810
asbasbasbag57
(g73
g59
NtRp3811
(dp3812
g62
(dp3813
sg71
g3741
sg64
(lp3814
g57
(g78
g59
NtRp3815
(dp3816
g62
(dp3817
g82
g83
ssg71
g3811
sg64
(lp3818
S'Pragma'
p3819
asbag57
(g78
g59
NtRp3820
(dp3821
g62
(dp3822
g89
g90
ssg71
g3811
sg64
(lp3823
S':'
asbag57
(g78
g59
NtRp3824
(dp3825
g62
(dp3826
sg71
g3811
sg64
(lp3827
g57
(g58
g59
NtRp3828
(dp3829
g62
(dp3830
g70
I4
ssg71
g3824
sg64
(lp3831
S'no-cache'
p3832
asbasbasbag57
(g73
g59
NtRp3833
(dp3834
g62
(dp3835
sg71
g3741
sg64
(lp3836
g57
(g78
g59
NtRp3837
(dp3838
g62
(dp3839
g82
g83
ssg71
g3833
sg64
(lp3840
S'X-Powered-By'
p3841
asbag57
(g78
g59
NtRp3842
(dp3843
g62
(dp3844
g89
g90
ssg71
g3833
sg64
(lp3845
S':'
asbag57
(g78
g59
NtRp3846
(dp3847
g62
(dp3848
sg71
g3833
sg64
(lp3849
g57
(g58
g59
NtRp3850
(dp3851
g62
(dp3852
g70
I4
ssg71
g3846
sg64
(lp3853
S'web2py'
p3854
asbasbasbasbasbasbasbag57
(g73
g59
NtRp3855
(dp3856
g62
(dp3857
sg71
g3352
sg64
(lp3858
g57
(g78
g59
NtRp3859
(dp3860
g62
(dp3861
g82
g83
ssg71
g3855
sg64
(lp3862
S'menu'
p3863
asbag57
(g78
g59
NtRp3864
(dp3865
g62
(dp3866
g89
g90
ssg71
g3855
sg64
(lp3867
S':'
asbag57
(g78
g59
NtRp3868
(dp3869
g62
(dp3870
sg71
g3855
sg64
(lp3871
g57
(g58
g59
NtRp3872
(dp3873
g62
(dp3874
g70
I5
ssg71
g3868
sg64
(lp3875
g57
(g66
g59
NtRp3876
(dp3877
g62
(dp3878
g70
I4
ssg71
Nsg64
(lp3879
g57
(g73
g59
NtRp3880
(dp3881
g62
(dp3882
sg71
g3876
sg64
(lp3883
g57
(g78
g59
NtRp3884
(dp3885
g62
(dp3886
sg71
g3880
sg64
(lp3887
g57
(g58
g59
NtRp3888
(dp3889
g62
(dp3890
g70
I4
ssg71
g3884
sg64
(lp3891
g57
(g66
g59
NtRp3892
(dp3893
g62
(dp3894
g70
I3
ssg71
Nsg64
(lp3895
g57
(g73
g59
NtRp3896
(dp3897
g62
(dp3898
sg71
g3892
sg64
(lp3899
g57
(g78
g59
NtRp3900
(dp3901
g62
(dp3902
sg71
g3896
sg64
(lp3903
g57
(g58
g59
NtRp3904
(dp3905
g62
(dp3906
g70
I3
ssg71
g3900
sg64
(lp3907
cgluon.languages
lazyT_unpickle
p3908
(S't\x04\x00\x00\x00Home'
tRp3909
asbasbasbag57
(g73
g59
NtRp3910
(dp3911
g62
(dp3912
sg71
g3892
sg64
(lp3913
g57
(g78
g59
NtRp3914
(dp3915
g62
(dp3916
sg71
g3910
sg64
(lp3917
g57
(g58
g59
NtRp3918
(dp3919
g62
(dp3920
g70
I3
ssg71
g3914
sg64
(lp3921
g100
asbasbasbag57
(g73
g59
NtRp3922
(dp3923
g62
(dp3924
sg71
g3892
sg64
(lp3925
g57
(g78
g59
NtRp3926
(dp3927
g62
(dp3928
sg71
g3922
sg64
(lp3929
g57
(g58
g59
NtRp3930
(dp3931
g62
(dp3932
g70
I3
ssg71
g3926
sg64
(lp3933
S'/milo/default/index'
p3934
asbasbasbag57
(g73
g59
NtRp3935
(dp3936
g62
(dp3937
sg71
g3892
sg64
(lp3938
g57
(g78
g59
NtRp3939
(dp3940
g62
(dp3941
sg71
g3935
sg64
(lp3942
g57
(g58
g59
NtRp3943
(dp3944
g62
(dp3945
g70
I3
ssg71
g3939
sg64
(lp3946
g57
(g66
g59
NtRp3947
(dp3948
g62
(dp3949
g70
I2
ssg71
Nsg64
(lp3950
sbasbasbasbasbasbasbasbag57
(g73
g59
NtRp3951
(dp3952
g62
(dp3953
sg71
g3876
sg64
(lp3954
g57
(g78
g59
NtRp3955
(dp3956
g62
(dp3957
sg71
g3951
sg64
(lp3958
g57
(g58
g59
NtRp3959
(dp3960
g62
(dp3961
g70
I4
ssg71
g3955
sg64
(lp3962
g57
(g66
g59
NtRp3963
(dp3964
g62
(dp3965
g70
I3
ssg71
Nsg64
(lp3966
g57
(g73
g59
NtRp3967
(dp3968
g62
(dp3969
sg71
g3963
sg64
(lp3970
g57
(g78
g59
NtRp3971
(dp3972
g62
(dp3973
sg71
g3967
sg64
(lp3974
g57
(g58
g59
NtRp3975
(dp3976
g62
(dp3977
g70
I3
ssg71
g3971
sg64
(lp3978
g3908
(S't\x05\x00\x00\x00Admin'
tRp3979
asbasbasbag57
(g73
g59
NtRp3980
(dp3981
g62
(dp3982
sg71
g3963
sg64
(lp3983
g57
(g78
g59
NtRp3984
(dp3985
g62
(dp3986
sg71
g3980
sg64
(lp3987
g57
(g58
g59
NtRp3988
(dp3989
g62
(dp3990
g70
I3
ssg71
g3984
sg64
(lp3991
g100
asbasbasbag57
(g73
g59
NtRp3992
(dp3993
g62
(dp3994
sg71
g3963
sg64
(lp3995
g57
(g78
g59
NtRp3996
(dp3997
g62
(dp3998
sg71
g3992
sg64
(lp3999
g57
(g58
g59
NtRp4000
(dp4001
g62
(dp4002
g70
I3
ssg71
g3996
sg64
(lp4003
S'/milo/admin/index'
p4004
asbasbasbag57
(g73
g59
NtRp4005
(dp4006
g62
(dp4007
sg71
g3963
sg64
(lp4008
g57
(g78
g59
NtRp4009
(dp4010
g62
(dp4011
sg71
g4005
sg64
(lp4012
g57
(g58
g59
NtRp4013
(dp4014
g62
(dp4015
g70
I3
ssg71
g4009
sg64
(lp4016
g57
(g66
g59
NtRp4017
(dp4018
g62
(dp4019
g70
I2
ssg71
Nsg64
(lp4020
sbasbasbasbasbasbasbasbag57
(g73
g59
NtRp4021
(dp4022
g62
(dp4023
sg71
g3876
sg64
(lp4024
g57
(g78
g59
NtRp4025
(dp4026
g62
(dp4027
sg71
g4021
sg64
(lp4028
g57
(g58
g59
NtRp4029
(dp4030
g62
(dp4031
g70
I4
ssg71
g4025
sg64
(lp4032
g57
(g66
g59
NtRp4033
(dp4034
g62
(dp4035
g70
I3
ssg71
Nsg64
(lp4036
g57
(g73
g59
NtRp4037
(dp4038
g62
(dp4039
sg71
g4033
sg64
(lp4040
g57
(g78
g59
NtRp4041
(dp4042
g62
(dp4043
sg71
g4037
sg64
(lp4044
g57
(g58
g59
NtRp4045
(dp4046
g62
(dp4047
g70
I3
ssg71
g4041
sg64
(lp4048
g57
(cgluon.html
SPAN
p4049
g59
NtRp4050
(dp4051
g62
(dp4052
g82
S'color:yellow'
p4053
ssg71
Nsg64
(lp4054
g3854
asbasbasbasbag57
(g73
g59
NtRp4055
(dp4056
g62
(dp4057
sg71
g4033
sg64
(lp4058
g57
(g78
g59
NtRp4059
(dp4060
g62
(dp4061
sg71
g4055
sg64
(lp4062
g57
(g58
g59
NtRp4063
(dp4064
g62
(dp4065
g70
I3
ssg71
g4059
sg64
(lp4066
g100
asbasbasbag57
(g73
g59
NtRp4067
(dp4068
g62
(dp4069
sg71
g4033
sg64
(lp4070
g57
(g78
g59
NtRp4071
(dp4072
g62
(dp4073
sg71
g4067
sg64
(lp4074
g57
(g58
g59
NtRp4075
(dp4076
g62
(dp4077
g70
I3
ssg71
g4071
sg64
(lp4078
S'None'
p4079
asbasbasbag57
(g73
g59
NtRp4080
(dp4081
g62
(dp4082
sg71
g4033
sg64
(lp4083
g57
(g78
g59
NtRp4084
(dp4085
g62
(dp4086
sg71
g4080
sg64
(lp4087
g57
(g58
g59
NtRp4088
(dp4089
g62
(dp4090
g70
I3
ssg71
g4084
sg64
(lp4091
g57
(g66
g59
NtRp4092
(dp4093
g62
(dp4094
g70
I2
ssg71
Nsg64
(lp4095
g57
(g73
g59
NtRp4096
(dp4097
g62
(dp4098
sg71
g4092
sg64
(lp4099
g57
(g78
g59
NtRp4100
(dp4101
g62
(dp4102
sg71
g4096
sg64
(lp4103
g57
(g58
g59
NtRp4104
(dp4105
g62
(dp4106
g70
I2
ssg71
g4100
sg64
(lp4107
g57
(g66
g59
NtRp4108
(dp4109
g62
(dp4110
g70
I1
ssg71
Nsg64
(lp4111
g57
(g73
g59
NtRp4112
(dp4113
g62
(dp4114
sg71
g4108
sg64
(lp4115
g57
(g78
g59
NtRp4116
(dp4117
g62
(dp4118
sg71
g4112
sg64
(lp4119
g57
(g58
g59
NtRp4120
(dp4121
g62
(dp4122
g70
I1
ssg71
g4116
sg64
(lp4123
g3908
(S's\x08\x00\x00\x00My Sites'
tRp4124
asbasbasbag57
(g73
g59
NtRp4125
(dp4126
g62
(dp4127
sg71
g4108
sg64
(lp4128
g57
(g78
g59
NtRp4129
(dp4130
g62
(dp4131
sg71
g4125
sg64
(lp4132
g57
(g58
g59
NtRp4133
(dp4134
g62
(dp4135
g70
I1
ssg71
g4129
sg64
(lp4136
I00
asbasbasbag57
(g73
g59
NtRp4137
(dp4138
g62
(dp4139
sg71
g4108
sg64
(lp4140
g57
(g78
g59
NtRp4141
(dp4142
g62
(dp4143
sg71
g4137
sg64
(lp4144
g57
(g58
g59
NtRp4145
(dp4146
g62
(dp4147
g70
I1
ssg71
g4141
sg64
(lp4148
S'/admin/default/site'
p4149
asbasbasbasbasbasbasbag57
(g73
g59
NtRp4150
(dp4151
g62
(dp4152
sg71
g4092
sg64
(lp4153
g57
(g78
g59
NtRp4154
(dp4155
g62
(dp4156
sg71
g4150
sg64
(lp4157
g57
(g58
g59
NtRp4158
(dp4159
g62
(dp4160
g70
I2
ssg71
g4154
sg64
(lp4161
g57
(g66
g59
NtRp4162
(dp4163
g62
(dp4164
g70
I1
ssg71
Nsg64
(lp4165
g57
(g73
g59
NtRp4166
(dp4167
g62
(dp4168
sg71
g4162
sg64
(lp4169
g57
(g78
g59
NtRp4170
(dp4171
g62
(dp4172
sg71
g4166
sg64
(lp4173
g57
(g58
g59
NtRp4174
(dp4175
g62
(dp4176
g70
I1
ssg71
g4170
sg64
(lp4177
g3908
(S's\x08\x00\x00\x00This App'
tRp4178
asbasbasbag57
(g73
g59
NtRp4179
(dp4180
g62
(dp4181
sg71
g4162
sg64
(lp4182
g57
(g78
g59
NtRp4183
(dp4184
g62
(dp4185
sg71
g4179
sg64
(lp4186
g57
(g58
g59
NtRp4187
(dp4188
g62
(dp4189
g70
I1
ssg71
g4183
sg64
(lp4190
I00
asbasbasbag57
(g73
g59
NtRp4191
(dp4192
g62
(dp4193
sg71
g4162
sg64
(lp4194
g57
(g78
g59
NtRp4195
(dp4196
g62
(dp4197
sg71
g4191
sg64
(lp4198
g57
(g58
g59
NtRp4199
(dp4200
g62
(dp4201
g70
I1
ssg71
g4195
sg64
(lp4202
S'/admin/default/design/milo'
p4203
asbasbasbag57
(g73
g59
NtRp4204
(dp4205
g62
(dp4206
sg71
g4162
sg64
(lp4207
g57
(g78
g59
NtRp4208
(dp4209
g62
(dp4210
sg71
g4204
sg64
(lp4211
g57
(g58
g59
NtRp4212
(dp4213
g62
(dp4214
g70
I1
ssg71
g4208
sg64
(lp4215
(lp4216
(g3908
(S't\n\x00\x00\x00Controller'
tRp4217
I00
S'/admin/default/edit/milo/controllers/default.py'
tp4218
a(g3908
(S't\x04\x00\x00\x00View'
tRp4219
I00
S'/admin/default/edit/milo/views/default/index.html'
tp4220
a(g3908
(S't\x06\x00\x00\x00Layout'
tRp4221
I00
S'/admin/default/edit/milo/views/layout.html'
tp4222
a(g3908
(S't\n\x00\x00\x00Stylesheet'
tRp4223
I00
S'/admin/default/edit/milo/static/css/web2py.css'
tp4224
a(g3908
(S's\x08\x00\x00\x00DB Model'
tRp4225
I00
S'/admin/default/edit/milo/models/db.py'
tp4226
a(g3908
(S's\n\x00\x00\x00Menu Model'
tRp4227
I00
S'/admin/default/edit/milo/models/menu.py'
tp4228
a(g3908
(S't\x08\x00\x00\x00Database'
tRp4229
I00
S'/milo/appadmin/index'
tp4230
a(g3908
(S't\x06\x00\x00\x00Errors'
tRp4231
I00
S'/admin/default/errors/milo'
tp4232
a(g3908
(S't\x05\x00\x00\x00About'
tRp4233
I00
S'/admin/default/about/milo'
tp4234
aasbasbasbasbasbasbasbag57
(g73
g59
NtRp4235
(dp4236
g62
(dp4237
sg71
g4092
sg64
(lp4238
g57
(g78
g59
NtRp4239
(dp4240
g62
(dp4241
sg71
g4235
sg64
(lp4242
g57
(g58
g59
NtRp4243
(dp4244
g62
(dp4245
g70
I2
ssg71
g4239
sg64
(lp4246
g57
(g66
g59
NtRp4247
(dp4248
g62
(dp4249
g70
I1
ssg71
Nsg64
(lp4250
g57
(g73
g59
NtRp4251
(dp4252
g62
(dp4253
sg71
g4247
sg64
(lp4254
g57
(g78
g59
NtRp4255
(dp4256
g62
(dp4257
sg71
g4251
sg64
(lp4258
g57
(g58
g59
NtRp4259
(dp4260
g62
(dp4261
g70
I1
ssg71
g4255
sg64
(lp4262
S'web2py.com'
p4263
asbasbasbag57
(g73
g59
NtRp4264
(dp4265
g62
(dp4266
sg71
g4247
sg64
(lp4267
g57
(g78
g59
NtRp4268
(dp4269
g62
(dp4270
sg71
g4264
sg64
(lp4271
g57
(g58
g59
NtRp4272
(dp4273
g62
(dp4274
g70
I1
ssg71
g4268
sg64
(lp4275
I00
asbasbasbag57
(g73
g59
NtRp4276
(dp4277
g62
(dp4278
sg71
g4247
sg64
(lp4279
g57
(g78
g59
NtRp4280
(dp4281
g62
(dp4282
sg71
g4276
sg64
(lp4283
g57
(g58
g59
NtRp4284
(dp4285
g62
(dp4286
g70
I1
ssg71
g4280
sg64
(lp4287
S'http://www.web2py.com'
p4288
asbasbasbag57
(g73
g59
NtRp4289
(dp4290
g62
(dp4291
sg71
g4247
sg64
(lp4292
g57
(g78
g59
NtRp4293
(dp4294
g62
(dp4295
sg71
g4289
sg64
(lp4296
g57
(g58
g59
NtRp4297
(dp4298
g62
(dp4299
g70
I1
ssg71
g4293
sg64
(lp4300
(lp4301
(g3908
(S't\x08\x00\x00\x00Download'
tRp4302
I00
S'http://www.web2py.com/examples/default/download'
p4303
tp4304
a(g3908
(S't\x07\x00\x00\x00Support'
tRp4305
I00
S'http://www.web2py.com/examples/default/support'
p4306
tp4307
a(g3908
(S't\x04\x00\x00\x00Demo'
tRp4308
I00
S'http://web2py.com/demo_admin'
p4309
tp4310
a(g3908
(S's\x0e\x00\x00\x00Quick Examples'
tRp4311
I00
S'http://web2py.com/examples/default/examples'
p4312
tp4313
a(g3908
(S't\x03\x00\x00\x00FAQ'
tRp4314
I00
S'http://web2py.com/AlterEgo'
p4315
tp4316
a(g3908
(S't\x06\x00\x00\x00Videos'
tRp4317
I00
S'http://www.web2py.com/examples/default/videos/'
p4318
tp4319
a(g3908
(S's\x11\x00\x00\x00Free Applications'
tRp4320
I00
S'http://web2py.com/appliances'
p4321
tp4322
a(g3908
(S't\x07\x00\x00\x00Plugins'
tRp4323
I00
S'http://web2py.com/plugins'
p4324
tp4325
a(g3908
(S't\x07\x00\x00\x00Layouts'
tRp4326
I00
S'http://web2py.com/layouts'
p4327
tp4328
a(g3908
(S't\x07\x00\x00\x00Recipes'
tRp4329
I00
S'http://web2pyslices.com/'
p4330
tp4331
a(g3908
(S't\x08\x00\x00\x00Semantic'
tRp4332
I00
S'http://web2py.com/semantic'
p4333
tp4334
aasbasbasbasbasbasbasbag57
(g73
g59
NtRp4335
(dp4336
g62
(dp4337
sg71
g4092
sg64
(lp4338
g57
(g78
g59
NtRp4339
(dp4340
g62
(dp4341
sg71
g4335
sg64
(lp4342
g57
(g58
g59
NtRp4343
(dp4344
g62
(dp4345
g70
I2
ssg71
g4339
sg64
(lp4346
g57
(g66
g59
NtRp4347
(dp4348
g62
(dp4349
g70
I1
ssg71
Nsg64
(lp4350
g57
(g73
g59
NtRp4351
(dp4352
g62
(dp4353
sg71
g4347
sg64
(lp4354
g57
(g78
g59
NtRp4355
(dp4356
g62
(dp4357
sg71
g4351
sg64
(lp4358
g57
(g58
g59
NtRp4359
(dp4360
g62
(dp4361
g70
I1
ssg71
g4355
sg64
(lp4362
g3908
(S't\r\x00\x00\x00Documentation'
tRp4363
asbasbasbag57
(g73
g59
NtRp4364
(dp4365
g62
(dp4366
sg71
g4347
sg64
(lp4367
g57
(g78
g59
NtRp4368
(dp4369
g62
(dp4370
sg71
g4364
sg64
(lp4371
g57
(g58
g59
NtRp4372
(dp4373
g62
(dp4374
g70
I1
ssg71
g4368
sg64
(lp4375
I00
asbasbasbag57
(g73
g59
NtRp4376
(dp4377
g62
(dp4378
sg71
g4347
sg64
(lp4379
g57
(g78
g59
NtRp4380
(dp4381
g62
(dp4382
sg71
g4376
sg64
(lp4383
g57
(g58
g59
NtRp4384
(dp4385
g62
(dp4386
g70
I1
ssg71
g4380
sg64
(lp4387
S'http://www.web2py.com/book'
p4388
asbasbasbag57
(g73
g59
NtRp4389
(dp4390
g62
(dp4391
sg71
g4347
sg64
(lp4392
g57
(g78
g59
NtRp4393
(dp4394
g62
(dp4395
sg71
g4389
sg64
(lp4396
g57
(g58
g59
NtRp4397
(dp4398
g62
(dp4399
g70
I1
ssg71
g4393
sg64
(lp4400
(lp4401
(g3908
(S't\x07\x00\x00\x00Preface'
tRp4402
I00
S'http://www.web2py.com/book/default/chapter/00'
p4403
tp4404
a(g3908
(S't\x0c\x00\x00\x00Introduction'
tRp4405
I00
S'http://www.web2py.com/book/default/chapter/01'
p4406
tp4407
a(g3908
(S't\x06\x00\x00\x00Python'
tRp4408
I00
S'http://www.web2py.com/book/default/chapter/02'
p4409
tp4410
a(g3908
(S't\x08\x00\x00\x00Overview'
tRp4411
I00
S'http://www.web2py.com/book/default/chapter/03'
p4412
tp4413
a(g3908
(S's\x08\x00\x00\x00The Core'
tRp4414
I00
S'http://www.web2py.com/book/default/chapter/04'
p4415
tp4416
a(g3908
(S's\t\x00\x00\x00The Views'
tRp4417
I00
S'http://www.web2py.com/book/default/chapter/05'
p4418
tp4419
a(g3908
(S't\x08\x00\x00\x00Database'
tRp4420
I00
S'http://www.web2py.com/book/default/chapter/06'
p4421
tp4422
a(g3908
(S's\x14\x00\x00\x00Forms and Validators'
tRp4423
I00
S'http://www.web2py.com/book/default/chapter/07'
p4424
tp4425
a(g3908
(S's\r\x00\x00\x00Email and SMS'
tRp4426
I00
S'http://www.web2py.com/book/default/chapter/08'
p4427
tp4428
a(g3908
(S's\x0e\x00\x00\x00Access Control'
tRp4429
I00
S'http://www.web2py.com/book/default/chapter/09'
p4430
tp4431
a(g3908
(S't\x08\x00\x00\x00Services'
tRp4432
I00
S'http://www.web2py.com/book/default/chapter/10'
p4433
tp4434
a(g3908
(S's\x0c\x00\x00\x00Ajax Recipes'
tRp4435
I00
S'http://www.web2py.com/book/default/chapter/11'
p4436
tp4437
a(g3908
(S's\x16\x00\x00\x00Components and Plugins'
tRp4438
I00
S'http://www.web2py.com/book/default/chapter/12'
p4439
tp4440
a(g3908
(S's\x12\x00\x00\x00Deployment Recipes'
tRp4441
I00
S'http://www.web2py.com/book/default/chapter/13'
p4442
tp4443
a(g3908
(S's\r\x00\x00\x00Other Recipes'
tRp4444
I00
S'http://www.web2py.com/book/default/chapter/14'
p4445
tp4446
a(g3908
(S's\r\x00\x00\x00Buy this book'
tRp4447
I00
S'http://stores.lulu.com/web2py'
p4448
tp4449
aasbasbasbasbasbasbasbag57
(g73
g59
NtRp4450
(dp4451
g62
(dp4452
sg71
g4092
sg64
(lp4453
g57
(g78
g59
NtRp4454
(dp4455
g62
(dp4456
sg71
g4450
sg64
(lp4457
g57
(g58
g59
NtRp4458
(dp4459
g62
(dp4460
g70
I2
ssg71
g4454
sg64
(lp4461
g57
(g66
g59
NtRp4462
(dp4463
g62
(dp4464
g70
I1
ssg71
Nsg64
(lp4465
g57
(g73
g59
NtRp4466
(dp4467
g62
(dp4468
sg71
g4462
sg64
(lp4469
g57
(g78
g59
NtRp4470
(dp4471
g62
(dp4472
sg71
g4466
sg64
(lp4473
g57
(g58
g59
NtRp4474
(dp4475
g62
(dp4476
g70
I1
ssg71
g4470
sg64
(lp4477
g3908
(S't\t\x00\x00\x00Community'
tRp4478
asbasbasbag57
(g73
g59
NtRp4479
(dp4480
g62
(dp4481
sg71
g4462
sg64
(lp4482
g57
(g78
g59
NtRp4483
(dp4484
g62
(dp4485
sg71
g4479
sg64
(lp4486
g57
(g58
g59
NtRp4487
(dp4488
g62
(dp4489
g70
I1
ssg71
g4483
sg64
(lp4490
I00
asbasbasbag57
(g73
g59
NtRp4491
(dp4492
g62
(dp4493
sg71
g4462
sg64
(lp4494
g57
(g78
g59
NtRp4495
(dp4496
g62
(dp4497
sg71
g4491
sg64
(lp4498
g57
(g58
g59
NtRp4499
(dp4500
g62
(dp4501
g70
I1
ssg71
g4495
sg64
(lp4502
Nasbasbasbag57
(g73
g59
NtRp4503
(dp4504
g62
(dp4505
sg71
g4462
sg64
(lp4506
g57
(g78
g59
NtRp4507
(dp4508
g62
(dp4509
sg71
g4503
sg64
(lp4510
g57
(g58
g59
NtRp4511
(dp4512
g62
(dp4513
g70
I1
ssg71
g4507
sg64
(lp4514
(lp4515
(g3908
(S't\x06\x00\x00\x00Groups'
tRp4516
I00
S'http://www.web2py.com/examples/default/usergroups'
p4517
tp4518
a(g3908
(S't\x07\x00\x00\x00Twitter'
tRp4519
I00
S'http://twitter.com/web2py'
p4520
tp4521
a(g3908
(S's\t\x00\x00\x00Live Chat'
tRp4522
I00
S'http://webchat.freenode.net/?channels=web2py'
p4523
tp4524
aasbasbasbasbasbasbasbag57
(g73
g59
NtRp4525
(dp4526
g62
(dp4527
sg71
g4092
sg64
(lp4528
g57
(g78
g59
NtRp4529
(dp4530
g62
(dp4531
sg71
g4525
sg64
(lp4532
g57
(g58
g59
NtRp4533
(dp4534
g62
(dp4535
g70
I2
ssg71
g4529
sg64
(lp4536
g57
(g66
g59
NtRp4537
(dp4538
g62
(dp4539
g70
I1
ssg71
Nsg64
(lp4540
g57
(g73
g59
NtRp4541
(dp4542
g62
(dp4543
sg71
g4537
sg64
(lp4544
g57
(g78
g59
NtRp4545
(dp4546
g62
(dp4547
sg71
g4541
sg64
(lp4548
g57
(g58
g59
NtRp4549
(dp4550
g62
(dp4551
g70
I1
ssg71
g4545
sg64
(lp4552
g3908
(S't\x07\x00\x00\x00Plugins'
tRp4553
asbasbasbag57
(g73
g59
NtRp4554
(dp4555
g62
(dp4556
sg71
g4537
sg64
(lp4557
g57
(g78
g59
NtRp4558
(dp4559
g62
(dp4560
sg71
g4554
sg64
(lp4561
g57
(g58
g59
NtRp4562
(dp4563
g62
(dp4564
g70
I1
ssg71
g4558
sg64
(lp4565
I00
asbasbasbag57
(g73
g59
NtRp4566
(dp4567
g62
(dp4568
sg71
g4537
sg64
(lp4569
g57
(g78
g59
NtRp4570
(dp4571
g62
(dp4572
sg71
g4566
sg64
(lp4573
g57
(g58
g59
NtRp4574
(dp4575
g62
(dp4576
g70
I1
ssg71
g4570
sg64
(lp4577
Nasbasbasbag57
(g73
g59
NtRp4578
(dp4579
g62
(dp4580
sg71
g4537
sg64
(lp4581
g57
(g78
g59
NtRp4582
(dp4583
g62
(dp4584
sg71
g4578
sg64
(lp4585
g57
(g58
g59
NtRp4586
(dp4587
g62
(dp4588
g70
I1
ssg71
g4582
sg64
(lp4589
(lp4590
(S'plugin_wiki'
p4591
I00
S'http://web2py.com/examples/default/download'
p4592
tp4593
a(g3908
(S's\r\x00\x00\x00Other Plugins'
tRp4594
I00
g4324
tp4595
a(g3908
(S's\x0e\x00\x00\x00Layout Plugins'
tRp4596
I00
g4327
tp4597
aasbasbasbasbasbasbasbasbasbasbasbasbasbasbasbasbasbasbasbag57
(g73
g59
NtRp4598
(dp4599
g62
(dp4600
sg71
g3352
sg64
(lp4601
g57
(g78
g59
NtRp4602
(dp4603
g62
(dp4604
g82
g83
ssg71
g4598
sg64
(lp4605
S'meta'
p4606
asbag57
(g78
g59
NtRp4607
(dp4608
g62
(dp4609
g89
g90
ssg71
g4598
sg64
(lp4610
S':'
asbag57
(g78
g59
NtRp4611
(dp4612
g62
(dp4613
sg71
g4598
sg64
(lp4614
g57
(g58
g59
NtRp4615
(dp4616
g62
(dp4617
g70
I5
ssg71
g4611
sg64
(lp4618
g57
(g66
g59
NtRp4619
(dp4620
g62
(dp4621
g70
I4
ssg71
Nsg64
(lp4622
g57
(g73
g59
NtRp4623
(dp4624
g62
(dp4625
sg71
g4619
sg64
(lp4626
g57
(g78
g59
NtRp4627
(dp4628
g62
(dp4629
g82
g83
ssg71
g4623
sg64
(lp4630
S'author'
p4631
asbag57
(g78
g59
NtRp4632
(dp4633
g62
(dp4634
g89
g90
ssg71
g4623
sg64
(lp4635
S':'
asbag57
(g78
g59
NtRp4636
(dp4637
g62
(dp4638
sg71
g4623
sg64
(lp4639
g57
(g58
g59
NtRp4640
(dp4641
g62
(dp4642
g70
I4
ssg71
g4636
sg64
(lp4643
S'Vincenzo Ampolo <vincenzo.ampolo@gmail.com>'
p4644
asbasbasbag57
(g73
g59
NtRp4645
(dp4646
g62
(dp4647
sg71
g4619
sg64
(lp4648
g57
(g78
g59
NtRp4649
(dp4650
g62
(dp4651
g82
g83
ssg71
g4645
sg64
(lp4652
S'copyright'
p4653
asbag57
(g78
g59
NtRp4654
(dp4655
g62
(dp4656
g89
g90
ssg71
g4645
sg64
(lp4657
S':'
asbag57
(g78
g59
NtRp4658
(dp4659
g62
(dp4660
sg71
g4645
sg64
(lp4661
g57
(g58
g59
NtRp4662
(dp4663
g62
(dp4664
g70
I4
ssg71
g4658
sg64
(lp4665
S'Copyright 2012'
p4666
asbasbasbag57
(g73
g59
NtRp4667
(dp4668
g62
(dp4669
sg71
g4619
sg64
(lp4670
g57
(g78
g59
NtRp4671
(dp4672
g62
(dp4673
g82
g83
ssg71
g4667
sg64
(lp4674
S'description'
p4675
asbag57
(g78
g59
NtRp4676
(dp4677
g62
(dp4678
g89
g90
ssg71
g4667
sg64
(lp4679
S':'
asbag57
(g78
g59
NtRp4680
(dp4681
g62
(dp4682
sg71
g4667
sg64
(lp4683
g57
(g58
g59
NtRp4684
(dp4685
g62
(dp4686
g70
I4
ssg71
g4680
sg64
(lp4687
S'Milo recommendation system'
p4688
asbasbasbag57
(g73
g59
NtRp4689
(dp4690
g62
(dp4691
sg71
g4619
sg64
(lp4692
g57
(g78
g59
NtRp4693
(dp4694
g62
(dp4695
g82
g83
ssg71
g4689
sg64
(lp4696
S'generator'
p4697
asbag57
(g78
g59
NtRp4698
(dp4699
g62
(dp4700
g89
g90
ssg71
g4689
sg64
(lp4701
S':'
asbag57
(g78
g59
NtRp4702
(dp4703
g62
(dp4704
sg71
g4689
sg64
(lp4705
g57
(g58
g59
NtRp4706
(dp4707
g62
(dp4708
g70
I4
ssg71
g4702
sg64
(lp4709
S'Web2py Web Framework'
p4710
asbasbasbag57
(g73
g59
NtRp4711
(dp4712
g62
(dp4713
sg71
g4619
sg64
(lp4714
g57
(g78
g59
NtRp4715
(dp4716
g62
(dp4717
g82
g83
ssg71
g4711
sg64
(lp4718
S'keywords'
p4719
asbag57
(g78
g59
NtRp4720
(dp4721
g62
(dp4722
g89
g90
ssg71
g4711
sg64
(lp4723
S':'
asbag57
(g78
g59
NtRp4724
(dp4725
g62
(dp4726
sg71
g4711
sg64
(lp4727
g57
(g58
g59
NtRp4728
(dp4729
g62
(dp4730
g70
I4
ssg71
g4724
sg64
(lp4731
S'web2py, python, framework'
p4732
asbasbasbasbasbasbasbag57
(g73
g59
NtRp4733
(dp4734
g62
(dp4735
sg71
g3352
sg64
(lp4736
g57
(g78
g59
NtRp4737
(dp4738
g62
(dp4739
g82
g83
ssg71
g4733
sg64
(lp4740
S'postprocessing'
p4741
asbag57
(g78
g59
NtRp4742
(dp4743
g62
(dp4744
g89
g90
ssg71
g4733
sg64
(lp4745
S':'
asbag57
(g78
g59
NtRp4746
(dp4747
g62
(dp4748
sg71
g4733
sg64
(lp4749
g57
(g58
g59
NtRp4750
(dp4751
g62
(dp4752
g70
I5
ssg71
g4746
sg64
(lp4753
g57
(g66
g59
NtRp4754
(dp4755
g62
(dp4756
g70
I4
ssg71
Nsg64
(lp4757
sbasbasbasbag57
(g73
g59
NtRp4758
(dp4759
g62
(dp4760
sg71
g3352
sg64
(lp4761
g57
(g78
g59
NtRp4762
(dp4763
g62
(dp4764
g82
g83
ssg71
g4758
sg64
(lp4765
S'session_file'
p4766
asbag57
(g78
g59
NtRp4767
(dp4768
g62
(dp4769
g89
g90
ssg71
g4758
sg64
(lp4770
S':'
asbag57
(g78
g59
NtRp4771
(dp4772
g62
(dp4773
sg71
g4758
sg64
(lp4774
g57
(g58
g59
NtRp4775
(dp4776
g62
(dp4777
g70
I5
ssg71
g4771
sg64
(lp4778
S"<open file '/home/goshawk/web2py/applications/milo/sessions/127.0.0.1-6c16d76a-1f8c-4e9b-9b63-cec19a96b9d8', mode 'rb+' at 0x7fb480664270>"
p4779
asbasbasbag57
(g73
g59
NtRp4780
(dp4781
g62
(dp4782
sg71
g3352
sg64
(lp4783
g57
(g78
g59
NtRp4784
(dp4785
g62
(dp4786
g82
g83
ssg71
g4780
sg64
(lp4787
S'session_filename'
p4788
asbag57
(g78
g59
NtRp4789
(dp4790
g62
(dp4791
g89
g90
ssg71
g4780
sg64
(lp4792
S':'
asbag57
(g78
g59
NtRp4793
(dp4794
g62
(dp4795
sg71
g4780
sg64
(lp4796
g57
(g58
g59
NtRp4797
(dp4798
g62
(dp4799
g70
I5
ssg71
g4793
sg64
(lp4800
S'/home/goshawk/web2py/applications/milo/sessions/127.0.0.1-6c16d76a-1f8c-4e9b-9b63-cec19a96b9d8'
p4801
asbasbasbag57
(g73
g59
NtRp4802
(dp4803
g62
(dp4804
sg71
g3352
sg64
(lp4805
g57
(g78
g59
NtRp4806
(dp4807
g62
(dp4808
g82
g83
ssg71
g4802
sg64
(lp4809
S'session_id'
p4810
asbag57
(g78
g59
NtRp4811
(dp4812
g62
(dp4813
g89
g90
ssg71
g4802
sg64
(lp4814
S':'
asbag57
(g78
g59
NtRp4815
(dp4816
g62
(dp4817
sg71
g4802
sg64
(lp4818
g57
(g58
g59
NtRp4819
(dp4820
g62
(dp4821
g70
I5
ssg71
g4815
sg64
(lp4822
S'127.0.0.1-6c16d76a-1f8c-4e9b-9b63-cec19a96b9d8'
p4823
asbasbasbag57
(g73
g59
NtRp4824
(dp4825
g62
(dp4826
sg71
g3352
sg64
(lp4827
g57
(g78
g59
NtRp4828
(dp4829
g62
(dp4830
g82
g83
ssg71
g4824
sg64
(lp4831
S'session_id_name'
p4832
asbag57
(g78
g59
NtRp4833
(dp4834
g62
(dp4835
g89
g90
ssg71
g4824
sg64
(lp4836
S':'
asbag57
(g78
g59
NtRp4837
(dp4838
g62
(dp4839
sg71
g4824
sg64
(lp4840
g57
(g58
g59
NtRp4841
(dp4842
g62
(dp4843
g70
I5
ssg71
g4837
sg64
(lp4844
g3409
asbasbasbag57
(g73
g59
NtRp4845
(dp4846
g62
(dp4847
sg71
g3352
sg64
(lp4848
g57
(g78
g59
NtRp4849
(dp4850
g62
(dp4851
g82
g83
ssg71
g4845
sg64
(lp4852
S'session_locked'
p4853
asbag57
(g78
g59
NtRp4854
(dp4855
g62
(dp4856
g89
g90
ssg71
g4845
sg64
(lp4857
S':'
asbag57
(g78
g59
NtRp4858
(dp4859
g62
(dp4860
sg71
g4845
sg64
(lp4861
g57
(g58
g59
NtRp4862
(dp4863
g62
(dp4864
g70
I5
ssg71
g4858
sg64
(lp4865
g1820
asbasbasbag57
(g73
g59
NtRp4866
(dp4867
g62
(dp4868
sg71
g3352
sg64
(lp4869
g57
(g78
g59
NtRp4870
(dp4871
g62
(dp4872
g82
g83
ssg71
g4866
sg64
(lp4873
S'session_new'
p4874
asbag57
(g78
g59
NtRp4875
(dp4876
g62
(dp4877
g89
g90
ssg71
g4866
sg64
(lp4878
S':'
asbag57
(g78
g59
NtRp4879
(dp4880
g62
(dp4881
sg71
g4866
sg64
(lp4882
g57
(g58
g59
NtRp4883
(dp4884
g62
(dp4885
g70
I5
ssg71
g4879
sg64
(lp4886
g100
asbasbasbag57
(g73
g59
NtRp4887
(dp4888
g62
(dp4889
sg71
g3352
sg64
(lp4890
g57
(g78
g59
NtRp4891
(dp4892
g62
(dp4893
g82
g83
ssg71
g4887
sg64
(lp4894
S'status'
p4895
asbag57
(g78
g59
NtRp4896
(dp4897
g62
(dp4898
g89
g90
ssg71
g4887
sg64
(lp4899
S':'
asbag57
(g78
g59
NtRp4900
(dp4901
g62
(dp4902
sg71
g4887
sg64
(lp4903
g57
(g58
g59
NtRp4904
(dp4905
g62
(dp4906
g70
I5
ssg71
g4900
sg64
(lp4907
S'200'
p4908
asbasbasbag57
(g73
g59
NtRp4909
(dp4910
g62
(dp4911
sg71
g3352
sg64
(lp4912
g57
(g78
g59
NtRp4913
(dp4914
g62
(dp4915
g82
g83
ssg71
g4909
sg64
(lp4916
S'title'
p4917
asbag57
(g78
g59
NtRp4918
(dp4919
g62
(dp4920
g89
g90
ssg71
g4909
sg64
(lp4921
S':'
asbag57
(g78
g59
NtRp4922
(dp4923
g62
(dp4924
sg71
g4909
sg64
(lp4925
g57
(g58
g59
NtRp4926
(dp4927
g62
(dp4928
g70
I5
ssg71
g4922
sg64
(lp4929
S'Milo'
p4930
asbasbasbag57
(g73
g59
NtRp4931
(dp4932
g62
(dp4933
sg71
g3352
sg64
(lp4934
g57
(g78
g59
NtRp4935
(dp4936
g62
(dp4937
g82
g83
ssg71
g4931
sg64
(lp4938
g2506
asbag57
(g78
g59
NtRp4939
(dp4940
g62
(dp4941
g89
g90
ssg71
g4931
sg64
(lp4942
S':'
asbag57
(g78
g59
NtRp4943
(dp4944
g62
(dp4945
sg71
g4931
sg64
(lp4946
g57
(g58
g59
NtRp4947
(dp4948
g62
(dp4949
g70
I5
ssg71
g4943
sg64
(lp4950
g2519
asbasbasbag57
(g73
g59
NtRp4951
(dp4952
g62
(dp4953
sg71
g3352
sg64
(lp4954
g57
(g78
g59
NtRp4955
(dp4956
g62
(dp4957
g82
g83
ssg71
g4951
sg64
(lp4958
S'view'
p4959
asbag57
(g78
g59
NtRp4960
(dp4961
g62
(dp4962
g89
g90
ssg71
g4951
sg64
(lp4963
S':'
asbag57
(g78
g59
NtRp4964
(dp4965
g62
(dp4966
sg71
g4951
sg64
(lp4967
g57
(g58
g59
NtRp4968
(dp4969
g62
(dp4970
g70
I5
ssg71
g4964
sg64
(lp4971
S'default/index.html'
p4972
asbasbasbasbasbsS'locals'
p4973
(dp4974
ssS'traceback'
p4975
S'Traceback (most recent call last):\n  File "/home/goshawk/web2py/gluon/restricted.py", line 205, in restricted\n    exec ccode in environment\n  File "/home/goshawk/web2py/applications/milo/controllers/default.py", line 74, in <module>\n  File "/home/goshawk/web2py/gluon/globals.py", line 173, in <lambda>\n    self._caller = lambda f: f()\n  File "/home/goshawk/web2py/applications/milo/controllers/default.py", line 15, in index\n    page = 0 if not request.args(0) else int(request.args(0))\nValueError: invalid literal for int() with base 10: \'milo\'\n'
p4976
s.