(dp1
S'output'
p2
S"<type 'exceptions.SyntaxError'> invalid syntax (index.html, line 1)"
p3
sS'layer'
p4
S'/home/goshawk/web2py/applications/milo/views/admin/index.html'
p5
sS'code'
p6
S"extends 'admin_layout.html'\nresponse.write('\\n', escape=False)"
p7
sS'snapshot'
p8
(dp9
S'exception'
p10
(dp11
S'__getslice__'
p12
S"<method-wrapper '__getslice__' of exceptions.SyntaxError object>"
p13
sS'text'
p14
S'"extends \'admin_layout.html\'\\n"'
p15
sS'__str__'
p16
S"<method-wrapper '__str__' of exceptions.SyntaxError object>"
p17
sS'__reduce__'
p18
S'<built-in method __reduce__ of exceptions.SyntaxError object>'
p19
sS'__dict__'
p20
S'{}'
p21
sS'__sizeof__'
p22
S'<built-in method __sizeof__ of exceptions.SyntaxError object>'
p23
sS'__init__'
p24
S"<method-wrapper '__init__' of exceptions.SyntaxError object>"
p25
sS'__setattr__'
p26
S"<method-wrapper '__setattr__' of exceptions.SyntaxError object>"
p27
sS'__reduce_ex__'
p28
S'<built-in method __reduce_ex__ of exceptions.SyntaxError object>'
p29
sS'__new__'
p30
S'<built-in method __new__ of type object>'
p31
sS'__format__'
p32
S'<built-in method __format__ of exceptions.SyntaxError object>'
p33
sS'__class__'
p34
S"<type 'exceptions.SyntaxError'>"
p35
sS'filename'
p36
S"'/home/goshawk/web2py/applications/milo/views/admin/index.html'"
p37
sS'lineno'
p38
S'1'
sS'msg'
p39
S"'invalid syntax'"
p40
sS'__doc__'
p41
S"'Invalid syntax.'"
p42
sS'__getitem__'
p43
S"<method-wrapper '__getitem__' of exceptions.SyntaxError object>"
p44
sS'__setstate__'
p45
S'<built-in method __setstate__ of exceptions.SyntaxError object>'
p46
sS'__getattribute__'
p47
S"<method-wrapper '__getattribute__' of exceptions.SyntaxError object>"
p48
sS'print_file_and_line'
p49
S'None'
p50
sS'args'
p51
S'(\'invalid syntax\', (\'/home/goshawk/web2py/applications/milo/views/admin/index.html\', 1, 27, "extends \'admin_layout.html\'\\n"))'
p52
sS'__subclasshook__'
p53
S'<built-in method __subclasshook__ of type object>'
p54
sS'offset'
p55
S'27'
p56
sS'__unicode__'
p57
S'<built-in method __unicode__ of exceptions.SyntaxError object>'
p58
sS'__delattr__'
p59
S"<method-wrapper '__delattr__' of exceptions.SyntaxError object>"
p60
sS'__repr__'
p61
S"<method-wrapper '__repr__' of exceptions.SyntaxError object>"
p62
sS'__hash__'
p63
S"<method-wrapper '__hash__' of exceptions.SyntaxError object>"
p64
ssS'evalue'
p65
S'invalid syntax (index.html, line 1)'
p66
sS'request'
p67
ccopy_reg
_reconstructor
p68
(cgluon.html
BEAUTIFY
p69
c__builtin__
object
p70
NtRp71
(dp72
S'attributes'
p73
(dp74
sS'components'
p75
(lp76
g68
(cgluon.html
TABLE
p77
g70
NtRp78
(dp79
g73
(dp80
S'level'
p81
I5
ssS'parent'
p82
Nsg75
(lp83
g68
(cgluon.html
TR
p84
g70
NtRp85
(dp86
g73
(dp87
sg82
g78
sg75
(lp88
g68
(cgluon.html
TD
p89
g70
NtRp90
(dp91
g73
(dp92
S'_style'
p93
S'font-weight:bold;vertical-align:top'
p94
ssg82
g85
sg75
(lp95
S'ajax'
p96
asbag68
(g89
g70
NtRp97
(dp98
g73
(dp99
S'_valign'
p100
S'top'
p101
ssg82
g85
sg75
(lp102
S':'
asbag68
(g89
g70
NtRp103
(dp104
g73
(dp105
sg82
g85
sg75
(lp106
g68
(g69
g70
NtRp107
(dp108
g73
(dp109
g81
I5
ssg82
g103
sg75
(lp110
S'False'
p111
asbasbasbag68
(g84
g70
NtRp112
(dp113
g73
(dp114
sg82
g78
sg75
(lp115
g68
(g89
g70
NtRp116
(dp117
g73
(dp118
g93
g94
ssg82
g112
sg75
(lp119
S'application'
p120
asbag68
(g89
g70
NtRp121
(dp122
g73
(dp123
g100
g101
ssg82
g112
sg75
(lp124
S':'
asbag68
(g89
g70
NtRp125
(dp126
g73
(dp127
sg82
g112
sg75
(lp128
g68
(g69
g70
NtRp129
(dp130
g73
(dp131
g81
I5
ssg82
g125
sg75
(lp132
S'milo'
p133
asbasbasbag68
(g84
g70
NtRp134
(dp135
g73
(dp136
sg82
g78
sg75
(lp137
g68
(g89
g70
NtRp138
(dp139
g73
(dp140
g93
g94
ssg82
g134
sg75
(lp141
g51
asbag68
(g89
g70
NtRp142
(dp143
g73
(dp144
g100
g101
ssg82
g134
sg75
(lp145
S':'
asbag68
(g89
g70
NtRp146
(dp147
g73
(dp148
sg82
g134
sg75
(lp149
g68
(g69
g70
NtRp150
(dp151
g73
(dp152
g81
I5
ssg82
g146
sg75
(lp153
g68
(g77
g70
NtRp154
(dp155
g73
(dp156
g81
I4
ssg82
Nsg75
(lp157
sbasbasbasbag68
(g84
g70
NtRp158
(dp159
g73
(dp160
sg82
g78
sg75
(lp161
g68
(g89
g70
NtRp162
(dp163
g73
(dp164
g93
g94
ssg82
g158
sg75
(lp165
S'body'
p166
asbag68
(g89
g70
NtRp167
(dp168
g73
(dp169
g100
g101
ssg82
g158
sg75
(lp170
S':'
asbag68
(g89
g70
NtRp171
(dp172
g73
(dp173
sg82
g158
sg75
(lp174
g68
(g69
g70
NtRp175
(dp176
g73
(dp177
g81
I5
ssg82
g171
sg75
(lp178
S'<cStringIO.StringO object at 0x7f13ac443bc8>'
p179
asbasbasbag68
(g84
g70
NtRp180
(dp181
g73
(dp182
sg82
g78
sg75
(lp183
g68
(g89
g70
NtRp184
(dp185
g73
(dp186
g93
g94
ssg82
g180
sg75
(lp187
S'client'
p188
asbag68
(g89
g70
NtRp189
(dp190
g73
(dp191
g100
g101
ssg82
g180
sg75
(lp192
S':'
asbag68
(g89
g70
NtRp193
(dp194
g73
(dp195
sg82
g180
sg75
(lp196
g68
(g69
g70
NtRp197
(dp198
g73
(dp199
g81
I5
ssg82
g193
sg75
(lp200
S'127.0.0.1'
p201
asbasbasbag68
(g84
g70
NtRp202
(dp203
g73
(dp204
sg82
g78
sg75
(lp205
g68
(g89
g70
NtRp206
(dp207
g73
(dp208
g93
g94
ssg82
g202
sg75
(lp209
S'controller'
p210
asbag68
(g89
g70
NtRp211
(dp212
g73
(dp213
g100
g101
ssg82
g202
sg75
(lp214
S':'
asbag68
(g89
g70
NtRp215
(dp216
g73
(dp217
sg82
g202
sg75
(lp218
g68
(g69
g70
NtRp219
(dp220
g73
(dp221
g81
I5
ssg82
g215
sg75
(lp222
S'admin'
p223
asbasbasbag68
(g84
g70
NtRp224
(dp225
g73
(dp226
sg82
g78
sg75
(lp227
g68
(g89
g70
NtRp228
(dp229
g73
(dp230
g93
g94
ssg82
g224
sg75
(lp231
S'cookies'
p232
asbag68
(g89
g70
NtRp233
(dp234
g73
(dp235
g100
g101
ssg82
g224
sg75
(lp236
S':'
asbag68
(g89
g70
NtRp237
(dp238
g73
(dp239
sg82
g224
sg75
(lp240
g68
(g69
g70
NtRp241
(dp242
g73
(dp243
g81
I5
ssg82
g237
sg75
(lp244
g68
(g77
g70
NtRp245
(dp246
g73
(dp247
g81
I4
ssg82
Nsg75
(lp248
g68
(g84
g70
NtRp249
(dp250
g73
(dp251
sg82
g245
sg75
(lp252
g68
(g89
g70
NtRp253
(dp254
g73
(dp255
g93
g94
ssg82
g249
sg75
(lp256
S'session_id_admin'
p257
asbag68
(g89
g70
NtRp258
(dp259
g73
(dp260
g100
g101
ssg82
g249
sg75
(lp261
S':'
asbag68
(g89
g70
NtRp262
(dp263
g73
(dp264
sg82
g249
sg75
(lp265
g68
(g69
g70
NtRp266
(dp267
g73
(dp268
g81
I4
ssg82
g262
sg75
(lp269
g68
(g77
g70
NtRp270
(dp271
g73
(dp272
g81
I3
ssg82
Nsg75
(lp273
g68
(g84
g70
NtRp274
(dp275
g73
(dp276
sg82
g270
sg75
(lp277
g68
(g89
g70
NtRp278
(dp279
g73
(dp280
g93
g94
ssg82
g274
sg75
(lp281
S'comment'
p282
asbag68
(g89
g70
NtRp283
(dp284
g73
(dp285
g100
g101
ssg82
g274
sg75
(lp286
S':'
asbag68
(g89
g70
NtRp287
(dp288
g73
(dp289
sg82
g274
sg75
(lp290
g68
(g69
g70
NtRp291
(dp292
g73
(dp293
g81
I3
ssg82
g287
sg75
(lp294
S''
asbasbasbag68
(g84
g70
NtRp295
(dp296
g73
(dp297
sg82
g270
sg75
(lp298
g68
(g89
g70
NtRp299
(dp300
g73
(dp301
g93
g94
ssg82
g295
sg75
(lp302
S'domain'
p303
asbag68
(g89
g70
NtRp304
(dp305
g73
(dp306
g100
g101
ssg82
g295
sg75
(lp307
S':'
asbag68
(g89
g70
NtRp308
(dp309
g73
(dp310
sg82
g295
sg75
(lp311
g68
(g69
g70
NtRp312
(dp313
g73
(dp314
g81
I3
ssg82
g308
sg75
(lp315
S''
asbasbasbag68
(g84
g70
NtRp316
(dp317
g73
(dp318
sg82
g270
sg75
(lp319
g68
(g89
g70
NtRp320
(dp321
g73
(dp322
g93
g94
ssg82
g316
sg75
(lp323
S'expires'
p324
asbag68
(g89
g70
NtRp325
(dp326
g73
(dp327
g100
g101
ssg82
g316
sg75
(lp328
S':'
asbag68
(g89
g70
NtRp329
(dp330
g73
(dp331
sg82
g316
sg75
(lp332
g68
(g69
g70
NtRp333
(dp334
g73
(dp335
g81
I3
ssg82
g329
sg75
(lp336
S''
asbasbasbag68
(g84
g70
NtRp337
(dp338
g73
(dp339
sg82
g270
sg75
(lp340
g68
(g89
g70
NtRp341
(dp342
g73
(dp343
g93
g94
ssg82
g337
sg75
(lp344
S'httponly'
p345
asbag68
(g89
g70
NtRp346
(dp347
g73
(dp348
g100
g101
ssg82
g337
sg75
(lp349
S':'
asbag68
(g89
g70
NtRp350
(dp351
g73
(dp352
sg82
g337
sg75
(lp353
g68
(g69
g70
NtRp354
(dp355
g73
(dp356
g81
I3
ssg82
g350
sg75
(lp357
S''
asbasbasbag68
(g84
g70
NtRp358
(dp359
g73
(dp360
sg82
g270
sg75
(lp361
g68
(g89
g70
NtRp362
(dp363
g73
(dp364
g93
g94
ssg82
g358
sg75
(lp365
S'max-age'
p366
asbag68
(g89
g70
NtRp367
(dp368
g73
(dp369
g100
g101
ssg82
g358
sg75
(lp370
S':'
asbag68
(g89
g70
NtRp371
(dp372
g73
(dp373
sg82
g358
sg75
(lp374
g68
(g69
g70
NtRp375
(dp376
g73
(dp377
g81
I3
ssg82
g371
sg75
(lp378
S''
asbasbasbag68
(g84
g70
NtRp379
(dp380
g73
(dp381
sg82
g270
sg75
(lp382
g68
(g89
g70
NtRp383
(dp384
g73
(dp385
g93
g94
ssg82
g379
sg75
(lp386
S'path'
p387
asbag68
(g89
g70
NtRp388
(dp389
g73
(dp390
g100
g101
ssg82
g379
sg75
(lp391
S':'
asbag68
(g89
g70
NtRp392
(dp393
g73
(dp394
sg82
g379
sg75
(lp395
g68
(g69
g70
NtRp396
(dp397
g73
(dp398
g81
I3
ssg82
g392
sg75
(lp399
S''
asbasbasbag68
(g84
g70
NtRp400
(dp401
g73
(dp402
sg82
g270
sg75
(lp403
g68
(g89
g70
NtRp404
(dp405
g73
(dp406
g93
g94
ssg82
g400
sg75
(lp407
S'secure'
p408
asbag68
(g89
g70
NtRp409
(dp410
g73
(dp411
g100
g101
ssg82
g400
sg75
(lp412
S':'
asbag68
(g89
g70
NtRp413
(dp414
g73
(dp415
sg82
g400
sg75
(lp416
g68
(g69
g70
NtRp417
(dp418
g73
(dp419
g81
I3
ssg82
g413
sg75
(lp420
S''
asbasbasbag68
(g84
g70
NtRp421
(dp422
g73
(dp423
sg82
g270
sg75
(lp424
g68
(g89
g70
NtRp425
(dp426
g73
(dp427
g93
g94
ssg82
g421
sg75
(lp428
S'version'
p429
asbag68
(g89
g70
NtRp430
(dp431
g73
(dp432
g100
g101
ssg82
g421
sg75
(lp433
S':'
asbag68
(g89
g70
NtRp434
(dp435
g73
(dp436
sg82
g421
sg75
(lp437
g68
(g69
g70
NtRp438
(dp439
g73
(dp440
g81
I3
ssg82
g434
sg75
(lp441
S''
asbasbasbasbasbasbasbag68
(g84
g70
NtRp442
(dp443
g73
(dp444
sg82
g245
sg75
(lp445
g68
(g89
g70
NtRp446
(dp447
g73
(dp448
g93
g94
ssg82
g442
sg75
(lp449
S'session_id_milo'
p450
asbag68
(g89
g70
NtRp451
(dp452
g73
(dp453
g100
g101
ssg82
g442
sg75
(lp454
S':'
asbag68
(g89
g70
NtRp455
(dp456
g73
(dp457
sg82
g442
sg75
(lp458
g68
(g69
g70
NtRp459
(dp460
g73
(dp461
g81
I4
ssg82
g455
sg75
(lp462
g68
(g77
g70
NtRp463
(dp464
g73
(dp465
g81
I3
ssg82
Nsg75
(lp466
g68
(g84
g70
NtRp467
(dp468
g73
(dp469
sg82
g463
sg75
(lp470
g68
(g89
g70
NtRp471
(dp472
g73
(dp473
g93
g94
ssg82
g467
sg75
(lp474
g282
asbag68
(g89
g70
NtRp475
(dp476
g73
(dp477
g100
g101
ssg82
g467
sg75
(lp478
S':'
asbag68
(g89
g70
NtRp479
(dp480
g73
(dp481
sg82
g467
sg75
(lp482
g68
(g69
g70
NtRp483
(dp484
g73
(dp485
g81
I3
ssg82
g479
sg75
(lp486
S''
asbasbasbag68
(g84
g70
NtRp487
(dp488
g73
(dp489
sg82
g463
sg75
(lp490
g68
(g89
g70
NtRp491
(dp492
g73
(dp493
g93
g94
ssg82
g487
sg75
(lp494
g303
asbag68
(g89
g70
NtRp495
(dp496
g73
(dp497
g100
g101
ssg82
g487
sg75
(lp498
S':'
asbag68
(g89
g70
NtRp499
(dp500
g73
(dp501
sg82
g487
sg75
(lp502
g68
(g69
g70
NtRp503
(dp504
g73
(dp505
g81
I3
ssg82
g499
sg75
(lp506
S''
asbasbasbag68
(g84
g70
NtRp507
(dp508
g73
(dp509
sg82
g463
sg75
(lp510
g68
(g89
g70
NtRp511
(dp512
g73
(dp513
g93
g94
ssg82
g507
sg75
(lp514
g324
asbag68
(g89
g70
NtRp515
(dp516
g73
(dp517
g100
g101
ssg82
g507
sg75
(lp518
S':'
asbag68
(g89
g70
NtRp519
(dp520
g73
(dp521
sg82
g507
sg75
(lp522
g68
(g69
g70
NtRp523
(dp524
g73
(dp525
g81
I3
ssg82
g519
sg75
(lp526
S''
asbasbasbag68
(g84
g70
NtRp527
(dp528
g73
(dp529
sg82
g463
sg75
(lp530
g68
(g89
g70
NtRp531
(dp532
g73
(dp533
g93
g94
ssg82
g527
sg75
(lp534
g345
asbag68
(g89
g70
NtRp535
(dp536
g73
(dp537
g100
g101
ssg82
g527
sg75
(lp538
S':'
asbag68
(g89
g70
NtRp539
(dp540
g73
(dp541
sg82
g527
sg75
(lp542
g68
(g69
g70
NtRp543
(dp544
g73
(dp545
g81
I3
ssg82
g539
sg75
(lp546
S''
asbasbasbag68
(g84
g70
NtRp547
(dp548
g73
(dp549
sg82
g463
sg75
(lp550
g68
(g89
g70
NtRp551
(dp552
g73
(dp553
g93
g94
ssg82
g547
sg75
(lp554
g366
asbag68
(g89
g70
NtRp555
(dp556
g73
(dp557
g100
g101
ssg82
g547
sg75
(lp558
S':'
asbag68
(g89
g70
NtRp559
(dp560
g73
(dp561
sg82
g547
sg75
(lp562
g68
(g69
g70
NtRp563
(dp564
g73
(dp565
g81
I3
ssg82
g559
sg75
(lp566
S''
asbasbasbag68
(g84
g70
NtRp567
(dp568
g73
(dp569
sg82
g463
sg75
(lp570
g68
(g89
g70
NtRp571
(dp572
g73
(dp573
g93
g94
ssg82
g567
sg75
(lp574
g387
asbag68
(g89
g70
NtRp575
(dp576
g73
(dp577
g100
g101
ssg82
g567
sg75
(lp578
S':'
asbag68
(g89
g70
NtRp579
(dp580
g73
(dp581
sg82
g567
sg75
(lp582
g68
(g69
g70
NtRp583
(dp584
g73
(dp585
g81
I3
ssg82
g579
sg75
(lp586
S''
asbasbasbag68
(g84
g70
NtRp587
(dp588
g73
(dp589
sg82
g463
sg75
(lp590
g68
(g89
g70
NtRp591
(dp592
g73
(dp593
g93
g94
ssg82
g587
sg75
(lp594
g408
asbag68
(g89
g70
NtRp595
(dp596
g73
(dp597
g100
g101
ssg82
g587
sg75
(lp598
S':'
asbag68
(g89
g70
NtRp599
(dp600
g73
(dp601
sg82
g587
sg75
(lp602
g68
(g69
g70
NtRp603
(dp604
g73
(dp605
g81
I3
ssg82
g599
sg75
(lp606
S''
asbasbasbag68
(g84
g70
NtRp607
(dp608
g73
(dp609
sg82
g463
sg75
(lp610
g68
(g89
g70
NtRp611
(dp612
g73
(dp613
g93
g94
ssg82
g607
sg75
(lp614
g429
asbag68
(g89
g70
NtRp615
(dp616
g73
(dp617
g100
g101
ssg82
g607
sg75
(lp618
S':'
asbag68
(g89
g70
NtRp619
(dp620
g73
(dp621
sg82
g607
sg75
(lp622
g68
(g69
g70
NtRp623
(dp624
g73
(dp625
g81
I3
ssg82
g619
sg75
(lp626
S''
asbasbasbasbasbasbasbasbasbasbasbag68
(g84
g70
NtRp627
(dp628
g73
(dp629
sg82
g78
sg75
(lp630
g68
(g89
g70
NtRp631
(dp632
g73
(dp633
g93
g94
ssg82
g627
sg75
(lp634
S'env'
p635
asbag68
(g89
g70
NtRp636
(dp637
g73
(dp638
g100
g101
ssg82
g627
sg75
(lp639
S':'
asbag68
(g89
g70
NtRp640
(dp641
g73
(dp642
sg82
g627
sg75
(lp643
g68
(g69
g70
NtRp644
(dp645
g73
(dp646
g81
I5
ssg82
g640
sg75
(lp647
g68
(g77
g70
NtRp648
(dp649
g73
(dp650
g81
I4
ssg82
Nsg75
(lp651
g68
(g84
g70
NtRp652
(dp653
g73
(dp654
sg82
g648
sg75
(lp655
g68
(g89
g70
NtRp656
(dp657
g73
(dp658
g93
g94
ssg82
g652
sg75
(lp659
S'app_folders'
p660
asbag68
(g89
g70
NtRp661
(dp662
g73
(dp663
g100
g101
ssg82
g652
sg75
(lp664
S':'
asbag68
(g89
g70
NtRp665
(dp666
g73
(dp667
sg82
g652
sg75
(lp668
g68
(g69
g70
NtRp669
(dp670
g73
(dp671
g81
I4
ssg82
g665
sg75
(lp672
S"set(['/home/goshawk/web2py/applications/milo/', '/home/goshawk/web2py/applications/admin/'])"
p673
asbasbasbag68
(g84
g70
NtRp674
(dp675
g73
(dp676
sg82
g648
sg75
(lp677
g68
(g89
g70
NtRp678
(dp679
g73
(dp680
g93
g94
ssg82
g674
sg75
(lp681
S'applications_parent'
p682
asbag68
(g89
g70
NtRp683
(dp684
g73
(dp685
g100
g101
ssg82
g674
sg75
(lp686
S':'
asbag68
(g89
g70
NtRp687
(dp688
g73
(dp689
sg82
g674
sg75
(lp690
g68
(g69
g70
NtRp691
(dp692
g73
(dp693
g81
I4
ssg82
g687
sg75
(lp694
S'/home/goshawk/web2py'
p695
asbasbasbag68
(g84
g70
NtRp696
(dp697
g73
(dp698
sg82
g648
sg75
(lp699
g68
(g89
g70
NtRp700
(dp701
g73
(dp702
g93
g94
ssg82
g696
sg75
(lp703
S'cmd_args'
p704
asbag68
(g89
g70
NtRp705
(dp706
g73
(dp707
g100
g101
ssg82
g696
sg75
(lp708
S':'
asbag68
(g89
g70
NtRp709
(dp710
g73
(dp711
sg82
g696
sg75
(lp712
g68
(g69
g70
NtRp713
(dp714
g73
(dp715
g81
I4
ssg82
g709
sg75
(lp716
g68
(g77
g70
NtRp717
(dp718
g73
(dp719
g81
I3
ssg82
Nsg75
(lp720
sbasbasbasbag68
(g84
g70
NtRp721
(dp722
g73
(dp723
sg82
g648
sg75
(lp724
g68
(g89
g70
NtRp725
(dp726
g73
(dp727
g93
g94
ssg82
g721
sg75
(lp728
S'cmd_options'
p729
asbag68
(g89
g70
NtRp730
(dp731
g73
(dp732
g100
g101
ssg82
g721
sg75
(lp733
S':'
asbag68
(g89
g70
NtRp734
(dp735
g73
(dp736
sg82
g721
sg75
(lp737
g68
(g69
g70
NtRp738
(dp739
g73
(dp740
g81
I4
ssg82
g734
sg75
(lp741
S"<Values at 0x14d30e0: {'verbose': False, 'ip': '127.0.0.1', 'shutdown_timeout': 5, 'taskbar': False, 'nocron': False, 'pid_filename': 'httpserver.pid', 'maxthreads': None, 'softcron': False, 'server_name': 'whisperer', 'bpython': False, 'nogui': False, 'port': 8000, 'extcron': False, 'debuglevel': 30, 'test': None, 'folder': '/home/goshawk/web2py', 'config': '', 'import_models': False, 'winservice': '', 'shell': None, 'run': '', 'log_filename': 'httpserver.log', 'args': [''], 'socket_timeout': 5, 'ssl_ca_certificate': None, 'scheduler': None, 'profiler_filename': None, 'ssl_private_key': '', 'password': 'admin', 'request_queue_size': 5, 'ssl_certificate': '', 'cronjob': False, 'numthreads': None, 'quiet': False, 'interfaces': None, 'minthreads': None, 'timeout': 10, 'plain': False, 'nobanner': False}>"
p742
asbasbasbag68
(g84
g70
NtRp743
(dp744
g73
(dp745
sg82
g648
sg75
(lp746
g68
(g89
g70
NtRp747
(dp748
g73
(dp749
g93
g94
ssg82
g743
sg75
(lp750
S'db_sessions'
p751
asbag68
(g89
g70
NtRp752
(dp753
g73
(dp754
g100
g101
ssg82
g743
sg75
(lp755
S':'
asbag68
(g89
g70
NtRp756
(dp757
g73
(dp758
sg82
g743
sg75
(lp759
g68
(g69
g70
NtRp760
(dp761
g73
(dp762
g81
I4
ssg82
g756
sg75
(lp763
S'set([])'
p764
asbasbasbag68
(g84
g70
NtRp765
(dp766
g73
(dp767
sg82
g648
sg75
(lp768
g68
(g89
g70
NtRp769
(dp770
g73
(dp771
g93
g94
ssg82
g765
sg75
(lp772
S'debugging'
p773
asbag68
(g89
g70
NtRp774
(dp775
g73
(dp776
g100
g101
ssg82
g765
sg75
(lp777
S':'
asbag68
(g89
g70
NtRp778
(dp779
g73
(dp780
sg82
g765
sg75
(lp781
g68
(g69
g70
NtRp782
(dp783
g73
(dp784
g81
I4
ssg82
g778
sg75
(lp785
g111
asbasbasbag68
(g84
g70
NtRp786
(dp787
g73
(dp788
sg82
g648
sg75
(lp789
g68
(g89
g70
NtRp790
(dp791
g73
(dp792
g93
g94
ssg82
g786
sg75
(lp793
S'gluon_parent'
p794
asbag68
(g89
g70
NtRp795
(dp796
g73
(dp797
g100
g101
ssg82
g786
sg75
(lp798
S':'
asbag68
(g89
g70
NtRp799
(dp800
g73
(dp801
sg82
g786
sg75
(lp802
g68
(g69
g70
NtRp803
(dp804
g73
(dp805
g81
I4
ssg82
g799
sg75
(lp806
S'/home/goshawk/web2py'
p807
asbasbasbag68
(g84
g70
NtRp808
(dp809
g73
(dp810
sg82
g648
sg75
(lp811
g68
(g89
g70
NtRp812
(dp813
g73
(dp814
g93
g94
ssg82
g808
sg75
(lp815
S'http_accept'
p816
asbag68
(g89
g70
NtRp817
(dp818
g73
(dp819
g100
g101
ssg82
g808
sg75
(lp820
S':'
asbag68
(g89
g70
NtRp821
(dp822
g73
(dp823
sg82
g808
sg75
(lp824
g68
(g69
g70
NtRp825
(dp826
g73
(dp827
g81
I4
ssg82
g821
sg75
(lp828
S'text/html,application/xhtml+xml,application/xml;q=0.9,*/*;q=0.8'
p829
asbasbasbag68
(g84
g70
NtRp830
(dp831
g73
(dp832
sg82
g648
sg75
(lp833
g68
(g89
g70
NtRp834
(dp835
g73
(dp836
g93
g94
ssg82
g830
sg75
(lp837
S'http_accept_charset'
p838
asbag68
(g89
g70
NtRp839
(dp840
g73
(dp841
g100
g101
ssg82
g830
sg75
(lp842
S':'
asbag68
(g89
g70
NtRp843
(dp844
g73
(dp845
sg82
g830
sg75
(lp846
g68
(g69
g70
NtRp847
(dp848
g73
(dp849
g81
I4
ssg82
g843
sg75
(lp850
S'ISO-8859-1,utf-8;q=0.7,*;q=0.3'
p851
asbasbasbag68
(g84
g70
NtRp852
(dp853
g73
(dp854
sg82
g648
sg75
(lp855
g68
(g89
g70
NtRp856
(dp857
g73
(dp858
g93
g94
ssg82
g852
sg75
(lp859
S'http_accept_encoding'
p860
asbag68
(g89
g70
NtRp861
(dp862
g73
(dp863
g100
g101
ssg82
g852
sg75
(lp864
S':'
asbag68
(g89
g70
NtRp865
(dp866
g73
(dp867
sg82
g852
sg75
(lp868
g68
(g69
g70
NtRp869
(dp870
g73
(dp871
g81
I4
ssg82
g865
sg75
(lp872
S'gzip,deflate,sdch'
p873
asbasbasbag68
(g84
g70
NtRp874
(dp875
g73
(dp876
sg82
g648
sg75
(lp877
g68
(g89
g70
NtRp878
(dp879
g73
(dp880
g93
g94
ssg82
g874
sg75
(lp881
S'http_accept_language'
p882
asbag68
(g89
g70
NtRp883
(dp884
g73
(dp885
g100
g101
ssg82
g874
sg75
(lp886
S':'
asbag68
(g89
g70
NtRp887
(dp888
g73
(dp889
sg82
g874
sg75
(lp890
g68
(g69
g70
NtRp891
(dp892
g73
(dp893
g81
I4
ssg82
g887
sg75
(lp894
S'en-US,en;q=0.8'
p895
asbasbasbag68
(g84
g70
NtRp896
(dp897
g73
(dp898
sg82
g648
sg75
(lp899
g68
(g89
g70
NtRp900
(dp901
g73
(dp902
g93
g94
ssg82
g896
sg75
(lp903
S'http_cache_control'
p904
asbag68
(g89
g70
NtRp905
(dp906
g73
(dp907
g100
g101
ssg82
g896
sg75
(lp908
S':'
asbag68
(g89
g70
NtRp909
(dp910
g73
(dp911
sg82
g896
sg75
(lp912
g68
(g69
g70
NtRp913
(dp914
g73
(dp915
g81
I4
ssg82
g909
sg75
(lp916
S'max-age=0'
p917
asbasbasbag68
(g84
g70
NtRp918
(dp919
g73
(dp920
sg82
g648
sg75
(lp921
g68
(g89
g70
NtRp922
(dp923
g73
(dp924
g93
g94
ssg82
g918
sg75
(lp925
S'http_connection'
p926
asbag68
(g89
g70
NtRp927
(dp928
g73
(dp929
g100
g101
ssg82
g918
sg75
(lp930
S':'
asbag68
(g89
g70
NtRp931
(dp932
g73
(dp933
sg82
g918
sg75
(lp934
g68
(g69
g70
NtRp935
(dp936
g73
(dp937
g81
I4
ssg82
g931
sg75
(lp938
S'keep-alive'
p939
asbasbasbag68
(g84
g70
NtRp940
(dp941
g73
(dp942
sg82
g648
sg75
(lp943
g68
(g89
g70
NtRp944
(dp945
g73
(dp946
g93
g94
ssg82
g940
sg75
(lp947
S'http_cookie'
p948
asbag68
(g89
g70
NtRp949
(dp950
g73
(dp951
g100
g101
ssg82
g940
sg75
(lp952
S':'
asbag68
(g89
g70
NtRp953
(dp954
g73
(dp955
sg82
g940
sg75
(lp956
g68
(g69
g70
NtRp957
(dp958
g73
(dp959
g81
I4
ssg82
g953
sg75
(lp960
S'session_id_admin=127.0.0.1-30ecb484-85e4-4bc0-acfc-f5ad05178541; session_id_milo=127.0.0.1-24396986-7bda-4e8a-9197-c22b91981679'
p961
asbasbasbag68
(g84
g70
NtRp962
(dp963
g73
(dp964
sg82
g648
sg75
(lp965
g68
(g89
g70
NtRp966
(dp967
g73
(dp968
g93
g94
ssg82
g962
sg75
(lp969
S'http_host'
p970
asbag68
(g89
g70
NtRp971
(dp972
g73
(dp973
g100
g101
ssg82
g962
sg75
(lp974
S':'
asbag68
(g89
g70
NtRp975
(dp976
g73
(dp977
sg82
g962
sg75
(lp978
g68
(g69
g70
NtRp979
(dp980
g73
(dp981
g81
I4
ssg82
g975
sg75
(lp982
S'localhost:8000'
p983
asbasbasbag68
(g84
g70
NtRp984
(dp985
g73
(dp986
sg82
g648
sg75
(lp987
g68
(g89
g70
NtRp988
(dp989
g73
(dp990
g93
g94
ssg82
g984
sg75
(lp991
S'http_referer'
p992
asbag68
(g89
g70
NtRp993
(dp994
g73
(dp995
g100
g101
ssg82
g984
sg75
(lp996
S':'
asbag68
(g89
g70
NtRp997
(dp998
g73
(dp999
sg82
g984
sg75
(lp1000
g68
(g69
g70
NtRp1001
(dp1002
g73
(dp1003
g81
I4
ssg82
g997
sg75
(lp1004
S'http://localhost:8000/milo/default/index'
p1005
asbasbasbag68
(g84
g70
NtRp1006
(dp1007
g73
(dp1008
sg82
g648
sg75
(lp1009
g68
(g89
g70
NtRp1010
(dp1011
g73
(dp1012
g93
g94
ssg82
g1006
sg75
(lp1013
S'http_user_agent'
p1014
asbag68
(g89
g70
NtRp1015
(dp1016
g73
(dp1017
g100
g101
ssg82
g1006
sg75
(lp1018
S':'
asbag68
(g89
g70
NtRp1019
(dp1020
g73
(dp1021
sg82
g1006
sg75
(lp1022
g68
(g69
g70
NtRp1023
(dp1024
g73
(dp1025
g81
I4
ssg82
g1019
sg75
(lp1026
S'Mozilla/5.0 (X11; Linux x86_64) AppleWebKit/535.19 (KHTML, like Gecko) Ubuntu/12.04 Chromium/18.0.1025.168 Chrome/18.0.1025.168 Safari/535.19'
p1027
asbasbasbag68
(g84
g70
NtRp1028
(dp1029
g73
(dp1030
sg82
g648
sg75
(lp1031
g68
(g89
g70
NtRp1032
(dp1033
g73
(dp1034
g93
g94
ssg82
g1028
sg75
(lp1035
S'is_jython'
p1036
asbag68
(g89
g70
NtRp1037
(dp1038
g73
(dp1039
g100
g101
ssg82
g1028
sg75
(lp1040
S':'
asbag68
(g89
g70
NtRp1041
(dp1042
g73
(dp1043
sg82
g1028
sg75
(lp1044
g68
(g69
g70
NtRp1045
(dp1046
g73
(dp1047
g81
I4
ssg82
g1041
sg75
(lp1048
g111
asbasbasbag68
(g84
g70
NtRp1049
(dp1050
g73
(dp1051
sg82
g648
sg75
(lp1052
g68
(g89
g70
NtRp1053
(dp1054
g73
(dp1055
g93
g94
ssg82
g1049
sg75
(lp1056
S'is_pypy'
p1057
asbag68
(g89
g70
NtRp1058
(dp1059
g73
(dp1060
g100
g101
ssg82
g1049
sg75
(lp1061
S':'
asbag68
(g89
g70
NtRp1062
(dp1063
g73
(dp1064
sg82
g1049
sg75
(lp1065
g68
(g69
g70
NtRp1066
(dp1067
g73
(dp1068
g81
I4
ssg82
g1062
sg75
(lp1069
g111
asbasbasbag68
(g84
g70
NtRp1070
(dp1071
g73
(dp1072
sg82
g648
sg75
(lp1073
g68
(g89
g70
NtRp1074
(dp1075
g73
(dp1076
g93
g94
ssg82
g1070
sg75
(lp1077
S'path_info'
p1078
asbag68
(g89
g70
NtRp1079
(dp1080
g73
(dp1081
g100
g101
ssg82
g1070
sg75
(lp1082
S':'
asbag68
(g89
g70
NtRp1083
(dp1084
g73
(dp1085
sg82
g1070
sg75
(lp1086
g68
(g69
g70
NtRp1087
(dp1088
g73
(dp1089
g81
I4
ssg82
g1083
sg75
(lp1090
S'/milo/admin/index'
p1091
asbasbasbag68
(g84
g70
NtRp1092
(dp1093
g73
(dp1094
sg82
g648
sg75
(lp1095
g68
(g89
g70
NtRp1096
(dp1097
g73
(dp1098
g93
g94
ssg82
g1092
sg75
(lp1099
S'query_string'
p1100
asbag68
(g89
g70
NtRp1101
(dp1102
g73
(dp1103
g100
g101
ssg82
g1092
sg75
(lp1104
S':'
asbag68
(g89
g70
NtRp1105
(dp1106
g73
(dp1107
sg82
g1092
sg75
(lp1108
g68
(g69
g70
NtRp1109
(dp1110
g73
(dp1111
g81
I4
ssg82
g1105
sg75
(lp1112
S''
asbasbasbag68
(g84
g70
NtRp1113
(dp1114
g73
(dp1115
sg82
g648
sg75
(lp1116
g68
(g89
g70
NtRp1117
(dp1118
g73
(dp1119
g93
g94
ssg82
g1113
sg75
(lp1120
S'remote_addr'
p1121
asbag68
(g89
g70
NtRp1122
(dp1123
g73
(dp1124
g100
g101
ssg82
g1113
sg75
(lp1125
S':'
asbag68
(g89
g70
NtRp1126
(dp1127
g73
(dp1128
sg82
g1113
sg75
(lp1129
g68
(g69
g70
NtRp1130
(dp1131
g73
(dp1132
g81
I4
ssg82
g1126
sg75
(lp1133
g201
asbasbasbag68
(g84
g70
NtRp1134
(dp1135
g73
(dp1136
sg82
g648
sg75
(lp1137
g68
(g89
g70
NtRp1138
(dp1139
g73
(dp1140
g93
g94
ssg82
g1134
sg75
(lp1141
S'remote_port'
p1142
asbag68
(g89
g70
NtRp1143
(dp1144
g73
(dp1145
g100
g101
ssg82
g1134
sg75
(lp1146
S':'
asbag68
(g89
g70
NtRp1147
(dp1148
g73
(dp1149
sg82
g1134
sg75
(lp1150
g68
(g69
g70
NtRp1151
(dp1152
g73
(dp1153
g81
I4
ssg82
g1147
sg75
(lp1154
S'35598'
p1155
asbasbasbag68
(g84
g70
NtRp1156
(dp1157
g73
(dp1158
sg82
g648
sg75
(lp1159
g68
(g89
g70
NtRp1160
(dp1161
g73
(dp1162
g93
g94
ssg82
g1156
sg75
(lp1163
S'request_method'
p1164
asbag68
(g89
g70
NtRp1165
(dp1166
g73
(dp1167
g100
g101
ssg82
g1156
sg75
(lp1168
S':'
asbag68
(g89
g70
NtRp1169
(dp1170
g73
(dp1171
sg82
g1156
sg75
(lp1172
g68
(g69
g70
NtRp1173
(dp1174
g73
(dp1175
g81
I4
ssg82
g1169
sg75
(lp1176
S'GET'
p1177
asbasbasbag68
(g84
g70
NtRp1178
(dp1179
g73
(dp1180
sg82
g648
sg75
(lp1181
g68
(g89
g70
NtRp1182
(dp1183
g73
(dp1184
g93
g94
ssg82
g1178
sg75
(lp1185
S'request_uri'
p1186
asbag68
(g89
g70
NtRp1187
(dp1188
g73
(dp1189
g100
g101
ssg82
g1178
sg75
(lp1190
S':'
asbag68
(g89
g70
NtRp1191
(dp1192
g73
(dp1193
sg82
g1178
sg75
(lp1194
g68
(g69
g70
NtRp1195
(dp1196
g73
(dp1197
g81
I4
ssg82
g1191
sg75
(lp1198
g1091
asbasbasbag68
(g84
g70
NtRp1199
(dp1200
g73
(dp1201
sg82
g648
sg75
(lp1202
g68
(g89
g70
NtRp1203
(dp1204
g73
(dp1205
g93
g94
ssg82
g1199
sg75
(lp1206
S'script_name'
p1207
asbag68
(g89
g70
NtRp1208
(dp1209
g73
(dp1210
g100
g101
ssg82
g1199
sg75
(lp1211
S':'
asbag68
(g89
g70
NtRp1212
(dp1213
g73
(dp1214
sg82
g1199
sg75
(lp1215
g68
(g69
g70
NtRp1216
(dp1217
g73
(dp1218
g81
I4
ssg82
g1212
sg75
(lp1219
S''
asbasbasbag68
(g84
g70
NtRp1220
(dp1221
g73
(dp1222
sg82
g648
sg75
(lp1223
g68
(g89
g70
NtRp1224
(dp1225
g73
(dp1226
g93
g94
ssg82
g1220
sg75
(lp1227
S'server_name'
p1228
asbag68
(g89
g70
NtRp1229
(dp1230
g73
(dp1231
g100
g101
ssg82
g1220
sg75
(lp1232
S':'
asbag68
(g89
g70
NtRp1233
(dp1234
g73
(dp1235
sg82
g1220
sg75
(lp1236
g68
(g69
g70
NtRp1237
(dp1238
g73
(dp1239
g81
I4
ssg82
g1233
sg75
(lp1240
S'whisperer'
p1241
asbasbasbag68
(g84
g70
NtRp1242
(dp1243
g73
(dp1244
sg82
g648
sg75
(lp1245
g68
(g89
g70
NtRp1246
(dp1247
g73
(dp1248
g93
g94
ssg82
g1242
sg75
(lp1249
S'server_port'
p1250
asbag68
(g89
g70
NtRp1251
(dp1252
g73
(dp1253
g100
g101
ssg82
g1242
sg75
(lp1254
S':'
asbag68
(g89
g70
NtRp1255
(dp1256
g73
(dp1257
sg82
g1242
sg75
(lp1258
g68
(g69
g70
NtRp1259
(dp1260
g73
(dp1261
g81
I4
ssg82
g1255
sg75
(lp1262
S'8000'
p1263
asbasbasbag68
(g84
g70
NtRp1264
(dp1265
g73
(dp1266
sg82
g648
sg75
(lp1267
g68
(g89
g70
NtRp1268
(dp1269
g73
(dp1270
g93
g94
ssg82
g1264
sg75
(lp1271
S'server_protocol'
p1272
asbag68
(g89
g70
NtRp1273
(dp1274
g73
(dp1275
g100
g101
ssg82
g1264
sg75
(lp1276
S':'
asbag68
(g89
g70
NtRp1277
(dp1278
g73
(dp1279
sg82
g1264
sg75
(lp1280
g68
(g69
g70
NtRp1281
(dp1282
g73
(dp1283
g81
I4
ssg82
g1277
sg75
(lp1284
S'HTTP/1.1'
p1285
asbasbasbag68
(g84
g70
NtRp1286
(dp1287
g73
(dp1288
sg82
g648
sg75
(lp1289
g68
(g89
g70
NtRp1290
(dp1291
g73
(dp1292
g93
g94
ssg82
g1286
sg75
(lp1293
S'server_software'
p1294
asbag68
(g89
g70
NtRp1295
(dp1296
g73
(dp1297
g100
g101
ssg82
g1286
sg75
(lp1298
S':'
asbag68
(g89
g70
NtRp1299
(dp1300
g73
(dp1301
sg82
g1286
sg75
(lp1302
g68
(g69
g70
NtRp1303
(dp1304
g73
(dp1305
g81
I4
ssg82
g1299
sg75
(lp1306
S'Rocket 1.2.4'
p1307
asbasbasbag68
(g84
g70
NtRp1308
(dp1309
g73
(dp1310
sg82
g648
sg75
(lp1311
g68
(g89
g70
NtRp1312
(dp1313
g73
(dp1314
g93
g94
ssg82
g1308
sg75
(lp1315
S'web2py_crontype'
p1316
asbag68
(g89
g70
NtRp1317
(dp1318
g73
(dp1319
g100
g101
ssg82
g1308
sg75
(lp1320
S':'
asbag68
(g89
g70
NtRp1321
(dp1322
g73
(dp1323
sg82
g1308
sg75
(lp1324
g68
(g69
g70
NtRp1325
(dp1326
g73
(dp1327
g81
I4
ssg82
g1321
sg75
(lp1328
S'hard'
p1329
asbasbasbag68
(g84
g70
NtRp1330
(dp1331
g73
(dp1332
sg82
g648
sg75
(lp1333
g68
(g89
g70
NtRp1334
(dp1335
g73
(dp1336
g93
g94
ssg82
g1330
sg75
(lp1337
S'web2py_original_uri'
p1338
asbag68
(g89
g70
NtRp1339
(dp1340
g73
(dp1341
g100
g101
ssg82
g1330
sg75
(lp1342
S':'
asbag68
(g89
g70
NtRp1343
(dp1344
g73
(dp1345
sg82
g1330
sg75
(lp1346
g68
(g69
g70
NtRp1347
(dp1348
g73
(dp1349
g81
I4
ssg82
g1343
sg75
(lp1350
g1091
asbasbasbag68
(g84
g70
NtRp1351
(dp1352
g73
(dp1353
sg82
g648
sg75
(lp1354
g68
(g89
g70
NtRp1355
(dp1356
g73
(dp1357
g93
g94
ssg82
g1351
sg75
(lp1358
S'web2py_path'
p1359
asbag68
(g89
g70
NtRp1360
(dp1361
g73
(dp1362
g100
g101
ssg82
g1351
sg75
(lp1363
S':'
asbag68
(g89
g70
NtRp1364
(dp1365
g73
(dp1366
sg82
g1351
sg75
(lp1367
g68
(g69
g70
NtRp1368
(dp1369
g73
(dp1370
g81
I4
ssg82
g1364
sg75
(lp1371
g695
asbasbasbag68
(g84
g70
NtRp1372
(dp1373
g73
(dp1374
sg82
g648
sg75
(lp1375
g68
(g89
g70
NtRp1376
(dp1377
g73
(dp1378
g93
g94
ssg82
g1372
sg75
(lp1379
S'web2py_version'
p1380
asbag68
(g89
g70
NtRp1381
(dp1382
g73
(dp1383
g100
g101
ssg82
g1372
sg75
(lp1384
S':'
asbag68
(g89
g70
NtRp1385
(dp1386
g73
(dp1387
sg82
g1372
sg75
(lp1388
g68
(g69
g70
NtRp1389
(dp1390
g73
(dp1391
g81
I4
ssg82
g1385
sg75
(lp1392
g68
(g77
g70
NtRp1393
(dp1394
g73
(dp1395
g81
I3
ssg82
Nsg75
(lp1396
g68
(g84
g70
NtRp1397
(dp1398
g73
(dp1399
sg82
g1393
sg75
(lp1400
g68
(g89
g70
NtRp1401
(dp1402
g73
(dp1403
sg82
g1397
sg75
(lp1404
g68
(g69
g70
NtRp1405
(dp1406
g73
(dp1407
g81
I3
ssg82
g1401
sg75
(lp1408
S'1'
asbasbasbag68
(g84
g70
NtRp1409
(dp1410
g73
(dp1411
sg82
g1393
sg75
(lp1412
g68
(g89
g70
NtRp1413
(dp1414
g73
(dp1415
sg82
g1409
sg75
(lp1416
g68
(g69
g70
NtRp1417
(dp1418
g73
(dp1419
g81
I3
ssg82
g1413
sg75
(lp1420
S'99'
p1421
asbasbasbag68
(g84
g70
NtRp1422
(dp1423
g73
(dp1424
sg82
g1393
sg75
(lp1425
g68
(g89
g70
NtRp1426
(dp1427
g73
(dp1428
sg82
g1422
sg75
(lp1429
g68
(g69
g70
NtRp1430
(dp1431
g73
(dp1432
g81
I3
ssg82
g1426
sg75
(lp1433
S'7'
asbasbasbag68
(g84
g70
NtRp1434
(dp1435
g73
(dp1436
sg82
g1393
sg75
(lp1437
g68
(g89
g70
NtRp1438
(dp1439
g73
(dp1440
sg82
g1434
sg75
(lp1441
g68
(g69
g70
NtRp1442
(dp1443
g73
(dp1444
g81
I3
ssg82
g1438
sg75
(lp1445
S'datetime.datetime(2012, 3, 4, 22, 12, 8)'
p1446
asbasbasbag68
(g84
g70
NtRp1447
(dp1448
g73
(dp1449
sg82
g1393
sg75
(lp1450
g68
(g89
g70
NtRp1451
(dp1452
g73
(dp1453
sg82
g1447
sg75
(lp1454
g68
(g69
g70
NtRp1455
(dp1456
g73
(dp1457
g81
I3
ssg82
g1451
sg75
(lp1458
S'stable'
p1459
asbasbasbasbasbasbasbag68
(g84
g70
NtRp1460
(dp1461
g73
(dp1462
sg82
g648
sg75
(lp1463
g68
(g89
g70
NtRp1464
(dp1465
g73
(dp1466
g93
g94
ssg82
g1460
sg75
(lp1467
S'wsgi_errors'
p1468
asbag68
(g89
g70
NtRp1469
(dp1470
g73
(dp1471
g100
g101
ssg82
g1460
sg75
(lp1472
S':'
asbag68
(g89
g70
NtRp1473
(dp1474
g73
(dp1475
sg82
g1460
sg75
(lp1476
g68
(g69
g70
NtRp1477
(dp1478
g73
(dp1479
g81
I4
ssg82
g1473
sg75
(lp1480
S"<open file '<stderr>', mode 'w' at 0x7f13cb382270>"
p1481
asbasbasbag68
(g84
g70
NtRp1482
(dp1483
g73
(dp1484
sg82
g648
sg75
(lp1485
g68
(g89
g70
NtRp1486
(dp1487
g73
(dp1488
g93
g94
ssg82
g1482
sg75
(lp1489
S'wsgi_file_wrapper'
p1490
asbag68
(g89
g70
NtRp1491
(dp1492
g73
(dp1493
g100
g101
ssg82
g1482
sg75
(lp1494
S':'
asbag68
(g89
g70
NtRp1495
(dp1496
g73
(dp1497
sg82
g1482
sg75
(lp1498
g68
(g69
g70
NtRp1499
(dp1500
g73
(dp1501
g81
I4
ssg82
g1495
sg75
(lp1502
S'<class wsgiref.util.FileWrapper at 0x13fff58>'
p1503
asbasbasbag68
(g84
g70
NtRp1504
(dp1505
g73
(dp1506
sg82
g648
sg75
(lp1507
g68
(g89
g70
NtRp1508
(dp1509
g73
(dp1510
g93
g94
ssg82
g1504
sg75
(lp1511
S'wsgi_input'
p1512
asbag68
(g89
g70
NtRp1513
(dp1514
g73
(dp1515
g100
g101
ssg82
g1504
sg75
(lp1516
S':'
asbag68
(g89
g70
NtRp1517
(dp1518
g73
(dp1519
sg82
g1504
sg75
(lp1520
g68
(g69
g70
NtRp1521
(dp1522
g73
(dp1523
g81
I4
ssg82
g1517
sg75
(lp1524
S'<socket._fileobject object at 0x7f13b52e82d0>'
p1525
asbasbasbag68
(g84
g70
NtRp1526
(dp1527
g73
(dp1528
sg82
g648
sg75
(lp1529
g68
(g89
g70
NtRp1530
(dp1531
g73
(dp1532
g93
g94
ssg82
g1526
sg75
(lp1533
S'wsgi_multiprocess'
p1534
asbag68
(g89
g70
NtRp1535
(dp1536
g73
(dp1537
g100
g101
ssg82
g1526
sg75
(lp1538
S':'
asbag68
(g89
g70
NtRp1539
(dp1540
g73
(dp1541
sg82
g1526
sg75
(lp1542
g68
(g69
g70
NtRp1543
(dp1544
g73
(dp1545
g81
I4
ssg82
g1539
sg75
(lp1546
g111
asbasbasbag68
(g84
g70
NtRp1547
(dp1548
g73
(dp1549
sg82
g648
sg75
(lp1550
g68
(g89
g70
NtRp1551
(dp1552
g73
(dp1553
g93
g94
ssg82
g1547
sg75
(lp1554
S'wsgi_multithread'
p1555
asbag68
(g89
g70
NtRp1556
(dp1557
g73
(dp1558
g100
g101
ssg82
g1547
sg75
(lp1559
S':'
asbag68
(g89
g70
NtRp1560
(dp1561
g73
(dp1562
sg82
g1547
sg75
(lp1563
g68
(g69
g70
NtRp1564
(dp1565
g73
(dp1566
g81
I4
ssg82
g1560
sg75
(lp1567
S'True'
p1568
asbasbasbag68
(g84
g70
NtRp1569
(dp1570
g73
(dp1571
sg82
g648
sg75
(lp1572
g68
(g89
g70
NtRp1573
(dp1574
g73
(dp1575
g93
g94
ssg82
g1569
sg75
(lp1576
S'wsgi_run_once'
p1577
asbag68
(g89
g70
NtRp1578
(dp1579
g73
(dp1580
g100
g101
ssg82
g1569
sg75
(lp1581
S':'
asbag68
(g89
g70
NtRp1582
(dp1583
g73
(dp1584
sg82
g1569
sg75
(lp1585
g68
(g69
g70
NtRp1586
(dp1587
g73
(dp1588
g81
I4
ssg82
g1582
sg75
(lp1589
g111
asbasbasbag68
(g84
g70
NtRp1590
(dp1591
g73
(dp1592
sg82
g648
sg75
(lp1593
g68
(g89
g70
NtRp1594
(dp1595
g73
(dp1596
g93
g94
ssg82
g1590
sg75
(lp1597
S'wsgi_url_scheme'
p1598
asbag68
(g89
g70
NtRp1599
(dp1600
g73
(dp1601
g100
g101
ssg82
g1590
sg75
(lp1602
S':'
asbag68
(g89
g70
NtRp1603
(dp1604
g73
(dp1605
sg82
g1590
sg75
(lp1606
g68
(g69
g70
NtRp1607
(dp1608
g73
(dp1609
g81
I4
ssg82
g1603
sg75
(lp1610
S'http'
p1611
asbasbasbag68
(g84
g70
NtRp1612
(dp1613
g73
(dp1614
sg82
g648
sg75
(lp1615
g68
(g89
g70
NtRp1616
(dp1617
g73
(dp1618
g93
g94
ssg82
g1612
sg75
(lp1619
S'wsgi_version'
p1620
asbag68
(g89
g70
NtRp1621
(dp1622
g73
(dp1623
g100
g101
ssg82
g1612
sg75
(lp1624
S':'
asbag68
(g89
g70
NtRp1625
(dp1626
g73
(dp1627
sg82
g1612
sg75
(lp1628
g68
(g69
g70
NtRp1629
(dp1630
g73
(dp1631
g81
I4
ssg82
g1625
sg75
(lp1632
g68
(g77
g70
NtRp1633
(dp1634
g73
(dp1635
g81
I3
ssg82
Nsg75
(lp1636
g68
(g84
g70
NtRp1637
(dp1638
g73
(dp1639
sg82
g1633
sg75
(lp1640
g68
(g89
g70
NtRp1641
(dp1642
g73
(dp1643
sg82
g1637
sg75
(lp1644
g68
(g69
g70
NtRp1645
(dp1646
g73
(dp1647
g81
I3
ssg82
g1641
sg75
(lp1648
S'1'
asbasbasbag68
(g84
g70
NtRp1649
(dp1650
g73
(dp1651
sg82
g1633
sg75
(lp1652
g68
(g89
g70
NtRp1653
(dp1654
g73
(dp1655
sg82
g1649
sg75
(lp1656
g68
(g69
g70
NtRp1657
(dp1658
g73
(dp1659
g81
I3
ssg82
g1653
sg75
(lp1660
S'0'
asbasbasbasbasbasbasbasbasbasbasbag68
(g84
g70
NtRp1661
(dp1662
g73
(dp1663
sg82
g78
sg75
(lp1664
g68
(g89
g70
NtRp1665
(dp1666
g73
(dp1667
g93
g94
ssg82
g1661
sg75
(lp1668
S'extension'
p1669
asbag68
(g89
g70
NtRp1670
(dp1671
g73
(dp1672
g100
g101
ssg82
g1661
sg75
(lp1673
S':'
asbag68
(g89
g70
NtRp1674
(dp1675
g73
(dp1676
sg82
g1661
sg75
(lp1677
g68
(g69
g70
NtRp1678
(dp1679
g73
(dp1680
g81
I5
ssg82
g1674
sg75
(lp1681
S'html'
p1682
asbasbasbag68
(g84
g70
NtRp1683
(dp1684
g73
(dp1685
sg82
g78
sg75
(lp1686
g68
(g89
g70
NtRp1687
(dp1688
g73
(dp1689
g93
g94
ssg82
g1683
sg75
(lp1690
S'folder'
p1691
asbag68
(g89
g70
NtRp1692
(dp1693
g73
(dp1694
g100
g101
ssg82
g1683
sg75
(lp1695
S':'
asbag68
(g89
g70
NtRp1696
(dp1697
g73
(dp1698
sg82
g1683
sg75
(lp1699
g68
(g69
g70
NtRp1700
(dp1701
g73
(dp1702
g81
I5
ssg82
g1696
sg75
(lp1703
S'/home/goshawk/web2py/applications/milo/'
p1704
asbasbasbag68
(g84
g70
NtRp1705
(dp1706
g73
(dp1707
sg82
g78
sg75
(lp1708
g68
(g89
g70
NtRp1709
(dp1710
g73
(dp1711
g93
g94
ssg82
g1705
sg75
(lp1712
S'function'
p1713
asbag68
(g89
g70
NtRp1714
(dp1715
g73
(dp1716
g100
g101
ssg82
g1705
sg75
(lp1717
S':'
asbag68
(g89
g70
NtRp1718
(dp1719
g73
(dp1720
sg82
g1705
sg75
(lp1721
g68
(g69
g70
NtRp1722
(dp1723
g73
(dp1724
g81
I5
ssg82
g1718
sg75
(lp1725
S'index'
p1726
asbasbasbag68
(g84
g70
NtRp1727
(dp1728
g73
(dp1729
sg82
g78
sg75
(lp1730
g68
(g89
g70
NtRp1731
(dp1732
g73
(dp1733
g93
g94
ssg82
g1727
sg75
(lp1734
S'get_vars'
p1735
asbag68
(g89
g70
NtRp1736
(dp1737
g73
(dp1738
g100
g101
ssg82
g1727
sg75
(lp1739
S':'
asbag68
(g89
g70
NtRp1740
(dp1741
g73
(dp1742
sg82
g1727
sg75
(lp1743
g68
(g69
g70
NtRp1744
(dp1745
g73
(dp1746
g81
I5
ssg82
g1740
sg75
(lp1747
g68
(g77
g70
NtRp1748
(dp1749
g73
(dp1750
g81
I4
ssg82
Nsg75
(lp1751
sbasbasbasbag68
(g84
g70
NtRp1752
(dp1753
g73
(dp1754
sg82
g78
sg75
(lp1755
g68
(g89
g70
NtRp1756
(dp1757
g73
(dp1758
g93
g94
ssg82
g1752
sg75
(lp1759
S'global_settings'
p1760
asbag68
(g89
g70
NtRp1761
(dp1762
g73
(dp1763
g100
g101
ssg82
g1752
sg75
(lp1764
S':'
asbag68
(g89
g70
NtRp1765
(dp1766
g73
(dp1767
sg82
g1752
sg75
(lp1768
g68
(g69
g70
NtRp1769
(dp1770
g73
(dp1771
g81
I5
ssg82
g1765
sg75
(lp1772
g68
(g77
g70
NtRp1773
(dp1774
g73
(dp1775
g81
I4
ssg82
Nsg75
(lp1776
g68
(g84
g70
NtRp1777
(dp1778
g73
(dp1779
sg82
g1773
sg75
(lp1780
g68
(g89
g70
NtRp1781
(dp1782
g73
(dp1783
g93
g94
ssg82
g1777
sg75
(lp1784
g660
asbag68
(g89
g70
NtRp1785
(dp1786
g73
(dp1787
g100
g101
ssg82
g1777
sg75
(lp1788
S':'
asbag68
(g89
g70
NtRp1789
(dp1790
g73
(dp1791
sg82
g1777
sg75
(lp1792
g68
(g69
g70
NtRp1793
(dp1794
g73
(dp1795
g81
I4
ssg82
g1789
sg75
(lp1796
S"set(['/home/goshawk/web2py/applications/milo/', '/home/goshawk/web2py/applications/admin/'])"
p1797
asbasbasbag68
(g84
g70
NtRp1798
(dp1799
g73
(dp1800
sg82
g1773
sg75
(lp1801
g68
(g89
g70
NtRp1802
(dp1803
g73
(dp1804
g93
g94
ssg82
g1798
sg75
(lp1805
g682
asbag68
(g89
g70
NtRp1806
(dp1807
g73
(dp1808
g100
g101
ssg82
g1798
sg75
(lp1809
S':'
asbag68
(g89
g70
NtRp1810
(dp1811
g73
(dp1812
sg82
g1798
sg75
(lp1813
g68
(g69
g70
NtRp1814
(dp1815
g73
(dp1816
g81
I4
ssg82
g1810
sg75
(lp1817
g695
asbasbasbag68
(g84
g70
NtRp1818
(dp1819
g73
(dp1820
sg82
g1773
sg75
(lp1821
g68
(g89
g70
NtRp1822
(dp1823
g73
(dp1824
g93
g94
ssg82
g1818
sg75
(lp1825
g704
asbag68
(g89
g70
NtRp1826
(dp1827
g73
(dp1828
g100
g101
ssg82
g1818
sg75
(lp1829
S':'
asbag68
(g89
g70
NtRp1830
(dp1831
g73
(dp1832
sg82
g1818
sg75
(lp1833
g68
(g69
g70
NtRp1834
(dp1835
g73
(dp1836
g81
I4
ssg82
g1830
sg75
(lp1837
g68
(g77
g70
NtRp1838
(dp1839
g73
(dp1840
g81
I3
ssg82
Nsg75
(lp1841
sbasbasbasbag68
(g84
g70
NtRp1842
(dp1843
g73
(dp1844
sg82
g1773
sg75
(lp1845
g68
(g89
g70
NtRp1846
(dp1847
g73
(dp1848
g93
g94
ssg82
g1842
sg75
(lp1849
g729
asbag68
(g89
g70
NtRp1850
(dp1851
g73
(dp1852
g100
g101
ssg82
g1842
sg75
(lp1853
S':'
asbag68
(g89
g70
NtRp1854
(dp1855
g73
(dp1856
sg82
g1842
sg75
(lp1857
g68
(g69
g70
NtRp1858
(dp1859
g73
(dp1860
g81
I4
ssg82
g1854
sg75
(lp1861
S"<Values at 0x14d30e0: {'verbose': False, 'ip': '127.0.0.1', 'shutdown_timeout': 5, 'taskbar': False, 'nocron': False, 'pid_filename': 'httpserver.pid', 'maxthreads': None, 'softcron': False, 'server_name': 'whisperer', 'bpython': False, 'nogui': False, 'port': 8000, 'extcron': False, 'debuglevel': 30, 'test': None, 'folder': '/home/goshawk/web2py', 'config': '', 'import_models': False, 'winservice': '', 'shell': None, 'run': '', 'log_filename': 'httpserver.log', 'args': [''], 'socket_timeout': 5, 'ssl_ca_certificate': None, 'scheduler': None, 'profiler_filename': None, 'ssl_private_key': '', 'password': 'admin', 'request_queue_size': 5, 'ssl_certificate': '', 'cronjob': False, 'numthreads': None, 'quiet': False, 'interfaces': None, 'minthreads': None, 'timeout': 10, 'plain': False, 'nobanner': False}>"
p1862
asbasbasbag68
(g84
g70
NtRp1863
(dp1864
g73
(dp1865
sg82
g1773
sg75
(lp1866
g68
(g89
g70
NtRp1867
(dp1868
g73
(dp1869
g93
g94
ssg82
g1863
sg75
(lp1870
g751
asbag68
(g89
g70
NtRp1871
(dp1872
g73
(dp1873
g100
g101
ssg82
g1863
sg75
(lp1874
S':'
asbag68
(g89
g70
NtRp1875
(dp1876
g73
(dp1877
sg82
g1863
sg75
(lp1878
g68
(g69
g70
NtRp1879
(dp1880
g73
(dp1881
g81
I4
ssg82
g1875
sg75
(lp1882
S'set([])'
p1883
asbasbasbag68
(g84
g70
NtRp1884
(dp1885
g73
(dp1886
sg82
g1773
sg75
(lp1887
g68
(g89
g70
NtRp1888
(dp1889
g73
(dp1890
g93
g94
ssg82
g1884
sg75
(lp1891
g773
asbag68
(g89
g70
NtRp1892
(dp1893
g73
(dp1894
g100
g101
ssg82
g1884
sg75
(lp1895
S':'
asbag68
(g89
g70
NtRp1896
(dp1897
g73
(dp1898
sg82
g1884
sg75
(lp1899
g68
(g69
g70
NtRp1900
(dp1901
g73
(dp1902
g81
I4
ssg82
g1896
sg75
(lp1903
g111
asbasbasbag68
(g84
g70
NtRp1904
(dp1905
g73
(dp1906
sg82
g1773
sg75
(lp1907
g68
(g89
g70
NtRp1908
(dp1909
g73
(dp1910
g93
g94
ssg82
g1904
sg75
(lp1911
g794
asbag68
(g89
g70
NtRp1912
(dp1913
g73
(dp1914
g100
g101
ssg82
g1904
sg75
(lp1915
S':'
asbag68
(g89
g70
NtRp1916
(dp1917
g73
(dp1918
sg82
g1904
sg75
(lp1919
g68
(g69
g70
NtRp1920
(dp1921
g73
(dp1922
g81
I4
ssg82
g1916
sg75
(lp1923
g807
asbasbasbag68
(g84
g70
NtRp1924
(dp1925
g73
(dp1926
sg82
g1773
sg75
(lp1927
g68
(g89
g70
NtRp1928
(dp1929
g73
(dp1930
g93
g94
ssg82
g1924
sg75
(lp1931
g1036
asbag68
(g89
g70
NtRp1932
(dp1933
g73
(dp1934
g100
g101
ssg82
g1924
sg75
(lp1935
S':'
asbag68
(g89
g70
NtRp1936
(dp1937
g73
(dp1938
sg82
g1924
sg75
(lp1939
g68
(g69
g70
NtRp1940
(dp1941
g73
(dp1942
g81
I4
ssg82
g1936
sg75
(lp1943
g111
asbasbasbag68
(g84
g70
NtRp1944
(dp1945
g73
(dp1946
sg82
g1773
sg75
(lp1947
g68
(g89
g70
NtRp1948
(dp1949
g73
(dp1950
g93
g94
ssg82
g1944
sg75
(lp1951
g1057
asbag68
(g89
g70
NtRp1952
(dp1953
g73
(dp1954
g100
g101
ssg82
g1944
sg75
(lp1955
S':'
asbag68
(g89
g70
NtRp1956
(dp1957
g73
(dp1958
sg82
g1944
sg75
(lp1959
g68
(g69
g70
NtRp1960
(dp1961
g73
(dp1962
g81
I4
ssg82
g1956
sg75
(lp1963
g111
asbasbasbag68
(g84
g70
NtRp1964
(dp1965
g73
(dp1966
sg82
g1773
sg75
(lp1967
g68
(g89
g70
NtRp1968
(dp1969
g73
(dp1970
g93
g94
ssg82
g1964
sg75
(lp1971
g1316
asbag68
(g89
g70
NtRp1972
(dp1973
g73
(dp1974
g100
g101
ssg82
g1964
sg75
(lp1975
S':'
asbag68
(g89
g70
NtRp1976
(dp1977
g73
(dp1978
sg82
g1964
sg75
(lp1979
g68
(g69
g70
NtRp1980
(dp1981
g73
(dp1982
g81
I4
ssg82
g1976
sg75
(lp1983
g1329
asbasbasbag68
(g84
g70
NtRp1984
(dp1985
g73
(dp1986
sg82
g1773
sg75
(lp1987
g68
(g89
g70
NtRp1988
(dp1989
g73
(dp1990
g93
g94
ssg82
g1984
sg75
(lp1991
g1380
asbag68
(g89
g70
NtRp1992
(dp1993
g73
(dp1994
g100
g101
ssg82
g1984
sg75
(lp1995
S':'
asbag68
(g89
g70
NtRp1996
(dp1997
g73
(dp1998
sg82
g1984
sg75
(lp1999
g68
(g69
g70
NtRp2000
(dp2001
g73
(dp2002
g81
I4
ssg82
g1996
sg75
(lp2003
g68
(g77
g70
NtRp2004
(dp2005
g73
(dp2006
g81
I3
ssg82
Nsg75
(lp2007
g68
(g84
g70
NtRp2008
(dp2009
g73
(dp2010
sg82
g2004
sg75
(lp2011
g68
(g89
g70
NtRp2012
(dp2013
g73
(dp2014
sg82
g2008
sg75
(lp2015
g68
(g69
g70
NtRp2016
(dp2017
g73
(dp2018
g81
I3
ssg82
g2012
sg75
(lp2019
S'1'
asbasbasbag68
(g84
g70
NtRp2020
(dp2021
g73
(dp2022
sg82
g2004
sg75
(lp2023
g68
(g89
g70
NtRp2024
(dp2025
g73
(dp2026
sg82
g2020
sg75
(lp2027
g68
(g69
g70
NtRp2028
(dp2029
g73
(dp2030
g81
I3
ssg82
g2024
sg75
(lp2031
S'99'
p2032
asbasbasbag68
(g84
g70
NtRp2033
(dp2034
g73
(dp2035
sg82
g2004
sg75
(lp2036
g68
(g89
g70
NtRp2037
(dp2038
g73
(dp2039
sg82
g2033
sg75
(lp2040
g68
(g69
g70
NtRp2041
(dp2042
g73
(dp2043
g81
I3
ssg82
g2037
sg75
(lp2044
S'7'
asbasbasbag68
(g84
g70
NtRp2045
(dp2046
g73
(dp2047
sg82
g2004
sg75
(lp2048
g68
(g89
g70
NtRp2049
(dp2050
g73
(dp2051
sg82
g2045
sg75
(lp2052
g68
(g69
g70
NtRp2053
(dp2054
g73
(dp2055
g81
I3
ssg82
g2049
sg75
(lp2056
S'datetime.datetime(2012, 3, 4, 22, 12, 8)'
p2057
asbasbasbag68
(g84
g70
NtRp2058
(dp2059
g73
(dp2060
sg82
g2004
sg75
(lp2061
g68
(g89
g70
NtRp2062
(dp2063
g73
(dp2064
sg82
g2058
sg75
(lp2065
g68
(g69
g70
NtRp2066
(dp2067
g73
(dp2068
g81
I3
ssg82
g2062
sg75
(lp2069
g1459
asbasbasbasbasbasbasbasbasbasbasbag68
(g84
g70
NtRp2070
(dp2071
g73
(dp2072
sg82
g78
sg75
(lp2073
g68
(g89
g70
NtRp2074
(dp2075
g73
(dp2076
g93
g94
ssg82
g2070
sg75
(lp2077
S'is_https'
p2078
asbag68
(g89
g70
NtRp2079
(dp2080
g73
(dp2081
g100
g101
ssg82
g2070
sg75
(lp2082
S':'
asbag68
(g89
g70
NtRp2083
(dp2084
g73
(dp2085
sg82
g2070
sg75
(lp2086
g68
(g69
g70
NtRp2087
(dp2088
g73
(dp2089
g81
I5
ssg82
g2083
sg75
(lp2090
g111
asbasbasbag68
(g84
g70
NtRp2091
(dp2092
g73
(dp2093
sg82
g78
sg75
(lp2094
g68
(g89
g70
NtRp2095
(dp2096
g73
(dp2097
g93
g94
ssg82
g2091
sg75
(lp2098
S'is_local'
p2099
asbag68
(g89
g70
NtRp2100
(dp2101
g73
(dp2102
g100
g101
ssg82
g2091
sg75
(lp2103
S':'
asbag68
(g89
g70
NtRp2104
(dp2105
g73
(dp2106
sg82
g2091
sg75
(lp2107
g68
(g69
g70
NtRp2108
(dp2109
g73
(dp2110
g81
I5
ssg82
g2104
sg75
(lp2111
g1568
asbasbasbag68
(g84
g70
NtRp2112
(dp2113
g73
(dp2114
sg82
g78
sg75
(lp2115
g68
(g89
g70
NtRp2116
(dp2117
g73
(dp2118
g93
g94
ssg82
g2112
sg75
(lp2119
S'is_restful'
p2120
asbag68
(g89
g70
NtRp2121
(dp2122
g73
(dp2123
g100
g101
ssg82
g2112
sg75
(lp2124
S':'
asbag68
(g89
g70
NtRp2125
(dp2126
g73
(dp2127
sg82
g2112
sg75
(lp2128
g68
(g69
g70
NtRp2129
(dp2130
g73
(dp2131
g81
I5
ssg82
g2125
sg75
(lp2132
g111
asbasbasbag68
(g84
g70
NtRp2133
(dp2134
g73
(dp2135
sg82
g78
sg75
(lp2136
g68
(g89
g70
NtRp2137
(dp2138
g73
(dp2139
g93
g94
ssg82
g2133
sg75
(lp2140
S'now'
p2141
asbag68
(g89
g70
NtRp2142
(dp2143
g73
(dp2144
g100
g101
ssg82
g2133
sg75
(lp2145
S':'
asbag68
(g89
g70
NtRp2146
(dp2147
g73
(dp2148
sg82
g2133
sg75
(lp2149
g68
(g69
g70
NtRp2150
(dp2151
g73
(dp2152
g81
I5
ssg82
g2146
sg75
(lp2153
S'datetime.datetime(2012, 7, 8, 3, 48, 45, 81226)'
p2154
asbasbasbag68
(g84
g70
NtRp2155
(dp2156
g73
(dp2157
sg82
g78
sg75
(lp2158
g68
(g89
g70
NtRp2159
(dp2160
g73
(dp2161
g93
g94
ssg82
g2155
sg75
(lp2162
S'post_vars'
p2163
asbag68
(g89
g70
NtRp2164
(dp2165
g73
(dp2166
g100
g101
ssg82
g2155
sg75
(lp2167
S':'
asbag68
(g89
g70
NtRp2168
(dp2169
g73
(dp2170
sg82
g2155
sg75
(lp2171
g68
(g69
g70
NtRp2172
(dp2173
g73
(dp2174
g81
I5
ssg82
g2168
sg75
(lp2175
g68
(g77
g70
NtRp2176
(dp2177
g73
(dp2178
g81
I4
ssg82
Nsg75
(lp2179
sbasbasbasbag68
(g84
g70
NtRp2180
(dp2181
g73
(dp2182
sg82
g78
sg75
(lp2183
g68
(g89
g70
NtRp2184
(dp2185
g73
(dp2186
g93
g94
ssg82
g2180
sg75
(lp2187
S'url'
p2188
asbag68
(g89
g70
NtRp2189
(dp2190
g73
(dp2191
g100
g101
ssg82
g2180
sg75
(lp2192
S':'
asbag68
(g89
g70
NtRp2193
(dp2194
g73
(dp2195
sg82
g2180
sg75
(lp2196
g68
(g69
g70
NtRp2197
(dp2198
g73
(dp2199
g81
I5
ssg82
g2193
sg75
(lp2200
S'/milo/admin/index'
p2201
asbasbasbag68
(g84
g70
NtRp2202
(dp2203
g73
(dp2204
sg82
g78
sg75
(lp2205
g68
(g89
g70
NtRp2206
(dp2207
g73
(dp2208
g93
g94
ssg82
g2202
sg75
(lp2209
S'utcnow'
p2210
asbag68
(g89
g70
NtRp2211
(dp2212
g73
(dp2213
g100
g101
ssg82
g2202
sg75
(lp2214
S':'
asbag68
(g89
g70
NtRp2215
(dp2216
g73
(dp2217
sg82
g2202
sg75
(lp2218
g68
(g69
g70
NtRp2219
(dp2220
g73
(dp2221
g81
I5
ssg82
g2215
sg75
(lp2222
S'datetime.datetime(2012, 7, 8, 1, 48, 45, 81248)'
p2223
asbasbasbag68
(g84
g70
NtRp2224
(dp2225
g73
(dp2226
sg82
g78
sg75
(lp2227
g68
(g89
g70
NtRp2228
(dp2229
g73
(dp2230
g93
g94
ssg82
g2224
sg75
(lp2231
S'uuid'
p2232
asbag68
(g89
g70
NtRp2233
(dp2234
g73
(dp2235
g100
g101
ssg82
g2224
sg75
(lp2236
S':'
asbag68
(g89
g70
NtRp2237
(dp2238
g73
(dp2239
sg82
g2224
sg75
(lp2240
g68
(g69
g70
NtRp2241
(dp2242
g73
(dp2243
g81
I5
ssg82
g2237
sg75
(lp2244
S'milo/127.0.0.1.2012-07-08.03-48-45.2f7bf986-a0c3-4ab0-bce0-96a89ececf96'
p2245
asbasbasbag68
(g84
g70
NtRp2246
(dp2247
g73
(dp2248
sg82
g78
sg75
(lp2249
g68
(g89
g70
NtRp2250
(dp2251
g73
(dp2252
g93
g94
ssg82
g2246
sg75
(lp2253
S'vars'
p2254
asbag68
(g89
g70
NtRp2255
(dp2256
g73
(dp2257
g100
g101
ssg82
g2246
sg75
(lp2258
S':'
asbag68
(g89
g70
NtRp2259
(dp2260
g73
(dp2261
sg82
g2246
sg75
(lp2262
g68
(g69
g70
NtRp2263
(dp2264
g73
(dp2265
g81
I5
ssg82
g2259
sg75
(lp2266
g68
(g77
g70
NtRp2267
(dp2268
g73
(dp2269
g81
I4
ssg82
Nsg75
(lp2270
sbasbasbasbag68
(g84
g70
NtRp2271
(dp2272
g73
(dp2273
sg82
g78
sg75
(lp2274
g68
(g89
g70
NtRp2275
(dp2276
g73
(dp2277
g93
g94
ssg82
g2271
sg75
(lp2278
S'wsgi'
p2279
asbag68
(g89
g70
NtRp2280
(dp2281
g73
(dp2282
g100
g101
ssg82
g2271
sg75
(lp2283
S':'
asbag68
(g89
g70
NtRp2284
(dp2285
g73
(dp2286
sg82
g2271
sg75
(lp2287
g68
(g69
g70
NtRp2288
(dp2289
g73
(dp2290
g81
I5
ssg82
g2284
sg75
(lp2291
g68
(g77
g70
NtRp2292
(dp2293
g73
(dp2294
g81
I4
ssg82
Nsg75
(lp2295
g68
(g84
g70
NtRp2296
(dp2297
g73
(dp2298
sg82
g2292
sg75
(lp2299
g68
(g89
g70
NtRp2300
(dp2301
g73
(dp2302
g93
g94
ssg82
g2296
sg75
(lp2303
S'environ'
p2304
asbag68
(g89
g70
NtRp2305
(dp2306
g73
(dp2307
g100
g101
ssg82
g2296
sg75
(lp2308
S':'
asbag68
(g89
g70
NtRp2309
(dp2310
g73
(dp2311
sg82
g2296
sg75
(lp2312
g68
(g69
g70
NtRp2313
(dp2314
g73
(dp2315
g81
I4
ssg82
g2309
sg75
(lp2316
g68
(g77
g70
NtRp2317
(dp2318
g73
(dp2319
g81
I3
ssg82
Nsg75
(lp2320
g68
(g84
g70
NtRp2321
(dp2322
g73
(dp2323
sg82
g2317
sg75
(lp2324
g68
(g89
g70
NtRp2325
(dp2326
g73
(dp2327
g93
g94
ssg82
g2321
sg75
(lp2328
S'HTTP_ACCEPT'
p2329
asbag68
(g89
g70
NtRp2330
(dp2331
g73
(dp2332
g100
g101
ssg82
g2321
sg75
(lp2333
S':'
asbag68
(g89
g70
NtRp2334
(dp2335
g73
(dp2336
sg82
g2321
sg75
(lp2337
g68
(g69
g70
NtRp2338
(dp2339
g73
(dp2340
g81
I3
ssg82
g2334
sg75
(lp2341
g829
asbasbasbag68
(g84
g70
NtRp2342
(dp2343
g73
(dp2344
sg82
g2317
sg75
(lp2345
g68
(g89
g70
NtRp2346
(dp2347
g73
(dp2348
g93
g94
ssg82
g2342
sg75
(lp2349
S'HTTP_ACCEPT_CHARSET'
p2350
asbag68
(g89
g70
NtRp2351
(dp2352
g73
(dp2353
g100
g101
ssg82
g2342
sg75
(lp2354
S':'
asbag68
(g89
g70
NtRp2355
(dp2356
g73
(dp2357
sg82
g2342
sg75
(lp2358
g68
(g69
g70
NtRp2359
(dp2360
g73
(dp2361
g81
I3
ssg82
g2355
sg75
(lp2362
g851
asbasbasbag68
(g84
g70
NtRp2363
(dp2364
g73
(dp2365
sg82
g2317
sg75
(lp2366
g68
(g89
g70
NtRp2367
(dp2368
g73
(dp2369
g93
g94
ssg82
g2363
sg75
(lp2370
S'HTTP_ACCEPT_ENCODING'
p2371
asbag68
(g89
g70
NtRp2372
(dp2373
g73
(dp2374
g100
g101
ssg82
g2363
sg75
(lp2375
S':'
asbag68
(g89
g70
NtRp2376
(dp2377
g73
(dp2378
sg82
g2363
sg75
(lp2379
g68
(g69
g70
NtRp2380
(dp2381
g73
(dp2382
g81
I3
ssg82
g2376
sg75
(lp2383
g873
asbasbasbag68
(g84
g70
NtRp2384
(dp2385
g73
(dp2386
sg82
g2317
sg75
(lp2387
g68
(g89
g70
NtRp2388
(dp2389
g73
(dp2390
g93
g94
ssg82
g2384
sg75
(lp2391
S'HTTP_ACCEPT_LANGUAGE'
p2392
asbag68
(g89
g70
NtRp2393
(dp2394
g73
(dp2395
g100
g101
ssg82
g2384
sg75
(lp2396
S':'
asbag68
(g89
g70
NtRp2397
(dp2398
g73
(dp2399
sg82
g2384
sg75
(lp2400
g68
(g69
g70
NtRp2401
(dp2402
g73
(dp2403
g81
I3
ssg82
g2397
sg75
(lp2404
g895
asbasbasbag68
(g84
g70
NtRp2405
(dp2406
g73
(dp2407
sg82
g2317
sg75
(lp2408
g68
(g89
g70
NtRp2409
(dp2410
g73
(dp2411
g93
g94
ssg82
g2405
sg75
(lp2412
S'HTTP_CACHE_CONTROL'
p2413
asbag68
(g89
g70
NtRp2414
(dp2415
g73
(dp2416
g100
g101
ssg82
g2405
sg75
(lp2417
S':'
asbag68
(g89
g70
NtRp2418
(dp2419
g73
(dp2420
sg82
g2405
sg75
(lp2421
g68
(g69
g70
NtRp2422
(dp2423
g73
(dp2424
g81
I3
ssg82
g2418
sg75
(lp2425
g917
asbasbasbag68
(g84
g70
NtRp2426
(dp2427
g73
(dp2428
sg82
g2317
sg75
(lp2429
g68
(g89
g70
NtRp2430
(dp2431
g73
(dp2432
g93
g94
ssg82
g2426
sg75
(lp2433
S'HTTP_CONNECTION'
p2434
asbag68
(g89
g70
NtRp2435
(dp2436
g73
(dp2437
g100
g101
ssg82
g2426
sg75
(lp2438
S':'
asbag68
(g89
g70
NtRp2439
(dp2440
g73
(dp2441
sg82
g2426
sg75
(lp2442
g68
(g69
g70
NtRp2443
(dp2444
g73
(dp2445
g81
I3
ssg82
g2439
sg75
(lp2446
g939
asbasbasbag68
(g84
g70
NtRp2447
(dp2448
g73
(dp2449
sg82
g2317
sg75
(lp2450
g68
(g89
g70
NtRp2451
(dp2452
g73
(dp2453
g93
g94
ssg82
g2447
sg75
(lp2454
S'HTTP_COOKIE'
p2455
asbag68
(g89
g70
NtRp2456
(dp2457
g73
(dp2458
g100
g101
ssg82
g2447
sg75
(lp2459
S':'
asbag68
(g89
g70
NtRp2460
(dp2461
g73
(dp2462
sg82
g2447
sg75
(lp2463
g68
(g69
g70
NtRp2464
(dp2465
g73
(dp2466
g81
I3
ssg82
g2460
sg75
(lp2467
g961
asbasbasbag68
(g84
g70
NtRp2468
(dp2469
g73
(dp2470
sg82
g2317
sg75
(lp2471
g68
(g89
g70
NtRp2472
(dp2473
g73
(dp2474
g93
g94
ssg82
g2468
sg75
(lp2475
S'HTTP_HOST'
p2476
asbag68
(g89
g70
NtRp2477
(dp2478
g73
(dp2479
g100
g101
ssg82
g2468
sg75
(lp2480
S':'
asbag68
(g89
g70
NtRp2481
(dp2482
g73
(dp2483
sg82
g2468
sg75
(lp2484
g68
(g69
g70
NtRp2485
(dp2486
g73
(dp2487
g81
I3
ssg82
g2481
sg75
(lp2488
g983
asbasbasbag68
(g84
g70
NtRp2489
(dp2490
g73
(dp2491
sg82
g2317
sg75
(lp2492
g68
(g89
g70
NtRp2493
(dp2494
g73
(dp2495
g93
g94
ssg82
g2489
sg75
(lp2496
S'HTTP_REFERER'
p2497
asbag68
(g89
g70
NtRp2498
(dp2499
g73
(dp2500
g100
g101
ssg82
g2489
sg75
(lp2501
S':'
asbag68
(g89
g70
NtRp2502
(dp2503
g73
(dp2504
sg82
g2489
sg75
(lp2505
g68
(g69
g70
NtRp2506
(dp2507
g73
(dp2508
g81
I3
ssg82
g2502
sg75
(lp2509
g1005
asbasbasbag68
(g84
g70
NtRp2510
(dp2511
g73
(dp2512
sg82
g2317
sg75
(lp2513
g68
(g89
g70
NtRp2514
(dp2515
g73
(dp2516
g93
g94
ssg82
g2510
sg75
(lp2517
S'HTTP_USER_AGENT'
p2518
asbag68
(g89
g70
NtRp2519
(dp2520
g73
(dp2521
g100
g101
ssg82
g2510
sg75
(lp2522
S':'
asbag68
(g89
g70
NtRp2523
(dp2524
g73
(dp2525
sg82
g2510
sg75
(lp2526
g68
(g69
g70
NtRp2527
(dp2528
g73
(dp2529
g81
I3
ssg82
g2523
sg75
(lp2530
g1027
asbasbasbag68
(g84
g70
NtRp2531
(dp2532
g73
(dp2533
sg82
g2317
sg75
(lp2534
g68
(g89
g70
NtRp2535
(dp2536
g73
(dp2537
g93
g94
ssg82
g2531
sg75
(lp2538
S'PATH_INFO'
p2539
asbag68
(g89
g70
NtRp2540
(dp2541
g73
(dp2542
g100
g101
ssg82
g2531
sg75
(lp2543
S':'
asbag68
(g89
g70
NtRp2544
(dp2545
g73
(dp2546
sg82
g2531
sg75
(lp2547
g68
(g69
g70
NtRp2548
(dp2549
g73
(dp2550
g81
I3
ssg82
g2544
sg75
(lp2551
g1091
asbasbasbag68
(g84
g70
NtRp2552
(dp2553
g73
(dp2554
sg82
g2317
sg75
(lp2555
g68
(g89
g70
NtRp2556
(dp2557
g73
(dp2558
g93
g94
ssg82
g2552
sg75
(lp2559
S'QUERY_STRING'
p2560
asbag68
(g89
g70
NtRp2561
(dp2562
g73
(dp2563
g100
g101
ssg82
g2552
sg75
(lp2564
S':'
asbag68
(g89
g70
NtRp2565
(dp2566
g73
(dp2567
sg82
g2552
sg75
(lp2568
g68
(g69
g70
NtRp2569
(dp2570
g73
(dp2571
g81
I3
ssg82
g2565
sg75
(lp2572
S''
asbasbasbag68
(g84
g70
NtRp2573
(dp2574
g73
(dp2575
sg82
g2317
sg75
(lp2576
g68
(g89
g70
NtRp2577
(dp2578
g73
(dp2579
g93
g94
ssg82
g2573
sg75
(lp2580
S'REMOTE_ADDR'
p2581
asbag68
(g89
g70
NtRp2582
(dp2583
g73
(dp2584
g100
g101
ssg82
g2573
sg75
(lp2585
S':'
asbag68
(g89
g70
NtRp2586
(dp2587
g73
(dp2588
sg82
g2573
sg75
(lp2589
g68
(g69
g70
NtRp2590
(dp2591
g73
(dp2592
g81
I3
ssg82
g2586
sg75
(lp2593
g201
asbasbasbag68
(g84
g70
NtRp2594
(dp2595
g73
(dp2596
sg82
g2317
sg75
(lp2597
g68
(g89
g70
NtRp2598
(dp2599
g73
(dp2600
g93
g94
ssg82
g2594
sg75
(lp2601
S'REMOTE_PORT'
p2602
asbag68
(g89
g70
NtRp2603
(dp2604
g73
(dp2605
g100
g101
ssg82
g2594
sg75
(lp2606
S':'
asbag68
(g89
g70
NtRp2607
(dp2608
g73
(dp2609
sg82
g2594
sg75
(lp2610
g68
(g69
g70
NtRp2611
(dp2612
g73
(dp2613
g81
I3
ssg82
g2607
sg75
(lp2614
g1155
asbasbasbag68
(g84
g70
NtRp2615
(dp2616
g73
(dp2617
sg82
g2317
sg75
(lp2618
g68
(g89
g70
NtRp2619
(dp2620
g73
(dp2621
g93
g94
ssg82
g2615
sg75
(lp2622
S'REQUEST_METHOD'
p2623
asbag68
(g89
g70
NtRp2624
(dp2625
g73
(dp2626
g100
g101
ssg82
g2615
sg75
(lp2627
S':'
asbag68
(g89
g70
NtRp2628
(dp2629
g73
(dp2630
sg82
g2615
sg75
(lp2631
g68
(g69
g70
NtRp2632
(dp2633
g73
(dp2634
g81
I3
ssg82
g2628
sg75
(lp2635
g1177
asbasbasbag68
(g84
g70
NtRp2636
(dp2637
g73
(dp2638
sg82
g2317
sg75
(lp2639
g68
(g89
g70
NtRp2640
(dp2641
g73
(dp2642
g93
g94
ssg82
g2636
sg75
(lp2643
S'REQUEST_URI'
p2644
asbag68
(g89
g70
NtRp2645
(dp2646
g73
(dp2647
g100
g101
ssg82
g2636
sg75
(lp2648
S':'
asbag68
(g89
g70
NtRp2649
(dp2650
g73
(dp2651
sg82
g2636
sg75
(lp2652
g68
(g69
g70
NtRp2653
(dp2654
g73
(dp2655
g81
I3
ssg82
g2649
sg75
(lp2656
g1091
asbasbasbag68
(g84
g70
NtRp2657
(dp2658
g73
(dp2659
sg82
g2317
sg75
(lp2660
g68
(g89
g70
NtRp2661
(dp2662
g73
(dp2663
g93
g94
ssg82
g2657
sg75
(lp2664
S'SCRIPT_NAME'
p2665
asbag68
(g89
g70
NtRp2666
(dp2667
g73
(dp2668
g100
g101
ssg82
g2657
sg75
(lp2669
S':'
asbag68
(g89
g70
NtRp2670
(dp2671
g73
(dp2672
sg82
g2657
sg75
(lp2673
g68
(g69
g70
NtRp2674
(dp2675
g73
(dp2676
g81
I3
ssg82
g2670
sg75
(lp2677
S''
asbasbasbag68
(g84
g70
NtRp2678
(dp2679
g73
(dp2680
sg82
g2317
sg75
(lp2681
g68
(g89
g70
NtRp2682
(dp2683
g73
(dp2684
g93
g94
ssg82
g2678
sg75
(lp2685
S'SERVER_NAME'
p2686
asbag68
(g89
g70
NtRp2687
(dp2688
g73
(dp2689
g100
g101
ssg82
g2678
sg75
(lp2690
S':'
asbag68
(g89
g70
NtRp2691
(dp2692
g73
(dp2693
sg82
g2678
sg75
(lp2694
g68
(g69
g70
NtRp2695
(dp2696
g73
(dp2697
g81
I3
ssg82
g2691
sg75
(lp2698
g1241
asbasbasbag68
(g84
g70
NtRp2699
(dp2700
g73
(dp2701
sg82
g2317
sg75
(lp2702
g68
(g89
g70
NtRp2703
(dp2704
g73
(dp2705
g93
g94
ssg82
g2699
sg75
(lp2706
S'SERVER_PORT'
p2707
asbag68
(g89
g70
NtRp2708
(dp2709
g73
(dp2710
g100
g101
ssg82
g2699
sg75
(lp2711
S':'
asbag68
(g89
g70
NtRp2712
(dp2713
g73
(dp2714
sg82
g2699
sg75
(lp2715
g68
(g69
g70
NtRp2716
(dp2717
g73
(dp2718
g81
I3
ssg82
g2712
sg75
(lp2719
g1263
asbasbasbag68
(g84
g70
NtRp2720
(dp2721
g73
(dp2722
sg82
g2317
sg75
(lp2723
g68
(g89
g70
NtRp2724
(dp2725
g73
(dp2726
g93
g94
ssg82
g2720
sg75
(lp2727
S'SERVER_PROTOCOL'
p2728
asbag68
(g89
g70
NtRp2729
(dp2730
g73
(dp2731
g100
g101
ssg82
g2720
sg75
(lp2732
S':'
asbag68
(g89
g70
NtRp2733
(dp2734
g73
(dp2735
sg82
g2720
sg75
(lp2736
g68
(g69
g70
NtRp2737
(dp2738
g73
(dp2739
g81
I3
ssg82
g2733
sg75
(lp2740
g1285
asbasbasbag68
(g84
g70
NtRp2741
(dp2742
g73
(dp2743
sg82
g2317
sg75
(lp2744
g68
(g89
g70
NtRp2745
(dp2746
g73
(dp2747
g93
g94
ssg82
g2741
sg75
(lp2748
S'SERVER_SOFTWARE'
p2749
asbag68
(g89
g70
NtRp2750
(dp2751
g73
(dp2752
g100
g101
ssg82
g2741
sg75
(lp2753
S':'
asbag68
(g89
g70
NtRp2754
(dp2755
g73
(dp2756
sg82
g2741
sg75
(lp2757
g68
(g69
g70
NtRp2758
(dp2759
g73
(dp2760
g81
I3
ssg82
g2754
sg75
(lp2761
g1307
asbasbasbag68
(g84
g70
NtRp2762
(dp2763
g73
(dp2764
sg82
g2317
sg75
(lp2765
g68
(g89
g70
NtRp2766
(dp2767
g73
(dp2768
g93
g94
ssg82
g2762
sg75
(lp2769
S'WEB2PY_ORIGINAL_URI'
p2770
asbag68
(g89
g70
NtRp2771
(dp2772
g73
(dp2773
g100
g101
ssg82
g2762
sg75
(lp2774
S':'
asbag68
(g89
g70
NtRp2775
(dp2776
g73
(dp2777
sg82
g2762
sg75
(lp2778
g68
(g69
g70
NtRp2779
(dp2780
g73
(dp2781
g81
I3
ssg82
g2775
sg75
(lp2782
g1091
asbasbasbag68
(g84
g70
NtRp2783
(dp2784
g73
(dp2785
sg82
g2317
sg75
(lp2786
g68
(g89
g70
NtRp2787
(dp2788
g73
(dp2789
g93
g94
ssg82
g2783
sg75
(lp2790
S'wsgi.errors'
p2791
asbag68
(g89
g70
NtRp2792
(dp2793
g73
(dp2794
g100
g101
ssg82
g2783
sg75
(lp2795
S':'
asbag68
(g89
g70
NtRp2796
(dp2797
g73
(dp2798
sg82
g2783
sg75
(lp2799
g68
(g69
g70
NtRp2800
(dp2801
g73
(dp2802
g81
I3
ssg82
g2796
sg75
(lp2803
S"<open file '<stderr>', mode 'w' at 0x7f13cb382270>"
p2804
asbasbasbag68
(g84
g70
NtRp2805
(dp2806
g73
(dp2807
sg82
g2317
sg75
(lp2808
g68
(g89
g70
NtRp2809
(dp2810
g73
(dp2811
g93
g94
ssg82
g2805
sg75
(lp2812
S'wsgi.file_wrapper'
p2813
asbag68
(g89
g70
NtRp2814
(dp2815
g73
(dp2816
g100
g101
ssg82
g2805
sg75
(lp2817
S':'
asbag68
(g89
g70
NtRp2818
(dp2819
g73
(dp2820
sg82
g2805
sg75
(lp2821
g68
(g69
g70
NtRp2822
(dp2823
g73
(dp2824
g81
I3
ssg82
g2818
sg75
(lp2825
S'<class wsgiref.util.FileWrapper at 0x13fff58>'
p2826
asbasbasbag68
(g84
g70
NtRp2827
(dp2828
g73
(dp2829
sg82
g2317
sg75
(lp2830
g68
(g89
g70
NtRp2831
(dp2832
g73
(dp2833
g93
g94
ssg82
g2827
sg75
(lp2834
S'wsgi.input'
p2835
asbag68
(g89
g70
NtRp2836
(dp2837
g73
(dp2838
g100
g101
ssg82
g2827
sg75
(lp2839
S':'
asbag68
(g89
g70
NtRp2840
(dp2841
g73
(dp2842
sg82
g2827
sg75
(lp2843
g68
(g69
g70
NtRp2844
(dp2845
g73
(dp2846
g81
I3
ssg82
g2840
sg75
(lp2847
S'<cStringIO.StringO object at 0x7f13ac443bc8>'
p2848
asbasbasbag68
(g84
g70
NtRp2849
(dp2850
g73
(dp2851
sg82
g2317
sg75
(lp2852
g68
(g89
g70
NtRp2853
(dp2854
g73
(dp2855
g93
g94
ssg82
g2849
sg75
(lp2856
S'wsgi.multiprocess'
p2857
asbag68
(g89
g70
NtRp2858
(dp2859
g73
(dp2860
g100
g101
ssg82
g2849
sg75
(lp2861
S':'
asbag68
(g89
g70
NtRp2862
(dp2863
g73
(dp2864
sg82
g2849
sg75
(lp2865
g68
(g69
g70
NtRp2866
(dp2867
g73
(dp2868
g81
I3
ssg82
g2862
sg75
(lp2869
g111
asbasbasbag68
(g84
g70
NtRp2870
(dp2871
g73
(dp2872
sg82
g2317
sg75
(lp2873
g68
(g89
g70
NtRp2874
(dp2875
g73
(dp2876
g93
g94
ssg82
g2870
sg75
(lp2877
S'wsgi.multithread'
p2878
asbag68
(g89
g70
NtRp2879
(dp2880
g73
(dp2881
g100
g101
ssg82
g2870
sg75
(lp2882
S':'
asbag68
(g89
g70
NtRp2883
(dp2884
g73
(dp2885
sg82
g2870
sg75
(lp2886
g68
(g69
g70
NtRp2887
(dp2888
g73
(dp2889
g81
I3
ssg82
g2883
sg75
(lp2890
g1568
asbasbasbag68
(g84
g70
NtRp2891
(dp2892
g73
(dp2893
sg82
g2317
sg75
(lp2894
g68
(g89
g70
NtRp2895
(dp2896
g73
(dp2897
g93
g94
ssg82
g2891
sg75
(lp2898
S'wsgi.run_once'
p2899
asbag68
(g89
g70
NtRp2900
(dp2901
g73
(dp2902
g100
g101
ssg82
g2891
sg75
(lp2903
S':'
asbag68
(g89
g70
NtRp2904
(dp2905
g73
(dp2906
sg82
g2891
sg75
(lp2907
g68
(g69
g70
NtRp2908
(dp2909
g73
(dp2910
g81
I3
ssg82
g2904
sg75
(lp2911
g111
asbasbasbag68
(g84
g70
NtRp2912
(dp2913
g73
(dp2914
sg82
g2317
sg75
(lp2915
g68
(g89
g70
NtRp2916
(dp2917
g73
(dp2918
g93
g94
ssg82
g2912
sg75
(lp2919
S'wsgi.url_scheme'
p2920
asbag68
(g89
g70
NtRp2921
(dp2922
g73
(dp2923
g100
g101
ssg82
g2912
sg75
(lp2924
S':'
asbag68
(g89
g70
NtRp2925
(dp2926
g73
(dp2927
sg82
g2912
sg75
(lp2928
g68
(g69
g70
NtRp2929
(dp2930
g73
(dp2931
g81
I3
ssg82
g2925
sg75
(lp2932
g1611
asbasbasbag68
(g84
g70
NtRp2933
(dp2934
g73
(dp2935
sg82
g2317
sg75
(lp2936
g68
(g89
g70
NtRp2937
(dp2938
g73
(dp2939
g93
g94
ssg82
g2933
sg75
(lp2940
S'wsgi.version'
p2941
asbag68
(g89
g70
NtRp2942
(dp2943
g73
(dp2944
g100
g101
ssg82
g2933
sg75
(lp2945
S':'
asbag68
(g89
g70
NtRp2946
(dp2947
g73
(dp2948
sg82
g2933
sg75
(lp2949
g68
(g69
g70
NtRp2950
(dp2951
g73
(dp2952
g81
I3
ssg82
g2946
sg75
(lp2953
S'1'
asbasbasbasbasbasbasbasbasbasbasbasbasbsS'frames'
p2954
(lp2955
(dp2956
S'file'
p2957
S'/home/goshawk/web2py/gluon/restricted.py'
p2958
sS'dump'
p2959
(dp2960
S'code'
p2961
S'"extends \'admin_layout.html\'\\nresponse.write(\'\\\\n\', escape=False)"'
p2962
sS'layer'
p2963
S"'/home/goshawk/web2py/applications/milo/views/admin/index.html'"
p2964
sS'global compile2'
p2965
S'<function compile2>'
p2966
sS'ccode'
p2967
S'undefined'
p2968
ssS'lnum'
p2969
I204
sS'lines'
p2970
(dp2971
I199
S"    environment['__name__'] = '__restricted__'"
p2972
sI200
S'    try:'
p2973
sI201
S'        if type(code) == types.CodeType:'
p2974
sI202
S'            ccode = code'
p2975
sI203
S'        else:'
p2976
sI204
S'            ccode = compile2(code,layer)'
p2977
sI205
S'        exec ccode in environment'
p2978
sI206
S'    except HTTP:'
p2979
sI207
S'        raise'
p2980
sI208
S'    except RestrictedError:'
p2981
ssS'call'
p2982
S'(code="extends \'admin_layout.html\'\\nresponse.write(\'\\\\n\', escape=False)", environment={\'A\': <class \'gluon.html.A\'>, \'Auth\': <class \'gluon.tools.Auth\'>, \'B\': <class \'gluon.html.B\'>, \'BEAUTIFY\': <class \'gluon.html.BEAUTIFY\'>, \'BODY\': <class \'gluon.html.BODY\'>, \'BR\': <class \'gluon.html.BR\'>, \'BUTTON\': <class \'gluon.html.BUTTON\'>, \'CAT\': <class \'gluon.html.CAT\'>, \'CENTER\': <class \'gluon.html.CENTER\'>, \'CLEANUP\': <class \'gluon.validators.CLEANUP\'>, ...}, layer=\'/home/goshawk/web2py/applications/milo/views/admin/index.html\')'
p2983
sS'func'
p2984
S'restricted'
p2985
sa(dp2986
g2957
S'/home/goshawk/web2py/gluon/restricted.py'
p2987
sg2959
(dp2988
S'builtincompile'
p2989
S'<built-in function compile>'
p2990
sS'code'
p2991
S'"extends \'admin_layout.html\'\\nresponse.write(\'\\\\n\', escape=False)"'
p2992
sS'code.rstrip'
p2993
S'<built-in method rstrip of str object>'
p2994
sS').replace'
p2995
g2968
sS'layer'
p2996
S"'/home/goshawk/web2py/applications/milo/views/admin/index.html'"
p2997
ssg2969
I189
sg2970
(dp2998
I192
S'    """'
p2999
sI193
S'    runs code in environment and returns the output. if an exception occurs'
p3000
sI184
S''
sI185
S'def compile2(code,layer):'
p3001
sI186
S'    """'
p3002
sI187
S"    The +'\\n' is necessary else compile fails when code ends in a comment."
p3003
sI188
S'    """'
p3004
sI189
S"    return compile(code.rstrip().replace('\\r\\n','\\n')+'\\n', layer, 'exec')"
p3005
sI190
S''
sI191
S"def restricted(code, environment=None, layer='Unknown'):"
p3006
ssg2982
S'(code="extends \'admin_layout.html\'\\nresponse.write(\'\\\\n\', escape=False)", layer=\'/home/goshawk/web2py/applications/milo/views/admin/index.html\')'
p3007
sg2984
S'compile2'
p3008
sasS'pyver'
p3009
S'Python 2.7.3: /usr/bin/python'
p3010
sS'session'
p3011
g68
(g69
g70
NtRp3012
(dp3013
g73
(dp3014
sg75
(lp3015
g68
(g77
g70
NtRp3016
(dp3017
g73
(dp3018
g81
I5
ssg82
Nsg75
(lp3019
sbasbsS'etype'
p3020
S"<type 'exceptions.SyntaxError'>"
p3021
sS'date'
p3022
S'Sun Jul  8 03:48:45 2012'
p3023
sS'response'
p3024
g68
(g69
g70
NtRp3025
(dp3026
g73
(dp3027
sg75
(lp3028
g68
(g77
g70
NtRp3029
(dp3030
g73
(dp3031
g81
I5
ssg82
Nsg75
(lp3032
g68
(g84
g70
NtRp3033
(dp3034
g73
(dp3035
sg82
g3029
sg75
(lp3036
g68
(g89
g70
NtRp3037
(dp3038
g73
(dp3039
g93
g94
ssg82
g3033
sg75
(lp3040
g166
asbag68
(g89
g70
NtRp3041
(dp3042
g73
(dp3043
g100
g101
ssg82
g3033
sg75
(lp3044
S':'
asbag68
(g89
g70
NtRp3045
(dp3046
g73
(dp3047
sg82
g3033
sg75
(lp3048
g68
(g69
g70
NtRp3049
(dp3050
g73
(dp3051
g81
I5
ssg82
g3045
sg75
(lp3052
S'<cStringIO.StringO object at 0x7f139c6c5d88>'
p3053
asbasbasbag68
(g84
g70
NtRp3054
(dp3055
g73
(dp3056
sg82
g3029
sg75
(lp3057
g68
(g89
g70
NtRp3058
(dp3059
g73
(dp3060
g93
g94
ssg82
g3054
sg75
(lp3061
g232
asbag68
(g89
g70
NtRp3062
(dp3063
g73
(dp3064
g100
g101
ssg82
g3054
sg75
(lp3065
S':'
asbag68
(g89
g70
NtRp3066
(dp3067
g73
(dp3068
sg82
g3054
sg75
(lp3069
g68
(g69
g70
NtRp3070
(dp3071
g73
(dp3072
g81
I5
ssg82
g3066
sg75
(lp3073
g68
(g77
g70
NtRp3074
(dp3075
g73
(dp3076
g81
I4
ssg82
Nsg75
(lp3077
g68
(g84
g70
NtRp3078
(dp3079
g73
(dp3080
sg82
g3074
sg75
(lp3081
g68
(g89
g70
NtRp3082
(dp3083
g73
(dp3084
g93
g94
ssg82
g3078
sg75
(lp3085
S'session_id_milo'
p3086
asbag68
(g89
g70
NtRp3087
(dp3088
g73
(dp3089
g100
g101
ssg82
g3078
sg75
(lp3090
S':'
asbag68
(g89
g70
NtRp3091
(dp3092
g73
(dp3093
sg82
g3078
sg75
(lp3094
g68
(g69
g70
NtRp3095
(dp3096
g73
(dp3097
g81
I4
ssg82
g3091
sg75
(lp3098
g68
(g77
g70
NtRp3099
(dp3100
g73
(dp3101
g81
I3
ssg82
Nsg75
(lp3102
g68
(g84
g70
NtRp3103
(dp3104
g73
(dp3105
sg82
g3099
sg75
(lp3106
g68
(g89
g70
NtRp3107
(dp3108
g73
(dp3109
g93
g94
ssg82
g3103
sg75
(lp3110
g282
asbag68
(g89
g70
NtRp3111
(dp3112
g73
(dp3113
g100
g101
ssg82
g3103
sg75
(lp3114
S':'
asbag68
(g89
g70
NtRp3115
(dp3116
g73
(dp3117
sg82
g3103
sg75
(lp3118
g68
(g69
g70
NtRp3119
(dp3120
g73
(dp3121
g81
I3
ssg82
g3115
sg75
(lp3122
S''
asbasbasbag68
(g84
g70
NtRp3123
(dp3124
g73
(dp3125
sg82
g3099
sg75
(lp3126
g68
(g89
g70
NtRp3127
(dp3128
g73
(dp3129
g93
g94
ssg82
g3123
sg75
(lp3130
g303
asbag68
(g89
g70
NtRp3131
(dp3132
g73
(dp3133
g100
g101
ssg82
g3123
sg75
(lp3134
S':'
asbag68
(g89
g70
NtRp3135
(dp3136
g73
(dp3137
sg82
g3123
sg75
(lp3138
g68
(g69
g70
NtRp3139
(dp3140
g73
(dp3141
g81
I3
ssg82
g3135
sg75
(lp3142
S''
asbasbasbag68
(g84
g70
NtRp3143
(dp3144
g73
(dp3145
sg82
g3099
sg75
(lp3146
g68
(g89
g70
NtRp3147
(dp3148
g73
(dp3149
g93
g94
ssg82
g3143
sg75
(lp3150
g324
asbag68
(g89
g70
NtRp3151
(dp3152
g73
(dp3153
g100
g101
ssg82
g3143
sg75
(lp3154
S':'
asbag68
(g89
g70
NtRp3155
(dp3156
g73
(dp3157
sg82
g3143
sg75
(lp3158
g68
(g69
g70
NtRp3159
(dp3160
g73
(dp3161
g81
I3
ssg82
g3155
sg75
(lp3162
S''
asbasbasbag68
(g84
g70
NtRp3163
(dp3164
g73
(dp3165
sg82
g3099
sg75
(lp3166
g68
(g89
g70
NtRp3167
(dp3168
g73
(dp3169
g93
g94
ssg82
g3163
sg75
(lp3170
g345
asbag68
(g89
g70
NtRp3171
(dp3172
g73
(dp3173
g100
g101
ssg82
g3163
sg75
(lp3174
S':'
asbag68
(g89
g70
NtRp3175
(dp3176
g73
(dp3177
sg82
g3163
sg75
(lp3178
g68
(g69
g70
NtRp3179
(dp3180
g73
(dp3181
g81
I3
ssg82
g3175
sg75
(lp3182
S''
asbasbasbag68
(g84
g70
NtRp3183
(dp3184
g73
(dp3185
sg82
g3099
sg75
(lp3186
g68
(g89
g70
NtRp3187
(dp3188
g73
(dp3189
g93
g94
ssg82
g3183
sg75
(lp3190
g366
asbag68
(g89
g70
NtRp3191
(dp3192
g73
(dp3193
g100
g101
ssg82
g3183
sg75
(lp3194
S':'
asbag68
(g89
g70
NtRp3195
(dp3196
g73
(dp3197
sg82
g3183
sg75
(lp3198
g68
(g69
g70
NtRp3199
(dp3200
g73
(dp3201
g81
I3
ssg82
g3195
sg75
(lp3202
S''
asbasbasbag68
(g84
g70
NtRp3203
(dp3204
g73
(dp3205
sg82
g3099
sg75
(lp3206
g68
(g89
g70
NtRp3207
(dp3208
g73
(dp3209
g93
g94
ssg82
g3203
sg75
(lp3210
g387
asbag68
(g89
g70
NtRp3211
(dp3212
g73
(dp3213
g100
g101
ssg82
g3203
sg75
(lp3214
S':'
asbag68
(g89
g70
NtRp3215
(dp3216
g73
(dp3217
sg82
g3203
sg75
(lp3218
g68
(g69
g70
NtRp3219
(dp3220
g73
(dp3221
g81
I3
ssg82
g3215
sg75
(lp3222
S'/'
asbasbasbag68
(g84
g70
NtRp3223
(dp3224
g73
(dp3225
sg82
g3099
sg75
(lp3226
g68
(g89
g70
NtRp3227
(dp3228
g73
(dp3229
g93
g94
ssg82
g3223
sg75
(lp3230
g408
asbag68
(g89
g70
NtRp3231
(dp3232
g73
(dp3233
g100
g101
ssg82
g3223
sg75
(lp3234
S':'
asbag68
(g89
g70
NtRp3235
(dp3236
g73
(dp3237
sg82
g3223
sg75
(lp3238
g68
(g69
g70
NtRp3239
(dp3240
g73
(dp3241
g81
I3
ssg82
g3235
sg75
(lp3242
S''
asbasbasbag68
(g84
g70
NtRp3243
(dp3244
g73
(dp3245
sg82
g3099
sg75
(lp3246
g68
(g89
g70
NtRp3247
(dp3248
g73
(dp3249
g93
g94
ssg82
g3243
sg75
(lp3250
g429
asbag68
(g89
g70
NtRp3251
(dp3252
g73
(dp3253
g100
g101
ssg82
g3243
sg75
(lp3254
S':'
asbag68
(g89
g70
NtRp3255
(dp3256
g73
(dp3257
sg82
g3243
sg75
(lp3258
g68
(g69
g70
NtRp3259
(dp3260
g73
(dp3261
g81
I3
ssg82
g3255
sg75
(lp3262
S''
asbasbasbasbasbasbasbasbasbasbasbag68
(g84
g70
NtRp3263
(dp3264
g73
(dp3265
sg82
g3029
sg75
(lp3266
g68
(g89
g70
NtRp3267
(dp3268
g73
(dp3269
g93
g94
ssg82
g3263
sg75
(lp3270
S'delimiters'
p3271
asbag68
(g89
g70
NtRp3272
(dp3273
g73
(dp3274
g100
g101
ssg82
g3263
sg75
(lp3275
S':'
asbag68
(g89
g70
NtRp3276
(dp3277
g73
(dp3278
sg82
g3263
sg75
(lp3279
g68
(g69
g70
NtRp3280
(dp3281
g73
(dp3282
g81
I5
ssg82
g3276
sg75
(lp3283
g68
(g77
g70
NtRp3284
(dp3285
g73
(dp3286
g81
I4
ssg82
Nsg75
(lp3287
g68
(g84
g70
NtRp3288
(dp3289
g73
(dp3290
sg82
g3284
sg75
(lp3291
g68
(g89
g70
NtRp3292
(dp3293
g73
(dp3294
sg82
g3288
sg75
(lp3295
g68
(g69
g70
NtRp3296
(dp3297
g73
(dp3298
g81
I4
ssg82
g3292
sg75
(lp3299
S'{{'
p3300
asbasbasbag68
(g84
g70
NtRp3301
(dp3302
g73
(dp3303
sg82
g3284
sg75
(lp3304
g68
(g89
g70
NtRp3305
(dp3306
g73
(dp3307
sg82
g3301
sg75
(lp3308
g68
(g69
g70
NtRp3309
(dp3310
g73
(dp3311
g81
I4
ssg82
g3305
sg75
(lp3312
S'}}'
p3313
asbasbasbasbasbasbasbag68
(g84
g70
NtRp3314
(dp3315
g73
(dp3316
sg82
g3029
sg75
(lp3317
g68
(g89
g70
NtRp3318
(dp3319
g73
(dp3320
g93
g94
ssg82
g3314
sg75
(lp3321
S'files'
p3322
asbag68
(g89
g70
NtRp3323
(dp3324
g73
(dp3325
g100
g101
ssg82
g3314
sg75
(lp3326
S':'
asbag68
(g89
g70
NtRp3327
(dp3328
g73
(dp3329
sg82
g3314
sg75
(lp3330
g68
(g69
g70
NtRp3331
(dp3332
g73
(dp3333
g81
I5
ssg82
g3327
sg75
(lp3334
g68
(g77
g70
NtRp3335
(dp3336
g73
(dp3337
g81
I4
ssg82
Nsg75
(lp3338
sbasbasbasbag68
(g84
g70
NtRp3339
(dp3340
g73
(dp3341
sg82
g3029
sg75
(lp3342
g68
(g89
g70
NtRp3343
(dp3344
g73
(dp3345
g93
g94
ssg82
g3339
sg75
(lp3346
S'flash'
p3347
asbag68
(g89
g70
NtRp3348
(dp3349
g73
(dp3350
g100
g101
ssg82
g3339
sg75
(lp3351
S':'
asbag68
(g89
g70
NtRp3352
(dp3353
g73
(dp3354
sg82
g3339
sg75
(lp3355
g68
(g69
g70
NtRp3356
(dp3357
g73
(dp3358
g81
I5
ssg82
g3352
sg75
(lp3359
S''
asbasbasbag68
(g84
g70
NtRp3360
(dp3361
g73
(dp3362
sg82
g3029
sg75
(lp3363
g68
(g89
g70
NtRp3364
(dp3365
g73
(dp3366
g93
g94
ssg82
g3360
sg75
(lp3367
S'generic_patterns'
p3368
asbag68
(g89
g70
NtRp3369
(dp3370
g73
(dp3371
g100
g101
ssg82
g3360
sg75
(lp3372
S':'
asbag68
(g89
g70
NtRp3373
(dp3374
g73
(dp3375
sg82
g3360
sg75
(lp3376
g68
(g69
g70
NtRp3377
(dp3378
g73
(dp3379
g81
I5
ssg82
g3373
sg75
(lp3380
g68
(g77
g70
NtRp3381
(dp3382
g73
(dp3383
g81
I4
ssg82
Nsg75
(lp3384
g68
(g84
g70
NtRp3385
(dp3386
g73
(dp3387
sg82
g3381
sg75
(lp3388
g68
(g89
g70
NtRp3389
(dp3390
g73
(dp3391
sg82
g3385
sg75
(lp3392
g68
(g69
g70
NtRp3393
(dp3394
g73
(dp3395
g81
I4
ssg82
g3389
sg75
(lp3396
S'*'
asbasbasbasbasbasbasbag68
(g84
g70
NtRp3397
(dp3398
g73
(dp3399
sg82
g3029
sg75
(lp3400
g68
(g89
g70
NtRp3401
(dp3402
g73
(dp3403
g93
g94
ssg82
g3397
sg75
(lp3404
S'headers'
p3405
asbag68
(g89
g70
NtRp3406
(dp3407
g73
(dp3408
g100
g101
ssg82
g3397
sg75
(lp3409
S':'
asbag68
(g89
g70
NtRp3410
(dp3411
g73
(dp3412
sg82
g3397
sg75
(lp3413
g68
(g69
g70
NtRp3414
(dp3415
g73
(dp3416
g81
I5
ssg82
g3410
sg75
(lp3417
g68
(g77
g70
NtRp3418
(dp3419
g73
(dp3420
g81
I4
ssg82
Nsg75
(lp3421
g68
(g84
g70
NtRp3422
(dp3423
g73
(dp3424
sg82
g3418
sg75
(lp3425
g68
(g89
g70
NtRp3426
(dp3427
g73
(dp3428
g93
g94
ssg82
g3422
sg75
(lp3429
S'Cache-Control'
p3430
asbag68
(g89
g70
NtRp3431
(dp3432
g73
(dp3433
g100
g101
ssg82
g3422
sg75
(lp3434
S':'
asbag68
(g89
g70
NtRp3435
(dp3436
g73
(dp3437
sg82
g3422
sg75
(lp3438
g68
(g69
g70
NtRp3439
(dp3440
g73
(dp3441
g81
I4
ssg82
g3435
sg75
(lp3442
S'no-store, no-cache, must-revalidate, post-check=0, pre-check=0'
p3443
asbasbasbag68
(g84
g70
NtRp3444
(dp3445
g73
(dp3446
sg82
g3418
sg75
(lp3447
g68
(g89
g70
NtRp3448
(dp3449
g73
(dp3450
g93
g94
ssg82
g3444
sg75
(lp3451
S'Content-Type'
p3452
asbag68
(g89
g70
NtRp3453
(dp3454
g73
(dp3455
g100
g101
ssg82
g3444
sg75
(lp3456
S':'
asbag68
(g89
g70
NtRp3457
(dp3458
g73
(dp3459
sg82
g3444
sg75
(lp3460
g68
(g69
g70
NtRp3461
(dp3462
g73
(dp3463
g81
I4
ssg82
g3457
sg75
(lp3464
S'text/html; charset=utf-8'
p3465
asbasbasbag68
(g84
g70
NtRp3466
(dp3467
g73
(dp3468
sg82
g3418
sg75
(lp3469
g68
(g89
g70
NtRp3470
(dp3471
g73
(dp3472
g93
g94
ssg82
g3466
sg75
(lp3473
S'Expires'
p3474
asbag68
(g89
g70
NtRp3475
(dp3476
g73
(dp3477
g100
g101
ssg82
g3466
sg75
(lp3478
S':'
asbag68
(g89
g70
NtRp3479
(dp3480
g73
(dp3481
sg82
g3466
sg75
(lp3482
g68
(g69
g70
NtRp3483
(dp3484
g73
(dp3485
g81
I4
ssg82
g3479
sg75
(lp3486
S'Sun, 08 Jul 2012 01:48:45 GMT'
p3487
asbasbasbag68
(g84
g70
NtRp3488
(dp3489
g73
(dp3490
sg82
g3418
sg75
(lp3491
g68
(g89
g70
NtRp3492
(dp3493
g73
(dp3494
g93
g94
ssg82
g3488
sg75
(lp3495
S'Pragma'
p3496
asbag68
(g89
g70
NtRp3497
(dp3498
g73
(dp3499
g100
g101
ssg82
g3488
sg75
(lp3500
S':'
asbag68
(g89
g70
NtRp3501
(dp3502
g73
(dp3503
sg82
g3488
sg75
(lp3504
g68
(g69
g70
NtRp3505
(dp3506
g73
(dp3507
g81
I4
ssg82
g3501
sg75
(lp3508
S'no-cache'
p3509
asbasbasbag68
(g84
g70
NtRp3510
(dp3511
g73
(dp3512
sg82
g3418
sg75
(lp3513
g68
(g89
g70
NtRp3514
(dp3515
g73
(dp3516
g93
g94
ssg82
g3510
sg75
(lp3517
S'X-Powered-By'
p3518
asbag68
(g89
g70
NtRp3519
(dp3520
g73
(dp3521
g100
g101
ssg82
g3510
sg75
(lp3522
S':'
asbag68
(g89
g70
NtRp3523
(dp3524
g73
(dp3525
sg82
g3510
sg75
(lp3526
g68
(g69
g70
NtRp3527
(dp3528
g73
(dp3529
g81
I4
ssg82
g3523
sg75
(lp3530
S'web2py'
p3531
asbasbasbasbasbasbasbag68
(g84
g70
NtRp3532
(dp3533
g73
(dp3534
sg82
g3029
sg75
(lp3535
g68
(g89
g70
NtRp3536
(dp3537
g73
(dp3538
g93
g94
ssg82
g3532
sg75
(lp3539
S'menu'
p3540
asbag68
(g89
g70
NtRp3541
(dp3542
g73
(dp3543
g100
g101
ssg82
g3532
sg75
(lp3544
S':'
asbag68
(g89
g70
NtRp3545
(dp3546
g73
(dp3547
sg82
g3532
sg75
(lp3548
g68
(g69
g70
NtRp3549
(dp3550
g73
(dp3551
g81
I5
ssg82
g3545
sg75
(lp3552
g68
(g77
g70
NtRp3553
(dp3554
g73
(dp3555
g81
I4
ssg82
Nsg75
(lp3556
g68
(g84
g70
NtRp3557
(dp3558
g73
(dp3559
sg82
g3553
sg75
(lp3560
g68
(g89
g70
NtRp3561
(dp3562
g73
(dp3563
sg82
g3557
sg75
(lp3564
g68
(g69
g70
NtRp3565
(dp3566
g73
(dp3567
g81
I4
ssg82
g3561
sg75
(lp3568
g68
(g77
g70
NtRp3569
(dp3570
g73
(dp3571
g81
I3
ssg82
Nsg75
(lp3572
g68
(g84
g70
NtRp3573
(dp3574
g73
(dp3575
sg82
g3569
sg75
(lp3576
g68
(g89
g70
NtRp3577
(dp3578
g73
(dp3579
sg82
g3573
sg75
(lp3580
g68
(g69
g70
NtRp3581
(dp3582
g73
(dp3583
g81
I3
ssg82
g3577
sg75
(lp3584
cgluon.languages
lazyT_unpickle
p3585
(S't\x04\x00\x00\x00Home'
tRp3586
asbasbasbag68
(g84
g70
NtRp3587
(dp3588
g73
(dp3589
sg82
g3569
sg75
(lp3590
g68
(g89
g70
NtRp3591
(dp3592
g73
(dp3593
sg82
g3587
sg75
(lp3594
g68
(g69
g70
NtRp3595
(dp3596
g73
(dp3597
g81
I3
ssg82
g3591
sg75
(lp3598
g111
asbasbasbag68
(g84
g70
NtRp3599
(dp3600
g73
(dp3601
sg82
g3569
sg75
(lp3602
g68
(g89
g70
NtRp3603
(dp3604
g73
(dp3605
sg82
g3599
sg75
(lp3606
g68
(g69
g70
NtRp3607
(dp3608
g73
(dp3609
g81
I3
ssg82
g3603
sg75
(lp3610
S'/milo/default/index'
p3611
asbasbasbag68
(g84
g70
NtRp3612
(dp3613
g73
(dp3614
sg82
g3569
sg75
(lp3615
g68
(g89
g70
NtRp3616
(dp3617
g73
(dp3618
sg82
g3612
sg75
(lp3619
g68
(g69
g70
NtRp3620
(dp3621
g73
(dp3622
g81
I3
ssg82
g3616
sg75
(lp3623
g68
(g77
g70
NtRp3624
(dp3625
g73
(dp3626
g81
I2
ssg82
Nsg75
(lp3627
sbasbasbasbasbasbasbasbag68
(g84
g70
NtRp3628
(dp3629
g73
(dp3630
sg82
g3553
sg75
(lp3631
g68
(g89
g70
NtRp3632
(dp3633
g73
(dp3634
sg82
g3628
sg75
(lp3635
g68
(g69
g70
NtRp3636
(dp3637
g73
(dp3638
g81
I4
ssg82
g3632
sg75
(lp3639
g68
(g77
g70
NtRp3640
(dp3641
g73
(dp3642
g81
I3
ssg82
Nsg75
(lp3643
g68
(g84
g70
NtRp3644
(dp3645
g73
(dp3646
sg82
g3640
sg75
(lp3647
g68
(g89
g70
NtRp3648
(dp3649
g73
(dp3650
sg82
g3644
sg75
(lp3651
g68
(g69
g70
NtRp3652
(dp3653
g73
(dp3654
g81
I3
ssg82
g3648
sg75
(lp3655
g3585
(S't\x05\x00\x00\x00Admin'
tRp3656
asbasbasbag68
(g84
g70
NtRp3657
(dp3658
g73
(dp3659
sg82
g3640
sg75
(lp3660
g68
(g89
g70
NtRp3661
(dp3662
g73
(dp3663
sg82
g3657
sg75
(lp3664
g68
(g69
g70
NtRp3665
(dp3666
g73
(dp3667
g81
I3
ssg82
g3661
sg75
(lp3668
g111
asbasbasbag68
(g84
g70
NtRp3669
(dp3670
g73
(dp3671
sg82
g3640
sg75
(lp3672
g68
(g89
g70
NtRp3673
(dp3674
g73
(dp3675
sg82
g3669
sg75
(lp3676
g68
(g69
g70
NtRp3677
(dp3678
g73
(dp3679
g81
I3
ssg82
g3673
sg75
(lp3680
S'/milo/admin/index'
p3681
asbasbasbag68
(g84
g70
NtRp3682
(dp3683
g73
(dp3684
sg82
g3640
sg75
(lp3685
g68
(g89
g70
NtRp3686
(dp3687
g73
(dp3688
sg82
g3682
sg75
(lp3689
g68
(g69
g70
NtRp3690
(dp3691
g73
(dp3692
g81
I3
ssg82
g3686
sg75
(lp3693
g68
(g77
g70
NtRp3694
(dp3695
g73
(dp3696
g81
I2
ssg82
Nsg75
(lp3697
sbasbasbasbasbasbasbasbag68
(g84
g70
NtRp3698
(dp3699
g73
(dp3700
sg82
g3553
sg75
(lp3701
g68
(g89
g70
NtRp3702
(dp3703
g73
(dp3704
sg82
g3698
sg75
(lp3705
g68
(g69
g70
NtRp3706
(dp3707
g73
(dp3708
g81
I4
ssg82
g3702
sg75
(lp3709
g68
(g77
g70
NtRp3710
(dp3711
g73
(dp3712
g81
I3
ssg82
Nsg75
(lp3713
g68
(g84
g70
NtRp3714
(dp3715
g73
(dp3716
sg82
g3710
sg75
(lp3717
g68
(g89
g70
NtRp3718
(dp3719
g73
(dp3720
sg82
g3714
sg75
(lp3721
g68
(g69
g70
NtRp3722
(dp3723
g73
(dp3724
g81
I3
ssg82
g3718
sg75
(lp3725
g68
(cgluon.html
SPAN
p3726
g70
NtRp3727
(dp3728
g73
(dp3729
g93
S'color:yellow'
p3730
ssg82
Nsg75
(lp3731
g3531
asbasbasbasbag68
(g84
g70
NtRp3732
(dp3733
g73
(dp3734
sg82
g3710
sg75
(lp3735
g68
(g89
g70
NtRp3736
(dp3737
g73
(dp3738
sg82
g3732
sg75
(lp3739
g68
(g69
g70
NtRp3740
(dp3741
g73
(dp3742
g81
I3
ssg82
g3736
sg75
(lp3743
g111
asbasbasbag68
(g84
g70
NtRp3744
(dp3745
g73
(dp3746
sg82
g3710
sg75
(lp3747
g68
(g89
g70
NtRp3748
(dp3749
g73
(dp3750
sg82
g3744
sg75
(lp3751
g68
(g69
g70
NtRp3752
(dp3753
g73
(dp3754
g81
I3
ssg82
g3748
sg75
(lp3755
S'None'
p3756
asbasbasbag68
(g84
g70
NtRp3757
(dp3758
g73
(dp3759
sg82
g3710
sg75
(lp3760
g68
(g89
g70
NtRp3761
(dp3762
g73
(dp3763
sg82
g3757
sg75
(lp3764
g68
(g69
g70
NtRp3765
(dp3766
g73
(dp3767
g81
I3
ssg82
g3761
sg75
(lp3768
g68
(g77
g70
NtRp3769
(dp3770
g73
(dp3771
g81
I2
ssg82
Nsg75
(lp3772
g68
(g84
g70
NtRp3773
(dp3774
g73
(dp3775
sg82
g3769
sg75
(lp3776
g68
(g89
g70
NtRp3777
(dp3778
g73
(dp3779
sg82
g3773
sg75
(lp3780
g68
(g69
g70
NtRp3781
(dp3782
g73
(dp3783
g81
I2
ssg82
g3777
sg75
(lp3784
g68
(g77
g70
NtRp3785
(dp3786
g73
(dp3787
g81
I1
ssg82
Nsg75
(lp3788
g68
(g84
g70
NtRp3789
(dp3790
g73
(dp3791
sg82
g3785
sg75
(lp3792
g68
(g89
g70
NtRp3793
(dp3794
g73
(dp3795
sg82
g3789
sg75
(lp3796
g68
(g69
g70
NtRp3797
(dp3798
g73
(dp3799
g81
I1
ssg82
g3793
sg75
(lp3800
g3585
(S's\x08\x00\x00\x00My Sites'
tRp3801
asbasbasbag68
(g84
g70
NtRp3802
(dp3803
g73
(dp3804
sg82
g3785
sg75
(lp3805
g68
(g89
g70
NtRp3806
(dp3807
g73
(dp3808
sg82
g3802
sg75
(lp3809
g68
(g69
g70
NtRp3810
(dp3811
g73
(dp3812
g81
I1
ssg82
g3806
sg75
(lp3813
I00
asbasbasbag68
(g84
g70
NtRp3814
(dp3815
g73
(dp3816
sg82
g3785
sg75
(lp3817
g68
(g89
g70
NtRp3818
(dp3819
g73
(dp3820
sg82
g3814
sg75
(lp3821
g68
(g69
g70
NtRp3822
(dp3823
g73
(dp3824
g81
I1
ssg82
g3818
sg75
(lp3825
S'/admin/default/site'
p3826
asbasbasbasbasbasbasbag68
(g84
g70
NtRp3827
(dp3828
g73
(dp3829
sg82
g3769
sg75
(lp3830
g68
(g89
g70
NtRp3831
(dp3832
g73
(dp3833
sg82
g3827
sg75
(lp3834
g68
(g69
g70
NtRp3835
(dp3836
g73
(dp3837
g81
I2
ssg82
g3831
sg75
(lp3838
g68
(g77
g70
NtRp3839
(dp3840
g73
(dp3841
g81
I1
ssg82
Nsg75
(lp3842
g68
(g84
g70
NtRp3843
(dp3844
g73
(dp3845
sg82
g3839
sg75
(lp3846
g68
(g89
g70
NtRp3847
(dp3848
g73
(dp3849
sg82
g3843
sg75
(lp3850
g68
(g69
g70
NtRp3851
(dp3852
g73
(dp3853
g81
I1
ssg82
g3847
sg75
(lp3854
g3585
(S's\x08\x00\x00\x00This App'
tRp3855
asbasbasbag68
(g84
g70
NtRp3856
(dp3857
g73
(dp3858
sg82
g3839
sg75
(lp3859
g68
(g89
g70
NtRp3860
(dp3861
g73
(dp3862
sg82
g3856
sg75
(lp3863
g68
(g69
g70
NtRp3864
(dp3865
g73
(dp3866
g81
I1
ssg82
g3860
sg75
(lp3867
I00
asbasbasbag68
(g84
g70
NtRp3868
(dp3869
g73
(dp3870
sg82
g3839
sg75
(lp3871
g68
(g89
g70
NtRp3872
(dp3873
g73
(dp3874
sg82
g3868
sg75
(lp3875
g68
(g69
g70
NtRp3876
(dp3877
g73
(dp3878
g81
I1
ssg82
g3872
sg75
(lp3879
S'/admin/default/design/milo'
p3880
asbasbasbag68
(g84
g70
NtRp3881
(dp3882
g73
(dp3883
sg82
g3839
sg75
(lp3884
g68
(g89
g70
NtRp3885
(dp3886
g73
(dp3887
sg82
g3881
sg75
(lp3888
g68
(g69
g70
NtRp3889
(dp3890
g73
(dp3891
g81
I1
ssg82
g3885
sg75
(lp3892
(lp3893
(g3585
(S't\n\x00\x00\x00Controller'
tRp3894
I00
S'/admin/default/edit/milo/controllers/admin.py'
tp3895
a(g3585
(S't\x04\x00\x00\x00View'
tRp3896
I00
S'/admin/default/edit/milo/views/admin/index.html'
tp3897
a(g3585
(S't\x06\x00\x00\x00Layout'
tRp3898
I00
S'/admin/default/edit/milo/views/layout.html'
tp3899
a(g3585
(S't\n\x00\x00\x00Stylesheet'
tRp3900
I00
S'/admin/default/edit/milo/static/css/web2py.css'
tp3901
a(g3585
(S's\x08\x00\x00\x00DB Model'
tRp3902
I00
S'/admin/default/edit/milo/models/db.py'
tp3903
a(g3585
(S's\n\x00\x00\x00Menu Model'
tRp3904
I00
S'/admin/default/edit/milo/models/menu.py'
tp3905
a(g3585
(S't\x08\x00\x00\x00Database'
tRp3906
I00
S'/milo/appadmin/index'
tp3907
a(g3585
(S't\x06\x00\x00\x00Errors'
tRp3908
I00
S'/admin/default/errors/milo'
tp3909
a(g3585
(S't\x05\x00\x00\x00About'
tRp3910
I00
S'/admin/default/about/milo'
tp3911
aasbasbasbasbasbasbasbag68
(g84
g70
NtRp3912
(dp3913
g73
(dp3914
sg82
g3769
sg75
(lp3915
g68
(g89
g70
NtRp3916
(dp3917
g73
(dp3918
sg82
g3912
sg75
(lp3919
g68
(g69
g70
NtRp3920
(dp3921
g73
(dp3922
g81
I2
ssg82
g3916
sg75
(lp3923
g68
(g77
g70
NtRp3924
(dp3925
g73
(dp3926
g81
I1
ssg82
Nsg75
(lp3927
g68
(g84
g70
NtRp3928
(dp3929
g73
(dp3930
sg82
g3924
sg75
(lp3931
g68
(g89
g70
NtRp3932
(dp3933
g73
(dp3934
sg82
g3928
sg75
(lp3935
g68
(g69
g70
NtRp3936
(dp3937
g73
(dp3938
g81
I1
ssg82
g3932
sg75
(lp3939
S'web2py.com'
p3940
asbasbasbag68
(g84
g70
NtRp3941
(dp3942
g73
(dp3943
sg82
g3924
sg75
(lp3944
g68
(g89
g70
NtRp3945
(dp3946
g73
(dp3947
sg82
g3941
sg75
(lp3948
g68
(g69
g70
NtRp3949
(dp3950
g73
(dp3951
g81
I1
ssg82
g3945
sg75
(lp3952
I00
asbasbasbag68
(g84
g70
NtRp3953
(dp3954
g73
(dp3955
sg82
g3924
sg75
(lp3956
g68
(g89
g70
NtRp3957
(dp3958
g73
(dp3959
sg82
g3953
sg75
(lp3960
g68
(g69
g70
NtRp3961
(dp3962
g73
(dp3963
g81
I1
ssg82
g3957
sg75
(lp3964
S'http://www.web2py.com'
p3965
asbasbasbag68
(g84
g70
NtRp3966
(dp3967
g73
(dp3968
sg82
g3924
sg75
(lp3969
g68
(g89
g70
NtRp3970
(dp3971
g73
(dp3972
sg82
g3966
sg75
(lp3973
g68
(g69
g70
NtRp3974
(dp3975
g73
(dp3976
g81
I1
ssg82
g3970
sg75
(lp3977
(lp3978
(g3585
(S't\x08\x00\x00\x00Download'
tRp3979
I00
S'http://www.web2py.com/examples/default/download'
p3980
tp3981
a(g3585
(S't\x07\x00\x00\x00Support'
tRp3982
I00
S'http://www.web2py.com/examples/default/support'
p3983
tp3984
a(g3585
(S't\x04\x00\x00\x00Demo'
tRp3985
I00
S'http://web2py.com/demo_admin'
p3986
tp3987
a(g3585
(S's\x0e\x00\x00\x00Quick Examples'
tRp3988
I00
S'http://web2py.com/examples/default/examples'
p3989
tp3990
a(g3585
(S't\x03\x00\x00\x00FAQ'
tRp3991
I00
S'http://web2py.com/AlterEgo'
p3992
tp3993
a(g3585
(S't\x06\x00\x00\x00Videos'
tRp3994
I00
S'http://www.web2py.com/examples/default/videos/'
p3995
tp3996
a(g3585
(S's\x11\x00\x00\x00Free Applications'
tRp3997
I00
S'http://web2py.com/appliances'
p3998
tp3999
a(g3585
(S't\x07\x00\x00\x00Plugins'
tRp4000
I00
S'http://web2py.com/plugins'
p4001
tp4002
a(g3585
(S't\x07\x00\x00\x00Layouts'
tRp4003
I00
S'http://web2py.com/layouts'
p4004
tp4005
a(g3585
(S't\x07\x00\x00\x00Recipes'
tRp4006
I00
S'http://web2pyslices.com/'
p4007
tp4008
a(g3585
(S't\x08\x00\x00\x00Semantic'
tRp4009
I00
S'http://web2py.com/semantic'
p4010
tp4011
aasbasbasbasbasbasbasbag68
(g84
g70
NtRp4012
(dp4013
g73
(dp4014
sg82
g3769
sg75
(lp4015
g68
(g89
g70
NtRp4016
(dp4017
g73
(dp4018
sg82
g4012
sg75
(lp4019
g68
(g69
g70
NtRp4020
(dp4021
g73
(dp4022
g81
I2
ssg82
g4016
sg75
(lp4023
g68
(g77
g70
NtRp4024
(dp4025
g73
(dp4026
g81
I1
ssg82
Nsg75
(lp4027
g68
(g84
g70
NtRp4028
(dp4029
g73
(dp4030
sg82
g4024
sg75
(lp4031
g68
(g89
g70
NtRp4032
(dp4033
g73
(dp4034
sg82
g4028
sg75
(lp4035
g68
(g69
g70
NtRp4036
(dp4037
g73
(dp4038
g81
I1
ssg82
g4032
sg75
(lp4039
g3585
(S't\r\x00\x00\x00Documentation'
tRp4040
asbasbasbag68
(g84
g70
NtRp4041
(dp4042
g73
(dp4043
sg82
g4024
sg75
(lp4044
g68
(g89
g70
NtRp4045
(dp4046
g73
(dp4047
sg82
g4041
sg75
(lp4048
g68
(g69
g70
NtRp4049
(dp4050
g73
(dp4051
g81
I1
ssg82
g4045
sg75
(lp4052
I00
asbasbasbag68
(g84
g70
NtRp4053
(dp4054
g73
(dp4055
sg82
g4024
sg75
(lp4056
g68
(g89
g70
NtRp4057
(dp4058
g73
(dp4059
sg82
g4053
sg75
(lp4060
g68
(g69
g70
NtRp4061
(dp4062
g73
(dp4063
g81
I1
ssg82
g4057
sg75
(lp4064
S'http://www.web2py.com/book'
p4065
asbasbasbag68
(g84
g70
NtRp4066
(dp4067
g73
(dp4068
sg82
g4024
sg75
(lp4069
g68
(g89
g70
NtRp4070
(dp4071
g73
(dp4072
sg82
g4066
sg75
(lp4073
g68
(g69
g70
NtRp4074
(dp4075
g73
(dp4076
g81
I1
ssg82
g4070
sg75
(lp4077
(lp4078
(g3585
(S't\x07\x00\x00\x00Preface'
tRp4079
I00
S'http://www.web2py.com/book/default/chapter/00'
p4080
tp4081
a(g3585
(S't\x0c\x00\x00\x00Introduction'
tRp4082
I00
S'http://www.web2py.com/book/default/chapter/01'
p4083
tp4084
a(g3585
(S't\x06\x00\x00\x00Python'
tRp4085
I00
S'http://www.web2py.com/book/default/chapter/02'
p4086
tp4087
a(g3585
(S't\x08\x00\x00\x00Overview'
tRp4088
I00
S'http://www.web2py.com/book/default/chapter/03'
p4089
tp4090
a(g3585
(S's\x08\x00\x00\x00The Core'
tRp4091
I00
S'http://www.web2py.com/book/default/chapter/04'
p4092
tp4093
a(g3585
(S's\t\x00\x00\x00The Views'
tRp4094
I00
S'http://www.web2py.com/book/default/chapter/05'
p4095
tp4096
a(g3585
(S't\x08\x00\x00\x00Database'
tRp4097
I00
S'http://www.web2py.com/book/default/chapter/06'
p4098
tp4099
a(g3585
(S's\x14\x00\x00\x00Forms and Validators'
tRp4100
I00
S'http://www.web2py.com/book/default/chapter/07'
p4101
tp4102
a(g3585
(S's\r\x00\x00\x00Email and SMS'
tRp4103
I00
S'http://www.web2py.com/book/default/chapter/08'
p4104
tp4105
a(g3585
(S's\x0e\x00\x00\x00Access Control'
tRp4106
I00
S'http://www.web2py.com/book/default/chapter/09'
p4107
tp4108
a(g3585
(S't\x08\x00\x00\x00Services'
tRp4109
I00
S'http://www.web2py.com/book/default/chapter/10'
p4110
tp4111
a(g3585
(S's\x0c\x00\x00\x00Ajax Recipes'
tRp4112
I00
S'http://www.web2py.com/book/default/chapter/11'
p4113
tp4114
a(g3585
(S's\x16\x00\x00\x00Components and Plugins'
tRp4115
I00
S'http://www.web2py.com/book/default/chapter/12'
p4116
tp4117
a(g3585
(S's\x12\x00\x00\x00Deployment Recipes'
tRp4118
I00
S'http://www.web2py.com/book/default/chapter/13'
p4119
tp4120
a(g3585
(S's\r\x00\x00\x00Other Recipes'
tRp4121
I00
S'http://www.web2py.com/book/default/chapter/14'
p4122
tp4123
a(g3585
(S's\r\x00\x00\x00Buy this book'
tRp4124
I00
S'http://stores.lulu.com/web2py'
p4125
tp4126
aasbasbasbasbasbasbasbag68
(g84
g70
NtRp4127
(dp4128
g73
(dp4129
sg82
g3769
sg75
(lp4130
g68
(g89
g70
NtRp4131
(dp4132
g73
(dp4133
sg82
g4127
sg75
(lp4134
g68
(g69
g70
NtRp4135
(dp4136
g73
(dp4137
g81
I2
ssg82
g4131
sg75
(lp4138
g68
(g77
g70
NtRp4139
(dp4140
g73
(dp4141
g81
I1
ssg82
Nsg75
(lp4142
g68
(g84
g70
NtRp4143
(dp4144
g73
(dp4145
sg82
g4139
sg75
(lp4146
g68
(g89
g70
NtRp4147
(dp4148
g73
(dp4149
sg82
g4143
sg75
(lp4150
g68
(g69
g70
NtRp4151
(dp4152
g73
(dp4153
g81
I1
ssg82
g4147
sg75
(lp4154
g3585
(S't\t\x00\x00\x00Community'
tRp4155
asbasbasbag68
(g84
g70
NtRp4156
(dp4157
g73
(dp4158
sg82
g4139
sg75
(lp4159
g68
(g89
g70
NtRp4160
(dp4161
g73
(dp4162
sg82
g4156
sg75
(lp4163
g68
(g69
g70
NtRp4164
(dp4165
g73
(dp4166
g81
I1
ssg82
g4160
sg75
(lp4167
I00
asbasbasbag68
(g84
g70
NtRp4168
(dp4169
g73
(dp4170
sg82
g4139
sg75
(lp4171
g68
(g89
g70
NtRp4172
(dp4173
g73
(dp4174
sg82
g4168
sg75
(lp4175
g68
(g69
g70
NtRp4176
(dp4177
g73
(dp4178
g81
I1
ssg82
g4172
sg75
(lp4179
Nasbasbasbag68
(g84
g70
NtRp4180
(dp4181
g73
(dp4182
sg82
g4139
sg75
(lp4183
g68
(g89
g70
NtRp4184
(dp4185
g73
(dp4186
sg82
g4180
sg75
(lp4187
g68
(g69
g70
NtRp4188
(dp4189
g73
(dp4190
g81
I1
ssg82
g4184
sg75
(lp4191
(lp4192
(g3585
(S't\x06\x00\x00\x00Groups'
tRp4193
I00
S'http://www.web2py.com/examples/default/usergroups'
p4194
tp4195
a(g3585
(S't\x07\x00\x00\x00Twitter'
tRp4196
I00
S'http://twitter.com/web2py'
p4197
tp4198
a(g3585
(S's\t\x00\x00\x00Live Chat'
tRp4199
I00
S'http://webchat.freenode.net/?channels=web2py'
p4200
tp4201
aasbasbasbasbasbasbasbag68
(g84
g70
NtRp4202
(dp4203
g73
(dp4204
sg82
g3769
sg75
(lp4205
g68
(g89
g70
NtRp4206
(dp4207
g73
(dp4208
sg82
g4202
sg75
(lp4209
g68
(g69
g70
NtRp4210
(dp4211
g73
(dp4212
g81
I2
ssg82
g4206
sg75
(lp4213
g68
(g77
g70
NtRp4214
(dp4215
g73
(dp4216
g81
I1
ssg82
Nsg75
(lp4217
g68
(g84
g70
NtRp4218
(dp4219
g73
(dp4220
sg82
g4214
sg75
(lp4221
g68
(g89
g70
NtRp4222
(dp4223
g73
(dp4224
sg82
g4218
sg75
(lp4225
g68
(g69
g70
NtRp4226
(dp4227
g73
(dp4228
g81
I1
ssg82
g4222
sg75
(lp4229
g3585
(S't\x07\x00\x00\x00Plugins'
tRp4230
asbasbasbag68
(g84
g70
NtRp4231
(dp4232
g73
(dp4233
sg82
g4214
sg75
(lp4234
g68
(g89
g70
NtRp4235
(dp4236
g73
(dp4237
sg82
g4231
sg75
(lp4238
g68
(g69
g70
NtRp4239
(dp4240
g73
(dp4241
g81
I1
ssg82
g4235
sg75
(lp4242
I00
asbasbasbag68
(g84
g70
NtRp4243
(dp4244
g73
(dp4245
sg82
g4214
sg75
(lp4246
g68
(g89
g70
NtRp4247
(dp4248
g73
(dp4249
sg82
g4243
sg75
(lp4250
g68
(g69
g70
NtRp4251
(dp4252
g73
(dp4253
g81
I1
ssg82
g4247
sg75
(lp4254
Nasbasbasbag68
(g84
g70
NtRp4255
(dp4256
g73
(dp4257
sg82
g4214
sg75
(lp4258
g68
(g89
g70
NtRp4259
(dp4260
g73
(dp4261
sg82
g4255
sg75
(lp4262
g68
(g69
g70
NtRp4263
(dp4264
g73
(dp4265
g81
I1
ssg82
g4259
sg75
(lp4266
(lp4267
(S'plugin_wiki'
p4268
I00
S'http://web2py.com/examples/default/download'
p4269
tp4270
a(g3585
(S's\r\x00\x00\x00Other Plugins'
tRp4271
I00
g4001
tp4272
a(g3585
(S's\x0e\x00\x00\x00Layout Plugins'
tRp4273
I00
g4004
tp4274
aasbasbasbasbasbasbasbasbasbasbasbasbasbasbasbasbasbasbasbag68
(g84
g70
NtRp4275
(dp4276
g73
(dp4277
sg82
g3029
sg75
(lp4278
g68
(g89
g70
NtRp4279
(dp4280
g73
(dp4281
g93
g94
ssg82
g4275
sg75
(lp4282
S'meta'
p4283
asbag68
(g89
g70
NtRp4284
(dp4285
g73
(dp4286
g100
g101
ssg82
g4275
sg75
(lp4287
S':'
asbag68
(g89
g70
NtRp4288
(dp4289
g73
(dp4290
sg82
g4275
sg75
(lp4291
g68
(g69
g70
NtRp4292
(dp4293
g73
(dp4294
g81
I5
ssg82
g4288
sg75
(lp4295
g68
(g77
g70
NtRp4296
(dp4297
g73
(dp4298
g81
I4
ssg82
Nsg75
(lp4299
g68
(g84
g70
NtRp4300
(dp4301
g73
(dp4302
sg82
g4296
sg75
(lp4303
g68
(g89
g70
NtRp4304
(dp4305
g73
(dp4306
g93
g94
ssg82
g4300
sg75
(lp4307
S'author'
p4308
asbag68
(g89
g70
NtRp4309
(dp4310
g73
(dp4311
g100
g101
ssg82
g4300
sg75
(lp4312
S':'
asbag68
(g89
g70
NtRp4313
(dp4314
g73
(dp4315
sg82
g4300
sg75
(lp4316
g68
(g69
g70
NtRp4317
(dp4318
g73
(dp4319
g81
I4
ssg82
g4313
sg75
(lp4320
S'Vincenzo Ampolo <vincenzo.ampolo@gmail.com>'
p4321
asbasbasbag68
(g84
g70
NtRp4322
(dp4323
g73
(dp4324
sg82
g4296
sg75
(lp4325
g68
(g89
g70
NtRp4326
(dp4327
g73
(dp4328
g93
g94
ssg82
g4322
sg75
(lp4329
S'copyright'
p4330
asbag68
(g89
g70
NtRp4331
(dp4332
g73
(dp4333
g100
g101
ssg82
g4322
sg75
(lp4334
S':'
asbag68
(g89
g70
NtRp4335
(dp4336
g73
(dp4337
sg82
g4322
sg75
(lp4338
g68
(g69
g70
NtRp4339
(dp4340
g73
(dp4341
g81
I4
ssg82
g4335
sg75
(lp4342
S'Copyright 2012'
p4343
asbasbasbag68
(g84
g70
NtRp4344
(dp4345
g73
(dp4346
sg82
g4296
sg75
(lp4347
g68
(g89
g70
NtRp4348
(dp4349
g73
(dp4350
g93
g94
ssg82
g4344
sg75
(lp4351
S'description'
p4352
asbag68
(g89
g70
NtRp4353
(dp4354
g73
(dp4355
g100
g101
ssg82
g4344
sg75
(lp4356
S':'
asbag68
(g89
g70
NtRp4357
(dp4358
g73
(dp4359
sg82
g4344
sg75
(lp4360
g68
(g69
g70
NtRp4361
(dp4362
g73
(dp4363
g81
I4
ssg82
g4357
sg75
(lp4364
S'Milo recommendation system'
p4365
asbasbasbag68
(g84
g70
NtRp4366
(dp4367
g73
(dp4368
sg82
g4296
sg75
(lp4369
g68
(g89
g70
NtRp4370
(dp4371
g73
(dp4372
g93
g94
ssg82
g4366
sg75
(lp4373
S'generator'
p4374
asbag68
(g89
g70
NtRp4375
(dp4376
g73
(dp4377
g100
g101
ssg82
g4366
sg75
(lp4378
S':'
asbag68
(g89
g70
NtRp4379
(dp4380
g73
(dp4381
sg82
g4366
sg75
(lp4382
g68
(g69
g70
NtRp4383
(dp4384
g73
(dp4385
g81
I4
ssg82
g4379
sg75
(lp4386
S'Web2py Web Framework'
p4387
asbasbasbag68
(g84
g70
NtRp4388
(dp4389
g73
(dp4390
sg82
g4296
sg75
(lp4391
g68
(g89
g70
NtRp4392
(dp4393
g73
(dp4394
g93
g94
ssg82
g4388
sg75
(lp4395
S'keywords'
p4396
asbag68
(g89
g70
NtRp4397
(dp4398
g73
(dp4399
g100
g101
ssg82
g4388
sg75
(lp4400
S':'
asbag68
(g89
g70
NtRp4401
(dp4402
g73
(dp4403
sg82
g4388
sg75
(lp4404
g68
(g69
g70
NtRp4405
(dp4406
g73
(dp4407
g81
I4
ssg82
g4401
sg75
(lp4408
S'web2py, python, framework'
p4409
asbasbasbasbasbasbasbag68
(g84
g70
NtRp4410
(dp4411
g73
(dp4412
sg82
g3029
sg75
(lp4413
g68
(g89
g70
NtRp4414
(dp4415
g73
(dp4416
g93
g94
ssg82
g4410
sg75
(lp4417
S'postprocessing'
p4418
asbag68
(g89
g70
NtRp4419
(dp4420
g73
(dp4421
g100
g101
ssg82
g4410
sg75
(lp4422
S':'
asbag68
(g89
g70
NtRp4423
(dp4424
g73
(dp4425
sg82
g4410
sg75
(lp4426
g68
(g69
g70
NtRp4427
(dp4428
g73
(dp4429
g81
I5
ssg82
g4423
sg75
(lp4430
g68
(g77
g70
NtRp4431
(dp4432
g73
(dp4433
g81
I4
ssg82
Nsg75
(lp4434
sbasbasbasbag68
(g84
g70
NtRp4435
(dp4436
g73
(dp4437
sg82
g3029
sg75
(lp4438
g68
(g89
g70
NtRp4439
(dp4440
g73
(dp4441
g93
g94
ssg82
g4435
sg75
(lp4442
S'session_file'
p4443
asbag68
(g89
g70
NtRp4444
(dp4445
g73
(dp4446
g100
g101
ssg82
g4435
sg75
(lp4447
S':'
asbag68
(g89
g70
NtRp4448
(dp4449
g73
(dp4450
sg82
g4435
sg75
(lp4451
g68
(g69
g70
NtRp4452
(dp4453
g73
(dp4454
g81
I5
ssg82
g4448
sg75
(lp4455
S"<open file '/home/goshawk/web2py/applications/milo/sessions/127.0.0.1-24396986-7bda-4e8a-9197-c22b91981679', mode 'rb+' at 0x7f13b42f2810>"
p4456
asbasbasbag68
(g84
g70
NtRp4457
(dp4458
g73
(dp4459
sg82
g3029
sg75
(lp4460
g68
(g89
g70
NtRp4461
(dp4462
g73
(dp4463
g93
g94
ssg82
g4457
sg75
(lp4464
S'session_filename'
p4465
asbag68
(g89
g70
NtRp4466
(dp4467
g73
(dp4468
g100
g101
ssg82
g4457
sg75
(lp4469
S':'
asbag68
(g89
g70
NtRp4470
(dp4471
g73
(dp4472
sg82
g4457
sg75
(lp4473
g68
(g69
g70
NtRp4474
(dp4475
g73
(dp4476
g81
I5
ssg82
g4470
sg75
(lp4477
S'/home/goshawk/web2py/applications/milo/sessions/127.0.0.1-24396986-7bda-4e8a-9197-c22b91981679'
p4478
asbasbasbag68
(g84
g70
NtRp4479
(dp4480
g73
(dp4481
sg82
g3029
sg75
(lp4482
g68
(g89
g70
NtRp4483
(dp4484
g73
(dp4485
g93
g94
ssg82
g4479
sg75
(lp4486
S'session_id'
p4487
asbag68
(g89
g70
NtRp4488
(dp4489
g73
(dp4490
g100
g101
ssg82
g4479
sg75
(lp4491
S':'
asbag68
(g89
g70
NtRp4492
(dp4493
g73
(dp4494
sg82
g4479
sg75
(lp4495
g68
(g69
g70
NtRp4496
(dp4497
g73
(dp4498
g81
I5
ssg82
g4492
sg75
(lp4499
S'127.0.0.1-24396986-7bda-4e8a-9197-c22b91981679'
p4500
asbasbasbag68
(g84
g70
NtRp4501
(dp4502
g73
(dp4503
sg82
g3029
sg75
(lp4504
g68
(g89
g70
NtRp4505
(dp4506
g73
(dp4507
g93
g94
ssg82
g4501
sg75
(lp4508
S'session_id_name'
p4509
asbag68
(g89
g70
NtRp4510
(dp4511
g73
(dp4512
g100
g101
ssg82
g4501
sg75
(lp4513
S':'
asbag68
(g89
g70
NtRp4514
(dp4515
g73
(dp4516
sg82
g4501
sg75
(lp4517
g68
(g69
g70
NtRp4518
(dp4519
g73
(dp4520
g81
I5
ssg82
g4514
sg75
(lp4521
g3086
asbasbasbag68
(g84
g70
NtRp4522
(dp4523
g73
(dp4524
sg82
g3029
sg75
(lp4525
g68
(g89
g70
NtRp4526
(dp4527
g73
(dp4528
g93
g94
ssg82
g4522
sg75
(lp4529
S'session_locked'
p4530
asbag68
(g89
g70
NtRp4531
(dp4532
g73
(dp4533
g100
g101
ssg82
g4522
sg75
(lp4534
S':'
asbag68
(g89
g70
NtRp4535
(dp4536
g73
(dp4537
sg82
g4522
sg75
(lp4538
g68
(g69
g70
NtRp4539
(dp4540
g73
(dp4541
g81
I5
ssg82
g4535
sg75
(lp4542
g1568
asbasbasbag68
(g84
g70
NtRp4543
(dp4544
g73
(dp4545
sg82
g3029
sg75
(lp4546
g68
(g89
g70
NtRp4547
(dp4548
g73
(dp4549
g93
g94
ssg82
g4543
sg75
(lp4550
S'session_new'
p4551
asbag68
(g89
g70
NtRp4552
(dp4553
g73
(dp4554
g100
g101
ssg82
g4543
sg75
(lp4555
S':'
asbag68
(g89
g70
NtRp4556
(dp4557
g73
(dp4558
sg82
g4543
sg75
(lp4559
g68
(g69
g70
NtRp4560
(dp4561
g73
(dp4562
g81
I5
ssg82
g4556
sg75
(lp4563
g111
asbasbasbag68
(g84
g70
NtRp4564
(dp4565
g73
(dp4566
sg82
g3029
sg75
(lp4567
g68
(g89
g70
NtRp4568
(dp4569
g73
(dp4570
g93
g94
ssg82
g4564
sg75
(lp4571
S'status'
p4572
asbag68
(g89
g70
NtRp4573
(dp4574
g73
(dp4575
g100
g101
ssg82
g4564
sg75
(lp4576
S':'
asbag68
(g89
g70
NtRp4577
(dp4578
g73
(dp4579
sg82
g4564
sg75
(lp4580
g68
(g69
g70
NtRp4581
(dp4582
g73
(dp4583
g81
I5
ssg82
g4577
sg75
(lp4584
S'200'
p4585
asbasbasbag68
(g84
g70
NtRp4586
(dp4587
g73
(dp4588
sg82
g3029
sg75
(lp4589
g68
(g89
g70
NtRp4590
(dp4591
g73
(dp4592
g93
g94
ssg82
g4586
sg75
(lp4593
S'title'
p4594
asbag68
(g89
g70
NtRp4595
(dp4596
g73
(dp4597
g100
g101
ssg82
g4586
sg75
(lp4598
S':'
asbag68
(g89
g70
NtRp4599
(dp4600
g73
(dp4601
sg82
g4586
sg75
(lp4602
g68
(g69
g70
NtRp4603
(dp4604
g73
(dp4605
g81
I5
ssg82
g4599
sg75
(lp4606
S'Milo'
p4607
asbasbasbag68
(g84
g70
NtRp4608
(dp4609
g73
(dp4610
sg82
g3029
sg75
(lp4611
g68
(g89
g70
NtRp4612
(dp4613
g73
(dp4614
g93
g94
ssg82
g4608
sg75
(lp4615
g2232
asbag68
(g89
g70
NtRp4616
(dp4617
g73
(dp4618
g100
g101
ssg82
g4608
sg75
(lp4619
S':'
asbag68
(g89
g70
NtRp4620
(dp4621
g73
(dp4622
sg82
g4608
sg75
(lp4623
g68
(g69
g70
NtRp4624
(dp4625
g73
(dp4626
g81
I5
ssg82
g4620
sg75
(lp4627
g2245
asbasbasbag68
(g84
g70
NtRp4628
(dp4629
g73
(dp4630
sg82
g3029
sg75
(lp4631
g68
(g89
g70
NtRp4632
(dp4633
g73
(dp4634
g93
g94
ssg82
g4628
sg75
(lp4635
S'view'
p4636
asbag68
(g89
g70
NtRp4637
(dp4638
g73
(dp4639
g100
g101
ssg82
g4628
sg75
(lp4640
S':'
asbag68
(g89
g70
NtRp4641
(dp4642
g73
(dp4643
sg82
g4628
sg75
(lp4644
g68
(g69
g70
NtRp4645
(dp4646
g73
(dp4647
g81
I5
ssg82
g4641
sg75
(lp4648
S'admin/index.html'
p4649
asbasbasbasbasbsS'locals'
p4650
(dp4651
g4
S"'/home/goshawk/web2py/applications/milo/views/admin/index.html'"
p4652
sg6
S'"extends \'admin_layout.html\'\\nresponse.write(\'\\\\n\', escape=False)"'
p4653
sssS'traceback'
p4654
S'Traceback (most recent call last):\n  File "/home/goshawk/web2py/gluon/restricted.py", line 204, in restricted\n    ccode = compile2(code,layer)\n  File "/home/goshawk/web2py/gluon/restricted.py", line 189, in compile2\n    return compile(code.rstrip().replace(\'\\r\\n\',\'\\n\')+\'\\n\', layer, \'exec\')\n  File "/home/goshawk/web2py/applications/milo/views/admin/index.html", line 1\n    extends \'admin_layout.html\'\n                              ^\nSyntaxError: invalid syntax\n'
p4655
s.