(dp1
S'output'
p2
S"<type 'exceptions.NameError'> name 'message' is not defined"
p3
sS'layer'
p4
S'/home/goshawk/web2py/applications/milo/views/default/index.html'
p5
sS'code'
p6
S'left_sidebar_enabled,right_sidebar_enabled=False,True\nresponse.write(\'\\n\', escape=False)\nresponse.write(\'<!DOCTYPE html>\\n<!-- paulirish.com/2008/conditional-stylesheets-vs-css-hacks-answer-neither/ -->\\n<!--[if lt IE 7]><html class="ie ie6 ie-lte9 ie-lte8 ie-lte7 no-js" lang="\', escape=False)\nresponse.write(T.accepted_language or \'en\')\nresponse.write(\'"> <![endif]-->\\n<!--[if IE 7]><html class="ie ie7 ie-lte9 ie-lte8 ie-lte7 no-js" lang="\', escape=False)\nresponse.write(T.accepted_language or \'en\')\nresponse.write(\'"> <![endif]-->\\n<!--[if IE 8]><html class="ie ie8 ie-lte9 ie-lte8 no-js" lang="\', escape=False)\nresponse.write(T.accepted_language or \'en\')\nresponse.write(\'"> <![endif]-->\\n<!--[if IE 9]><html class="ie9 ie-lte9 no-js" lang="\', escape=False)\nresponse.write(T.accepted_language or \'en\')\nresponse.write(\'"> <![endif]-->\\n<!--[if (gt IE 9)|!(IE)]><!--> <html class="no-js" lang="\', escape=False)\nresponse.write(T.accepted_language or \'en\')\nresponse.write(\'"> <!--<![endif]-->\\n<head>\\n  <meta charset="utf-8" />\\n  <!-- www.phpied.com/conditional-comments-block-downloads/ -->\\n  <!-- Always force latest IE rendering engine\\n\\t   (even in intranet) & Chrome Frame\\n\\t   Remove this if you use the .htaccess -->\\n  <!--[if IE]>\\n    <meta http-equiv="X-UA-Compatible" content="IE=edge\', escape=False)\nresponse.write(not request.is_local and \',chrome=1\' or \'\')\nresponse.write(\'">\\n  <![endif]-->\\n  \\n  <title>\', escape=False)\nresponse.write(response.title or request.application)\nresponse.write(\'</title>\\n  \\n  <!-- http://dev.w3.org/html5/markup/meta.name.html -->\\n  <meta name="application-name" content="\', escape=False)\nresponse.write(request.application)\nresponse.write(\'" />\\n  \\n  <!-- Speaking of Google, don\\\'t forget to set your site up:\\n\\t   http://google.com/webmasters -->\\n  <meta name="google-site-verification" content="" />\\n\\n  <!--  Mobile Viewport Fix\\n\\t  j.mp/mobileviewport & davidbcalhoun.com/2010/viewport-metatag\\n\\t  device-width: Occupy full width of the screen in its current orientation\\n\\t  initial-scale = 1.0 retains dimensions instead of zooming out if page height > device height\\n\\t  user-scalable = yes allows the user to zoom in -->\\n  <meta name="viewport" content="width=device-width, initial-scale=1.0, user-scalable=yes">\\n  \\n  <!-- Place favicon.ico and apple-touch-icon.png in the root of your domain and delete these references -->\\n  <link rel="shortcut icon" href="\', escape=False)\nresponse.write(URL(\'static\',\'favicon.ico\'))\nresponse.write(\'" type="image/x-icon">\\n  <link rel="apple-touch-icon" href="\', escape=False)\nresponse.write(URL(\'static\',\'favicon.png\'))\nresponse.write(\'">\\n\\n  <!-- All JavaScript at the bottom, except for Modernizr which enables \\n\\t   HTML5 elements & feature detects -->\\n  <script src="\', escape=False)\nresponse.write(URL(\'static\',\'js/modernizr.custom.js\'))\nresponse.write(\'"></script>  \\n\\n  <!-- include stylesheets -->\\n  \', escape=False)\nresponse.files.append(URL(\'static\',\'css/skeleton.css\'))\nresponse.files.append(URL(\'static\',\'css/web2py.css\'))\nif response.menu:\n    response.files.append(URL(\'static\',\'css/superfish.css\'))\n    response.files.append(URL(\'static\',\'js/superfish.js\'))\n    pass\nresponse.write(\'\\n\\n  \', escape=False)\nresponse.write(\'<script type="text/javascript"><!--\\n    // These variables are used by the web2py_ajax_init function in web2py_ajax.js (which is loaded below).\\n    var w2p_ajax_confirm_message = "\', escape=False)\nresponse.write(T(\'Are you sure you want to delete this object?\'))\nresponse.write(\'";\\n    var w2p_ajax_date_format = "\', escape=False)\nresponse.write(T(\'%Y-%m-%d\'))\nresponse.write(\'";\\n    var w2p_ajax_datetime_format = "\', escape=False)\nresponse.write(T(\'%Y-%m-%d %H:%M:%S\'))\nresponse.write(\'";\\n    //--></script>\\n\', escape=False)\nresponse.files.insert(0,URL(\'static\',\'js/jquery.js\'))\nresponse.files.insert(1,URL(\'static\',\'css/calendar.css\'))\nresponse.files.insert(2,URL(\'static\',\'js/calendar.js\'))\nresponse.files.insert(3,URL(\'static\',\'js/web2py.js\'))\nresponse.include_meta()\nresponse.include_files()\nresponse.write(\'\\n\', escape=False)\nresponse.write(\'\\n\\n  \', escape=False)\nif response.menu:\n    response.write(\'\\n  <script type="text/javascript">\\n    jQuery(function(){ jQuery(\\\'ul.sf-menu\\\').supersubs({minWidth:12,maxWidth:30,extraWidth:3}).superfish(); });\\n  </script>\\n  \', escape=False)\n    pass\nresponse.write(\'\\n\\n  \', escape=False)\n# using sidebars need to know what sidebar you want to use\nleft_sidebar_enabled = globals().get(\'left_sidebar_enabled\',False)\nright_sidebar_enabled = globals().get(\'right_sidebar_enabled\',False)\nmiddle_columns = {0:\'sixteen\',1:\'twelve\',2:\'eight\'}[\n(left_sidebar_enabled and 1 or 0)+(right_sidebar_enabled and 1 or 0)]\nresponse.write(\'\\n\\n  <!-- uncomment here to load jquery-ui\\n  <link rel="stylesheet" href="http://ajax.googleapis.com/ajax/libs/jqueryui/1.8.16/themes/base/jquery-ui.css" type="text/css" media="all" />\\n  <script src="http://ajax.googleapis.com/ajax/libs/jqueryui/1.8.16/jquery-ui.min.js" type="text/javascript"></script>\\n  uncomment to load jquery-ui //-->\\n</head>\\n<body>\\n  <div class="wrapper"><!-- for sticky footer -->\\n  \\n    <div class="topbar">\\n      <div class="container">    \\n        <div class="sixteen columns">\\n          <div id="navbar">\', escape=False)\nresponse.write(\'auth\' in globals() and auth.navbar(separators=(\' \',\' | \',\'\')))\nresponse.write(\'</div>\\n          \', escape=False)\nis_mobile=request.user_agent().is_mobile\nresponse.write(\'\\n\\t  \', escape=False)\nif response.menu:\n    response.write(\'\\n          <div id="menu">\\n             \', escape=False)\n    response.write(MENU(response.menu, _class=\'mobile-menu\' if is_mobile else \'sf-menu\',mobile=is_mobile))\n    response.write(\'\\n          </div>\\n          \', escape=False)\n    pass\nresponse.write(\'\\n        </div>\\n      </div>\\n    </div><!-- topbar -->\\n    \\n    <div class="flash">\', escape=False)\nresponse.write(response.flash or \'\')\nresponse.write(\'</div>\\n    \\n    <div class="header">\\n      <div class="container">         \\n        <div class="sixteen columns">\\n          <h1 class="remove-bottom" style="margin-top: .5em;">\\n          \', escape=False)\nresponse.write(response.title or request.application)\nresponse.write(\'\\n          </h1>\\n          <h5>\', escape=False)\nresponse.write(response.subtitle or \'\')\nresponse.write(\'</h5>\\n        </div>\\n        <div class="sixteen columns">\\n          <div class="statusbar clearfix">\\n            \', escape=False)\nresponse.write(\'\\n            <div class="breadcrumbs">\', escape=False)\nresponse.write(request.function.replace(\'_\', \' \').title())\nresponse.write(\'</div>\\n            \', escape=False)\nresponse.write(\'\\n            <!-- AddToAny BEGIN -->\\n            <div style="float:right; padding-top: .25em;" class="a2a_kit a2a_default_style">\\n            <a class="a2a_dd" href="http://www.addtoany.com/share_save">Share</a></div>\\n            <script type="text/javascript" src="http://static.addtoany.com/menu/page.js"></script>\\n            <!-- AddToAny END -->\\n          </div>\\n        </div>\\n      </div>\\n    </div>\\n\\n    <div class="main">\\n      <div class="container">                 \\n        \', escape=False)\nif left_sidebar_enabled:\n    response.write(\'\\n        <div class="four columns left-sidebar">\\n          \', escape=False)\n    response.write(\'\\n          <h3>Left Sidebar</h3>\\n          <p></p>\\n          \', escape=False)\n    response.write(\'\\n        </div>\\n        \', escape=False)\n    pass\nresponse.write(\'\\n        \\n        <div class="\', escape=False)\nresponse.write(middle_columns)\nresponse.write(\' columns center">\\n          \', escape=False)\nresponse.write(\'\\n          \', escape=False)\nresponse.write(\'\\n\\n\', escape=False)\nif movies:\n    response.write(\'\\n<h3>\', escape=False)\n    response.write(message)\n    response.write(\'</h3>\\n\\n<h4/>\', escape=False)\n    response.write(T(\'How did you get here?\'))\n    response.write(\'</h4>\\n<ol>\\n  <li>\', escape=False)\n    response.write(T(\'You are successfully running web2py\'))\n    response.write(\'</li>\\n  <li>\', escape=False)\n    response.write(T(\'You visited the url\'))\n    response.write(\' \', escape=False)\n    response.write(A(request.env.path_info,_href=request.env.path_info))\n    response.write(\'</li>\\n  <li>\', escape=False)\n    response.write(T(\'Which called the function\'))\n    response.write(\' \', escape=False)\n    response.write(A(request.function+\'()\',_href=\'#\'))\n    response.write(\' \', escape=False)\n    response.write(T(\'located in the file\'))\n    response.write(\'\\n    \', escape=False)\n    response.write(A(\'web2py/applications/%(application)s/controllers/%(controller)s.py\'%request,_href=URL(\'admin\',\'default\',\'peek\',args=(request.application,\'controllers\',request.controller+\'.py\'))))\n    response.write(\'</li>\\n  <li>\', escape=False)\n    response.write(T(\'The output of the file is a dictionary that was rendered by the view\'))\n    response.write(\'\\n    \', escape=False)\n    response.write(A(\'web2py/applications/%(application)s/views/%(controller)s/index.html\'%request,_href=URL(\'admin\',\'default\',\'peek\',args=(request.application,\'views\',request.controller,\'index.html\'))))\n    response.write(\'</li>\\n  <li>\', escape=False)\n    response.write(T(\'You can modify this application and adapt it to your needs\'))\n    response.write(\'</li>\\n</ul>\\n</ol>\\n\', escape=False)\nelse:\n    response.write(\'\\nno movies\\n\\n\', escape=False)\n    pass\nresponse.write(\'\\n\\n\', escape=False)\nresponse.write(BEAUTIFY(response._vars))\nresponse.write(\'\\n\\n\', escape=False)\nresponse.write(\'\\n\\n\', escape=False)\nresponse.write(\'\\n          \', escape=False)\nresponse.write(\'\\n        </div>\\n        \\n        \', escape=False)\nif right_sidebar_enabled:\n    response.write(\'\\n        <div class="four columns">\\n          \', escape=False)\n    response.write(\'\\n\', escape=False)\n    response.write(A(T("Administrative Interface"), _href=URL(\'admin\',\'default\',\'index\'), _class=\'button\',\n    _style=\'margin-top: 1em;\'))\n    response.write(\'\\n<h6>\', escape=False)\n    response.write(T("Don\'t know what to do?"))\n    response.write(\'</h6>\\n<ul>\\n  <li>\', escape=False)\n    response.write(A(T("Online examples"), _href=URL(\'examples\',\'default\',\'index\')))\n    response.write(\'</li>\\n  <li><a href="http://web2py.com">web2py.com</a></li>\\n  <li><a href="http://web2py.com/book">\', escape=False)\n    response.write(T(\'Documentation\'))\n    response.write(\'</a></li>\\n</ul>\\n\', escape=False)\n    response.write(\'\\n        </div>    \\n        \', escape=False)\n    pass\nresponse.write(\'\\n        \\n      </div><!-- container -->\\n    </div><!-- main -->\\n    \\n    <div class="push"></div>\\n  </div><!-- wrapper -->\\n\\n  <div class="footer">\\n    <div class="container">    \\n      <div class="sixteen columns">\\n        \', escape=False)\nresponse.write(\' <!-- this is default footer -->\\n        <div class="footer-content clearfix">\\n          <div class="copyright">\', escape=False)\nresponse.write(T(\'Copyright\'))\nresponse.write(\' &#169; 2011</div>\\n          <div style="float: right;">\\n            <a href="http://www.web2py.com/">\\n            <img style="padding-bottom: 0;" src="\', escape=False)\nresponse.write(URL(\'static\',\'images/poweredby.png\'))\nresponse.write(\'"/>\\n            </a>\\n          </div>\\n        </div>\\n        \', escape=False)\nresponse.write(\'\\t\\n      </div>\\n    </div><!-- container -->\\n  </div><!-- footer -->\\n  \\n  <!--[if lt IE 7 ]>\\n\\t<script src="\', escape=False)\nresponse.write(URL(\'static\',\'js/dd_belatedpng.js\'))\nresponse.write(\'"></script>\\n\\t<script> DD_belatedPNG.fix(\\\'img, .png_bg\\\'); //fix any <img> or .png_bg background-images </script>\\n\\t<![endif]-->\\n  \', escape=False)\nif response.google_analytics_id:\n    response.write(\'<script type="text/javascript"> var _gaq = _gaq || []; _gaq.push([\\\'_setAccount\\\', \\\'\', escape=False)\n    response.write(response.google_analytics_id)\n    response.write("\']); _gaq.push([\'_trackPageview\']); (function() { var ga = document.createElement(\'script\'); ga.type = \'text/javascript\'; ga.async = true; ga.src = (\'https:\' == document.location.protocol ? \'https://ssl\' : \'http://www\') + \'.google-analytics.com/ga.js\'; var s = document.getElementsByTagName(\'script\')[0]; s.parentNode.insertBefore(ga, s); })(); </script> ", escape=False)\n    pass\nresponse.write(\'\\n</body>\\n</html>\\n\', escape=False)'
p7
sS'snapshot'
p8
(dp9
S'exception'
p10
(dp11
S'__hash__'
p12
S"<method-wrapper '__hash__' of exceptions.NameError object>"
p13
sS'__setattr__'
p14
S"<method-wrapper '__setattr__' of exceptions.NameError object>"
p15
sS'__reduce_ex__'
p16
S'<built-in method __reduce_ex__ of exceptions.NameError object>'
p17
sS'__getslice__'
p18
S"<method-wrapper '__getslice__' of exceptions.NameError object>"
p19
sS'__getitem__'
p20
S"<method-wrapper '__getitem__' of exceptions.NameError object>"
p21
sS'__setstate__'
p22
S'<built-in method __setstate__ of exceptions.NameError object>'
p23
sS'args'
p24
S'("name \'message\' is not defined",)'
p25
sS'__reduce__'
p26
S'<built-in method __reduce__ of exceptions.NameError object>'
p27
sS'__str__'
p28
S"<method-wrapper '__str__' of exceptions.NameError object>"
p29
sS'__format__'
p30
S'<built-in method __format__ of exceptions.NameError object>'
p31
sS'__getattribute__'
p32
S"<method-wrapper '__getattribute__' of exceptions.NameError object>"
p33
sS'__class__'
p34
S"<type 'exceptions.NameError'>"
p35
sS'__unicode__'
p36
S'<built-in method __unicode__ of exceptions.NameError object>'
p37
sS'__delattr__'
p38
S"<method-wrapper '__delattr__' of exceptions.NameError object>"
p39
sS'__subclasshook__'
p40
S'<built-in method __subclasshook__ of type object>'
p41
sS'__repr__'
p42
S"<method-wrapper '__repr__' of exceptions.NameError object>"
p43
sS'__dict__'
p44
S'{}'
p45
sS'__sizeof__'
p46
S'<built-in method __sizeof__ of exceptions.NameError object>'
p47
sS'__doc__'
p48
S"'Name not found globally.'"
p49
sS'__init__'
p50
S"<method-wrapper '__init__' of exceptions.NameError object>"
p51
sS'__new__'
p52
S'<built-in method __new__ of type object>'
p53
ssS'evalue'
p54
S"name 'message' is not defined"
p55
sS'request'
p56
ccopy_reg
_reconstructor
p57
(cgluon.html
BEAUTIFY
p58
c__builtin__
object
p59
NtRp60
(dp61
S'attributes'
p62
(dp63
sS'components'
p64
(lp65
g57
(cgluon.html
TABLE
p66
g59
NtRp67
(dp68
g62
(dp69
S'level'
p70
I5
ssS'parent'
p71
Nsg64
(lp72
g57
(cgluon.html
TR
p73
g59
NtRp74
(dp75
g62
(dp76
sg71
g67
sg64
(lp77
g57
(cgluon.html
TD
p78
g59
NtRp79
(dp80
g62
(dp81
S'_style'
p82
S'font-weight:bold;vertical-align:top'
p83
ssg71
g74
sg64
(lp84
S'ajax'
p85
asbag57
(g78
g59
NtRp86
(dp87
g62
(dp88
S'_valign'
p89
S'top'
p90
ssg71
g74
sg64
(lp91
S':'
asbag57
(g78
g59
NtRp92
(dp93
g62
(dp94
sg71
g74
sg64
(lp95
g57
(g58
g59
NtRp96
(dp97
g62
(dp98
g70
I5
ssg71
g92
sg64
(lp99
S'False'
p100
asbasbasbag57
(g73
g59
NtRp101
(dp102
g62
(dp103
sg71
g67
sg64
(lp104
g57
(g78
g59
NtRp105
(dp106
g62
(dp107
g82
g83
ssg71
g101
sg64
(lp108
S'application'
p109
asbag57
(g78
g59
NtRp110
(dp111
g62
(dp112
g89
g90
ssg71
g101
sg64
(lp113
S':'
asbag57
(g78
g59
NtRp114
(dp115
g62
(dp116
sg71
g101
sg64
(lp117
g57
(g58
g59
NtRp118
(dp119
g62
(dp120
g70
I5
ssg71
g114
sg64
(lp121
S'milo'
p122
asbasbasbag57
(g73
g59
NtRp123
(dp124
g62
(dp125
sg71
g67
sg64
(lp126
g57
(g78
g59
NtRp127
(dp128
g62
(dp129
g82
g83
ssg71
g123
sg64
(lp130
g24
asbag57
(g78
g59
NtRp131
(dp132
g62
(dp133
g89
g90
ssg71
g123
sg64
(lp134
S':'
asbag57
(g78
g59
NtRp135
(dp136
g62
(dp137
sg71
g123
sg64
(lp138
g57
(g58
g59
NtRp139
(dp140
g62
(dp141
g70
I5
ssg71
g135
sg64
(lp142
g57
(g66
g59
NtRp143
(dp144
g62
(dp145
g70
I4
ssg71
Nsg64
(lp146
sbasbasbasbag57
(g73
g59
NtRp147
(dp148
g62
(dp149
sg71
g67
sg64
(lp150
g57
(g78
g59
NtRp151
(dp152
g62
(dp153
g82
g83
ssg71
g147
sg64
(lp154
S'body'
p155
asbag57
(g78
g59
NtRp156
(dp157
g62
(dp158
g89
g90
ssg71
g147
sg64
(lp159
S':'
asbag57
(g78
g59
NtRp160
(dp161
g62
(dp162
sg71
g147
sg64
(lp163
g57
(g58
g59
NtRp164
(dp165
g62
(dp166
g70
I5
ssg71
g160
sg64
(lp167
S'<cStringIO.StringO object at 0x7f28ec0ffce0>'
p168
asbasbasbag57
(g73
g59
NtRp169
(dp170
g62
(dp171
sg71
g67
sg64
(lp172
g57
(g78
g59
NtRp173
(dp174
g62
(dp175
g82
g83
ssg71
g169
sg64
(lp176
S'client'
p177
asbag57
(g78
g59
NtRp178
(dp179
g62
(dp180
g89
g90
ssg71
g169
sg64
(lp181
S':'
asbag57
(g78
g59
NtRp182
(dp183
g62
(dp184
sg71
g169
sg64
(lp185
g57
(g58
g59
NtRp186
(dp187
g62
(dp188
g70
I5
ssg71
g182
sg64
(lp189
S'127.0.0.1'
p190
asbasbasbag57
(g73
g59
NtRp191
(dp192
g62
(dp193
sg71
g67
sg64
(lp194
g57
(g78
g59
NtRp195
(dp196
g62
(dp197
g82
g83
ssg71
g191
sg64
(lp198
S'controller'
p199
asbag57
(g78
g59
NtRp200
(dp201
g62
(dp202
g89
g90
ssg71
g191
sg64
(lp203
S':'
asbag57
(g78
g59
NtRp204
(dp205
g62
(dp206
sg71
g191
sg64
(lp207
g57
(g58
g59
NtRp208
(dp209
g62
(dp210
g70
I5
ssg71
g204
sg64
(lp211
S'default'
p212
asbasbasbag57
(g73
g59
NtRp213
(dp214
g62
(dp215
sg71
g67
sg64
(lp216
g57
(g78
g59
NtRp217
(dp218
g62
(dp219
g82
g83
ssg71
g213
sg64
(lp220
S'cookies'
p221
asbag57
(g78
g59
NtRp222
(dp223
g62
(dp224
g89
g90
ssg71
g213
sg64
(lp225
S':'
asbag57
(g78
g59
NtRp226
(dp227
g62
(dp228
sg71
g213
sg64
(lp229
g57
(g58
g59
NtRp230
(dp231
g62
(dp232
g70
I5
ssg71
g226
sg64
(lp233
g57
(g66
g59
NtRp234
(dp235
g62
(dp236
g70
I4
ssg71
Nsg64
(lp237
g57
(g73
g59
NtRp238
(dp239
g62
(dp240
sg71
g234
sg64
(lp241
g57
(g78
g59
NtRp242
(dp243
g62
(dp244
g82
g83
ssg71
g238
sg64
(lp245
S'session_id_admin'
p246
asbag57
(g78
g59
NtRp247
(dp248
g62
(dp249
g89
g90
ssg71
g238
sg64
(lp250
S':'
asbag57
(g78
g59
NtRp251
(dp252
g62
(dp253
sg71
g238
sg64
(lp254
g57
(g58
g59
NtRp255
(dp256
g62
(dp257
g70
I4
ssg71
g251
sg64
(lp258
g57
(g66
g59
NtRp259
(dp260
g62
(dp261
g70
I3
ssg71
Nsg64
(lp262
g57
(g73
g59
NtRp263
(dp264
g62
(dp265
sg71
g259
sg64
(lp266
g57
(g78
g59
NtRp267
(dp268
g62
(dp269
g82
g83
ssg71
g263
sg64
(lp270
S'comment'
p271
asbag57
(g78
g59
NtRp272
(dp273
g62
(dp274
g89
g90
ssg71
g263
sg64
(lp275
S':'
asbag57
(g78
g59
NtRp276
(dp277
g62
(dp278
sg71
g263
sg64
(lp279
g57
(g58
g59
NtRp280
(dp281
g62
(dp282
g70
I3
ssg71
g276
sg64
(lp283
S''
asbasbasbag57
(g73
g59
NtRp284
(dp285
g62
(dp286
sg71
g259
sg64
(lp287
g57
(g78
g59
NtRp288
(dp289
g62
(dp290
g82
g83
ssg71
g284
sg64
(lp291
S'domain'
p292
asbag57
(g78
g59
NtRp293
(dp294
g62
(dp295
g89
g90
ssg71
g284
sg64
(lp296
S':'
asbag57
(g78
g59
NtRp297
(dp298
g62
(dp299
sg71
g284
sg64
(lp300
g57
(g58
g59
NtRp301
(dp302
g62
(dp303
g70
I3
ssg71
g297
sg64
(lp304
S''
asbasbasbag57
(g73
g59
NtRp305
(dp306
g62
(dp307
sg71
g259
sg64
(lp308
g57
(g78
g59
NtRp309
(dp310
g62
(dp311
g82
g83
ssg71
g305
sg64
(lp312
S'expires'
p313
asbag57
(g78
g59
NtRp314
(dp315
g62
(dp316
g89
g90
ssg71
g305
sg64
(lp317
S':'
asbag57
(g78
g59
NtRp318
(dp319
g62
(dp320
sg71
g305
sg64
(lp321
g57
(g58
g59
NtRp322
(dp323
g62
(dp324
g70
I3
ssg71
g318
sg64
(lp325
S''
asbasbasbag57
(g73
g59
NtRp326
(dp327
g62
(dp328
sg71
g259
sg64
(lp329
g57
(g78
g59
NtRp330
(dp331
g62
(dp332
g82
g83
ssg71
g326
sg64
(lp333
S'httponly'
p334
asbag57
(g78
g59
NtRp335
(dp336
g62
(dp337
g89
g90
ssg71
g326
sg64
(lp338
S':'
asbag57
(g78
g59
NtRp339
(dp340
g62
(dp341
sg71
g326
sg64
(lp342
g57
(g58
g59
NtRp343
(dp344
g62
(dp345
g70
I3
ssg71
g339
sg64
(lp346
S''
asbasbasbag57
(g73
g59
NtRp347
(dp348
g62
(dp349
sg71
g259
sg64
(lp350
g57
(g78
g59
NtRp351
(dp352
g62
(dp353
g82
g83
ssg71
g347
sg64
(lp354
S'max-age'
p355
asbag57
(g78
g59
NtRp356
(dp357
g62
(dp358
g89
g90
ssg71
g347
sg64
(lp359
S':'
asbag57
(g78
g59
NtRp360
(dp361
g62
(dp362
sg71
g347
sg64
(lp363
g57
(g58
g59
NtRp364
(dp365
g62
(dp366
g70
I3
ssg71
g360
sg64
(lp367
S''
asbasbasbag57
(g73
g59
NtRp368
(dp369
g62
(dp370
sg71
g259
sg64
(lp371
g57
(g78
g59
NtRp372
(dp373
g62
(dp374
g82
g83
ssg71
g368
sg64
(lp375
S'path'
p376
asbag57
(g78
g59
NtRp377
(dp378
g62
(dp379
g89
g90
ssg71
g368
sg64
(lp380
S':'
asbag57
(g78
g59
NtRp381
(dp382
g62
(dp383
sg71
g368
sg64
(lp384
g57
(g58
g59
NtRp385
(dp386
g62
(dp387
g70
I3
ssg71
g381
sg64
(lp388
S''
asbasbasbag57
(g73
g59
NtRp389
(dp390
g62
(dp391
sg71
g259
sg64
(lp392
g57
(g78
g59
NtRp393
(dp394
g62
(dp395
g82
g83
ssg71
g389
sg64
(lp396
S'secure'
p397
asbag57
(g78
g59
NtRp398
(dp399
g62
(dp400
g89
g90
ssg71
g389
sg64
(lp401
S':'
asbag57
(g78
g59
NtRp402
(dp403
g62
(dp404
sg71
g389
sg64
(lp405
g57
(g58
g59
NtRp406
(dp407
g62
(dp408
g70
I3
ssg71
g402
sg64
(lp409
S''
asbasbasbag57
(g73
g59
NtRp410
(dp411
g62
(dp412
sg71
g259
sg64
(lp413
g57
(g78
g59
NtRp414
(dp415
g62
(dp416
g82
g83
ssg71
g410
sg64
(lp417
S'version'
p418
asbag57
(g78
g59
NtRp419
(dp420
g62
(dp421
g89
g90
ssg71
g410
sg64
(lp422
S':'
asbag57
(g78
g59
NtRp423
(dp424
g62
(dp425
sg71
g410
sg64
(lp426
g57
(g58
g59
NtRp427
(dp428
g62
(dp429
g70
I3
ssg71
g423
sg64
(lp430
S''
asbasbasbasbasbasbasbag57
(g73
g59
NtRp431
(dp432
g62
(dp433
sg71
g234
sg64
(lp434
g57
(g78
g59
NtRp435
(dp436
g62
(dp437
g82
g83
ssg71
g431
sg64
(lp438
S'session_id_milo'
p439
asbag57
(g78
g59
NtRp440
(dp441
g62
(dp442
g89
g90
ssg71
g431
sg64
(lp443
S':'
asbag57
(g78
g59
NtRp444
(dp445
g62
(dp446
sg71
g431
sg64
(lp447
g57
(g58
g59
NtRp448
(dp449
g62
(dp450
g70
I4
ssg71
g444
sg64
(lp451
g57
(g66
g59
NtRp452
(dp453
g62
(dp454
g70
I3
ssg71
Nsg64
(lp455
g57
(g73
g59
NtRp456
(dp457
g62
(dp458
sg71
g452
sg64
(lp459
g57
(g78
g59
NtRp460
(dp461
g62
(dp462
g82
g83
ssg71
g456
sg64
(lp463
g271
asbag57
(g78
g59
NtRp464
(dp465
g62
(dp466
g89
g90
ssg71
g456
sg64
(lp467
S':'
asbag57
(g78
g59
NtRp468
(dp469
g62
(dp470
sg71
g456
sg64
(lp471
g57
(g58
g59
NtRp472
(dp473
g62
(dp474
g70
I3
ssg71
g468
sg64
(lp475
S''
asbasbasbag57
(g73
g59
NtRp476
(dp477
g62
(dp478
sg71
g452
sg64
(lp479
g57
(g78
g59
NtRp480
(dp481
g62
(dp482
g82
g83
ssg71
g476
sg64
(lp483
g292
asbag57
(g78
g59
NtRp484
(dp485
g62
(dp486
g89
g90
ssg71
g476
sg64
(lp487
S':'
asbag57
(g78
g59
NtRp488
(dp489
g62
(dp490
sg71
g476
sg64
(lp491
g57
(g58
g59
NtRp492
(dp493
g62
(dp494
g70
I3
ssg71
g488
sg64
(lp495
S''
asbasbasbag57
(g73
g59
NtRp496
(dp497
g62
(dp498
sg71
g452
sg64
(lp499
g57
(g78
g59
NtRp500
(dp501
g62
(dp502
g82
g83
ssg71
g496
sg64
(lp503
g313
asbag57
(g78
g59
NtRp504
(dp505
g62
(dp506
g89
g90
ssg71
g496
sg64
(lp507
S':'
asbag57
(g78
g59
NtRp508
(dp509
g62
(dp510
sg71
g496
sg64
(lp511
g57
(g58
g59
NtRp512
(dp513
g62
(dp514
g70
I3
ssg71
g508
sg64
(lp515
S''
asbasbasbag57
(g73
g59
NtRp516
(dp517
g62
(dp518
sg71
g452
sg64
(lp519
g57
(g78
g59
NtRp520
(dp521
g62
(dp522
g82
g83
ssg71
g516
sg64
(lp523
g334
asbag57
(g78
g59
NtRp524
(dp525
g62
(dp526
g89
g90
ssg71
g516
sg64
(lp527
S':'
asbag57
(g78
g59
NtRp528
(dp529
g62
(dp530
sg71
g516
sg64
(lp531
g57
(g58
g59
NtRp532
(dp533
g62
(dp534
g70
I3
ssg71
g528
sg64
(lp535
S''
asbasbasbag57
(g73
g59
NtRp536
(dp537
g62
(dp538
sg71
g452
sg64
(lp539
g57
(g78
g59
NtRp540
(dp541
g62
(dp542
g82
g83
ssg71
g536
sg64
(lp543
g355
asbag57
(g78
g59
NtRp544
(dp545
g62
(dp546
g89
g90
ssg71
g536
sg64
(lp547
S':'
asbag57
(g78
g59
NtRp548
(dp549
g62
(dp550
sg71
g536
sg64
(lp551
g57
(g58
g59
NtRp552
(dp553
g62
(dp554
g70
I3
ssg71
g548
sg64
(lp555
S''
asbasbasbag57
(g73
g59
NtRp556
(dp557
g62
(dp558
sg71
g452
sg64
(lp559
g57
(g78
g59
NtRp560
(dp561
g62
(dp562
g82
g83
ssg71
g556
sg64
(lp563
g376
asbag57
(g78
g59
NtRp564
(dp565
g62
(dp566
g89
g90
ssg71
g556
sg64
(lp567
S':'
asbag57
(g78
g59
NtRp568
(dp569
g62
(dp570
sg71
g556
sg64
(lp571
g57
(g58
g59
NtRp572
(dp573
g62
(dp574
g70
I3
ssg71
g568
sg64
(lp575
S''
asbasbasbag57
(g73
g59
NtRp576
(dp577
g62
(dp578
sg71
g452
sg64
(lp579
g57
(g78
g59
NtRp580
(dp581
g62
(dp582
g82
g83
ssg71
g576
sg64
(lp583
g397
asbag57
(g78
g59
NtRp584
(dp585
g62
(dp586
g89
g90
ssg71
g576
sg64
(lp587
S':'
asbag57
(g78
g59
NtRp588
(dp589
g62
(dp590
sg71
g576
sg64
(lp591
g57
(g58
g59
NtRp592
(dp593
g62
(dp594
g70
I3
ssg71
g588
sg64
(lp595
S''
asbasbasbag57
(g73
g59
NtRp596
(dp597
g62
(dp598
sg71
g452
sg64
(lp599
g57
(g78
g59
NtRp600
(dp601
g62
(dp602
g82
g83
ssg71
g596
sg64
(lp603
g418
asbag57
(g78
g59
NtRp604
(dp605
g62
(dp606
g89
g90
ssg71
g596
sg64
(lp607
S':'
asbag57
(g78
g59
NtRp608
(dp609
g62
(dp610
sg71
g596
sg64
(lp611
g57
(g58
g59
NtRp612
(dp613
g62
(dp614
g70
I3
ssg71
g608
sg64
(lp615
S''
asbasbasbasbasbasbasbag57
(g73
g59
NtRp616
(dp617
g62
(dp618
sg71
g234
sg64
(lp619
g57
(g78
g59
NtRp620
(dp621
g62
(dp622
g82
g83
ssg71
g616
sg64
(lp623
S'session_id_milo_admin'
p624
asbag57
(g78
g59
NtRp625
(dp626
g62
(dp627
g89
g90
ssg71
g616
sg64
(lp628
S':'
asbag57
(g78
g59
NtRp629
(dp630
g62
(dp631
sg71
g616
sg64
(lp632
g57
(g58
g59
NtRp633
(dp634
g62
(dp635
g70
I4
ssg71
g629
sg64
(lp636
g57
(g66
g59
NtRp637
(dp638
g62
(dp639
g70
I3
ssg71
Nsg64
(lp640
g57
(g73
g59
NtRp641
(dp642
g62
(dp643
sg71
g637
sg64
(lp644
g57
(g78
g59
NtRp645
(dp646
g62
(dp647
g82
g83
ssg71
g641
sg64
(lp648
g271
asbag57
(g78
g59
NtRp649
(dp650
g62
(dp651
g89
g90
ssg71
g641
sg64
(lp652
S':'
asbag57
(g78
g59
NtRp653
(dp654
g62
(dp655
sg71
g641
sg64
(lp656
g57
(g58
g59
NtRp657
(dp658
g62
(dp659
g70
I3
ssg71
g653
sg64
(lp660
S''
asbasbasbag57
(g73
g59
NtRp661
(dp662
g62
(dp663
sg71
g637
sg64
(lp664
g57
(g78
g59
NtRp665
(dp666
g62
(dp667
g82
g83
ssg71
g661
sg64
(lp668
g292
asbag57
(g78
g59
NtRp669
(dp670
g62
(dp671
g89
g90
ssg71
g661
sg64
(lp672
S':'
asbag57
(g78
g59
NtRp673
(dp674
g62
(dp675
sg71
g661
sg64
(lp676
g57
(g58
g59
NtRp677
(dp678
g62
(dp679
g70
I3
ssg71
g673
sg64
(lp680
S''
asbasbasbag57
(g73
g59
NtRp681
(dp682
g62
(dp683
sg71
g637
sg64
(lp684
g57
(g78
g59
NtRp685
(dp686
g62
(dp687
g82
g83
ssg71
g681
sg64
(lp688
g313
asbag57
(g78
g59
NtRp689
(dp690
g62
(dp691
g89
g90
ssg71
g681
sg64
(lp692
S':'
asbag57
(g78
g59
NtRp693
(dp694
g62
(dp695
sg71
g681
sg64
(lp696
g57
(g58
g59
NtRp697
(dp698
g62
(dp699
g70
I3
ssg71
g693
sg64
(lp700
S''
asbasbasbag57
(g73
g59
NtRp701
(dp702
g62
(dp703
sg71
g637
sg64
(lp704
g57
(g78
g59
NtRp705
(dp706
g62
(dp707
g82
g83
ssg71
g701
sg64
(lp708
g334
asbag57
(g78
g59
NtRp709
(dp710
g62
(dp711
g89
g90
ssg71
g701
sg64
(lp712
S':'
asbag57
(g78
g59
NtRp713
(dp714
g62
(dp715
sg71
g701
sg64
(lp716
g57
(g58
g59
NtRp717
(dp718
g62
(dp719
g70
I3
ssg71
g713
sg64
(lp720
S''
asbasbasbag57
(g73
g59
NtRp721
(dp722
g62
(dp723
sg71
g637
sg64
(lp724
g57
(g78
g59
NtRp725
(dp726
g62
(dp727
g82
g83
ssg71
g721
sg64
(lp728
g355
asbag57
(g78
g59
NtRp729
(dp730
g62
(dp731
g89
g90
ssg71
g721
sg64
(lp732
S':'
asbag57
(g78
g59
NtRp733
(dp734
g62
(dp735
sg71
g721
sg64
(lp736
g57
(g58
g59
NtRp737
(dp738
g62
(dp739
g70
I3
ssg71
g733
sg64
(lp740
S''
asbasbasbag57
(g73
g59
NtRp741
(dp742
g62
(dp743
sg71
g637
sg64
(lp744
g57
(g78
g59
NtRp745
(dp746
g62
(dp747
g82
g83
ssg71
g741
sg64
(lp748
g376
asbag57
(g78
g59
NtRp749
(dp750
g62
(dp751
g89
g90
ssg71
g741
sg64
(lp752
S':'
asbag57
(g78
g59
NtRp753
(dp754
g62
(dp755
sg71
g741
sg64
(lp756
g57
(g58
g59
NtRp757
(dp758
g62
(dp759
g70
I3
ssg71
g753
sg64
(lp760
S''
asbasbasbag57
(g73
g59
NtRp761
(dp762
g62
(dp763
sg71
g637
sg64
(lp764
g57
(g78
g59
NtRp765
(dp766
g62
(dp767
g82
g83
ssg71
g761
sg64
(lp768
g397
asbag57
(g78
g59
NtRp769
(dp770
g62
(dp771
g89
g90
ssg71
g761
sg64
(lp772
S':'
asbag57
(g78
g59
NtRp773
(dp774
g62
(dp775
sg71
g761
sg64
(lp776
g57
(g58
g59
NtRp777
(dp778
g62
(dp779
g70
I3
ssg71
g773
sg64
(lp780
S''
asbasbasbag57
(g73
g59
NtRp781
(dp782
g62
(dp783
sg71
g637
sg64
(lp784
g57
(g78
g59
NtRp785
(dp786
g62
(dp787
g82
g83
ssg71
g781
sg64
(lp788
g418
asbag57
(g78
g59
NtRp789
(dp790
g62
(dp791
g89
g90
ssg71
g781
sg64
(lp792
S':'
asbag57
(g78
g59
NtRp793
(dp794
g62
(dp795
sg71
g781
sg64
(lp796
g57
(g58
g59
NtRp797
(dp798
g62
(dp799
g70
I3
ssg71
g793
sg64
(lp800
S''
asbasbasbasbasbasbasbasbasbasbasbag57
(g73
g59
NtRp801
(dp802
g62
(dp803
sg71
g67
sg64
(lp804
g57
(g78
g59
NtRp805
(dp806
g62
(dp807
g82
g83
ssg71
g801
sg64
(lp808
S'env'
p809
asbag57
(g78
g59
NtRp810
(dp811
g62
(dp812
g89
g90
ssg71
g801
sg64
(lp813
S':'
asbag57
(g78
g59
NtRp814
(dp815
g62
(dp816
sg71
g801
sg64
(lp817
g57
(g58
g59
NtRp818
(dp819
g62
(dp820
g70
I5
ssg71
g814
sg64
(lp821
g57
(g66
g59
NtRp822
(dp823
g62
(dp824
g70
I4
ssg71
Nsg64
(lp825
g57
(g73
g59
NtRp826
(dp827
g62
(dp828
sg71
g822
sg64
(lp829
g57
(g78
g59
NtRp830
(dp831
g62
(dp832
g82
g83
ssg71
g826
sg64
(lp833
S'app_folders'
p834
asbag57
(g78
g59
NtRp835
(dp836
g62
(dp837
g89
g90
ssg71
g826
sg64
(lp838
S':'
asbag57
(g78
g59
NtRp839
(dp840
g62
(dp841
sg71
g826
sg64
(lp842
g57
(g58
g59
NtRp843
(dp844
g62
(dp845
g70
I4
ssg71
g839
sg64
(lp846
S"set(['/home/goshawk/web2py/applications/milo_admin/', '/home/goshawk/web2py/applications/milo/', '/home/goshawk/web2py/applications/admin/'])"
p847
asbasbasbag57
(g73
g59
NtRp848
(dp849
g62
(dp850
sg71
g822
sg64
(lp851
g57
(g78
g59
NtRp852
(dp853
g62
(dp854
g82
g83
ssg71
g848
sg64
(lp855
S'applications_parent'
p856
asbag57
(g78
g59
NtRp857
(dp858
g62
(dp859
g89
g90
ssg71
g848
sg64
(lp860
S':'
asbag57
(g78
g59
NtRp861
(dp862
g62
(dp863
sg71
g848
sg64
(lp864
g57
(g58
g59
NtRp865
(dp866
g62
(dp867
g70
I4
ssg71
g861
sg64
(lp868
S'/home/goshawk/web2py'
p869
asbasbasbag57
(g73
g59
NtRp870
(dp871
g62
(dp872
sg71
g822
sg64
(lp873
g57
(g78
g59
NtRp874
(dp875
g62
(dp876
g82
g83
ssg71
g870
sg64
(lp877
S'cmd_args'
p878
asbag57
(g78
g59
NtRp879
(dp880
g62
(dp881
g89
g90
ssg71
g870
sg64
(lp882
S':'
asbag57
(g78
g59
NtRp883
(dp884
g62
(dp885
sg71
g870
sg64
(lp886
g57
(g58
g59
NtRp887
(dp888
g62
(dp889
g70
I4
ssg71
g883
sg64
(lp890
g57
(g66
g59
NtRp891
(dp892
g62
(dp893
g70
I3
ssg71
Nsg64
(lp894
sbasbasbasbag57
(g73
g59
NtRp895
(dp896
g62
(dp897
sg71
g822
sg64
(lp898
g57
(g78
g59
NtRp899
(dp900
g62
(dp901
g82
g83
ssg71
g895
sg64
(lp902
S'cmd_options'
p903
asbag57
(g78
g59
NtRp904
(dp905
g62
(dp906
g89
g90
ssg71
g895
sg64
(lp907
S':'
asbag57
(g78
g59
NtRp908
(dp909
g62
(dp910
sg71
g895
sg64
(lp911
g57
(g58
g59
NtRp912
(dp913
g62
(dp914
g70
I4
ssg71
g908
sg64
(lp915
S"<Values at 0x1ea70e0: {'verbose': False, 'ip': '127.0.0.1', 'shutdown_timeout': 5, 'taskbar': False, 'nocron': False, 'pid_filename': 'httpserver.pid', 'maxthreads': None, 'softcron': False, 'server_name': 'whisperer', 'bpython': False, 'nogui': False, 'port': 8000, 'extcron': False, 'debuglevel': 30, 'test': None, 'folder': '/home/goshawk/web2py', 'config': '', 'import_models': False, 'winservice': '', 'shell': None, 'run': '', 'log_filename': 'httpserver.log', 'args': [''], 'socket_timeout': 5, 'ssl_ca_certificate': None, 'scheduler': None, 'profiler_filename': None, 'ssl_private_key': '', 'password': 'admin', 'request_queue_size': 5, 'ssl_certificate': '', 'cronjob': False, 'numthreads': None, 'quiet': False, 'interfaces': None, 'minthreads': None, 'timeout': 10, 'plain': False, 'nobanner': False}>"
p916
asbasbasbag57
(g73
g59
NtRp917
(dp918
g62
(dp919
sg71
g822
sg64
(lp920
g57
(g78
g59
NtRp921
(dp922
g62
(dp923
g82
g83
ssg71
g917
sg64
(lp924
S'db_sessions'
p925
asbag57
(g78
g59
NtRp926
(dp927
g62
(dp928
g89
g90
ssg71
g917
sg64
(lp929
S':'
asbag57
(g78
g59
NtRp930
(dp931
g62
(dp932
sg71
g917
sg64
(lp933
g57
(g58
g59
NtRp934
(dp935
g62
(dp936
g70
I4
ssg71
g930
sg64
(lp937
S'set([])'
p938
asbasbasbag57
(g73
g59
NtRp939
(dp940
g62
(dp941
sg71
g822
sg64
(lp942
g57
(g78
g59
NtRp943
(dp944
g62
(dp945
g82
g83
ssg71
g939
sg64
(lp946
S'debugging'
p947
asbag57
(g78
g59
NtRp948
(dp949
g62
(dp950
g89
g90
ssg71
g939
sg64
(lp951
S':'
asbag57
(g78
g59
NtRp952
(dp953
g62
(dp954
sg71
g939
sg64
(lp955
g57
(g58
g59
NtRp956
(dp957
g62
(dp958
g70
I4
ssg71
g952
sg64
(lp959
g100
asbasbasbag57
(g73
g59
NtRp960
(dp961
g62
(dp962
sg71
g822
sg64
(lp963
g57
(g78
g59
NtRp964
(dp965
g62
(dp966
g82
g83
ssg71
g960
sg64
(lp967
S'gluon_parent'
p968
asbag57
(g78
g59
NtRp969
(dp970
g62
(dp971
g89
g90
ssg71
g960
sg64
(lp972
S':'
asbag57
(g78
g59
NtRp973
(dp974
g62
(dp975
sg71
g960
sg64
(lp976
g57
(g58
g59
NtRp977
(dp978
g62
(dp979
g70
I4
ssg71
g973
sg64
(lp980
S'/home/goshawk/web2py'
p981
asbasbasbag57
(g73
g59
NtRp982
(dp983
g62
(dp984
sg71
g822
sg64
(lp985
g57
(g78
g59
NtRp986
(dp987
g62
(dp988
g82
g83
ssg71
g982
sg64
(lp989
S'http_accept'
p990
asbag57
(g78
g59
NtRp991
(dp992
g62
(dp993
g89
g90
ssg71
g982
sg64
(lp994
S':'
asbag57
(g78
g59
NtRp995
(dp996
g62
(dp997
sg71
g982
sg64
(lp998
g57
(g58
g59
NtRp999
(dp1000
g62
(dp1001
g70
I4
ssg71
g995
sg64
(lp1002
S'text/html,application/xhtml+xml,application/xml;q=0.9,*/*;q=0.8'
p1003
asbasbasbag57
(g73
g59
NtRp1004
(dp1005
g62
(dp1006
sg71
g822
sg64
(lp1007
g57
(g78
g59
NtRp1008
(dp1009
g62
(dp1010
g82
g83
ssg71
g1004
sg64
(lp1011
S'http_accept_charset'
p1012
asbag57
(g78
g59
NtRp1013
(dp1014
g62
(dp1015
g89
g90
ssg71
g1004
sg64
(lp1016
S':'
asbag57
(g78
g59
NtRp1017
(dp1018
g62
(dp1019
sg71
g1004
sg64
(lp1020
g57
(g58
g59
NtRp1021
(dp1022
g62
(dp1023
g70
I4
ssg71
g1017
sg64
(lp1024
S'ISO-8859-1,utf-8;q=0.7,*;q=0.3'
p1025
asbasbasbag57
(g73
g59
NtRp1026
(dp1027
g62
(dp1028
sg71
g822
sg64
(lp1029
g57
(g78
g59
NtRp1030
(dp1031
g62
(dp1032
g82
g83
ssg71
g1026
sg64
(lp1033
S'http_accept_encoding'
p1034
asbag57
(g78
g59
NtRp1035
(dp1036
g62
(dp1037
g89
g90
ssg71
g1026
sg64
(lp1038
S':'
asbag57
(g78
g59
NtRp1039
(dp1040
g62
(dp1041
sg71
g1026
sg64
(lp1042
g57
(g58
g59
NtRp1043
(dp1044
g62
(dp1045
g70
I4
ssg71
g1039
sg64
(lp1046
S'gzip,deflate,sdch'
p1047
asbasbasbag57
(g73
g59
NtRp1048
(dp1049
g62
(dp1050
sg71
g822
sg64
(lp1051
g57
(g78
g59
NtRp1052
(dp1053
g62
(dp1054
g82
g83
ssg71
g1048
sg64
(lp1055
S'http_accept_language'
p1056
asbag57
(g78
g59
NtRp1057
(dp1058
g62
(dp1059
g89
g90
ssg71
g1048
sg64
(lp1060
S':'
asbag57
(g78
g59
NtRp1061
(dp1062
g62
(dp1063
sg71
g1048
sg64
(lp1064
g57
(g58
g59
NtRp1065
(dp1066
g62
(dp1067
g70
I4
ssg71
g1061
sg64
(lp1068
S'en-US,en;q=0.8'
p1069
asbasbasbag57
(g73
g59
NtRp1070
(dp1071
g62
(dp1072
sg71
g822
sg64
(lp1073
g57
(g78
g59
NtRp1074
(dp1075
g62
(dp1076
g82
g83
ssg71
g1070
sg64
(lp1077
S'http_cache_control'
p1078
asbag57
(g78
g59
NtRp1079
(dp1080
g62
(dp1081
g89
g90
ssg71
g1070
sg64
(lp1082
S':'
asbag57
(g78
g59
NtRp1083
(dp1084
g62
(dp1085
sg71
g1070
sg64
(lp1086
g57
(g58
g59
NtRp1087
(dp1088
g62
(dp1089
g70
I4
ssg71
g1083
sg64
(lp1090
S'max-age=0'
p1091
asbasbasbag57
(g73
g59
NtRp1092
(dp1093
g62
(dp1094
sg71
g822
sg64
(lp1095
g57
(g78
g59
NtRp1096
(dp1097
g62
(dp1098
g82
g83
ssg71
g1092
sg64
(lp1099
S'http_connection'
p1100
asbag57
(g78
g59
NtRp1101
(dp1102
g62
(dp1103
g89
g90
ssg71
g1092
sg64
(lp1104
S':'
asbag57
(g78
g59
NtRp1105
(dp1106
g62
(dp1107
sg71
g1092
sg64
(lp1108
g57
(g58
g59
NtRp1109
(dp1110
g62
(dp1111
g70
I4
ssg71
g1105
sg64
(lp1112
S'keep-alive'
p1113
asbasbasbag57
(g73
g59
NtRp1114
(dp1115
g62
(dp1116
sg71
g822
sg64
(lp1117
g57
(g78
g59
NtRp1118
(dp1119
g62
(dp1120
g82
g83
ssg71
g1114
sg64
(lp1121
S'http_cookie'
p1122
asbag57
(g78
g59
NtRp1123
(dp1124
g62
(dp1125
g89
g90
ssg71
g1114
sg64
(lp1126
S':'
asbag57
(g78
g59
NtRp1127
(dp1128
g62
(dp1129
sg71
g1114
sg64
(lp1130
g57
(g58
g59
NtRp1131
(dp1132
g62
(dp1133
g70
I4
ssg71
g1127
sg64
(lp1134
S'session_id_milo_admin=127.0.0.1-3ec0f1bf-e58e-4708-b3a4-d5acdbd68e16; session_id_admin=127.0.0.1-bdb47ad1-fad4-4871-a71a-f3cd8c9b7514; session_id_milo=127.0.0.1-499ea75f-9a76-4bab-a434-576b71ab192c'
p1135
asbasbasbag57
(g73
g59
NtRp1136
(dp1137
g62
(dp1138
sg71
g822
sg64
(lp1139
g57
(g78
g59
NtRp1140
(dp1141
g62
(dp1142
g82
g83
ssg71
g1136
sg64
(lp1143
S'http_host'
p1144
asbag57
(g78
g59
NtRp1145
(dp1146
g62
(dp1147
g89
g90
ssg71
g1136
sg64
(lp1148
S':'
asbag57
(g78
g59
NtRp1149
(dp1150
g62
(dp1151
sg71
g1136
sg64
(lp1152
g57
(g58
g59
NtRp1153
(dp1154
g62
(dp1155
g70
I4
ssg71
g1149
sg64
(lp1156
S'127.0.0.1:8000'
p1157
asbasbasbag57
(g73
g59
NtRp1158
(dp1159
g62
(dp1160
sg71
g822
sg64
(lp1161
g57
(g78
g59
NtRp1162
(dp1163
g62
(dp1164
g82
g83
ssg71
g1158
sg64
(lp1165
S'http_referer'
p1166
asbag57
(g78
g59
NtRp1167
(dp1168
g62
(dp1169
g89
g90
ssg71
g1158
sg64
(lp1170
S':'
asbag57
(g78
g59
NtRp1171
(dp1172
g62
(dp1173
sg71
g1158
sg64
(lp1174
g57
(g58
g59
NtRp1175
(dp1176
g62
(dp1177
g70
I4
ssg71
g1171
sg64
(lp1178
S'http://127.0.0.1:8000/milo/admin/index'
p1179
asbasbasbag57
(g73
g59
NtRp1180
(dp1181
g62
(dp1182
sg71
g822
sg64
(lp1183
g57
(g78
g59
NtRp1184
(dp1185
g62
(dp1186
g82
g83
ssg71
g1180
sg64
(lp1187
S'http_user_agent'
p1188
asbag57
(g78
g59
NtRp1189
(dp1190
g62
(dp1191
g89
g90
ssg71
g1180
sg64
(lp1192
S':'
asbag57
(g78
g59
NtRp1193
(dp1194
g62
(dp1195
sg71
g1180
sg64
(lp1196
g57
(g58
g59
NtRp1197
(dp1198
g62
(dp1199
g70
I4
ssg71
g1193
sg64
(lp1200
S'Mozilla/5.0 (X11; Linux x86_64) AppleWebKit/535.19 (KHTML, like Gecko) Ubuntu/12.04 Chromium/18.0.1025.151 Chrome/18.0.1025.151 Safari/535.19'
p1201
asbasbasbag57
(g73
g59
NtRp1202
(dp1203
g62
(dp1204
sg71
g822
sg64
(lp1205
g57
(g78
g59
NtRp1206
(dp1207
g62
(dp1208
g82
g83
ssg71
g1202
sg64
(lp1209
S'is_jython'
p1210
asbag57
(g78
g59
NtRp1211
(dp1212
g62
(dp1213
g89
g90
ssg71
g1202
sg64
(lp1214
S':'
asbag57
(g78
g59
NtRp1215
(dp1216
g62
(dp1217
sg71
g1202
sg64
(lp1218
g57
(g58
g59
NtRp1219
(dp1220
g62
(dp1221
g70
I4
ssg71
g1215
sg64
(lp1222
g100
asbasbasbag57
(g73
g59
NtRp1223
(dp1224
g62
(dp1225
sg71
g822
sg64
(lp1226
g57
(g78
g59
NtRp1227
(dp1228
g62
(dp1229
g82
g83
ssg71
g1223
sg64
(lp1230
S'is_pypy'
p1231
asbag57
(g78
g59
NtRp1232
(dp1233
g62
(dp1234
g89
g90
ssg71
g1223
sg64
(lp1235
S':'
asbag57
(g78
g59
NtRp1236
(dp1237
g62
(dp1238
sg71
g1223
sg64
(lp1239
g57
(g58
g59
NtRp1240
(dp1241
g62
(dp1242
g70
I4
ssg71
g1236
sg64
(lp1243
g100
asbasbasbag57
(g73
g59
NtRp1244
(dp1245
g62
(dp1246
sg71
g822
sg64
(lp1247
g57
(g78
g59
NtRp1248
(dp1249
g62
(dp1250
g82
g83
ssg71
g1244
sg64
(lp1251
S'path_info'
p1252
asbag57
(g78
g59
NtRp1253
(dp1254
g62
(dp1255
g89
g90
ssg71
g1244
sg64
(lp1256
S':'
asbag57
(g78
g59
NtRp1257
(dp1258
g62
(dp1259
sg71
g1244
sg64
(lp1260
g57
(g58
g59
NtRp1261
(dp1262
g62
(dp1263
g70
I4
ssg71
g1257
sg64
(lp1264
S'/milo/default/index'
p1265
asbasbasbag57
(g73
g59
NtRp1266
(dp1267
g62
(dp1268
sg71
g822
sg64
(lp1269
g57
(g78
g59
NtRp1270
(dp1271
g62
(dp1272
g82
g83
ssg71
g1266
sg64
(lp1273
S'query_string'
p1274
asbag57
(g78
g59
NtRp1275
(dp1276
g62
(dp1277
g89
g90
ssg71
g1266
sg64
(lp1278
S':'
asbag57
(g78
g59
NtRp1279
(dp1280
g62
(dp1281
sg71
g1266
sg64
(lp1282
g57
(g58
g59
NtRp1283
(dp1284
g62
(dp1285
g70
I4
ssg71
g1279
sg64
(lp1286
S''
asbasbasbag57
(g73
g59
NtRp1287
(dp1288
g62
(dp1289
sg71
g822
sg64
(lp1290
g57
(g78
g59
NtRp1291
(dp1292
g62
(dp1293
g82
g83
ssg71
g1287
sg64
(lp1294
S'remote_addr'
p1295
asbag57
(g78
g59
NtRp1296
(dp1297
g62
(dp1298
g89
g90
ssg71
g1287
sg64
(lp1299
S':'
asbag57
(g78
g59
NtRp1300
(dp1301
g62
(dp1302
sg71
g1287
sg64
(lp1303
g57
(g58
g59
NtRp1304
(dp1305
g62
(dp1306
g70
I4
ssg71
g1300
sg64
(lp1307
g190
asbasbasbag57
(g73
g59
NtRp1308
(dp1309
g62
(dp1310
sg71
g822
sg64
(lp1311
g57
(g78
g59
NtRp1312
(dp1313
g62
(dp1314
g82
g83
ssg71
g1308
sg64
(lp1315
S'remote_port'
p1316
asbag57
(g78
g59
NtRp1317
(dp1318
g62
(dp1319
g89
g90
ssg71
g1308
sg64
(lp1320
S':'
asbag57
(g78
g59
NtRp1321
(dp1322
g62
(dp1323
sg71
g1308
sg64
(lp1324
g57
(g58
g59
NtRp1325
(dp1326
g62
(dp1327
g70
I4
ssg71
g1321
sg64
(lp1328
S'50204'
p1329
asbasbasbag57
(g73
g59
NtRp1330
(dp1331
g62
(dp1332
sg71
g822
sg64
(lp1333
g57
(g78
g59
NtRp1334
(dp1335
g62
(dp1336
g82
g83
ssg71
g1330
sg64
(lp1337
S'request_method'
p1338
asbag57
(g78
g59
NtRp1339
(dp1340
g62
(dp1341
g89
g90
ssg71
g1330
sg64
(lp1342
S':'
asbag57
(g78
g59
NtRp1343
(dp1344
g62
(dp1345
sg71
g1330
sg64
(lp1346
g57
(g58
g59
NtRp1347
(dp1348
g62
(dp1349
g70
I4
ssg71
g1343
sg64
(lp1350
S'GET'
p1351
asbasbasbag57
(g73
g59
NtRp1352
(dp1353
g62
(dp1354
sg71
g822
sg64
(lp1355
g57
(g78
g59
NtRp1356
(dp1357
g62
(dp1358
g82
g83
ssg71
g1352
sg64
(lp1359
S'request_uri'
p1360
asbag57
(g78
g59
NtRp1361
(dp1362
g62
(dp1363
g89
g90
ssg71
g1352
sg64
(lp1364
S':'
asbag57
(g78
g59
NtRp1365
(dp1366
g62
(dp1367
sg71
g1352
sg64
(lp1368
g57
(g58
g59
NtRp1369
(dp1370
g62
(dp1371
g70
I4
ssg71
g1365
sg64
(lp1372
g1265
asbasbasbag57
(g73
g59
NtRp1373
(dp1374
g62
(dp1375
sg71
g822
sg64
(lp1376
g57
(g78
g59
NtRp1377
(dp1378
g62
(dp1379
g82
g83
ssg71
g1373
sg64
(lp1380
S'script_name'
p1381
asbag57
(g78
g59
NtRp1382
(dp1383
g62
(dp1384
g89
g90
ssg71
g1373
sg64
(lp1385
S':'
asbag57
(g78
g59
NtRp1386
(dp1387
g62
(dp1388
sg71
g1373
sg64
(lp1389
g57
(g58
g59
NtRp1390
(dp1391
g62
(dp1392
g70
I4
ssg71
g1386
sg64
(lp1393
S''
asbasbasbag57
(g73
g59
NtRp1394
(dp1395
g62
(dp1396
sg71
g822
sg64
(lp1397
g57
(g78
g59
NtRp1398
(dp1399
g62
(dp1400
g82
g83
ssg71
g1394
sg64
(lp1401
S'server_name'
p1402
asbag57
(g78
g59
NtRp1403
(dp1404
g62
(dp1405
g89
g90
ssg71
g1394
sg64
(lp1406
S':'
asbag57
(g78
g59
NtRp1407
(dp1408
g62
(dp1409
sg71
g1394
sg64
(lp1410
g57
(g58
g59
NtRp1411
(dp1412
g62
(dp1413
g70
I4
ssg71
g1407
sg64
(lp1414
S'whisperer'
p1415
asbasbasbag57
(g73
g59
NtRp1416
(dp1417
g62
(dp1418
sg71
g822
sg64
(lp1419
g57
(g78
g59
NtRp1420
(dp1421
g62
(dp1422
g82
g83
ssg71
g1416
sg64
(lp1423
S'server_port'
p1424
asbag57
(g78
g59
NtRp1425
(dp1426
g62
(dp1427
g89
g90
ssg71
g1416
sg64
(lp1428
S':'
asbag57
(g78
g59
NtRp1429
(dp1430
g62
(dp1431
sg71
g1416
sg64
(lp1432
g57
(g58
g59
NtRp1433
(dp1434
g62
(dp1435
g70
I4
ssg71
g1429
sg64
(lp1436
S'8000'
p1437
asbasbasbag57
(g73
g59
NtRp1438
(dp1439
g62
(dp1440
sg71
g822
sg64
(lp1441
g57
(g78
g59
NtRp1442
(dp1443
g62
(dp1444
g82
g83
ssg71
g1438
sg64
(lp1445
S'server_protocol'
p1446
asbag57
(g78
g59
NtRp1447
(dp1448
g62
(dp1449
g89
g90
ssg71
g1438
sg64
(lp1450
S':'
asbag57
(g78
g59
NtRp1451
(dp1452
g62
(dp1453
sg71
g1438
sg64
(lp1454
g57
(g58
g59
NtRp1455
(dp1456
g62
(dp1457
g70
I4
ssg71
g1451
sg64
(lp1458
S'HTTP/1.1'
p1459
asbasbasbag57
(g73
g59
NtRp1460
(dp1461
g62
(dp1462
sg71
g822
sg64
(lp1463
g57
(g78
g59
NtRp1464
(dp1465
g62
(dp1466
g82
g83
ssg71
g1460
sg64
(lp1467
S'server_software'
p1468
asbag57
(g78
g59
NtRp1469
(dp1470
g62
(dp1471
g89
g90
ssg71
g1460
sg64
(lp1472
S':'
asbag57
(g78
g59
NtRp1473
(dp1474
g62
(dp1475
sg71
g1460
sg64
(lp1476
g57
(g58
g59
NtRp1477
(dp1478
g62
(dp1479
g70
I4
ssg71
g1473
sg64
(lp1480
S'Rocket 1.2.4'
p1481
asbasbasbag57
(g73
g59
NtRp1482
(dp1483
g62
(dp1484
sg71
g822
sg64
(lp1485
g57
(g78
g59
NtRp1486
(dp1487
g62
(dp1488
g82
g83
ssg71
g1482
sg64
(lp1489
S'web2py_crontype'
p1490
asbag57
(g78
g59
NtRp1491
(dp1492
g62
(dp1493
g89
g90
ssg71
g1482
sg64
(lp1494
S':'
asbag57
(g78
g59
NtRp1495
(dp1496
g62
(dp1497
sg71
g1482
sg64
(lp1498
g57
(g58
g59
NtRp1499
(dp1500
g62
(dp1501
g70
I4
ssg71
g1495
sg64
(lp1502
S'hard'
p1503
asbasbasbag57
(g73
g59
NtRp1504
(dp1505
g62
(dp1506
sg71
g822
sg64
(lp1507
g57
(g78
g59
NtRp1508
(dp1509
g62
(dp1510
g82
g83
ssg71
g1504
sg64
(lp1511
S'web2py_original_uri'
p1512
asbag57
(g78
g59
NtRp1513
(dp1514
g62
(dp1515
g89
g90
ssg71
g1504
sg64
(lp1516
S':'
asbag57
(g78
g59
NtRp1517
(dp1518
g62
(dp1519
sg71
g1504
sg64
(lp1520
g57
(g58
g59
NtRp1521
(dp1522
g62
(dp1523
g70
I4
ssg71
g1517
sg64
(lp1524
g1265
asbasbasbag57
(g73
g59
NtRp1525
(dp1526
g62
(dp1527
sg71
g822
sg64
(lp1528
g57
(g78
g59
NtRp1529
(dp1530
g62
(dp1531
g82
g83
ssg71
g1525
sg64
(lp1532
S'web2py_path'
p1533
asbag57
(g78
g59
NtRp1534
(dp1535
g62
(dp1536
g89
g90
ssg71
g1525
sg64
(lp1537
S':'
asbag57
(g78
g59
NtRp1538
(dp1539
g62
(dp1540
sg71
g1525
sg64
(lp1541
g57
(g58
g59
NtRp1542
(dp1543
g62
(dp1544
g70
I4
ssg71
g1538
sg64
(lp1545
g869
asbasbasbag57
(g73
g59
NtRp1546
(dp1547
g62
(dp1548
sg71
g822
sg64
(lp1549
g57
(g78
g59
NtRp1550
(dp1551
g62
(dp1552
g82
g83
ssg71
g1546
sg64
(lp1553
S'web2py_version'
p1554
asbag57
(g78
g59
NtRp1555
(dp1556
g62
(dp1557
g89
g90
ssg71
g1546
sg64
(lp1558
S':'
asbag57
(g78
g59
NtRp1559
(dp1560
g62
(dp1561
sg71
g1546
sg64
(lp1562
g57
(g58
g59
NtRp1563
(dp1564
g62
(dp1565
g70
I4
ssg71
g1559
sg64
(lp1566
g57
(g66
g59
NtRp1567
(dp1568
g62
(dp1569
g70
I3
ssg71
Nsg64
(lp1570
g57
(g73
g59
NtRp1571
(dp1572
g62
(dp1573
sg71
g1567
sg64
(lp1574
g57
(g78
g59
NtRp1575
(dp1576
g62
(dp1577
sg71
g1571
sg64
(lp1578
g57
(g58
g59
NtRp1579
(dp1580
g62
(dp1581
g70
I3
ssg71
g1575
sg64
(lp1582
S'1'
asbasbasbag57
(g73
g59
NtRp1583
(dp1584
g62
(dp1585
sg71
g1567
sg64
(lp1586
g57
(g78
g59
NtRp1587
(dp1588
g62
(dp1589
sg71
g1583
sg64
(lp1590
g57
(g58
g59
NtRp1591
(dp1592
g62
(dp1593
g70
I3
ssg71
g1587
sg64
(lp1594
S'99'
p1595
asbasbasbag57
(g73
g59
NtRp1596
(dp1597
g62
(dp1598
sg71
g1567
sg64
(lp1599
g57
(g78
g59
NtRp1600
(dp1601
g62
(dp1602
sg71
g1596
sg64
(lp1603
g57
(g58
g59
NtRp1604
(dp1605
g62
(dp1606
g70
I3
ssg71
g1600
sg64
(lp1607
S'7'
asbasbasbag57
(g73
g59
NtRp1608
(dp1609
g62
(dp1610
sg71
g1567
sg64
(lp1611
g57
(g78
g59
NtRp1612
(dp1613
g62
(dp1614
sg71
g1608
sg64
(lp1615
g57
(g58
g59
NtRp1616
(dp1617
g62
(dp1618
g70
I3
ssg71
g1612
sg64
(lp1619
S'datetime.datetime(2012, 3, 4, 22, 12, 8)'
p1620
asbasbasbag57
(g73
g59
NtRp1621
(dp1622
g62
(dp1623
sg71
g1567
sg64
(lp1624
g57
(g78
g59
NtRp1625
(dp1626
g62
(dp1627
sg71
g1621
sg64
(lp1628
g57
(g58
g59
NtRp1629
(dp1630
g62
(dp1631
g70
I3
ssg71
g1625
sg64
(lp1632
S'stable'
p1633
asbasbasbasbasbasbasbag57
(g73
g59
NtRp1634
(dp1635
g62
(dp1636
sg71
g822
sg64
(lp1637
g57
(g78
g59
NtRp1638
(dp1639
g62
(dp1640
g82
g83
ssg71
g1634
sg64
(lp1641
S'wsgi_errors'
p1642
asbag57
(g78
g59
NtRp1643
(dp1644
g62
(dp1645
g89
g90
ssg71
g1634
sg64
(lp1646
S':'
asbag57
(g78
g59
NtRp1647
(dp1648
g62
(dp1649
sg71
g1634
sg64
(lp1650
g57
(g58
g59
NtRp1651
(dp1652
g62
(dp1653
g70
I4
ssg71
g1647
sg64
(lp1654
S"<open file '<stderr>', mode 'w' at 0x7f290013c270>"
p1655
asbasbasbag57
(g73
g59
NtRp1656
(dp1657
g62
(dp1658
sg71
g822
sg64
(lp1659
g57
(g78
g59
NtRp1660
(dp1661
g62
(dp1662
g82
g83
ssg71
g1656
sg64
(lp1663
S'wsgi_file_wrapper'
p1664
asbag57
(g78
g59
NtRp1665
(dp1666
g62
(dp1667
g89
g90
ssg71
g1656
sg64
(lp1668
S':'
asbag57
(g78
g59
NtRp1669
(dp1670
g62
(dp1671
sg71
g1656
sg64
(lp1672
g57
(g58
g59
NtRp1673
(dp1674
g62
(dp1675
g70
I4
ssg71
g1669
sg64
(lp1676
S'<class wsgiref.util.FileWrapper at 0x1dd2f58>'
p1677
asbasbasbag57
(g73
g59
NtRp1678
(dp1679
g62
(dp1680
sg71
g822
sg64
(lp1681
g57
(g78
g59
NtRp1682
(dp1683
g62
(dp1684
g82
g83
ssg71
g1678
sg64
(lp1685
S'wsgi_input'
p1686
asbag57
(g78
g59
NtRp1687
(dp1688
g62
(dp1689
g89
g90
ssg71
g1678
sg64
(lp1690
S':'
asbag57
(g78
g59
NtRp1691
(dp1692
g62
(dp1693
sg71
g1678
sg64
(lp1694
g57
(g58
g59
NtRp1695
(dp1696
g62
(dp1697
g70
I4
ssg71
g1691
sg64
(lp1698
S'<socket._fileobject object at 0x7f28ec8e80d0>'
p1699
asbasbasbag57
(g73
g59
NtRp1700
(dp1701
g62
(dp1702
sg71
g822
sg64
(lp1703
g57
(g78
g59
NtRp1704
(dp1705
g62
(dp1706
g82
g83
ssg71
g1700
sg64
(lp1707
S'wsgi_multiprocess'
p1708
asbag57
(g78
g59
NtRp1709
(dp1710
g62
(dp1711
g89
g90
ssg71
g1700
sg64
(lp1712
S':'
asbag57
(g78
g59
NtRp1713
(dp1714
g62
(dp1715
sg71
g1700
sg64
(lp1716
g57
(g58
g59
NtRp1717
(dp1718
g62
(dp1719
g70
I4
ssg71
g1713
sg64
(lp1720
g100
asbasbasbag57
(g73
g59
NtRp1721
(dp1722
g62
(dp1723
sg71
g822
sg64
(lp1724
g57
(g78
g59
NtRp1725
(dp1726
g62
(dp1727
g82
g83
ssg71
g1721
sg64
(lp1728
S'wsgi_multithread'
p1729
asbag57
(g78
g59
NtRp1730
(dp1731
g62
(dp1732
g89
g90
ssg71
g1721
sg64
(lp1733
S':'
asbag57
(g78
g59
NtRp1734
(dp1735
g62
(dp1736
sg71
g1721
sg64
(lp1737
g57
(g58
g59
NtRp1738
(dp1739
g62
(dp1740
g70
I4
ssg71
g1734
sg64
(lp1741
S'True'
p1742
asbasbasbag57
(g73
g59
NtRp1743
(dp1744
g62
(dp1745
sg71
g822
sg64
(lp1746
g57
(g78
g59
NtRp1747
(dp1748
g62
(dp1749
g82
g83
ssg71
g1743
sg64
(lp1750
S'wsgi_run_once'
p1751
asbag57
(g78
g59
NtRp1752
(dp1753
g62
(dp1754
g89
g90
ssg71
g1743
sg64
(lp1755
S':'
asbag57
(g78
g59
NtRp1756
(dp1757
g62
(dp1758
sg71
g1743
sg64
(lp1759
g57
(g58
g59
NtRp1760
(dp1761
g62
(dp1762
g70
I4
ssg71
g1756
sg64
(lp1763
g100
asbasbasbag57
(g73
g59
NtRp1764
(dp1765
g62
(dp1766
sg71
g822
sg64
(lp1767
g57
(g78
g59
NtRp1768
(dp1769
g62
(dp1770
g82
g83
ssg71
g1764
sg64
(lp1771
S'wsgi_url_scheme'
p1772
asbag57
(g78
g59
NtRp1773
(dp1774
g62
(dp1775
g89
g90
ssg71
g1764
sg64
(lp1776
S':'
asbag57
(g78
g59
NtRp1777
(dp1778
g62
(dp1779
sg71
g1764
sg64
(lp1780
g57
(g58
g59
NtRp1781
(dp1782
g62
(dp1783
g70
I4
ssg71
g1777
sg64
(lp1784
S'http'
p1785
asbasbasbag57
(g73
g59
NtRp1786
(dp1787
g62
(dp1788
sg71
g822
sg64
(lp1789
g57
(g78
g59
NtRp1790
(dp1791
g62
(dp1792
g82
g83
ssg71
g1786
sg64
(lp1793
S'wsgi_version'
p1794
asbag57
(g78
g59
NtRp1795
(dp1796
g62
(dp1797
g89
g90
ssg71
g1786
sg64
(lp1798
S':'
asbag57
(g78
g59
NtRp1799
(dp1800
g62
(dp1801
sg71
g1786
sg64
(lp1802
g57
(g58
g59
NtRp1803
(dp1804
g62
(dp1805
g70
I4
ssg71
g1799
sg64
(lp1806
g57
(g66
g59
NtRp1807
(dp1808
g62
(dp1809
g70
I3
ssg71
Nsg64
(lp1810
g57
(g73
g59
NtRp1811
(dp1812
g62
(dp1813
sg71
g1807
sg64
(lp1814
g57
(g78
g59
NtRp1815
(dp1816
g62
(dp1817
sg71
g1811
sg64
(lp1818
g57
(g58
g59
NtRp1819
(dp1820
g62
(dp1821
g70
I3
ssg71
g1815
sg64
(lp1822
S'1'
asbasbasbag57
(g73
g59
NtRp1823
(dp1824
g62
(dp1825
sg71
g1807
sg64
(lp1826
g57
(g78
g59
NtRp1827
(dp1828
g62
(dp1829
sg71
g1823
sg64
(lp1830
g57
(g58
g59
NtRp1831
(dp1832
g62
(dp1833
g70
I3
ssg71
g1827
sg64
(lp1834
S'0'
asbasbasbasbasbasbasbasbasbasbasbag57
(g73
g59
NtRp1835
(dp1836
g62
(dp1837
sg71
g67
sg64
(lp1838
g57
(g78
g59
NtRp1839
(dp1840
g62
(dp1841
g82
g83
ssg71
g1835
sg64
(lp1842
S'extension'
p1843
asbag57
(g78
g59
NtRp1844
(dp1845
g62
(dp1846
g89
g90
ssg71
g1835
sg64
(lp1847
S':'
asbag57
(g78
g59
NtRp1848
(dp1849
g62
(dp1850
sg71
g1835
sg64
(lp1851
g57
(g58
g59
NtRp1852
(dp1853
g62
(dp1854
g70
I5
ssg71
g1848
sg64
(lp1855
S'html'
p1856
asbasbasbag57
(g73
g59
NtRp1857
(dp1858
g62
(dp1859
sg71
g67
sg64
(lp1860
g57
(g78
g59
NtRp1861
(dp1862
g62
(dp1863
g82
g83
ssg71
g1857
sg64
(lp1864
S'folder'
p1865
asbag57
(g78
g59
NtRp1866
(dp1867
g62
(dp1868
g89
g90
ssg71
g1857
sg64
(lp1869
S':'
asbag57
(g78
g59
NtRp1870
(dp1871
g62
(dp1872
sg71
g1857
sg64
(lp1873
g57
(g58
g59
NtRp1874
(dp1875
g62
(dp1876
g70
I5
ssg71
g1870
sg64
(lp1877
S'/home/goshawk/web2py/applications/milo/'
p1878
asbasbasbag57
(g73
g59
NtRp1879
(dp1880
g62
(dp1881
sg71
g67
sg64
(lp1882
g57
(g78
g59
NtRp1883
(dp1884
g62
(dp1885
g82
g83
ssg71
g1879
sg64
(lp1886
S'function'
p1887
asbag57
(g78
g59
NtRp1888
(dp1889
g62
(dp1890
g89
g90
ssg71
g1879
sg64
(lp1891
S':'
asbag57
(g78
g59
NtRp1892
(dp1893
g62
(dp1894
sg71
g1879
sg64
(lp1895
g57
(g58
g59
NtRp1896
(dp1897
g62
(dp1898
g70
I5
ssg71
g1892
sg64
(lp1899
S'index'
p1900
asbasbasbag57
(g73
g59
NtRp1901
(dp1902
g62
(dp1903
sg71
g67
sg64
(lp1904
g57
(g78
g59
NtRp1905
(dp1906
g62
(dp1907
g82
g83
ssg71
g1901
sg64
(lp1908
S'get_vars'
p1909
asbag57
(g78
g59
NtRp1910
(dp1911
g62
(dp1912
g89
g90
ssg71
g1901
sg64
(lp1913
S':'
asbag57
(g78
g59
NtRp1914
(dp1915
g62
(dp1916
sg71
g1901
sg64
(lp1917
g57
(g58
g59
NtRp1918
(dp1919
g62
(dp1920
g70
I5
ssg71
g1914
sg64
(lp1921
g57
(g66
g59
NtRp1922
(dp1923
g62
(dp1924
g70
I4
ssg71
Nsg64
(lp1925
sbasbasbasbag57
(g73
g59
NtRp1926
(dp1927
g62
(dp1928
sg71
g67
sg64
(lp1929
g57
(g78
g59
NtRp1930
(dp1931
g62
(dp1932
g82
g83
ssg71
g1926
sg64
(lp1933
S'global_settings'
p1934
asbag57
(g78
g59
NtRp1935
(dp1936
g62
(dp1937
g89
g90
ssg71
g1926
sg64
(lp1938
S':'
asbag57
(g78
g59
NtRp1939
(dp1940
g62
(dp1941
sg71
g1926
sg64
(lp1942
g57
(g58
g59
NtRp1943
(dp1944
g62
(dp1945
g70
I5
ssg71
g1939
sg64
(lp1946
g57
(g66
g59
NtRp1947
(dp1948
g62
(dp1949
g70
I4
ssg71
Nsg64
(lp1950
g57
(g73
g59
NtRp1951
(dp1952
g62
(dp1953
sg71
g1947
sg64
(lp1954
g57
(g78
g59
NtRp1955
(dp1956
g62
(dp1957
g82
g83
ssg71
g1951
sg64
(lp1958
g834
asbag57
(g78
g59
NtRp1959
(dp1960
g62
(dp1961
g89
g90
ssg71
g1951
sg64
(lp1962
S':'
asbag57
(g78
g59
NtRp1963
(dp1964
g62
(dp1965
sg71
g1951
sg64
(lp1966
g57
(g58
g59
NtRp1967
(dp1968
g62
(dp1969
g70
I4
ssg71
g1963
sg64
(lp1970
S"set(['/home/goshawk/web2py/applications/milo_admin/', '/home/goshawk/web2py/applications/milo/', '/home/goshawk/web2py/applications/admin/'])"
p1971
asbasbasbag57
(g73
g59
NtRp1972
(dp1973
g62
(dp1974
sg71
g1947
sg64
(lp1975
g57
(g78
g59
NtRp1976
(dp1977
g62
(dp1978
g82
g83
ssg71
g1972
sg64
(lp1979
g856
asbag57
(g78
g59
NtRp1980
(dp1981
g62
(dp1982
g89
g90
ssg71
g1972
sg64
(lp1983
S':'
asbag57
(g78
g59
NtRp1984
(dp1985
g62
(dp1986
sg71
g1972
sg64
(lp1987
g57
(g58
g59
NtRp1988
(dp1989
g62
(dp1990
g70
I4
ssg71
g1984
sg64
(lp1991
g869
asbasbasbag57
(g73
g59
NtRp1992
(dp1993
g62
(dp1994
sg71
g1947
sg64
(lp1995
g57
(g78
g59
NtRp1996
(dp1997
g62
(dp1998
g82
g83
ssg71
g1992
sg64
(lp1999
g878
asbag57
(g78
g59
NtRp2000
(dp2001
g62
(dp2002
g89
g90
ssg71
g1992
sg64
(lp2003
S':'
asbag57
(g78
g59
NtRp2004
(dp2005
g62
(dp2006
sg71
g1992
sg64
(lp2007
g57
(g58
g59
NtRp2008
(dp2009
g62
(dp2010
g70
I4
ssg71
g2004
sg64
(lp2011
g57
(g66
g59
NtRp2012
(dp2013
g62
(dp2014
g70
I3
ssg71
Nsg64
(lp2015
sbasbasbasbag57
(g73
g59
NtRp2016
(dp2017
g62
(dp2018
sg71
g1947
sg64
(lp2019
g57
(g78
g59
NtRp2020
(dp2021
g62
(dp2022
g82
g83
ssg71
g2016
sg64
(lp2023
g903
asbag57
(g78
g59
NtRp2024
(dp2025
g62
(dp2026
g89
g90
ssg71
g2016
sg64
(lp2027
S':'
asbag57
(g78
g59
NtRp2028
(dp2029
g62
(dp2030
sg71
g2016
sg64
(lp2031
g57
(g58
g59
NtRp2032
(dp2033
g62
(dp2034
g70
I4
ssg71
g2028
sg64
(lp2035
S"<Values at 0x1ea70e0: {'verbose': False, 'ip': '127.0.0.1', 'shutdown_timeout': 5, 'taskbar': False, 'nocron': False, 'pid_filename': 'httpserver.pid', 'maxthreads': None, 'softcron': False, 'server_name': 'whisperer', 'bpython': False, 'nogui': False, 'port': 8000, 'extcron': False, 'debuglevel': 30, 'test': None, 'folder': '/home/goshawk/web2py', 'config': '', 'import_models': False, 'winservice': '', 'shell': None, 'run': '', 'log_filename': 'httpserver.log', 'args': [''], 'socket_timeout': 5, 'ssl_ca_certificate': None, 'scheduler': None, 'profiler_filename': None, 'ssl_private_key': '', 'password': 'admin', 'request_queue_size': 5, 'ssl_certificate': '', 'cronjob': False, 'numthreads': None, 'quiet': False, 'interfaces': None, 'minthreads': None, 'timeout': 10, 'plain': False, 'nobanner': False}>"
p2036
asbasbasbag57
(g73
g59
NtRp2037
(dp2038
g62
(dp2039
sg71
g1947
sg64
(lp2040
g57
(g78
g59
NtRp2041
(dp2042
g62
(dp2043
g82
g83
ssg71
g2037
sg64
(lp2044
g925
asbag57
(g78
g59
NtRp2045
(dp2046
g62
(dp2047
g89
g90
ssg71
g2037
sg64
(lp2048
S':'
asbag57
(g78
g59
NtRp2049
(dp2050
g62
(dp2051
sg71
g2037
sg64
(lp2052
g57
(g58
g59
NtRp2053
(dp2054
g62
(dp2055
g70
I4
ssg71
g2049
sg64
(lp2056
S'set([])'
p2057
asbasbasbag57
(g73
g59
NtRp2058
(dp2059
g62
(dp2060
sg71
g1947
sg64
(lp2061
g57
(g78
g59
NtRp2062
(dp2063
g62
(dp2064
g82
g83
ssg71
g2058
sg64
(lp2065
g947
asbag57
(g78
g59
NtRp2066
(dp2067
g62
(dp2068
g89
g90
ssg71
g2058
sg64
(lp2069
S':'
asbag57
(g78
g59
NtRp2070
(dp2071
g62
(dp2072
sg71
g2058
sg64
(lp2073
g57
(g58
g59
NtRp2074
(dp2075
g62
(dp2076
g70
I4
ssg71
g2070
sg64
(lp2077
g100
asbasbasbag57
(g73
g59
NtRp2078
(dp2079
g62
(dp2080
sg71
g1947
sg64
(lp2081
g57
(g78
g59
NtRp2082
(dp2083
g62
(dp2084
g82
g83
ssg71
g2078
sg64
(lp2085
g968
asbag57
(g78
g59
NtRp2086
(dp2087
g62
(dp2088
g89
g90
ssg71
g2078
sg64
(lp2089
S':'
asbag57
(g78
g59
NtRp2090
(dp2091
g62
(dp2092
sg71
g2078
sg64
(lp2093
g57
(g58
g59
NtRp2094
(dp2095
g62
(dp2096
g70
I4
ssg71
g2090
sg64
(lp2097
g981
asbasbasbag57
(g73
g59
NtRp2098
(dp2099
g62
(dp2100
sg71
g1947
sg64
(lp2101
g57
(g78
g59
NtRp2102
(dp2103
g62
(dp2104
g82
g83
ssg71
g2098
sg64
(lp2105
g1210
asbag57
(g78
g59
NtRp2106
(dp2107
g62
(dp2108
g89
g90
ssg71
g2098
sg64
(lp2109
S':'
asbag57
(g78
g59
NtRp2110
(dp2111
g62
(dp2112
sg71
g2098
sg64
(lp2113
g57
(g58
g59
NtRp2114
(dp2115
g62
(dp2116
g70
I4
ssg71
g2110
sg64
(lp2117
g100
asbasbasbag57
(g73
g59
NtRp2118
(dp2119
g62
(dp2120
sg71
g1947
sg64
(lp2121
g57
(g78
g59
NtRp2122
(dp2123
g62
(dp2124
g82
g83
ssg71
g2118
sg64
(lp2125
g1231
asbag57
(g78
g59
NtRp2126
(dp2127
g62
(dp2128
g89
g90
ssg71
g2118
sg64
(lp2129
S':'
asbag57
(g78
g59
NtRp2130
(dp2131
g62
(dp2132
sg71
g2118
sg64
(lp2133
g57
(g58
g59
NtRp2134
(dp2135
g62
(dp2136
g70
I4
ssg71
g2130
sg64
(lp2137
g100
asbasbasbag57
(g73
g59
NtRp2138
(dp2139
g62
(dp2140
sg71
g1947
sg64
(lp2141
g57
(g78
g59
NtRp2142
(dp2143
g62
(dp2144
g82
g83
ssg71
g2138
sg64
(lp2145
g1490
asbag57
(g78
g59
NtRp2146
(dp2147
g62
(dp2148
g89
g90
ssg71
g2138
sg64
(lp2149
S':'
asbag57
(g78
g59
NtRp2150
(dp2151
g62
(dp2152
sg71
g2138
sg64
(lp2153
g57
(g58
g59
NtRp2154
(dp2155
g62
(dp2156
g70
I4
ssg71
g2150
sg64
(lp2157
g1503
asbasbasbag57
(g73
g59
NtRp2158
(dp2159
g62
(dp2160
sg71
g1947
sg64
(lp2161
g57
(g78
g59
NtRp2162
(dp2163
g62
(dp2164
g82
g83
ssg71
g2158
sg64
(lp2165
g1554
asbag57
(g78
g59
NtRp2166
(dp2167
g62
(dp2168
g89
g90
ssg71
g2158
sg64
(lp2169
S':'
asbag57
(g78
g59
NtRp2170
(dp2171
g62
(dp2172
sg71
g2158
sg64
(lp2173
g57
(g58
g59
NtRp2174
(dp2175
g62
(dp2176
g70
I4
ssg71
g2170
sg64
(lp2177
g57
(g66
g59
NtRp2178
(dp2179
g62
(dp2180
g70
I3
ssg71
Nsg64
(lp2181
g57
(g73
g59
NtRp2182
(dp2183
g62
(dp2184
sg71
g2178
sg64
(lp2185
g57
(g78
g59
NtRp2186
(dp2187
g62
(dp2188
sg71
g2182
sg64
(lp2189
g57
(g58
g59
NtRp2190
(dp2191
g62
(dp2192
g70
I3
ssg71
g2186
sg64
(lp2193
S'1'
asbasbasbag57
(g73
g59
NtRp2194
(dp2195
g62
(dp2196
sg71
g2178
sg64
(lp2197
g57
(g78
g59
NtRp2198
(dp2199
g62
(dp2200
sg71
g2194
sg64
(lp2201
g57
(g58
g59
NtRp2202
(dp2203
g62
(dp2204
g70
I3
ssg71
g2198
sg64
(lp2205
S'99'
p2206
asbasbasbag57
(g73
g59
NtRp2207
(dp2208
g62
(dp2209
sg71
g2178
sg64
(lp2210
g57
(g78
g59
NtRp2211
(dp2212
g62
(dp2213
sg71
g2207
sg64
(lp2214
g57
(g58
g59
NtRp2215
(dp2216
g62
(dp2217
g70
I3
ssg71
g2211
sg64
(lp2218
S'7'
asbasbasbag57
(g73
g59
NtRp2219
(dp2220
g62
(dp2221
sg71
g2178
sg64
(lp2222
g57
(g78
g59
NtRp2223
(dp2224
g62
(dp2225
sg71
g2219
sg64
(lp2226
g57
(g58
g59
NtRp2227
(dp2228
g62
(dp2229
g70
I3
ssg71
g2223
sg64
(lp2230
S'datetime.datetime(2012, 3, 4, 22, 12, 8)'
p2231
asbasbasbag57
(g73
g59
NtRp2232
(dp2233
g62
(dp2234
sg71
g2178
sg64
(lp2235
g57
(g78
g59
NtRp2236
(dp2237
g62
(dp2238
sg71
g2232
sg64
(lp2239
g57
(g58
g59
NtRp2240
(dp2241
g62
(dp2242
g70
I3
ssg71
g2236
sg64
(lp2243
g1633
asbasbasbasbasbasbasbasbasbasbasbag57
(g73
g59
NtRp2244
(dp2245
g62
(dp2246
sg71
g67
sg64
(lp2247
g57
(g78
g59
NtRp2248
(dp2249
g62
(dp2250
g82
g83
ssg71
g2244
sg64
(lp2251
S'is_https'
p2252
asbag57
(g78
g59
NtRp2253
(dp2254
g62
(dp2255
g89
g90
ssg71
g2244
sg64
(lp2256
S':'
asbag57
(g78
g59
NtRp2257
(dp2258
g62
(dp2259
sg71
g2244
sg64
(lp2260
g57
(g58
g59
NtRp2261
(dp2262
g62
(dp2263
g70
I5
ssg71
g2257
sg64
(lp2264
g100
asbasbasbag57
(g73
g59
NtRp2265
(dp2266
g62
(dp2267
sg71
g67
sg64
(lp2268
g57
(g78
g59
NtRp2269
(dp2270
g62
(dp2271
g82
g83
ssg71
g2265
sg64
(lp2272
S'is_local'
p2273
asbag57
(g78
g59
NtRp2274
(dp2275
g62
(dp2276
g89
g90
ssg71
g2265
sg64
(lp2277
S':'
asbag57
(g78
g59
NtRp2278
(dp2279
g62
(dp2280
sg71
g2265
sg64
(lp2281
g57
(g58
g59
NtRp2282
(dp2283
g62
(dp2284
g70
I5
ssg71
g2278
sg64
(lp2285
g1742
asbasbasbag57
(g73
g59
NtRp2286
(dp2287
g62
(dp2288
sg71
g67
sg64
(lp2289
g57
(g78
g59
NtRp2290
(dp2291
g62
(dp2292
g82
g83
ssg71
g2286
sg64
(lp2293
S'is_restful'
p2294
asbag57
(g78
g59
NtRp2295
(dp2296
g62
(dp2297
g89
g90
ssg71
g2286
sg64
(lp2298
S':'
asbag57
(g78
g59
NtRp2299
(dp2300
g62
(dp2301
sg71
g2286
sg64
(lp2302
g57
(g58
g59
NtRp2303
(dp2304
g62
(dp2305
g70
I5
ssg71
g2299
sg64
(lp2306
g100
asbasbasbag57
(g73
g59
NtRp2307
(dp2308
g62
(dp2309
sg71
g67
sg64
(lp2310
g57
(g78
g59
NtRp2311
(dp2312
g62
(dp2313
g82
g83
ssg71
g2307
sg64
(lp2314
S'now'
p2315
asbag57
(g78
g59
NtRp2316
(dp2317
g62
(dp2318
g89
g90
ssg71
g2307
sg64
(lp2319
S':'
asbag57
(g78
g59
NtRp2320
(dp2321
g62
(dp2322
sg71
g2307
sg64
(lp2323
g57
(g58
g59
NtRp2324
(dp2325
g62
(dp2326
g70
I5
ssg71
g2320
sg64
(lp2327
S'datetime.datetime(2012, 6, 18, 1, 9, 1, 857627)'
p2328
asbasbasbag57
(g73
g59
NtRp2329
(dp2330
g62
(dp2331
sg71
g67
sg64
(lp2332
g57
(g78
g59
NtRp2333
(dp2334
g62
(dp2335
g82
g83
ssg71
g2329
sg64
(lp2336
S'post_vars'
p2337
asbag57
(g78
g59
NtRp2338
(dp2339
g62
(dp2340
g89
g90
ssg71
g2329
sg64
(lp2341
S':'
asbag57
(g78
g59
NtRp2342
(dp2343
g62
(dp2344
sg71
g2329
sg64
(lp2345
g57
(g58
g59
NtRp2346
(dp2347
g62
(dp2348
g70
I5
ssg71
g2342
sg64
(lp2349
g57
(g66
g59
NtRp2350
(dp2351
g62
(dp2352
g70
I4
ssg71
Nsg64
(lp2353
sbasbasbasbag57
(g73
g59
NtRp2354
(dp2355
g62
(dp2356
sg71
g67
sg64
(lp2357
g57
(g78
g59
NtRp2358
(dp2359
g62
(dp2360
g82
g83
ssg71
g2354
sg64
(lp2361
S'url'
p2362
asbag57
(g78
g59
NtRp2363
(dp2364
g62
(dp2365
g89
g90
ssg71
g2354
sg64
(lp2366
S':'
asbag57
(g78
g59
NtRp2367
(dp2368
g62
(dp2369
sg71
g2354
sg64
(lp2370
g57
(g58
g59
NtRp2371
(dp2372
g62
(dp2373
g70
I5
ssg71
g2367
sg64
(lp2374
S'/milo/default/index'
p2375
asbasbasbag57
(g73
g59
NtRp2376
(dp2377
g62
(dp2378
sg71
g67
sg64
(lp2379
g57
(g78
g59
NtRp2380
(dp2381
g62
(dp2382
g82
g83
ssg71
g2376
sg64
(lp2383
S'utcnow'
p2384
asbag57
(g78
g59
NtRp2385
(dp2386
g62
(dp2387
g89
g90
ssg71
g2376
sg64
(lp2388
S':'
asbag57
(g78
g59
NtRp2389
(dp2390
g62
(dp2391
sg71
g2376
sg64
(lp2392
g57
(g58
g59
NtRp2393
(dp2394
g62
(dp2395
g70
I5
ssg71
g2389
sg64
(lp2396
S'datetime.datetime(2012, 6, 17, 23, 9, 1, 857653)'
p2397
asbasbasbag57
(g73
g59
NtRp2398
(dp2399
g62
(dp2400
sg71
g67
sg64
(lp2401
g57
(g78
g59
NtRp2402
(dp2403
g62
(dp2404
g82
g83
ssg71
g2398
sg64
(lp2405
S'uuid'
p2406
asbag57
(g78
g59
NtRp2407
(dp2408
g62
(dp2409
g89
g90
ssg71
g2398
sg64
(lp2410
S':'
asbag57
(g78
g59
NtRp2411
(dp2412
g62
(dp2413
sg71
g2398
sg64
(lp2414
g57
(g58
g59
NtRp2415
(dp2416
g62
(dp2417
g70
I5
ssg71
g2411
sg64
(lp2418
S'milo/127.0.0.1.2012-06-18.01-09-01.6864a3a9-8fb4-4e39-b5fc-c9dc6d21c0bc'
p2419
asbasbasbag57
(g73
g59
NtRp2420
(dp2421
g62
(dp2422
sg71
g67
sg64
(lp2423
g57
(g78
g59
NtRp2424
(dp2425
g62
(dp2426
g82
g83
ssg71
g2420
sg64
(lp2427
S'vars'
p2428
asbag57
(g78
g59
NtRp2429
(dp2430
g62
(dp2431
g89
g90
ssg71
g2420
sg64
(lp2432
S':'
asbag57
(g78
g59
NtRp2433
(dp2434
g62
(dp2435
sg71
g2420
sg64
(lp2436
g57
(g58
g59
NtRp2437
(dp2438
g62
(dp2439
g70
I5
ssg71
g2433
sg64
(lp2440
g57
(g66
g59
NtRp2441
(dp2442
g62
(dp2443
g70
I4
ssg71
Nsg64
(lp2444
sbasbasbasbag57
(g73
g59
NtRp2445
(dp2446
g62
(dp2447
sg71
g67
sg64
(lp2448
g57
(g78
g59
NtRp2449
(dp2450
g62
(dp2451
g82
g83
ssg71
g2445
sg64
(lp2452
S'wsgi'
p2453
asbag57
(g78
g59
NtRp2454
(dp2455
g62
(dp2456
g89
g90
ssg71
g2445
sg64
(lp2457
S':'
asbag57
(g78
g59
NtRp2458
(dp2459
g62
(dp2460
sg71
g2445
sg64
(lp2461
g57
(g58
g59
NtRp2462
(dp2463
g62
(dp2464
g70
I5
ssg71
g2458
sg64
(lp2465
g57
(g66
g59
NtRp2466
(dp2467
g62
(dp2468
g70
I4
ssg71
Nsg64
(lp2469
g57
(g73
g59
NtRp2470
(dp2471
g62
(dp2472
sg71
g2466
sg64
(lp2473
g57
(g78
g59
NtRp2474
(dp2475
g62
(dp2476
g82
g83
ssg71
g2470
sg64
(lp2477
S'environ'
p2478
asbag57
(g78
g59
NtRp2479
(dp2480
g62
(dp2481
g89
g90
ssg71
g2470
sg64
(lp2482
S':'
asbag57
(g78
g59
NtRp2483
(dp2484
g62
(dp2485
sg71
g2470
sg64
(lp2486
g57
(g58
g59
NtRp2487
(dp2488
g62
(dp2489
g70
I4
ssg71
g2483
sg64
(lp2490
g57
(g66
g59
NtRp2491
(dp2492
g62
(dp2493
g70
I3
ssg71
Nsg64
(lp2494
g57
(g73
g59
NtRp2495
(dp2496
g62
(dp2497
sg71
g2491
sg64
(lp2498
g57
(g78
g59
NtRp2499
(dp2500
g62
(dp2501
g82
g83
ssg71
g2495
sg64
(lp2502
S'HTTP_ACCEPT'
p2503
asbag57
(g78
g59
NtRp2504
(dp2505
g62
(dp2506
g89
g90
ssg71
g2495
sg64
(lp2507
S':'
asbag57
(g78
g59
NtRp2508
(dp2509
g62
(dp2510
sg71
g2495
sg64
(lp2511
g57
(g58
g59
NtRp2512
(dp2513
g62
(dp2514
g70
I3
ssg71
g2508
sg64
(lp2515
g1003
asbasbasbag57
(g73
g59
NtRp2516
(dp2517
g62
(dp2518
sg71
g2491
sg64
(lp2519
g57
(g78
g59
NtRp2520
(dp2521
g62
(dp2522
g82
g83
ssg71
g2516
sg64
(lp2523
S'HTTP_ACCEPT_CHARSET'
p2524
asbag57
(g78
g59
NtRp2525
(dp2526
g62
(dp2527
g89
g90
ssg71
g2516
sg64
(lp2528
S':'
asbag57
(g78
g59
NtRp2529
(dp2530
g62
(dp2531
sg71
g2516
sg64
(lp2532
g57
(g58
g59
NtRp2533
(dp2534
g62
(dp2535
g70
I3
ssg71
g2529
sg64
(lp2536
g1025
asbasbasbag57
(g73
g59
NtRp2537
(dp2538
g62
(dp2539
sg71
g2491
sg64
(lp2540
g57
(g78
g59
NtRp2541
(dp2542
g62
(dp2543
g82
g83
ssg71
g2537
sg64
(lp2544
S'HTTP_ACCEPT_ENCODING'
p2545
asbag57
(g78
g59
NtRp2546
(dp2547
g62
(dp2548
g89
g90
ssg71
g2537
sg64
(lp2549
S':'
asbag57
(g78
g59
NtRp2550
(dp2551
g62
(dp2552
sg71
g2537
sg64
(lp2553
g57
(g58
g59
NtRp2554
(dp2555
g62
(dp2556
g70
I3
ssg71
g2550
sg64
(lp2557
g1047
asbasbasbag57
(g73
g59
NtRp2558
(dp2559
g62
(dp2560
sg71
g2491
sg64
(lp2561
g57
(g78
g59
NtRp2562
(dp2563
g62
(dp2564
g82
g83
ssg71
g2558
sg64
(lp2565
S'HTTP_ACCEPT_LANGUAGE'
p2566
asbag57
(g78
g59
NtRp2567
(dp2568
g62
(dp2569
g89
g90
ssg71
g2558
sg64
(lp2570
S':'
asbag57
(g78
g59
NtRp2571
(dp2572
g62
(dp2573
sg71
g2558
sg64
(lp2574
g57
(g58
g59
NtRp2575
(dp2576
g62
(dp2577
g70
I3
ssg71
g2571
sg64
(lp2578
g1069
asbasbasbag57
(g73
g59
NtRp2579
(dp2580
g62
(dp2581
sg71
g2491
sg64
(lp2582
g57
(g78
g59
NtRp2583
(dp2584
g62
(dp2585
g82
g83
ssg71
g2579
sg64
(lp2586
S'HTTP_CACHE_CONTROL'
p2587
asbag57
(g78
g59
NtRp2588
(dp2589
g62
(dp2590
g89
g90
ssg71
g2579
sg64
(lp2591
S':'
asbag57
(g78
g59
NtRp2592
(dp2593
g62
(dp2594
sg71
g2579
sg64
(lp2595
g57
(g58
g59
NtRp2596
(dp2597
g62
(dp2598
g70
I3
ssg71
g2592
sg64
(lp2599
g1091
asbasbasbag57
(g73
g59
NtRp2600
(dp2601
g62
(dp2602
sg71
g2491
sg64
(lp2603
g57
(g78
g59
NtRp2604
(dp2605
g62
(dp2606
g82
g83
ssg71
g2600
sg64
(lp2607
S'HTTP_CONNECTION'
p2608
asbag57
(g78
g59
NtRp2609
(dp2610
g62
(dp2611
g89
g90
ssg71
g2600
sg64
(lp2612
S':'
asbag57
(g78
g59
NtRp2613
(dp2614
g62
(dp2615
sg71
g2600
sg64
(lp2616
g57
(g58
g59
NtRp2617
(dp2618
g62
(dp2619
g70
I3
ssg71
g2613
sg64
(lp2620
g1113
asbasbasbag57
(g73
g59
NtRp2621
(dp2622
g62
(dp2623
sg71
g2491
sg64
(lp2624
g57
(g78
g59
NtRp2625
(dp2626
g62
(dp2627
g82
g83
ssg71
g2621
sg64
(lp2628
S'HTTP_COOKIE'
p2629
asbag57
(g78
g59
NtRp2630
(dp2631
g62
(dp2632
g89
g90
ssg71
g2621
sg64
(lp2633
S':'
asbag57
(g78
g59
NtRp2634
(dp2635
g62
(dp2636
sg71
g2621
sg64
(lp2637
g57
(g58
g59
NtRp2638
(dp2639
g62
(dp2640
g70
I3
ssg71
g2634
sg64
(lp2641
g1135
asbasbasbag57
(g73
g59
NtRp2642
(dp2643
g62
(dp2644
sg71
g2491
sg64
(lp2645
g57
(g78
g59
NtRp2646
(dp2647
g62
(dp2648
g82
g83
ssg71
g2642
sg64
(lp2649
S'HTTP_HOST'
p2650
asbag57
(g78
g59
NtRp2651
(dp2652
g62
(dp2653
g89
g90
ssg71
g2642
sg64
(lp2654
S':'
asbag57
(g78
g59
NtRp2655
(dp2656
g62
(dp2657
sg71
g2642
sg64
(lp2658
g57
(g58
g59
NtRp2659
(dp2660
g62
(dp2661
g70
I3
ssg71
g2655
sg64
(lp2662
g1157
asbasbasbag57
(g73
g59
NtRp2663
(dp2664
g62
(dp2665
sg71
g2491
sg64
(lp2666
g57
(g78
g59
NtRp2667
(dp2668
g62
(dp2669
g82
g83
ssg71
g2663
sg64
(lp2670
S'HTTP_REFERER'
p2671
asbag57
(g78
g59
NtRp2672
(dp2673
g62
(dp2674
g89
g90
ssg71
g2663
sg64
(lp2675
S':'
asbag57
(g78
g59
NtRp2676
(dp2677
g62
(dp2678
sg71
g2663
sg64
(lp2679
g57
(g58
g59
NtRp2680
(dp2681
g62
(dp2682
g70
I3
ssg71
g2676
sg64
(lp2683
g1179
asbasbasbag57
(g73
g59
NtRp2684
(dp2685
g62
(dp2686
sg71
g2491
sg64
(lp2687
g57
(g78
g59
NtRp2688
(dp2689
g62
(dp2690
g82
g83
ssg71
g2684
sg64
(lp2691
S'HTTP_USER_AGENT'
p2692
asbag57
(g78
g59
NtRp2693
(dp2694
g62
(dp2695
g89
g90
ssg71
g2684
sg64
(lp2696
S':'
asbag57
(g78
g59
NtRp2697
(dp2698
g62
(dp2699
sg71
g2684
sg64
(lp2700
g57
(g58
g59
NtRp2701
(dp2702
g62
(dp2703
g70
I3
ssg71
g2697
sg64
(lp2704
g1201
asbasbasbag57
(g73
g59
NtRp2705
(dp2706
g62
(dp2707
sg71
g2491
sg64
(lp2708
g57
(g78
g59
NtRp2709
(dp2710
g62
(dp2711
g82
g83
ssg71
g2705
sg64
(lp2712
S'PATH_INFO'
p2713
asbag57
(g78
g59
NtRp2714
(dp2715
g62
(dp2716
g89
g90
ssg71
g2705
sg64
(lp2717
S':'
asbag57
(g78
g59
NtRp2718
(dp2719
g62
(dp2720
sg71
g2705
sg64
(lp2721
g57
(g58
g59
NtRp2722
(dp2723
g62
(dp2724
g70
I3
ssg71
g2718
sg64
(lp2725
g1265
asbasbasbag57
(g73
g59
NtRp2726
(dp2727
g62
(dp2728
sg71
g2491
sg64
(lp2729
g57
(g78
g59
NtRp2730
(dp2731
g62
(dp2732
g82
g83
ssg71
g2726
sg64
(lp2733
S'QUERY_STRING'
p2734
asbag57
(g78
g59
NtRp2735
(dp2736
g62
(dp2737
g89
g90
ssg71
g2726
sg64
(lp2738
S':'
asbag57
(g78
g59
NtRp2739
(dp2740
g62
(dp2741
sg71
g2726
sg64
(lp2742
g57
(g58
g59
NtRp2743
(dp2744
g62
(dp2745
g70
I3
ssg71
g2739
sg64
(lp2746
S''
asbasbasbag57
(g73
g59
NtRp2747
(dp2748
g62
(dp2749
sg71
g2491
sg64
(lp2750
g57
(g78
g59
NtRp2751
(dp2752
g62
(dp2753
g82
g83
ssg71
g2747
sg64
(lp2754
S'REMOTE_ADDR'
p2755
asbag57
(g78
g59
NtRp2756
(dp2757
g62
(dp2758
g89
g90
ssg71
g2747
sg64
(lp2759
S':'
asbag57
(g78
g59
NtRp2760
(dp2761
g62
(dp2762
sg71
g2747
sg64
(lp2763
g57
(g58
g59
NtRp2764
(dp2765
g62
(dp2766
g70
I3
ssg71
g2760
sg64
(lp2767
g190
asbasbasbag57
(g73
g59
NtRp2768
(dp2769
g62
(dp2770
sg71
g2491
sg64
(lp2771
g57
(g78
g59
NtRp2772
(dp2773
g62
(dp2774
g82
g83
ssg71
g2768
sg64
(lp2775
S'REMOTE_PORT'
p2776
asbag57
(g78
g59
NtRp2777
(dp2778
g62
(dp2779
g89
g90
ssg71
g2768
sg64
(lp2780
S':'
asbag57
(g78
g59
NtRp2781
(dp2782
g62
(dp2783
sg71
g2768
sg64
(lp2784
g57
(g58
g59
NtRp2785
(dp2786
g62
(dp2787
g70
I3
ssg71
g2781
sg64
(lp2788
g1329
asbasbasbag57
(g73
g59
NtRp2789
(dp2790
g62
(dp2791
sg71
g2491
sg64
(lp2792
g57
(g78
g59
NtRp2793
(dp2794
g62
(dp2795
g82
g83
ssg71
g2789
sg64
(lp2796
S'REQUEST_METHOD'
p2797
asbag57
(g78
g59
NtRp2798
(dp2799
g62
(dp2800
g89
g90
ssg71
g2789
sg64
(lp2801
S':'
asbag57
(g78
g59
NtRp2802
(dp2803
g62
(dp2804
sg71
g2789
sg64
(lp2805
g57
(g58
g59
NtRp2806
(dp2807
g62
(dp2808
g70
I3
ssg71
g2802
sg64
(lp2809
g1351
asbasbasbag57
(g73
g59
NtRp2810
(dp2811
g62
(dp2812
sg71
g2491
sg64
(lp2813
g57
(g78
g59
NtRp2814
(dp2815
g62
(dp2816
g82
g83
ssg71
g2810
sg64
(lp2817
S'REQUEST_URI'
p2818
asbag57
(g78
g59
NtRp2819
(dp2820
g62
(dp2821
g89
g90
ssg71
g2810
sg64
(lp2822
S':'
asbag57
(g78
g59
NtRp2823
(dp2824
g62
(dp2825
sg71
g2810
sg64
(lp2826
g57
(g58
g59
NtRp2827
(dp2828
g62
(dp2829
g70
I3
ssg71
g2823
sg64
(lp2830
g1265
asbasbasbag57
(g73
g59
NtRp2831
(dp2832
g62
(dp2833
sg71
g2491
sg64
(lp2834
g57
(g78
g59
NtRp2835
(dp2836
g62
(dp2837
g82
g83
ssg71
g2831
sg64
(lp2838
S'SCRIPT_NAME'
p2839
asbag57
(g78
g59
NtRp2840
(dp2841
g62
(dp2842
g89
g90
ssg71
g2831
sg64
(lp2843
S':'
asbag57
(g78
g59
NtRp2844
(dp2845
g62
(dp2846
sg71
g2831
sg64
(lp2847
g57
(g58
g59
NtRp2848
(dp2849
g62
(dp2850
g70
I3
ssg71
g2844
sg64
(lp2851
S''
asbasbasbag57
(g73
g59
NtRp2852
(dp2853
g62
(dp2854
sg71
g2491
sg64
(lp2855
g57
(g78
g59
NtRp2856
(dp2857
g62
(dp2858
g82
g83
ssg71
g2852
sg64
(lp2859
S'SERVER_NAME'
p2860
asbag57
(g78
g59
NtRp2861
(dp2862
g62
(dp2863
g89
g90
ssg71
g2852
sg64
(lp2864
S':'
asbag57
(g78
g59
NtRp2865
(dp2866
g62
(dp2867
sg71
g2852
sg64
(lp2868
g57
(g58
g59
NtRp2869
(dp2870
g62
(dp2871
g70
I3
ssg71
g2865
sg64
(lp2872
g1415
asbasbasbag57
(g73
g59
NtRp2873
(dp2874
g62
(dp2875
sg71
g2491
sg64
(lp2876
g57
(g78
g59
NtRp2877
(dp2878
g62
(dp2879
g82
g83
ssg71
g2873
sg64
(lp2880
S'SERVER_PORT'
p2881
asbag57
(g78
g59
NtRp2882
(dp2883
g62
(dp2884
g89
g90
ssg71
g2873
sg64
(lp2885
S':'
asbag57
(g78
g59
NtRp2886
(dp2887
g62
(dp2888
sg71
g2873
sg64
(lp2889
g57
(g58
g59
NtRp2890
(dp2891
g62
(dp2892
g70
I3
ssg71
g2886
sg64
(lp2893
g1437
asbasbasbag57
(g73
g59
NtRp2894
(dp2895
g62
(dp2896
sg71
g2491
sg64
(lp2897
g57
(g78
g59
NtRp2898
(dp2899
g62
(dp2900
g82
g83
ssg71
g2894
sg64
(lp2901
S'SERVER_PROTOCOL'
p2902
asbag57
(g78
g59
NtRp2903
(dp2904
g62
(dp2905
g89
g90
ssg71
g2894
sg64
(lp2906
S':'
asbag57
(g78
g59
NtRp2907
(dp2908
g62
(dp2909
sg71
g2894
sg64
(lp2910
g57
(g58
g59
NtRp2911
(dp2912
g62
(dp2913
g70
I3
ssg71
g2907
sg64
(lp2914
g1459
asbasbasbag57
(g73
g59
NtRp2915
(dp2916
g62
(dp2917
sg71
g2491
sg64
(lp2918
g57
(g78
g59
NtRp2919
(dp2920
g62
(dp2921
g82
g83
ssg71
g2915
sg64
(lp2922
S'SERVER_SOFTWARE'
p2923
asbag57
(g78
g59
NtRp2924
(dp2925
g62
(dp2926
g89
g90
ssg71
g2915
sg64
(lp2927
S':'
asbag57
(g78
g59
NtRp2928
(dp2929
g62
(dp2930
sg71
g2915
sg64
(lp2931
g57
(g58
g59
NtRp2932
(dp2933
g62
(dp2934
g70
I3
ssg71
g2928
sg64
(lp2935
g1481
asbasbasbag57
(g73
g59
NtRp2936
(dp2937
g62
(dp2938
sg71
g2491
sg64
(lp2939
g57
(g78
g59
NtRp2940
(dp2941
g62
(dp2942
g82
g83
ssg71
g2936
sg64
(lp2943
S'WEB2PY_ORIGINAL_URI'
p2944
asbag57
(g78
g59
NtRp2945
(dp2946
g62
(dp2947
g89
g90
ssg71
g2936
sg64
(lp2948
S':'
asbag57
(g78
g59
NtRp2949
(dp2950
g62
(dp2951
sg71
g2936
sg64
(lp2952
g57
(g58
g59
NtRp2953
(dp2954
g62
(dp2955
g70
I3
ssg71
g2949
sg64
(lp2956
g1265
asbasbasbag57
(g73
g59
NtRp2957
(dp2958
g62
(dp2959
sg71
g2491
sg64
(lp2960
g57
(g78
g59
NtRp2961
(dp2962
g62
(dp2963
g82
g83
ssg71
g2957
sg64
(lp2964
S'wsgi.errors'
p2965
asbag57
(g78
g59
NtRp2966
(dp2967
g62
(dp2968
g89
g90
ssg71
g2957
sg64
(lp2969
S':'
asbag57
(g78
g59
NtRp2970
(dp2971
g62
(dp2972
sg71
g2957
sg64
(lp2973
g57
(g58
g59
NtRp2974
(dp2975
g62
(dp2976
g70
I3
ssg71
g2970
sg64
(lp2977
S"<open file '<stderr>', mode 'w' at 0x7f290013c270>"
p2978
asbasbasbag57
(g73
g59
NtRp2979
(dp2980
g62
(dp2981
sg71
g2491
sg64
(lp2982
g57
(g78
g59
NtRp2983
(dp2984
g62
(dp2985
g82
g83
ssg71
g2979
sg64
(lp2986
S'wsgi.file_wrapper'
p2987
asbag57
(g78
g59
NtRp2988
(dp2989
g62
(dp2990
g89
g90
ssg71
g2979
sg64
(lp2991
S':'
asbag57
(g78
g59
NtRp2992
(dp2993
g62
(dp2994
sg71
g2979
sg64
(lp2995
g57
(g58
g59
NtRp2996
(dp2997
g62
(dp2998
g70
I3
ssg71
g2992
sg64
(lp2999
S'<class wsgiref.util.FileWrapper at 0x1dd2f58>'
p3000
asbasbasbag57
(g73
g59
NtRp3001
(dp3002
g62
(dp3003
sg71
g2491
sg64
(lp3004
g57
(g78
g59
NtRp3005
(dp3006
g62
(dp3007
g82
g83
ssg71
g3001
sg64
(lp3008
S'wsgi.input'
p3009
asbag57
(g78
g59
NtRp3010
(dp3011
g62
(dp3012
g89
g90
ssg71
g3001
sg64
(lp3013
S':'
asbag57
(g78
g59
NtRp3014
(dp3015
g62
(dp3016
sg71
g3001
sg64
(lp3017
g57
(g58
g59
NtRp3018
(dp3019
g62
(dp3020
g70
I3
ssg71
g3014
sg64
(lp3021
S'<cStringIO.StringO object at 0x7f28ec0ffce0>'
p3022
asbasbasbag57
(g73
g59
NtRp3023
(dp3024
g62
(dp3025
sg71
g2491
sg64
(lp3026
g57
(g78
g59
NtRp3027
(dp3028
g62
(dp3029
g82
g83
ssg71
g3023
sg64
(lp3030
S'wsgi.multiprocess'
p3031
asbag57
(g78
g59
NtRp3032
(dp3033
g62
(dp3034
g89
g90
ssg71
g3023
sg64
(lp3035
S':'
asbag57
(g78
g59
NtRp3036
(dp3037
g62
(dp3038
sg71
g3023
sg64
(lp3039
g57
(g58
g59
NtRp3040
(dp3041
g62
(dp3042
g70
I3
ssg71
g3036
sg64
(lp3043
g100
asbasbasbag57
(g73
g59
NtRp3044
(dp3045
g62
(dp3046
sg71
g2491
sg64
(lp3047
g57
(g78
g59
NtRp3048
(dp3049
g62
(dp3050
g82
g83
ssg71
g3044
sg64
(lp3051
S'wsgi.multithread'
p3052
asbag57
(g78
g59
NtRp3053
(dp3054
g62
(dp3055
g89
g90
ssg71
g3044
sg64
(lp3056
S':'
asbag57
(g78
g59
NtRp3057
(dp3058
g62
(dp3059
sg71
g3044
sg64
(lp3060
g57
(g58
g59
NtRp3061
(dp3062
g62
(dp3063
g70
I3
ssg71
g3057
sg64
(lp3064
g1742
asbasbasbag57
(g73
g59
NtRp3065
(dp3066
g62
(dp3067
sg71
g2491
sg64
(lp3068
g57
(g78
g59
NtRp3069
(dp3070
g62
(dp3071
g82
g83
ssg71
g3065
sg64
(lp3072
S'wsgi.run_once'
p3073
asbag57
(g78
g59
NtRp3074
(dp3075
g62
(dp3076
g89
g90
ssg71
g3065
sg64
(lp3077
S':'
asbag57
(g78
g59
NtRp3078
(dp3079
g62
(dp3080
sg71
g3065
sg64
(lp3081
g57
(g58
g59
NtRp3082
(dp3083
g62
(dp3084
g70
I3
ssg71
g3078
sg64
(lp3085
g100
asbasbasbag57
(g73
g59
NtRp3086
(dp3087
g62
(dp3088
sg71
g2491
sg64
(lp3089
g57
(g78
g59
NtRp3090
(dp3091
g62
(dp3092
g82
g83
ssg71
g3086
sg64
(lp3093
S'wsgi.url_scheme'
p3094
asbag57
(g78
g59
NtRp3095
(dp3096
g62
(dp3097
g89
g90
ssg71
g3086
sg64
(lp3098
S':'
asbag57
(g78
g59
NtRp3099
(dp3100
g62
(dp3101
sg71
g3086
sg64
(lp3102
g57
(g58
g59
NtRp3103
(dp3104
g62
(dp3105
g70
I3
ssg71
g3099
sg64
(lp3106
g1785
asbasbasbag57
(g73
g59
NtRp3107
(dp3108
g62
(dp3109
sg71
g2491
sg64
(lp3110
g57
(g78
g59
NtRp3111
(dp3112
g62
(dp3113
g82
g83
ssg71
g3107
sg64
(lp3114
S'wsgi.version'
p3115
asbag57
(g78
g59
NtRp3116
(dp3117
g62
(dp3118
g89
g90
ssg71
g3107
sg64
(lp3119
S':'
asbag57
(g78
g59
NtRp3120
(dp3121
g62
(dp3122
sg71
g3107
sg64
(lp3123
g57
(g58
g59
NtRp3124
(dp3125
g62
(dp3126
g70
I3
ssg71
g3120
sg64
(lp3127
S'1'
asbasbasbasbasbasbasbasbasbasbasbasbasbsS'frames'
p3128
(lp3129
(dp3130
S'file'
p3131
S'/home/goshawk/web2py/gluon/restricted.py'
p3132
sS'dump'
p3133
(dp3134
S'environment'
p3135
S"{'A': <class 'gluon.html.A'>, 'Auth': <class 'gluon.tools.Auth'>, 'B': <class 'gluon.html.B'>, 'BEAUTIFY': <class 'gluon.html.BEAUTIFY'>, 'BODY': <class 'gluon.html.BODY'>, 'BR': <class 'gluon.html.BR'>, 'BUTTON': <class 'gluon.html.BUTTON'>, 'CAT': <class 'gluon.html.CAT'>, 'CENTER': <class 'gluon.html.CENTER'>, 'CLEANUP': <class 'gluon.validators.CLEANUP'>, ...}"
p3136
sS'ccode'
p3137
S'<code object <module> at 0x7f28d42c80b0, file "/...lications/milo/views/default/index.html", line 1>'
p3138
ssS'lnum'
p3139
I205
sS'lines'
p3140
(dp3141
I200
S'    try:'
p3142
sI201
S'        if type(code) == types.CodeType:'
p3143
sI202
S'            ccode = code'
p3144
sI203
S'        else:'
p3145
sI204
S'            ccode = compile2(code,layer)'
p3146
sI205
S'        exec ccode in environment'
p3147
sI206
S'    except HTTP:'
p3148
sI207
S'        raise'
p3149
sI208
S'    except RestrictedError:'
p3150
sI209
S'        # do not encapsulate (obfuscate) the original RestrictedError'
p3151
ssS'call'
p3152
S'(code=r"left_sidebar_enabled,right_sidebar_enabled=False...ponse.write(\'\\n</body>\\n</html>\\n\', escape=False)", environment={\'A\': <class \'gluon.html.A\'>, \'Auth\': <class \'gluon.tools.Auth\'>, \'B\': <class \'gluon.html.B\'>, \'BEAUTIFY\': <class \'gluon.html.BEAUTIFY\'>, \'BODY\': <class \'gluon.html.BODY\'>, \'BR\': <class \'gluon.html.BR\'>, \'BUTTON\': <class \'gluon.html.BUTTON\'>, \'CAT\': <class \'gluon.html.CAT\'>, \'CENTER\': <class \'gluon.html.CENTER\'>, \'CLEANUP\': <class \'gluon.validators.CLEANUP\'>, ...}, layer=\'/home/goshawk/web2py/applications/milo/views/default/index.html\')'
p3153
sS'func'
p3154
S'restricted'
p3155
sa(dp3156
g3131
S'/home/goshawk/web2py/applications/milo/views/default/index.html'
p3157
sg3133
(dp3158
sg3139
I90
sg3140
(dp3159
I96
S"    response.write(T('You visited the url'))"
p3160
sI97
S"    response.write(' ', escape=False)"
p3161
sI98
S'    response.write(A(request.env.path_info,_href=request.env.path_info))'
p3162
sI99
S"    response.write('</li>\\n  <li>', escape=False)"
p3163
sI100
S"    response.write(T('Which called the function'))"
p3164
sI81
S"    response.write('\\n        </div>\\n        ', escape=False)"
p3165
sI82
S'    pass'
p3166
sI83
S'response.write(\'\\n        \\n        <div class="\', escape=False)'
p3167
sI84
S'response.write(middle_columns)'
p3168
sI85
S'response.write(\' columns center">\\n          \', escape=False)'
p3169
sI86
S"response.write('\\n          ', escape=False)"
p3170
sI87
S"response.write('\\n\\n', escape=False)"
p3171
sI88
S'if movies:'
p3172
sI89
S"    response.write('\\n<h3>', escape=False)"
p3173
sI90
S'    response.write(message)'
p3174
sI91
S"    response.write('</h3>\\n\\n<h4/>', escape=False)"
p3175
sI92
S"    response.write(T('How did you get here?'))"
p3176
sI93
S"    response.write('</h4>\\n<ol>\\n  <li>', escape=False)"
p3177
sI94
S"    response.write(T('You are successfully running web2py'))"
p3178
sI95
S"    response.write('</li>\\n  <li>', escape=False)"
p3179
ssg3152
S'()'
p3180
sg3154
S'<module>'
p3181
sasS'pyver'
p3182
S'Python 2.7.3: /usr/bin/python'
p3183
sS'session'
p3184
g57
(g58
g59
NtRp3185
(dp3186
g62
(dp3187
sg64
(lp3188
g57
(g66
g59
NtRp3189
(dp3190
g62
(dp3191
g70
I5
ssg71
Nsg64
(lp3192
sbasbsS'etype'
p3193
S"<type 'exceptions.NameError'>"
p3194
sS'date'
p3195
S'Mon Jun 18 01:09:01 2012'
p3196
sS'response'
p3197
g57
(g58
g59
NtRp3198
(dp3199
g62
(dp3200
sg64
(lp3201
g57
(g66
g59
NtRp3202
(dp3203
g62
(dp3204
g70
I5
ssg71
Nsg64
(lp3205
g57
(g73
g59
NtRp3206
(dp3207
g62
(dp3208
sg71
g3202
sg64
(lp3209
g57
(g78
g59
NtRp3210
(dp3211
g62
(dp3212
g82
g83
ssg71
g3206
sg64
(lp3213
g155
asbag57
(g78
g59
NtRp3214
(dp3215
g62
(dp3216
g89
g90
ssg71
g3206
sg64
(lp3217
S':'
asbag57
(g78
g59
NtRp3218
(dp3219
g62
(dp3220
sg71
g3206
sg64
(lp3221
g57
(g58
g59
NtRp3222
(dp3223
g62
(dp3224
g70
I5
ssg71
g3218
sg64
(lp3225
S'<cStringIO.StringO object at 0x7f28ec114928>'
p3226
asbasbasbag57
(g73
g59
NtRp3227
(dp3228
g62
(dp3229
sg71
g3202
sg64
(lp3230
g57
(g78
g59
NtRp3231
(dp3232
g62
(dp3233
g82
g83
ssg71
g3227
sg64
(lp3234
g221
asbag57
(g78
g59
NtRp3235
(dp3236
g62
(dp3237
g89
g90
ssg71
g3227
sg64
(lp3238
S':'
asbag57
(g78
g59
NtRp3239
(dp3240
g62
(dp3241
sg71
g3227
sg64
(lp3242
g57
(g58
g59
NtRp3243
(dp3244
g62
(dp3245
g70
I5
ssg71
g3239
sg64
(lp3246
g57
(g66
g59
NtRp3247
(dp3248
g62
(dp3249
g70
I4
ssg71
Nsg64
(lp3250
g57
(g73
g59
NtRp3251
(dp3252
g62
(dp3253
sg71
g3247
sg64
(lp3254
g57
(g78
g59
NtRp3255
(dp3256
g62
(dp3257
g82
g83
ssg71
g3251
sg64
(lp3258
S'session_id_milo'
p3259
asbag57
(g78
g59
NtRp3260
(dp3261
g62
(dp3262
g89
g90
ssg71
g3251
sg64
(lp3263
S':'
asbag57
(g78
g59
NtRp3264
(dp3265
g62
(dp3266
sg71
g3251
sg64
(lp3267
g57
(g58
g59
NtRp3268
(dp3269
g62
(dp3270
g70
I4
ssg71
g3264
sg64
(lp3271
g57
(g66
g59
NtRp3272
(dp3273
g62
(dp3274
g70
I3
ssg71
Nsg64
(lp3275
g57
(g73
g59
NtRp3276
(dp3277
g62
(dp3278
sg71
g3272
sg64
(lp3279
g57
(g78
g59
NtRp3280
(dp3281
g62
(dp3282
g82
g83
ssg71
g3276
sg64
(lp3283
g271
asbag57
(g78
g59
NtRp3284
(dp3285
g62
(dp3286
g89
g90
ssg71
g3276
sg64
(lp3287
S':'
asbag57
(g78
g59
NtRp3288
(dp3289
g62
(dp3290
sg71
g3276
sg64
(lp3291
g57
(g58
g59
NtRp3292
(dp3293
g62
(dp3294
g70
I3
ssg71
g3288
sg64
(lp3295
S''
asbasbasbag57
(g73
g59
NtRp3296
(dp3297
g62
(dp3298
sg71
g3272
sg64
(lp3299
g57
(g78
g59
NtRp3300
(dp3301
g62
(dp3302
g82
g83
ssg71
g3296
sg64
(lp3303
g292
asbag57
(g78
g59
NtRp3304
(dp3305
g62
(dp3306
g89
g90
ssg71
g3296
sg64
(lp3307
S':'
asbag57
(g78
g59
NtRp3308
(dp3309
g62
(dp3310
sg71
g3296
sg64
(lp3311
g57
(g58
g59
NtRp3312
(dp3313
g62
(dp3314
g70
I3
ssg71
g3308
sg64
(lp3315
S''
asbasbasbag57
(g73
g59
NtRp3316
(dp3317
g62
(dp3318
sg71
g3272
sg64
(lp3319
g57
(g78
g59
NtRp3320
(dp3321
g62
(dp3322
g82
g83
ssg71
g3316
sg64
(lp3323
g313
asbag57
(g78
g59
NtRp3324
(dp3325
g62
(dp3326
g89
g90
ssg71
g3316
sg64
(lp3327
S':'
asbag57
(g78
g59
NtRp3328
(dp3329
g62
(dp3330
sg71
g3316
sg64
(lp3331
g57
(g58
g59
NtRp3332
(dp3333
g62
(dp3334
g70
I3
ssg71
g3328
sg64
(lp3335
S''
asbasbasbag57
(g73
g59
NtRp3336
(dp3337
g62
(dp3338
sg71
g3272
sg64
(lp3339
g57
(g78
g59
NtRp3340
(dp3341
g62
(dp3342
g82
g83
ssg71
g3336
sg64
(lp3343
g334
asbag57
(g78
g59
NtRp3344
(dp3345
g62
(dp3346
g89
g90
ssg71
g3336
sg64
(lp3347
S':'
asbag57
(g78
g59
NtRp3348
(dp3349
g62
(dp3350
sg71
g3336
sg64
(lp3351
g57
(g58
g59
NtRp3352
(dp3353
g62
(dp3354
g70
I3
ssg71
g3348
sg64
(lp3355
S''
asbasbasbag57
(g73
g59
NtRp3356
(dp3357
g62
(dp3358
sg71
g3272
sg64
(lp3359
g57
(g78
g59
NtRp3360
(dp3361
g62
(dp3362
g82
g83
ssg71
g3356
sg64
(lp3363
g355
asbag57
(g78
g59
NtRp3364
(dp3365
g62
(dp3366
g89
g90
ssg71
g3356
sg64
(lp3367
S':'
asbag57
(g78
g59
NtRp3368
(dp3369
g62
(dp3370
sg71
g3356
sg64
(lp3371
g57
(g58
g59
NtRp3372
(dp3373
g62
(dp3374
g70
I3
ssg71
g3368
sg64
(lp3375
S''
asbasbasbag57
(g73
g59
NtRp3376
(dp3377
g62
(dp3378
sg71
g3272
sg64
(lp3379
g57
(g78
g59
NtRp3380
(dp3381
g62
(dp3382
g82
g83
ssg71
g3376
sg64
(lp3383
g376
asbag57
(g78
g59
NtRp3384
(dp3385
g62
(dp3386
g89
g90
ssg71
g3376
sg64
(lp3387
S':'
asbag57
(g78
g59
NtRp3388
(dp3389
g62
(dp3390
sg71
g3376
sg64
(lp3391
g57
(g58
g59
NtRp3392
(dp3393
g62
(dp3394
g70
I3
ssg71
g3388
sg64
(lp3395
S'/'
asbasbasbag57
(g73
g59
NtRp3396
(dp3397
g62
(dp3398
sg71
g3272
sg64
(lp3399
g57
(g78
g59
NtRp3400
(dp3401
g62
(dp3402
g82
g83
ssg71
g3396
sg64
(lp3403
g397
asbag57
(g78
g59
NtRp3404
(dp3405
g62
(dp3406
g89
g90
ssg71
g3396
sg64
(lp3407
S':'
asbag57
(g78
g59
NtRp3408
(dp3409
g62
(dp3410
sg71
g3396
sg64
(lp3411
g57
(g58
g59
NtRp3412
(dp3413
g62
(dp3414
g70
I3
ssg71
g3408
sg64
(lp3415
S''
asbasbasbag57
(g73
g59
NtRp3416
(dp3417
g62
(dp3418
sg71
g3272
sg64
(lp3419
g57
(g78
g59
NtRp3420
(dp3421
g62
(dp3422
g82
g83
ssg71
g3416
sg64
(lp3423
g418
asbag57
(g78
g59
NtRp3424
(dp3425
g62
(dp3426
g89
g90
ssg71
g3416
sg64
(lp3427
S':'
asbag57
(g78
g59
NtRp3428
(dp3429
g62
(dp3430
sg71
g3416
sg64
(lp3431
g57
(g58
g59
NtRp3432
(dp3433
g62
(dp3434
g70
I3
ssg71
g3428
sg64
(lp3435
S''
asbasbasbasbasbasbasbasbasbasbasbag57
(g73
g59
NtRp3436
(dp3437
g62
(dp3438
sg71
g3202
sg64
(lp3439
g57
(g78
g59
NtRp3440
(dp3441
g62
(dp3442
g82
g83
ssg71
g3436
sg64
(lp3443
S'delimiters'
p3444
asbag57
(g78
g59
NtRp3445
(dp3446
g62
(dp3447
g89
g90
ssg71
g3436
sg64
(lp3448
S':'
asbag57
(g78
g59
NtRp3449
(dp3450
g62
(dp3451
sg71
g3436
sg64
(lp3452
g57
(g58
g59
NtRp3453
(dp3454
g62
(dp3455
g70
I5
ssg71
g3449
sg64
(lp3456
g57
(g66
g59
NtRp3457
(dp3458
g62
(dp3459
g70
I4
ssg71
Nsg64
(lp3460
g57
(g73
g59
NtRp3461
(dp3462
g62
(dp3463
sg71
g3457
sg64
(lp3464
g57
(g78
g59
NtRp3465
(dp3466
g62
(dp3467
sg71
g3461
sg64
(lp3468
g57
(g58
g59
NtRp3469
(dp3470
g62
(dp3471
g70
I4
ssg71
g3465
sg64
(lp3472
S'{{'
p3473
asbasbasbag57
(g73
g59
NtRp3474
(dp3475
g62
(dp3476
sg71
g3457
sg64
(lp3477
g57
(g78
g59
NtRp3478
(dp3479
g62
(dp3480
sg71
g3474
sg64
(lp3481
g57
(g58
g59
NtRp3482
(dp3483
g62
(dp3484
g70
I4
ssg71
g3478
sg64
(lp3485
S'}}'
p3486
asbasbasbasbasbasbasbag57
(g73
g59
NtRp3487
(dp3488
g62
(dp3489
sg71
g3202
sg64
(lp3490
g57
(g78
g59
NtRp3491
(dp3492
g62
(dp3493
g82
g83
ssg71
g3487
sg64
(lp3494
S'files'
p3495
asbag57
(g78
g59
NtRp3496
(dp3497
g62
(dp3498
g89
g90
ssg71
g3487
sg64
(lp3499
S':'
asbag57
(g78
g59
NtRp3500
(dp3501
g62
(dp3502
sg71
g3487
sg64
(lp3503
g57
(g58
g59
NtRp3504
(dp3505
g62
(dp3506
g70
I5
ssg71
g3500
sg64
(lp3507
g57
(g66
g59
NtRp3508
(dp3509
g62
(dp3510
g70
I4
ssg71
Nsg64
(lp3511
g57
(g73
g59
NtRp3512
(dp3513
g62
(dp3514
sg71
g3508
sg64
(lp3515
g57
(g78
g59
NtRp3516
(dp3517
g62
(dp3518
sg71
g3512
sg64
(lp3519
g57
(g58
g59
NtRp3520
(dp3521
g62
(dp3522
g70
I4
ssg71
g3516
sg64
(lp3523
S'/milo/static/js/jquery.js'
p3524
asbasbasbag57
(g73
g59
NtRp3525
(dp3526
g62
(dp3527
sg71
g3508
sg64
(lp3528
g57
(g78
g59
NtRp3529
(dp3530
g62
(dp3531
sg71
g3525
sg64
(lp3532
g57
(g58
g59
NtRp3533
(dp3534
g62
(dp3535
g70
I4
ssg71
g3529
sg64
(lp3536
S'/milo/static/css/calendar.css'
p3537
asbasbasbag57
(g73
g59
NtRp3538
(dp3539
g62
(dp3540
sg71
g3508
sg64
(lp3541
g57
(g78
g59
NtRp3542
(dp3543
g62
(dp3544
sg71
g3538
sg64
(lp3545
g57
(g58
g59
NtRp3546
(dp3547
g62
(dp3548
g70
I4
ssg71
g3542
sg64
(lp3549
S'/milo/static/js/calendar.js'
p3550
asbasbasbag57
(g73
g59
NtRp3551
(dp3552
g62
(dp3553
sg71
g3508
sg64
(lp3554
g57
(g78
g59
NtRp3555
(dp3556
g62
(dp3557
sg71
g3551
sg64
(lp3558
g57
(g58
g59
NtRp3559
(dp3560
g62
(dp3561
g70
I4
ssg71
g3555
sg64
(lp3562
S'/milo/static/js/web2py.js'
p3563
asbasbasbag57
(g73
g59
NtRp3564
(dp3565
g62
(dp3566
sg71
g3508
sg64
(lp3567
g57
(g78
g59
NtRp3568
(dp3569
g62
(dp3570
sg71
g3564
sg64
(lp3571
g57
(g58
g59
NtRp3572
(dp3573
g62
(dp3574
g70
I4
ssg71
g3568
sg64
(lp3575
S'/milo/static/css/skeleton.css'
p3576
asbasbasbag57
(g73
g59
NtRp3577
(dp3578
g62
(dp3579
sg71
g3508
sg64
(lp3580
g57
(g78
g59
NtRp3581
(dp3582
g62
(dp3583
sg71
g3577
sg64
(lp3584
g57
(g58
g59
NtRp3585
(dp3586
g62
(dp3587
g70
I4
ssg71
g3581
sg64
(lp3588
S'/milo/static/css/web2py.css'
p3589
asbasbasbag57
(g73
g59
NtRp3590
(dp3591
g62
(dp3592
sg71
g3508
sg64
(lp3593
g57
(g78
g59
NtRp3594
(dp3595
g62
(dp3596
sg71
g3590
sg64
(lp3597
g57
(g58
g59
NtRp3598
(dp3599
g62
(dp3600
g70
I4
ssg71
g3594
sg64
(lp3601
S'/milo/static/css/superfish.css'
p3602
asbasbasbag57
(g73
g59
NtRp3603
(dp3604
g62
(dp3605
sg71
g3508
sg64
(lp3606
g57
(g78
g59
NtRp3607
(dp3608
g62
(dp3609
sg71
g3603
sg64
(lp3610
g57
(g58
g59
NtRp3611
(dp3612
g62
(dp3613
g70
I4
ssg71
g3607
sg64
(lp3614
S'/milo/static/js/superfish.js'
p3615
asbasbasbasbasbasbasbag57
(g73
g59
NtRp3616
(dp3617
g62
(dp3618
sg71
g3202
sg64
(lp3619
g57
(g78
g59
NtRp3620
(dp3621
g62
(dp3622
g82
g83
ssg71
g3616
sg64
(lp3623
S'flash'
p3624
asbag57
(g78
g59
NtRp3625
(dp3626
g62
(dp3627
g89
g90
ssg71
g3616
sg64
(lp3628
S':'
asbag57
(g78
g59
NtRp3629
(dp3630
g62
(dp3631
sg71
g3616
sg64
(lp3632
g57
(g58
g59
NtRp3633
(dp3634
g62
(dp3635
g70
I5
ssg71
g3629
sg64
(lp3636
S''
asbasbasbag57
(g73
g59
NtRp3637
(dp3638
g62
(dp3639
sg71
g3202
sg64
(lp3640
g57
(g78
g59
NtRp3641
(dp3642
g62
(dp3643
g82
g83
ssg71
g3637
sg64
(lp3644
S'generic_patterns'
p3645
asbag57
(g78
g59
NtRp3646
(dp3647
g62
(dp3648
g89
g90
ssg71
g3637
sg64
(lp3649
S':'
asbag57
(g78
g59
NtRp3650
(dp3651
g62
(dp3652
sg71
g3637
sg64
(lp3653
g57
(g58
g59
NtRp3654
(dp3655
g62
(dp3656
g70
I5
ssg71
g3650
sg64
(lp3657
g57
(g66
g59
NtRp3658
(dp3659
g62
(dp3660
g70
I4
ssg71
Nsg64
(lp3661
g57
(g73
g59
NtRp3662
(dp3663
g62
(dp3664
sg71
g3658
sg64
(lp3665
g57
(g78
g59
NtRp3666
(dp3667
g62
(dp3668
sg71
g3662
sg64
(lp3669
g57
(g58
g59
NtRp3670
(dp3671
g62
(dp3672
g70
I4
ssg71
g3666
sg64
(lp3673
S'*'
asbasbasbasbasbasbasbag57
(g73
g59
NtRp3674
(dp3675
g62
(dp3676
sg71
g3202
sg64
(lp3677
g57
(g78
g59
NtRp3678
(dp3679
g62
(dp3680
g82
g83
ssg71
g3674
sg64
(lp3681
S'headers'
p3682
asbag57
(g78
g59
NtRp3683
(dp3684
g62
(dp3685
g89
g90
ssg71
g3674
sg64
(lp3686
S':'
asbag57
(g78
g59
NtRp3687
(dp3688
g62
(dp3689
sg71
g3674
sg64
(lp3690
g57
(g58
g59
NtRp3691
(dp3692
g62
(dp3693
g70
I5
ssg71
g3687
sg64
(lp3694
g57
(g66
g59
NtRp3695
(dp3696
g62
(dp3697
g70
I4
ssg71
Nsg64
(lp3698
g57
(g73
g59
NtRp3699
(dp3700
g62
(dp3701
sg71
g3695
sg64
(lp3702
g57
(g78
g59
NtRp3703
(dp3704
g62
(dp3705
g82
g83
ssg71
g3699
sg64
(lp3706
S'Cache-Control'
p3707
asbag57
(g78
g59
NtRp3708
(dp3709
g62
(dp3710
g89
g90
ssg71
g3699
sg64
(lp3711
S':'
asbag57
(g78
g59
NtRp3712
(dp3713
g62
(dp3714
sg71
g3699
sg64
(lp3715
g57
(g58
g59
NtRp3716
(dp3717
g62
(dp3718
g70
I4
ssg71
g3712
sg64
(lp3719
S'no-store, no-cache, must-revalidate, post-check=0, pre-check=0'
p3720
asbasbasbag57
(g73
g59
NtRp3721
(dp3722
g62
(dp3723
sg71
g3695
sg64
(lp3724
g57
(g78
g59
NtRp3725
(dp3726
g62
(dp3727
g82
g83
ssg71
g3721
sg64
(lp3728
S'Content-Type'
p3729
asbag57
(g78
g59
NtRp3730
(dp3731
g62
(dp3732
g89
g90
ssg71
g3721
sg64
(lp3733
S':'
asbag57
(g78
g59
NtRp3734
(dp3735
g62
(dp3736
sg71
g3721
sg64
(lp3737
g57
(g58
g59
NtRp3738
(dp3739
g62
(dp3740
g70
I4
ssg71
g3734
sg64
(lp3741
S'text/html; charset=utf-8'
p3742
asbasbasbag57
(g73
g59
NtRp3743
(dp3744
g62
(dp3745
sg71
g3695
sg64
(lp3746
g57
(g78
g59
NtRp3747
(dp3748
g62
(dp3749
g82
g83
ssg71
g3743
sg64
(lp3750
S'Expires'
p3751
asbag57
(g78
g59
NtRp3752
(dp3753
g62
(dp3754
g89
g90
ssg71
g3743
sg64
(lp3755
S':'
asbag57
(g78
g59
NtRp3756
(dp3757
g62
(dp3758
sg71
g3743
sg64
(lp3759
g57
(g58
g59
NtRp3760
(dp3761
g62
(dp3762
g70
I4
ssg71
g3756
sg64
(lp3763
S'Sun, 17 Jun 2012 23:09:01 GMT'
p3764
asbasbasbag57
(g73
g59
NtRp3765
(dp3766
g62
(dp3767
sg71
g3695
sg64
(lp3768
g57
(g78
g59
NtRp3769
(dp3770
g62
(dp3771
g82
g83
ssg71
g3765
sg64
(lp3772
S'Pragma'
p3773
asbag57
(g78
g59
NtRp3774
(dp3775
g62
(dp3776
g89
g90
ssg71
g3765
sg64
(lp3777
S':'
asbag57
(g78
g59
NtRp3778
(dp3779
g62
(dp3780
sg71
g3765
sg64
(lp3781
g57
(g58
g59
NtRp3782
(dp3783
g62
(dp3784
g70
I4
ssg71
g3778
sg64
(lp3785
S'no-cache'
p3786
asbasbasbag57
(g73
g59
NtRp3787
(dp3788
g62
(dp3789
sg71
g3695
sg64
(lp3790
g57
(g78
g59
NtRp3791
(dp3792
g62
(dp3793
g82
g83
ssg71
g3787
sg64
(lp3794
S'X-Powered-By'
p3795
asbag57
(g78
g59
NtRp3796
(dp3797
g62
(dp3798
g89
g90
ssg71
g3787
sg64
(lp3799
S':'
asbag57
(g78
g59
NtRp3800
(dp3801
g62
(dp3802
sg71
g3787
sg64
(lp3803
g57
(g58
g59
NtRp3804
(dp3805
g62
(dp3806
g70
I4
ssg71
g3800
sg64
(lp3807
S'web2py'
p3808
asbasbasbasbasbasbasbag57
(g73
g59
NtRp3809
(dp3810
g62
(dp3811
sg71
g3202
sg64
(lp3812
g57
(g78
g59
NtRp3813
(dp3814
g62
(dp3815
g82
g83
ssg71
g3809
sg64
(lp3816
S'menu'
p3817
asbag57
(g78
g59
NtRp3818
(dp3819
g62
(dp3820
g89
g90
ssg71
g3809
sg64
(lp3821
S':'
asbag57
(g78
g59
NtRp3822
(dp3823
g62
(dp3824
sg71
g3809
sg64
(lp3825
g57
(g58
g59
NtRp3826
(dp3827
g62
(dp3828
g70
I5
ssg71
g3822
sg64
(lp3829
g57
(g66
g59
NtRp3830
(dp3831
g62
(dp3832
g70
I4
ssg71
Nsg64
(lp3833
g57
(g73
g59
NtRp3834
(dp3835
g62
(dp3836
sg71
g3830
sg64
(lp3837
g57
(g78
g59
NtRp3838
(dp3839
g62
(dp3840
sg71
g3834
sg64
(lp3841
g57
(g58
g59
NtRp3842
(dp3843
g62
(dp3844
g70
I4
ssg71
g3838
sg64
(lp3845
g57
(g66
g59
NtRp3846
(dp3847
g62
(dp3848
g70
I3
ssg71
Nsg64
(lp3849
g57
(g73
g59
NtRp3850
(dp3851
g62
(dp3852
sg71
g3846
sg64
(lp3853
g57
(g78
g59
NtRp3854
(dp3855
g62
(dp3856
sg71
g3850
sg64
(lp3857
g57
(g58
g59
NtRp3858
(dp3859
g62
(dp3860
g70
I3
ssg71
g3854
sg64
(lp3861
cgluon.languages
lazyT_unpickle
p3862
(S't\x04\x00\x00\x00Home'
tRp3863
asbasbasbag57
(g73
g59
NtRp3864
(dp3865
g62
(dp3866
sg71
g3846
sg64
(lp3867
g57
(g78
g59
NtRp3868
(dp3869
g62
(dp3870
sg71
g3864
sg64
(lp3871
g57
(g58
g59
NtRp3872
(dp3873
g62
(dp3874
g70
I3
ssg71
g3868
sg64
(lp3875
g100
asbasbasbag57
(g73
g59
NtRp3876
(dp3877
g62
(dp3878
sg71
g3846
sg64
(lp3879
g57
(g78
g59
NtRp3880
(dp3881
g62
(dp3882
sg71
g3876
sg64
(lp3883
g57
(g58
g59
NtRp3884
(dp3885
g62
(dp3886
g70
I3
ssg71
g3880
sg64
(lp3887
S'/milo/default/index'
p3888
asbasbasbag57
(g73
g59
NtRp3889
(dp3890
g62
(dp3891
sg71
g3846
sg64
(lp3892
g57
(g78
g59
NtRp3893
(dp3894
g62
(dp3895
sg71
g3889
sg64
(lp3896
g57
(g58
g59
NtRp3897
(dp3898
g62
(dp3899
g70
I3
ssg71
g3893
sg64
(lp3900
g57
(g66
g59
NtRp3901
(dp3902
g62
(dp3903
g70
I2
ssg71
Nsg64
(lp3904
sbasbasbasbasbasbasbasbag57
(g73
g59
NtRp3905
(dp3906
g62
(dp3907
sg71
g3830
sg64
(lp3908
g57
(g78
g59
NtRp3909
(dp3910
g62
(dp3911
sg71
g3905
sg64
(lp3912
g57
(g58
g59
NtRp3913
(dp3914
g62
(dp3915
g70
I4
ssg71
g3909
sg64
(lp3916
g57
(g66
g59
NtRp3917
(dp3918
g62
(dp3919
g70
I3
ssg71
Nsg64
(lp3920
g57
(g73
g59
NtRp3921
(dp3922
g62
(dp3923
sg71
g3917
sg64
(lp3924
g57
(g78
g59
NtRp3925
(dp3926
g62
(dp3927
sg71
g3921
sg64
(lp3928
g57
(g58
g59
NtRp3929
(dp3930
g62
(dp3931
g70
I3
ssg71
g3925
sg64
(lp3932
g3862
(S't\x05\x00\x00\x00Admin'
tRp3933
asbasbasbag57
(g73
g59
NtRp3934
(dp3935
g62
(dp3936
sg71
g3917
sg64
(lp3937
g57
(g78
g59
NtRp3938
(dp3939
g62
(dp3940
sg71
g3934
sg64
(lp3941
g57
(g58
g59
NtRp3942
(dp3943
g62
(dp3944
g70
I3
ssg71
g3938
sg64
(lp3945
g100
asbasbasbag57
(g73
g59
NtRp3946
(dp3947
g62
(dp3948
sg71
g3917
sg64
(lp3949
g57
(g78
g59
NtRp3950
(dp3951
g62
(dp3952
sg71
g3946
sg64
(lp3953
g57
(g58
g59
NtRp3954
(dp3955
g62
(dp3956
g70
I3
ssg71
g3950
sg64
(lp3957
S'/milo/admin/index'
p3958
asbasbasbag57
(g73
g59
NtRp3959
(dp3960
g62
(dp3961
sg71
g3917
sg64
(lp3962
g57
(g78
g59
NtRp3963
(dp3964
g62
(dp3965
sg71
g3959
sg64
(lp3966
g57
(g58
g59
NtRp3967
(dp3968
g62
(dp3969
g70
I3
ssg71
g3963
sg64
(lp3970
g57
(g66
g59
NtRp3971
(dp3972
g62
(dp3973
g70
I2
ssg71
Nsg64
(lp3974
sbasbasbasbasbasbasbasbag57
(g73
g59
NtRp3975
(dp3976
g62
(dp3977
sg71
g3830
sg64
(lp3978
g57
(g78
g59
NtRp3979
(dp3980
g62
(dp3981
sg71
g3975
sg64
(lp3982
g57
(g58
g59
NtRp3983
(dp3984
g62
(dp3985
g70
I4
ssg71
g3979
sg64
(lp3986
g57
(g66
g59
NtRp3987
(dp3988
g62
(dp3989
g70
I3
ssg71
Nsg64
(lp3990
g57
(g73
g59
NtRp3991
(dp3992
g62
(dp3993
sg71
g3987
sg64
(lp3994
g57
(g78
g59
NtRp3995
(dp3996
g62
(dp3997
sg71
g3991
sg64
(lp3998
g57
(g58
g59
NtRp3999
(dp4000
g62
(dp4001
g70
I3
ssg71
g3995
sg64
(lp4002
g57
(cgluon.html
SPAN
p4003
g59
NtRp4004
(dp4005
g62
(dp4006
g82
S'color:yellow'
p4007
ssg71
g57
(cgluon.html
A
p4008
g59
NtRp4009
(dp4010
g62
(dp4011
S'_onclick'
p4012
S'javascript:void(0);return false;'
p4013
sS'_href'
p4014
S'#'
ssg71
g57
(cgluon.html
LI
p4015
g59
NtRp4016
(dp4017
g62
(dp4018
S'_class'
p4019
S'web2py-menu-expand'
p4020
ssg71
g57
(cgluon.html
UL
p4021
g59
NtRp4022
(dp4023
g62
(dp4024
S'mobile'
p4025
I00
sS'li_class'
p4026
g4020
sg4019
S'sf-menu'
p4027
sS'ul_class'
p4028
S'web2py-menu-vertical'
p4029
sS'li_active'
p4030
S'web2py-menu-active'
p4031
ssg71
Nsg64
(lp4032
g57
(g4015
g59
NtRp4033
(dp4034
g62
(dp4035
sg71
g4022
sg64
(lp4036
g57
(g4008
g59
NtRp4037
(dp4038
g62
(dp4039
g4014
g3888
ssg71
g4033
sg64
(lp4040
g3863
asbasbag57
(g4015
g59
NtRp4041
(dp4042
g62
(dp4043
sg71
g4022
sg64
(lp4044
g57
(g4008
g59
NtRp4045
(dp4046
g62
(dp4047
g4014
g3958
ssg71
g4041
sg64
(lp4048
g3933
asbasbag4016
asbsg64
(lp4049
g4009
ag57
(g4021
g59
NtRp4050
(dp4051
g62
(dp4052
g4019
g4029
ssg71
g4016
sg64
(lp4053
g57
(g4015
g59
NtRp4054
(dp4055
g62
(dp4056
sg71
g4050
sg64
(lp4057
g57
(g4008
g59
NtRp4058
(dp4059
g62
(dp4060
g4014
S'/admin/default/site'
p4061
ssg71
g4054
sg64
(lp4062
g3862
(S's\x08\x00\x00\x00My Sites'
tRp4063
asbasbag57
(g4015
g59
NtRp4064
(dp4065
g62
(dp4066
g4019
g4020
ssg71
g4050
sg64
(lp4067
g57
(g4008
g59
NtRp4068
(dp4069
g62
(dp4070
g4014
S'/admin/default/design/milo'
p4071
ssg71
g4064
sg64
(lp4072
g3862
(S's\x08\x00\x00\x00This App'
tRp4073
asbag57
(g4021
g59
NtRp4074
(dp4075
g62
(dp4076
g4019
g4029
ssg71
g4064
sg64
(lp4077
g57
(g4015
g59
NtRp4078
(dp4079
g62
(dp4080
sg71
g4074
sg64
(lp4081
g57
(g4008
g59
NtRp4082
(dp4083
g62
(dp4084
g4014
S'/admin/default/edit/milo/controllers/default.py'
p4085
ssg71
g4078
sg64
(lp4086
g3862
(S't\n\x00\x00\x00Controller'
tRp4087
asbasbag57
(g4015
g59
NtRp4088
(dp4089
g62
(dp4090
sg71
g4074
sg64
(lp4091
g57
(g4008
g59
NtRp4092
(dp4093
g62
(dp4094
g4014
S'/admin/default/edit/milo/views/default/index.html'
p4095
ssg71
g4088
sg64
(lp4096
g3862
(S't\x04\x00\x00\x00View'
tRp4097
asbasbag57
(g4015
g59
NtRp4098
(dp4099
g62
(dp4100
sg71
g4074
sg64
(lp4101
g57
(g4008
g59
NtRp4102
(dp4103
g62
(dp4104
g4014
S'/admin/default/edit/milo/views/layout.html'
p4105
ssg71
g4098
sg64
(lp4106
g3862
(S't\x06\x00\x00\x00Layout'
tRp4107
asbasbag57
(g4015
g59
NtRp4108
(dp4109
g62
(dp4110
sg71
g4074
sg64
(lp4111
g57
(g4008
g59
NtRp4112
(dp4113
g62
(dp4114
g4014
S'/admin/default/edit/milo/static/css/web2py.css'
p4115
ssg71
g4108
sg64
(lp4116
g3862
(S't\n\x00\x00\x00Stylesheet'
tRp4117
asbasbag57
(g4015
g59
NtRp4118
(dp4119
g62
(dp4120
sg71
g4074
sg64
(lp4121
g57
(g4008
g59
NtRp4122
(dp4123
g62
(dp4124
g4014
S'/admin/default/edit/milo/models/db.py'
p4125
ssg71
g4118
sg64
(lp4126
g3862
(S's\x08\x00\x00\x00DB Model'
tRp4127
asbasbag57
(g4015
g59
NtRp4128
(dp4129
g62
(dp4130
sg71
g4074
sg64
(lp4131
g57
(g4008
g59
NtRp4132
(dp4133
g62
(dp4134
g4014
S'/admin/default/edit/milo/models/menu.py'
p4135
ssg71
g4128
sg64
(lp4136
g3862
(S's\n\x00\x00\x00Menu Model'
tRp4137
asbasbag57
(g4015
g59
NtRp4138
(dp4139
g62
(dp4140
sg71
g4074
sg64
(lp4141
g57
(g4008
g59
NtRp4142
(dp4143
g62
(dp4144
g4014
S'/milo/appadmin/index'
p4145
ssg71
g4138
sg64
(lp4146
g3862
(S't\x08\x00\x00\x00Database'
tRp4147
asbasbag57
(g4015
g59
NtRp4148
(dp4149
g62
(dp4150
sg71
g4074
sg64
(lp4151
g57
(g4008
g59
NtRp4152
(dp4153
g62
(dp4154
g4014
S'/admin/default/errors/milo'
p4155
ssg71
g4148
sg64
(lp4156
g3862
(S't\x06\x00\x00\x00Errors'
tRp4157
asbasbag57
(g4015
g59
NtRp4158
(dp4159
g62
(dp4160
sg71
g4074
sg64
(lp4161
g57
(g4008
g59
NtRp4162
(dp4163
g62
(dp4164
g4014
S'/admin/default/about/milo'
p4165
ssg71
g4158
sg64
(lp4166
g3862
(S't\x05\x00\x00\x00About'
tRp4167
asbasbasbasbag57
(g4015
g59
NtRp4168
(dp4169
g62
(dp4170
g4019
g4020
ssg71
g4050
sg64
(lp4171
g57
(g4008
g59
NtRp4172
(dp4173
g62
(dp4174
g4014
S'http://www.web2py.com'
p4175
ssg71
g4168
sg64
(lp4176
S'web2py.com'
p4177
asbag57
(g4021
g59
NtRp4178
(dp4179
g62
(dp4180
g4019
g4029
ssg71
g4168
sg64
(lp4181
g57
(g4015
g59
NtRp4182
(dp4183
g62
(dp4184
sg71
g4178
sg64
(lp4185
g57
(g4008
g59
NtRp4186
(dp4187
g62
(dp4188
g4014
S'http://www.web2py.com/examples/default/download'
p4189
ssg71
g4182
sg64
(lp4190
g3862
(S't\x08\x00\x00\x00Download'
tRp4191
asbasbag57
(g4015
g59
NtRp4192
(dp4193
g62
(dp4194
sg71
g4178
sg64
(lp4195
g57
(g4008
g59
NtRp4196
(dp4197
g62
(dp4198
g4014
S'http://www.web2py.com/examples/default/support'
p4199
ssg71
g4192
sg64
(lp4200
g3862
(S't\x07\x00\x00\x00Support'
tRp4201
asbasbag57
(g4015
g59
NtRp4202
(dp4203
g62
(dp4204
sg71
g4178
sg64
(lp4205
g57
(g4008
g59
NtRp4206
(dp4207
g62
(dp4208
g4014
S'http://web2py.com/demo_admin'
p4209
ssg71
g4202
sg64
(lp4210
g3862
(S't\x04\x00\x00\x00Demo'
tRp4211
asbasbag57
(g4015
g59
NtRp4212
(dp4213
g62
(dp4214
sg71
g4178
sg64
(lp4215
g57
(g4008
g59
NtRp4216
(dp4217
g62
(dp4218
g4014
S'http://web2py.com/examples/default/examples'
p4219
ssg71
g4212
sg64
(lp4220
g3862
(S's\x0e\x00\x00\x00Quick Examples'
tRp4221
asbasbag57
(g4015
g59
NtRp4222
(dp4223
g62
(dp4224
sg71
g4178
sg64
(lp4225
g57
(g4008
g59
NtRp4226
(dp4227
g62
(dp4228
g4014
S'http://web2py.com/AlterEgo'
p4229
ssg71
g4222
sg64
(lp4230
g3862
(S't\x03\x00\x00\x00FAQ'
tRp4231
asbasbag57
(g4015
g59
NtRp4232
(dp4233
g62
(dp4234
sg71
g4178
sg64
(lp4235
g57
(g4008
g59
NtRp4236
(dp4237
g62
(dp4238
g4014
S'http://www.web2py.com/examples/default/videos/'
p4239
ssg71
g4232
sg64
(lp4240
g3862
(S't\x06\x00\x00\x00Videos'
tRp4241
asbasbag57
(g4015
g59
NtRp4242
(dp4243
g62
(dp4244
sg71
g4178
sg64
(lp4245
g57
(g4008
g59
NtRp4246
(dp4247
g62
(dp4248
g4014
S'http://web2py.com/appliances'
p4249
ssg71
g4242
sg64
(lp4250
g3862
(S's\x11\x00\x00\x00Free Applications'
tRp4251
asbasbag57
(g4015
g59
NtRp4252
(dp4253
g62
(dp4254
sg71
g4178
sg64
(lp4255
g57
(g4008
g59
NtRp4256
(dp4257
g62
(dp4258
g4014
S'http://web2py.com/plugins'
p4259
ssg71
g4252
sg64
(lp4260
g3862
(S't\x07\x00\x00\x00Plugins'
tRp4261
asbasbag57
(g4015
g59
NtRp4262
(dp4263
g62
(dp4264
sg71
g4178
sg64
(lp4265
g57
(g4008
g59
NtRp4266
(dp4267
g62
(dp4268
g4014
S'http://web2py.com/layouts'
p4269
ssg71
g4262
sg64
(lp4270
g3862
(S't\x07\x00\x00\x00Layouts'
tRp4271
asbasbag57
(g4015
g59
NtRp4272
(dp4273
g62
(dp4274
sg71
g4178
sg64
(lp4275
g57
(g4008
g59
NtRp4276
(dp4277
g62
(dp4278
g4014
S'http://web2pyslices.com/'
p4279
ssg71
g4272
sg64
(lp4280
g3862
(S't\x07\x00\x00\x00Recipes'
tRp4281
asbasbag57
(g4015
g59
NtRp4282
(dp4283
g62
(dp4284
sg71
g4178
sg64
(lp4285
g57
(g4008
g59
NtRp4286
(dp4287
g62
(dp4288
g4014
S'http://web2py.com/semantic'
p4289
ssg71
g4282
sg64
(lp4290
g3862
(S't\x08\x00\x00\x00Semantic'
tRp4291
asbasbasbasbag57
(g4015
g59
NtRp4292
(dp4293
g62
(dp4294
g4019
g4020
ssg71
g4050
sg64
(lp4295
g57
(g4008
g59
NtRp4296
(dp4297
g62
(dp4298
g4014
S'http://www.web2py.com/book'
p4299
ssg71
g4292
sg64
(lp4300
g3862
(S't\r\x00\x00\x00Documentation'
tRp4301
asbag57
(g4021
g59
NtRp4302
(dp4303
g62
(dp4304
g4019
g4029
ssg71
g4292
sg64
(lp4305
g57
(g4015
g59
NtRp4306
(dp4307
g62
(dp4308
sg71
g4302
sg64
(lp4309
g57
(g4008
g59
NtRp4310
(dp4311
g62
(dp4312
g4014
S'http://www.web2py.com/book/default/chapter/00'
p4313
ssg71
g4306
sg64
(lp4314
g3862
(S't\x07\x00\x00\x00Preface'
tRp4315
asbasbag57
(g4015
g59
NtRp4316
(dp4317
g62
(dp4318
sg71
g4302
sg64
(lp4319
g57
(g4008
g59
NtRp4320
(dp4321
g62
(dp4322
g4014
S'http://www.web2py.com/book/default/chapter/01'
p4323
ssg71
g4316
sg64
(lp4324
g3862
(S't\x0c\x00\x00\x00Introduction'
tRp4325
asbasbag57
(g4015
g59
NtRp4326
(dp4327
g62
(dp4328
sg71
g4302
sg64
(lp4329
g57
(g4008
g59
NtRp4330
(dp4331
g62
(dp4332
g4014
S'http://www.web2py.com/book/default/chapter/02'
p4333
ssg71
g4326
sg64
(lp4334
g3862
(S't\x06\x00\x00\x00Python'
tRp4335
asbasbag57
(g4015
g59
NtRp4336
(dp4337
g62
(dp4338
sg71
g4302
sg64
(lp4339
g57
(g4008
g59
NtRp4340
(dp4341
g62
(dp4342
g4014
S'http://www.web2py.com/book/default/chapter/03'
p4343
ssg71
g4336
sg64
(lp4344
g3862
(S't\x08\x00\x00\x00Overview'
tRp4345
asbasbag57
(g4015
g59
NtRp4346
(dp4347
g62
(dp4348
sg71
g4302
sg64
(lp4349
g57
(g4008
g59
NtRp4350
(dp4351
g62
(dp4352
g4014
S'http://www.web2py.com/book/default/chapter/04'
p4353
ssg71
g4346
sg64
(lp4354
g3862
(S's\x08\x00\x00\x00The Core'
tRp4355
asbasbag57
(g4015
g59
NtRp4356
(dp4357
g62
(dp4358
sg71
g4302
sg64
(lp4359
g57
(g4008
g59
NtRp4360
(dp4361
g62
(dp4362
g4014
S'http://www.web2py.com/book/default/chapter/05'
p4363
ssg71
g4356
sg64
(lp4364
g3862
(S's\t\x00\x00\x00The Views'
tRp4365
asbasbag57
(g4015
g59
NtRp4366
(dp4367
g62
(dp4368
sg71
g4302
sg64
(lp4369
g57
(g4008
g59
NtRp4370
(dp4371
g62
(dp4372
g4014
S'http://www.web2py.com/book/default/chapter/06'
p4373
ssg71
g4366
sg64
(lp4374
g3862
(S't\x08\x00\x00\x00Database'
tRp4375
asbasbag57
(g4015
g59
NtRp4376
(dp4377
g62
(dp4378
sg71
g4302
sg64
(lp4379
g57
(g4008
g59
NtRp4380
(dp4381
g62
(dp4382
g4014
S'http://www.web2py.com/book/default/chapter/07'
p4383
ssg71
g4376
sg64
(lp4384
g3862
(S's\x14\x00\x00\x00Forms and Validators'
tRp4385
asbasbag57
(g4015
g59
NtRp4386
(dp4387
g62
(dp4388
sg71
g4302
sg64
(lp4389
g57
(g4008
g59
NtRp4390
(dp4391
g62
(dp4392
g4014
S'http://www.web2py.com/book/default/chapter/08'
p4393
ssg71
g4386
sg64
(lp4394
g3862
(S's\r\x00\x00\x00Email and SMS'
tRp4395
asbasbag57
(g4015
g59
NtRp4396
(dp4397
g62
(dp4398
sg71
g4302
sg64
(lp4399
g57
(g4008
g59
NtRp4400
(dp4401
g62
(dp4402
g4014
S'http://www.web2py.com/book/default/chapter/09'
p4403
ssg71
g4396
sg64
(lp4404
g3862
(S's\x0e\x00\x00\x00Access Control'
tRp4405
asbasbag57
(g4015
g59
NtRp4406
(dp4407
g62
(dp4408
sg71
g4302
sg64
(lp4409
g57
(g4008
g59
NtRp4410
(dp4411
g62
(dp4412
g4014
S'http://www.web2py.com/book/default/chapter/10'
p4413
ssg71
g4406
sg64
(lp4414
g3862
(S't\x08\x00\x00\x00Services'
tRp4415
asbasbag57
(g4015
g59
NtRp4416
(dp4417
g62
(dp4418
sg71
g4302
sg64
(lp4419
g57
(g4008
g59
NtRp4420
(dp4421
g62
(dp4422
g4014
S'http://www.web2py.com/book/default/chapter/11'
p4423
ssg71
g4416
sg64
(lp4424
g3862
(S's\x0c\x00\x00\x00Ajax Recipes'
tRp4425
asbasbag57
(g4015
g59
NtRp4426
(dp4427
g62
(dp4428
sg71
g4302
sg64
(lp4429
g57
(g4008
g59
NtRp4430
(dp4431
g62
(dp4432
g4014
S'http://www.web2py.com/book/default/chapter/12'
p4433
ssg71
g4426
sg64
(lp4434
g3862
(S's\x16\x00\x00\x00Components and Plugins'
tRp4435
asbasbag57
(g4015
g59
NtRp4436
(dp4437
g62
(dp4438
sg71
g4302
sg64
(lp4439
g57
(g4008
g59
NtRp4440
(dp4441
g62
(dp4442
g4014
S'http://www.web2py.com/book/default/chapter/13'
p4443
ssg71
g4436
sg64
(lp4444
g3862
(S's\x12\x00\x00\x00Deployment Recipes'
tRp4445
asbasbag57
(g4015
g59
NtRp4446
(dp4447
g62
(dp4448
sg71
g4302
sg64
(lp4449
g57
(g4008
g59
NtRp4450
(dp4451
g62
(dp4452
g4014
S'http://www.web2py.com/book/default/chapter/14'
p4453
ssg71
g4446
sg64
(lp4454
g3862
(S's\r\x00\x00\x00Other Recipes'
tRp4455
asbasbag57
(g4015
g59
NtRp4456
(dp4457
g62
(dp4458
sg71
g4302
sg64
(lp4459
g57
(g4008
g59
NtRp4460
(dp4461
g62
(dp4462
g4014
S'http://stores.lulu.com/web2py'
p4463
ssg71
g4456
sg64
(lp4464
g3862
(S's\r\x00\x00\x00Buy this book'
tRp4465
asbasbasbasbag57
(g4015
g59
NtRp4466
(dp4467
g62
(dp4468
g4019
g4020
ssg71
g4050
sg64
(lp4469
g57
(g4008
g59
NtRp4470
(dp4471
g62
(dp4472
g4012
g4013
sg4014
S'#'
ssg71
g4466
sg64
(lp4473
g3862
(S't\t\x00\x00\x00Community'
tRp4474
asbag57
(g4021
g59
NtRp4475
(dp4476
g62
(dp4477
g4019
g4029
ssg71
g4466
sg64
(lp4478
g57
(g4015
g59
NtRp4479
(dp4480
g62
(dp4481
sg71
g4475
sg64
(lp4482
g57
(g4008
g59
NtRp4483
(dp4484
g62
(dp4485
g4014
S'http://www.web2py.com/examples/default/usergroups'
p4486
ssg71
g4479
sg64
(lp4487
g3862
(S't\x06\x00\x00\x00Groups'
tRp4488
asbasbag57
(g4015
g59
NtRp4489
(dp4490
g62
(dp4491
sg71
g4475
sg64
(lp4492
g57
(g4008
g59
NtRp4493
(dp4494
g62
(dp4495
g4014
S'http://twitter.com/web2py'
p4496
ssg71
g4489
sg64
(lp4497
g3862
(S't\x07\x00\x00\x00Twitter'
tRp4498
asbasbag57
(g4015
g59
NtRp4499
(dp4500
g62
(dp4501
sg71
g4475
sg64
(lp4502
g57
(g4008
g59
NtRp4503
(dp4504
g62
(dp4505
g4014
S'http://webchat.freenode.net/?channels=web2py'
p4506
ssg71
g4499
sg64
(lp4507
g3862
(S's\t\x00\x00\x00Live Chat'
tRp4508
asbasbasbasbag57
(g4015
g59
NtRp4509
(dp4510
g62
(dp4511
g4019
g4020
ssg71
g4050
sg64
(lp4512
g57
(g4008
g59
NtRp4513
(dp4514
g62
(dp4515
g4012
g4013
sg4014
S'#'
ssg71
g4509
sg64
(lp4516
g3862
(S't\x07\x00\x00\x00Plugins'
tRp4517
asbag57
(g4021
g59
NtRp4518
(dp4519
g62
(dp4520
g4019
g4029
ssg71
g4509
sg64
(lp4521
g57
(g4015
g59
NtRp4522
(dp4523
g62
(dp4524
sg71
g4518
sg64
(lp4525
g57
(g4008
g59
NtRp4526
(dp4527
g62
(dp4528
g4014
S'http://web2py.com/examples/default/download'
p4529
ssg71
g4522
sg64
(lp4530
S'plugin_wiki'
p4531
asbasbag57
(g4015
g59
NtRp4532
(dp4533
g62
(dp4534
sg71
g4518
sg64
(lp4535
g57
(g4008
g59
NtRp4536
(dp4537
g62
(dp4538
g4014
g4259
ssg71
g4532
sg64
(lp4539
g3862
(S's\r\x00\x00\x00Other Plugins'
tRp4540
asbasbag57
(g4015
g59
NtRp4541
(dp4542
g62
(dp4543
sg71
g4518
sg64
(lp4544
g57
(g4008
g59
NtRp4545
(dp4546
g62
(dp4547
g4014
g4269
ssg71
g4541
sg64
(lp4548
g3862
(S's\x0e\x00\x00\x00Layout Plugins'
tRp4549
asbasbasbasbasbasbsg64
(lp4550
g4004
asbsg64
(lp4551
g3808
asbasbasbasbag57
(g73
g59
NtRp4552
(dp4553
g62
(dp4554
sg71
g3987
sg64
(lp4555
g57
(g78
g59
NtRp4556
(dp4557
g62
(dp4558
sg71
g4552
sg64
(lp4559
g57
(g58
g59
NtRp4560
(dp4561
g62
(dp4562
g70
I3
ssg71
g4556
sg64
(lp4563
g100
asbasbasbag57
(g73
g59
NtRp4564
(dp4565
g62
(dp4566
sg71
g3987
sg64
(lp4567
g57
(g78
g59
NtRp4568
(dp4569
g62
(dp4570
sg71
g4564
sg64
(lp4571
g57
(g58
g59
NtRp4572
(dp4573
g62
(dp4574
g70
I3
ssg71
g4568
sg64
(lp4575
S'None'
p4576
asbasbasbag57
(g73
g59
NtRp4577
(dp4578
g62
(dp4579
sg71
g3987
sg64
(lp4580
g57
(g78
g59
NtRp4581
(dp4582
g62
(dp4583
sg71
g4577
sg64
(lp4584
g57
(g58
g59
NtRp4585
(dp4586
g62
(dp4587
g70
I3
ssg71
g4581
sg64
(lp4588
g57
(g66
g59
NtRp4589
(dp4590
g62
(dp4591
g70
I2
ssg71
Nsg64
(lp4592
g57
(g73
g59
NtRp4593
(dp4594
g62
(dp4595
sg71
g4589
sg64
(lp4596
g57
(g78
g59
NtRp4597
(dp4598
g62
(dp4599
sg71
g4593
sg64
(lp4600
g57
(g58
g59
NtRp4601
(dp4602
g62
(dp4603
g70
I2
ssg71
g4597
sg64
(lp4604
g57
(g66
g59
NtRp4605
(dp4606
g62
(dp4607
g70
I1
ssg71
Nsg64
(lp4608
g57
(g73
g59
NtRp4609
(dp4610
g62
(dp4611
sg71
g4605
sg64
(lp4612
g57
(g78
g59
NtRp4613
(dp4614
g62
(dp4615
sg71
g4609
sg64
(lp4616
g57
(g58
g59
NtRp4617
(dp4618
g62
(dp4619
g70
I1
ssg71
g4613
sg64
(lp4620
g4063
asbasbasbag57
(g73
g59
NtRp4621
(dp4622
g62
(dp4623
sg71
g4605
sg64
(lp4624
g57
(g78
g59
NtRp4625
(dp4626
g62
(dp4627
sg71
g4621
sg64
(lp4628
g57
(g58
g59
NtRp4629
(dp4630
g62
(dp4631
g70
I1
ssg71
g4625
sg64
(lp4632
I00
asbasbasbag57
(g73
g59
NtRp4633
(dp4634
g62
(dp4635
sg71
g4605
sg64
(lp4636
g57
(g78
g59
NtRp4637
(dp4638
g62
(dp4639
sg71
g4633
sg64
(lp4640
g57
(g58
g59
NtRp4641
(dp4642
g62
(dp4643
g70
I1
ssg71
g4637
sg64
(lp4644
g4061
asbasbasbasbasbasbasbag57
(g73
g59
NtRp4645
(dp4646
g62
(dp4647
sg71
g4589
sg64
(lp4648
g57
(g78
g59
NtRp4649
(dp4650
g62
(dp4651
sg71
g4645
sg64
(lp4652
g57
(g58
g59
NtRp4653
(dp4654
g62
(dp4655
g70
I2
ssg71
g4649
sg64
(lp4656
g57
(g66
g59
NtRp4657
(dp4658
g62
(dp4659
g70
I1
ssg71
Nsg64
(lp4660
g57
(g73
g59
NtRp4661
(dp4662
g62
(dp4663
sg71
g4657
sg64
(lp4664
g57
(g78
g59
NtRp4665
(dp4666
g62
(dp4667
sg71
g4661
sg64
(lp4668
g57
(g58
g59
NtRp4669
(dp4670
g62
(dp4671
g70
I1
ssg71
g4665
sg64
(lp4672
g4073
asbasbasbag57
(g73
g59
NtRp4673
(dp4674
g62
(dp4675
sg71
g4657
sg64
(lp4676
g57
(g78
g59
NtRp4677
(dp4678
g62
(dp4679
sg71
g4673
sg64
(lp4680
g57
(g58
g59
NtRp4681
(dp4682
g62
(dp4683
g70
I1
ssg71
g4677
sg64
(lp4684
I00
asbasbasbag57
(g73
g59
NtRp4685
(dp4686
g62
(dp4687
sg71
g4657
sg64
(lp4688
g57
(g78
g59
NtRp4689
(dp4690
g62
(dp4691
sg71
g4685
sg64
(lp4692
g57
(g58
g59
NtRp4693
(dp4694
g62
(dp4695
g70
I1
ssg71
g4689
sg64
(lp4696
g4071
asbasbasbag57
(g73
g59
NtRp4697
(dp4698
g62
(dp4699
sg71
g4657
sg64
(lp4700
g57
(g78
g59
NtRp4701
(dp4702
g62
(dp4703
sg71
g4697
sg64
(lp4704
g57
(g58
g59
NtRp4705
(dp4706
g62
(dp4707
g70
I1
ssg71
g4701
sg64
(lp4708
(lp4709
(g4087
I00
g4085
tp4710
a(g4097
I00
g4095
tp4711
a(g4107
I00
g4105
tp4712
a(g4117
I00
g4115
tp4713
a(g4127
I00
g4125
tp4714
a(g4137
I00
g4135
tp4715
a(g4147
I00
g4145
tp4716
a(g4157
I00
g4155
tp4717
a(g4167
I00
g4165
tp4718
aasbasbasbasbasbasbasbag57
(g73
g59
NtRp4719
(dp4720
g62
(dp4721
sg71
g4589
sg64
(lp4722
g57
(g78
g59
NtRp4723
(dp4724
g62
(dp4725
sg71
g4719
sg64
(lp4726
g57
(g58
g59
NtRp4727
(dp4728
g62
(dp4729
g70
I2
ssg71
g4723
sg64
(lp4730
g57
(g66
g59
NtRp4731
(dp4732
g62
(dp4733
g70
I1
ssg71
Nsg64
(lp4734
g57
(g73
g59
NtRp4735
(dp4736
g62
(dp4737
sg71
g4731
sg64
(lp4738
g57
(g78
g59
NtRp4739
(dp4740
g62
(dp4741
sg71
g4735
sg64
(lp4742
g57
(g58
g59
NtRp4743
(dp4744
g62
(dp4745
g70
I1
ssg71
g4739
sg64
(lp4746
g4177
asbasbasbag57
(g73
g59
NtRp4747
(dp4748
g62
(dp4749
sg71
g4731
sg64
(lp4750
g57
(g78
g59
NtRp4751
(dp4752
g62
(dp4753
sg71
g4747
sg64
(lp4754
g57
(g58
g59
NtRp4755
(dp4756
g62
(dp4757
g70
I1
ssg71
g4751
sg64
(lp4758
I00
asbasbasbag57
(g73
g59
NtRp4759
(dp4760
g62
(dp4761
sg71
g4731
sg64
(lp4762
g57
(g78
g59
NtRp4763
(dp4764
g62
(dp4765
sg71
g4759
sg64
(lp4766
g57
(g58
g59
NtRp4767
(dp4768
g62
(dp4769
g70
I1
ssg71
g4763
sg64
(lp4770
g4175
asbasbasbag57
(g73
g59
NtRp4771
(dp4772
g62
(dp4773
sg71
g4731
sg64
(lp4774
g57
(g78
g59
NtRp4775
(dp4776
g62
(dp4777
sg71
g4771
sg64
(lp4778
g57
(g58
g59
NtRp4779
(dp4780
g62
(dp4781
g70
I1
ssg71
g4775
sg64
(lp4782
(lp4783
(g4191
I00
g4189
tp4784
a(g4201
I00
g4199
tp4785
a(g4211
I00
g4209
tp4786
a(g4221
I00
g4219
tp4787
a(g4231
I00
g4229
tp4788
a(g4241
I00
g4239
tp4789
a(g4251
I00
g4249
tp4790
a(g4261
I00
g4259
tp4791
a(g4271
I00
g4269
tp4792
a(g4281
I00
g4279
tp4793
a(g4291
I00
g4289
tp4794
aasbasbasbasbasbasbasbag57
(g73
g59
NtRp4795
(dp4796
g62
(dp4797
sg71
g4589
sg64
(lp4798
g57
(g78
g59
NtRp4799
(dp4800
g62
(dp4801
sg71
g4795
sg64
(lp4802
g57
(g58
g59
NtRp4803
(dp4804
g62
(dp4805
g70
I2
ssg71
g4799
sg64
(lp4806
g57
(g66
g59
NtRp4807
(dp4808
g62
(dp4809
g70
I1
ssg71
Nsg64
(lp4810
g57
(g73
g59
NtRp4811
(dp4812
g62
(dp4813
sg71
g4807
sg64
(lp4814
g57
(g78
g59
NtRp4815
(dp4816
g62
(dp4817
sg71
g4811
sg64
(lp4818
g57
(g58
g59
NtRp4819
(dp4820
g62
(dp4821
g70
I1
ssg71
g4815
sg64
(lp4822
g4301
asbasbasbag57
(g73
g59
NtRp4823
(dp4824
g62
(dp4825
sg71
g4807
sg64
(lp4826
g57
(g78
g59
NtRp4827
(dp4828
g62
(dp4829
sg71
g4823
sg64
(lp4830
g57
(g58
g59
NtRp4831
(dp4832
g62
(dp4833
g70
I1
ssg71
g4827
sg64
(lp4834
I00
asbasbasbag57
(g73
g59
NtRp4835
(dp4836
g62
(dp4837
sg71
g4807
sg64
(lp4838
g57
(g78
g59
NtRp4839
(dp4840
g62
(dp4841
sg71
g4835
sg64
(lp4842
g57
(g58
g59
NtRp4843
(dp4844
g62
(dp4845
g70
I1
ssg71
g4839
sg64
(lp4846
g4299
asbasbasbag57
(g73
g59
NtRp4847
(dp4848
g62
(dp4849
sg71
g4807
sg64
(lp4850
g57
(g78
g59
NtRp4851
(dp4852
g62
(dp4853
sg71
g4847
sg64
(lp4854
g57
(g58
g59
NtRp4855
(dp4856
g62
(dp4857
g70
I1
ssg71
g4851
sg64
(lp4858
(lp4859
(g4315
I00
g4313
tp4860
a(g4325
I00
g4323
tp4861
a(g4335
I00
g4333
tp4862
a(g4345
I00
g4343
tp4863
a(g4355
I00
g4353
tp4864
a(g4365
I00
g4363
tp4865
a(g4375
I00
g4373
tp4866
a(g4385
I00
g4383
tp4867
a(g4395
I00
g4393
tp4868
a(g4405
I00
g4403
tp4869
a(g4415
I00
g4413
tp4870
a(g4425
I00
g4423
tp4871
a(g4435
I00
g4433
tp4872
a(g4445
I00
g4443
tp4873
a(g4455
I00
g4453
tp4874
a(g4465
I00
g4463
tp4875
aasbasbasbasbasbasbasbag57
(g73
g59
NtRp4876
(dp4877
g62
(dp4878
sg71
g4589
sg64
(lp4879
g57
(g78
g59
NtRp4880
(dp4881
g62
(dp4882
sg71
g4876
sg64
(lp4883
g57
(g58
g59
NtRp4884
(dp4885
g62
(dp4886
g70
I2
ssg71
g4880
sg64
(lp4887
g57
(g66
g59
NtRp4888
(dp4889
g62
(dp4890
g70
I1
ssg71
Nsg64
(lp4891
g57
(g73
g59
NtRp4892
(dp4893
g62
(dp4894
sg71
g4888
sg64
(lp4895
g57
(g78
g59
NtRp4896
(dp4897
g62
(dp4898
sg71
g4892
sg64
(lp4899
g57
(g58
g59
NtRp4900
(dp4901
g62
(dp4902
g70
I1
ssg71
g4896
sg64
(lp4903
g4474
asbasbasbag57
(g73
g59
NtRp4904
(dp4905
g62
(dp4906
sg71
g4888
sg64
(lp4907
g57
(g78
g59
NtRp4908
(dp4909
g62
(dp4910
sg71
g4904
sg64
(lp4911
g57
(g58
g59
NtRp4912
(dp4913
g62
(dp4914
g70
I1
ssg71
g4908
sg64
(lp4915
I00
asbasbasbag57
(g73
g59
NtRp4916
(dp4917
g62
(dp4918
sg71
g4888
sg64
(lp4919
g57
(g78
g59
NtRp4920
(dp4921
g62
(dp4922
sg71
g4916
sg64
(lp4923
g57
(g58
g59
NtRp4924
(dp4925
g62
(dp4926
g70
I1
ssg71
g4920
sg64
(lp4927
Nasbasbasbag57
(g73
g59
NtRp4928
(dp4929
g62
(dp4930
sg71
g4888
sg64
(lp4931
g57
(g78
g59
NtRp4932
(dp4933
g62
(dp4934
sg71
g4928
sg64
(lp4935
g57
(g58
g59
NtRp4936
(dp4937
g62
(dp4938
g70
I1
ssg71
g4932
sg64
(lp4939
(lp4940
(g4488
I00
g4486
tp4941
a(g4498
I00
g4496
tp4942
a(g4508
I00
g4506
tp4943
aasbasbasbasbasbasbasbag57
(g73
g59
NtRp4944
(dp4945
g62
(dp4946
sg71
g4589
sg64
(lp4947
g57
(g78
g59
NtRp4948
(dp4949
g62
(dp4950
sg71
g4944
sg64
(lp4951
g57
(g58
g59
NtRp4952
(dp4953
g62
(dp4954
g70
I2
ssg71
g4948
sg64
(lp4955
g57
(g66
g59
NtRp4956
(dp4957
g62
(dp4958
g70
I1
ssg71
Nsg64
(lp4959
g57
(g73
g59
NtRp4960
(dp4961
g62
(dp4962
sg71
g4956
sg64
(lp4963
g57
(g78
g59
NtRp4964
(dp4965
g62
(dp4966
sg71
g4960
sg64
(lp4967
g57
(g58
g59
NtRp4968
(dp4969
g62
(dp4970
g70
I1
ssg71
g4964
sg64
(lp4971
g4517
asbasbasbag57
(g73
g59
NtRp4972
(dp4973
g62
(dp4974
sg71
g4956
sg64
(lp4975
g57
(g78
g59
NtRp4976
(dp4977
g62
(dp4978
sg71
g4972
sg64
(lp4979
g57
(g58
g59
NtRp4980
(dp4981
g62
(dp4982
g70
I1
ssg71
g4976
sg64
(lp4983
I00
asbasbasbag57
(g73
g59
NtRp4984
(dp4985
g62
(dp4986
sg71
g4956
sg64
(lp4987
g57
(g78
g59
NtRp4988
(dp4989
g62
(dp4990
sg71
g4984
sg64
(lp4991
g57
(g58
g59
NtRp4992
(dp4993
g62
(dp4994
g70
I1
ssg71
g4988
sg64
(lp4995
Nasbasbasbag57
(g73
g59
NtRp4996
(dp4997
g62
(dp4998
sg71
g4956
sg64
(lp4999
g57
(g78
g59
NtRp5000
(dp5001
g62
(dp5002
sg71
g4996
sg64
(lp5003
g57
(g58
g59
NtRp5004
(dp5005
g62
(dp5006
g70
I1
ssg71
g5000
sg64
(lp5007
(lp5008
(g4531
I00
g4529
tp5009
a(g4540
I00
g4259
tp5010
a(g4549
I00
g4269
tp5011
aasbasbasbasbasbasbasbasbasbasbasbasbasbasbasbasbasbasbasbag57
(g73
g59
NtRp5012
(dp5013
g62
(dp5014
sg71
g3202
sg64
(lp5015
g57
(g78
g59
NtRp5016
(dp5017
g62
(dp5018
g82
g83
ssg71
g5012
sg64
(lp5019
S'meta'
p5020
asbag57
(g78
g59
NtRp5021
(dp5022
g62
(dp5023
g89
g90
ssg71
g5012
sg64
(lp5024
S':'
asbag57
(g78
g59
NtRp5025
(dp5026
g62
(dp5027
sg71
g5012
sg64
(lp5028
g57
(g58
g59
NtRp5029
(dp5030
g62
(dp5031
g70
I5
ssg71
g5025
sg64
(lp5032
g57
(g66
g59
NtRp5033
(dp5034
g62
(dp5035
g70
I4
ssg71
Nsg64
(lp5036
g57
(g73
g59
NtRp5037
(dp5038
g62
(dp5039
sg71
g5033
sg64
(lp5040
g57
(g78
g59
NtRp5041
(dp5042
g62
(dp5043
g82
g83
ssg71
g5037
sg64
(lp5044
S'author'
p5045
asbag57
(g78
g59
NtRp5046
(dp5047
g62
(dp5048
g89
g90
ssg71
g5037
sg64
(lp5049
S':'
asbag57
(g78
g59
NtRp5050
(dp5051
g62
(dp5052
sg71
g5037
sg64
(lp5053
g57
(g58
g59
NtRp5054
(dp5055
g62
(dp5056
g70
I4
ssg71
g5050
sg64
(lp5057
S'Your Name <you@example.com>'
p5058
asbasbasbag57
(g73
g59
NtRp5059
(dp5060
g62
(dp5061
sg71
g5033
sg64
(lp5062
g57
(g78
g59
NtRp5063
(dp5064
g62
(dp5065
g82
g83
ssg71
g5059
sg64
(lp5066
S'copyright'
p5067
asbag57
(g78
g59
NtRp5068
(dp5069
g62
(dp5070
g89
g90
ssg71
g5059
sg64
(lp5071
S':'
asbag57
(g78
g59
NtRp5072
(dp5073
g62
(dp5074
sg71
g5059
sg64
(lp5075
g57
(g58
g59
NtRp5076
(dp5077
g62
(dp5078
g70
I4
ssg71
g5072
sg64
(lp5079
S'Copyright 2011'
p5080
asbasbasbag57
(g73
g59
NtRp5081
(dp5082
g62
(dp5083
sg71
g5033
sg64
(lp5084
g57
(g78
g59
NtRp5085
(dp5086
g62
(dp5087
g82
g83
ssg71
g5081
sg64
(lp5088
S'description'
p5089
asbag57
(g78
g59
NtRp5090
(dp5091
g62
(dp5092
g89
g90
ssg71
g5081
sg64
(lp5093
S':'
asbag57
(g78
g59
NtRp5094
(dp5095
g62
(dp5096
sg71
g5081
sg64
(lp5097
g57
(g58
g59
NtRp5098
(dp5099
g62
(dp5100
g70
I4
ssg71
g5094
sg64
(lp5101
S'a cool new app'
p5102
asbasbasbag57
(g73
g59
NtRp5103
(dp5104
g62
(dp5105
sg71
g5033
sg64
(lp5106
g57
(g78
g59
NtRp5107
(dp5108
g62
(dp5109
g82
g83
ssg71
g5103
sg64
(lp5110
S'generator'
p5111
asbag57
(g78
g59
NtRp5112
(dp5113
g62
(dp5114
g89
g90
ssg71
g5103
sg64
(lp5115
S':'
asbag57
(g78
g59
NtRp5116
(dp5117
g62
(dp5118
sg71
g5103
sg64
(lp5119
g57
(g58
g59
NtRp5120
(dp5121
g62
(dp5122
g70
I4
ssg71
g5116
sg64
(lp5123
S'Web2py Web Framework'
p5124
asbasbasbag57
(g73
g59
NtRp5125
(dp5126
g62
(dp5127
sg71
g5033
sg64
(lp5128
g57
(g78
g59
NtRp5129
(dp5130
g62
(dp5131
g82
g83
ssg71
g5125
sg64
(lp5132
S'keywords'
p5133
asbag57
(g78
g59
NtRp5134
(dp5135
g62
(dp5136
g89
g90
ssg71
g5125
sg64
(lp5137
S':'
asbag57
(g78
g59
NtRp5138
(dp5139
g62
(dp5140
sg71
g5125
sg64
(lp5141
g57
(g58
g59
NtRp5142
(dp5143
g62
(dp5144
g70
I4
ssg71
g5138
sg64
(lp5145
S'web2py, python, framework'
p5146
asbasbasbasbasbasbasbag57
(g73
g59
NtRp5147
(dp5148
g62
(dp5149
sg71
g3202
sg64
(lp5150
g57
(g78
g59
NtRp5151
(dp5152
g62
(dp5153
g82
g83
ssg71
g5147
sg64
(lp5154
S'postprocessing'
p5155
asbag57
(g78
g59
NtRp5156
(dp5157
g62
(dp5158
g89
g90
ssg71
g5147
sg64
(lp5159
S':'
asbag57
(g78
g59
NtRp5160
(dp5161
g62
(dp5162
sg71
g5147
sg64
(lp5163
g57
(g58
g59
NtRp5164
(dp5165
g62
(dp5166
g70
I5
ssg71
g5160
sg64
(lp5167
g57
(g66
g59
NtRp5168
(dp5169
g62
(dp5170
g70
I4
ssg71
Nsg64
(lp5171
sbasbasbasbag57
(g73
g59
NtRp5172
(dp5173
g62
(dp5174
sg71
g3202
sg64
(lp5175
g57
(g78
g59
NtRp5176
(dp5177
g62
(dp5178
g82
g83
ssg71
g5172
sg64
(lp5179
S'session_file'
p5180
asbag57
(g78
g59
NtRp5181
(dp5182
g62
(dp5183
g89
g90
ssg71
g5172
sg64
(lp5184
S':'
asbag57
(g78
g59
NtRp5185
(dp5186
g62
(dp5187
sg71
g5172
sg64
(lp5188
g57
(g58
g59
NtRp5189
(dp5190
g62
(dp5191
g70
I5
ssg71
g5185
sg64
(lp5192
S"<open file '/home/goshawk/web2py/applications/milo/sessions/127.0.0.1-499ea75f-9a76-4bab-a434-576b71ab192c', mode 'rb+' at 0x7f28d8161a50>"
p5193
asbasbasbag57
(g73
g59
NtRp5194
(dp5195
g62
(dp5196
sg71
g3202
sg64
(lp5197
g57
(g78
g59
NtRp5198
(dp5199
g62
(dp5200
g82
g83
ssg71
g5194
sg64
(lp5201
S'session_filename'
p5202
asbag57
(g78
g59
NtRp5203
(dp5204
g62
(dp5205
g89
g90
ssg71
g5194
sg64
(lp5206
S':'
asbag57
(g78
g59
NtRp5207
(dp5208
g62
(dp5209
sg71
g5194
sg64
(lp5210
g57
(g58
g59
NtRp5211
(dp5212
g62
(dp5213
g70
I5
ssg71
g5207
sg64
(lp5214
S'/home/goshawk/web2py/applications/milo/sessions/127.0.0.1-499ea75f-9a76-4bab-a434-576b71ab192c'
p5215
asbasbasbag57
(g73
g59
NtRp5216
(dp5217
g62
(dp5218
sg71
g3202
sg64
(lp5219
g57
(g78
g59
NtRp5220
(dp5221
g62
(dp5222
g82
g83
ssg71
g5216
sg64
(lp5223
S'session_id'
p5224
asbag57
(g78
g59
NtRp5225
(dp5226
g62
(dp5227
g89
g90
ssg71
g5216
sg64
(lp5228
S':'
asbag57
(g78
g59
NtRp5229
(dp5230
g62
(dp5231
sg71
g5216
sg64
(lp5232
g57
(g58
g59
NtRp5233
(dp5234
g62
(dp5235
g70
I5
ssg71
g5229
sg64
(lp5236
S'127.0.0.1-499ea75f-9a76-4bab-a434-576b71ab192c'
p5237
asbasbasbag57
(g73
g59
NtRp5238
(dp5239
g62
(dp5240
sg71
g3202
sg64
(lp5241
g57
(g78
g59
NtRp5242
(dp5243
g62
(dp5244
g82
g83
ssg71
g5238
sg64
(lp5245
S'session_id_name'
p5246
asbag57
(g78
g59
NtRp5247
(dp5248
g62
(dp5249
g89
g90
ssg71
g5238
sg64
(lp5250
S':'
asbag57
(g78
g59
NtRp5251
(dp5252
g62
(dp5253
sg71
g5238
sg64
(lp5254
g57
(g58
g59
NtRp5255
(dp5256
g62
(dp5257
g70
I5
ssg71
g5251
sg64
(lp5258
g3259
asbasbasbag57
(g73
g59
NtRp5259
(dp5260
g62
(dp5261
sg71
g3202
sg64
(lp5262
g57
(g78
g59
NtRp5263
(dp5264
g62
(dp5265
g82
g83
ssg71
g5259
sg64
(lp5266
S'session_locked'
p5267
asbag57
(g78
g59
NtRp5268
(dp5269
g62
(dp5270
g89
g90
ssg71
g5259
sg64
(lp5271
S':'
asbag57
(g78
g59
NtRp5272
(dp5273
g62
(dp5274
sg71
g5259
sg64
(lp5275
g57
(g58
g59
NtRp5276
(dp5277
g62
(dp5278
g70
I5
ssg71
g5272
sg64
(lp5279
g1742
asbasbasbag57
(g73
g59
NtRp5280
(dp5281
g62
(dp5282
sg71
g3202
sg64
(lp5283
g57
(g78
g59
NtRp5284
(dp5285
g62
(dp5286
g82
g83
ssg71
g5280
sg64
(lp5287
S'session_new'
p5288
asbag57
(g78
g59
NtRp5289
(dp5290
g62
(dp5291
g89
g90
ssg71
g5280
sg64
(lp5292
S':'
asbag57
(g78
g59
NtRp5293
(dp5294
g62
(dp5295
sg71
g5280
sg64
(lp5296
g57
(g58
g59
NtRp5297
(dp5298
g62
(dp5299
g70
I5
ssg71
g5293
sg64
(lp5300
g100
asbasbasbag57
(g73
g59
NtRp5301
(dp5302
g62
(dp5303
sg71
g3202
sg64
(lp5304
g57
(g78
g59
NtRp5305
(dp5306
g62
(dp5307
g82
g83
ssg71
g5301
sg64
(lp5308
S'status'
p5309
asbag57
(g78
g59
NtRp5310
(dp5311
g62
(dp5312
g89
g90
ssg71
g5301
sg64
(lp5313
S':'
asbag57
(g78
g59
NtRp5314
(dp5315
g62
(dp5316
sg71
g5301
sg64
(lp5317
g57
(g58
g59
NtRp5318
(dp5319
g62
(dp5320
g70
I5
ssg71
g5314
sg64
(lp5321
S'200'
p5322
asbasbasbag57
(g73
g59
NtRp5323
(dp5324
g62
(dp5325
sg71
g3202
sg64
(lp5326
g57
(g78
g59
NtRp5327
(dp5328
g62
(dp5329
g82
g83
ssg71
g5323
sg64
(lp5330
S'subtitle'
p5331
asbag57
(g78
g59
NtRp5332
(dp5333
g62
(dp5334
g89
g90
ssg71
g5323
sg64
(lp5335
S':'
asbag57
(g78
g59
NtRp5336
(dp5337
g62
(dp5338
sg71
g5323
sg64
(lp5339
g57
(g58
g59
NtRp5340
(dp5341
g62
(dp5342
g70
I5
ssg71
g5336
sg64
(lp5343
g3862
(S's\r\x00\x00\x00customize me!'
tRp5344
asbasbasbag57
(g73
g59
NtRp5345
(dp5346
g62
(dp5347
sg71
g3202
sg64
(lp5348
g57
(g78
g59
NtRp5349
(dp5350
g62
(dp5351
g82
g83
ssg71
g5345
sg64
(lp5352
S'title'
p5353
asbag57
(g78
g59
NtRp5354
(dp5355
g62
(dp5356
g89
g90
ssg71
g5345
sg64
(lp5357
S':'
asbag57
(g78
g59
NtRp5358
(dp5359
g62
(dp5360
sg71
g5345
sg64
(lp5361
g57
(g58
g59
NtRp5362
(dp5363
g62
(dp5364
g70
I5
ssg71
g5358
sg64
(lp5365
S'Milo'
p5366
asbasbasbag57
(g73
g59
NtRp5367
(dp5368
g62
(dp5369
sg71
g3202
sg64
(lp5370
g57
(g78
g59
NtRp5371
(dp5372
g62
(dp5373
g82
g83
ssg71
g5367
sg64
(lp5374
g2406
asbag57
(g78
g59
NtRp5375
(dp5376
g62
(dp5377
g89
g90
ssg71
g5367
sg64
(lp5378
S':'
asbag57
(g78
g59
NtRp5379
(dp5380
g62
(dp5381
sg71
g5367
sg64
(lp5382
g57
(g58
g59
NtRp5383
(dp5384
g62
(dp5385
g70
I5
ssg71
g5379
sg64
(lp5386
g2419
asbasbasbag57
(g73
g59
NtRp5387
(dp5388
g62
(dp5389
sg71
g3202
sg64
(lp5390
g57
(g78
g59
NtRp5391
(dp5392
g62
(dp5393
g82
g83
ssg71
g5387
sg64
(lp5394
S'view'
p5395
asbag57
(g78
g59
NtRp5396
(dp5397
g62
(dp5398
g89
g90
ssg71
g5387
sg64
(lp5399
S':'
asbag57
(g78
g59
NtRp5400
(dp5401
g62
(dp5402
sg71
g5387
sg64
(lp5403
g57
(g58
g59
NtRp5404
(dp5405
g62
(dp5406
g70
I5
ssg71
g5400
sg64
(lp5407
S'default/index.html'
p5408
asbasbasbasbasbsS'locals'
p5409
(dp5410
S'Service'
p5411
S"<class 'gluon.tools.Service'>"
p5412
sS'OBJECT'
p5413
S"<class 'gluon.html.OBJECT'>"
p5414
sS'SQLDB'
p5415
S"<class 'gluon.dal.DAL'>"
p5416
sg3184
S"<Storage {'_Session__hash': 'w\\xf2e\\x82\\xd4\\xf3h...{'version': '18.0.1025.151', 'name': 'Chrome'}}}>"
p5417
sS'LINK'
p5418
S"<class 'gluon.html.LINK'>"
p5419
sS'BR'
p5420
S"<class 'gluon.html.BR'>"
p5421
sS'local_import'
p5422
S'<function <lambda>>'
p5423
sS'OPTGROUP'
p5424
S"<class 'gluon.html.OPTGROUP'>"
p5425
sS'__package__'
p5426
S'None'
p5427
sS'PRE'
p5428
S"<class 'gluon.html.PRE'>"
p5429
sS'IS_INT_IN_RANGE'
p5430
S"<class 'gluon.validators.IS_INT_IN_RANGE'>"
p5431
sS'left_sidebar_enabled'
p5432
g100
sS'IS_LOWER'
p5433
S"<class 'gluon.validators.IS_LOWER'>"
p5434
sS'IS_STRONG'
p5435
S"<class 'gluon.validators.IS_STRONG'>"
p5436
sS'cache'
p5437
S'<gluon.cache.Cache object>'
p5438
sS'IS_IN_DB'
p5439
S"<class 'gluon.validators.IS_IN_DB'>"
p5440
sS'TAG'
p5441
S'<gluon.html.__TAG__ object>'
p5442
sS'SQLField'
p5443
S"<class 'gluon.dal.Field'>"
p5444
sS'mail'
p5445
S'<gluon.tools.Mail object>'
p5446
sS'BODY'
p5447
S"<class 'gluon.html.BODY'>"
p5448
sS'IS_DATE_IN_RANGE'
p5449
S"<class 'gluon.validators.IS_DATE_IN_RANGE'>"
p5450
sS'TH'
p5451
S"<class 'gluon.html.TH'>"
p5452
sS'URL'
p5453
S'<function URL>'
p5454
sS'__file__'
p5455
S"'/home/goshawk/web2py/applications/milo/views/default/index.html'"
p5456
sS'db'
p5457
S"<DAL {'auth_event': <Table {'origin': <gluon.dal...': <gluon.dal.Field object at 0x7f28ec107d10>}>}>"
p5458
sS'auth'
p5459
S'<gluon.tools.Auth object>'
p5460
sS'P'
S"<class 'gluon.html.P'>"
p5461
sS'TFOOT'
p5462
S"<class 'gluon.html.TFOOT'>"
p5463
sS'XHTML'
p5464
S"<class 'gluon.html.XHTML'>"
p5465
sS'ON'
p5466
g1742
sS'OL'
p5467
S"<class 'gluon.html.OL'>"
p5468
sS'TEXTAREA'
p5469
S"<class 'gluon.html.TEXTAREA'>"
p5470
sS'MENU'
p5471
S"<class 'gluon.html.MENU'>"
p5472
sS'IS_IMAGE'
p5473
S"<class 'gluon.validators.IS_IMAGE'>"
p5474
sS'LOAD'
p5475
S'<function LOAD>'
p5476
sS'CODE'
p5477
S"<class 'gluon.html.CODE'>"
p5478
sS'HTTP'
p5479
S"<class 'gluon.http.HTTP'>"
p5480
sS'HR'
p5481
S"<class 'gluon.html.HR'>"
p5482
sS'IS_DATETIME'
p5483
S"<class 'gluon.validators.IS_DATETIME'>"
p5484
sS'HEAD'
p5485
S"<class 'gluon.html.HEAD'>"
p5486
sS'LABEL'
p5487
S"<class 'gluon.html.LABEL'>"
p5488
sS'META'
p5489
S"<class 'gluon.html.META'>"
p5490
sS'plugins'
p5491
S'<gluon.tools.PluginManager object>'
p5492
sS'SELECT'
p5493
S"<class 'gluon.html.SELECT'>"
p5494
sS'use_janrain'
p5495
S'<function use_janrain>'
p5496
sS'CENTER'
p5497
S"<class 'gluon.html.CENTER'>"
p5498
sS'prettydate'
p5499
S'<function prettydate>'
p5500
sS'Crud'
p5501
S"<class 'gluon.tools.Crud'>"
p5502
sS'Auth'
p5503
S"<class 'gluon.tools.Auth'>"
p5504
sS'IS_EQUAL_TO'
p5505
S"<class 'gluon.validators.IS_EQUAL_TO'>"
p5506
sS'HTML'
p5507
S"<class 'gluon.html.HTML'>"
p5508
sS'SQLFORM'
p5509
S"<class 'gluon.sqlhtml.SQLFORM'>"
p5510
sS'EM'
p5511
S"<class 'gluon.html.EM'>"
p5512
sS'redirect'
p5513
S'<function redirect>'
p5514
sS'FIELDSET'
p5515
S"<class 'gluon.html.FIELDSET'>"
p5516
sS'__builtins__'
p5517
S"{'ArithmeticError': <type 'exceptions.ArithmeticError'>, 'AssertionError': <type 'exceptions.AssertionError'>, 'AttributeError': <type 'exceptions.AttributeError'>, 'BaseException': <type 'exceptions.BaseException'>, 'BufferError': <type 'exceptions.BufferError'>, 'BytesWarning': <type 'exceptions.BytesWarning'>, 'DeprecationWarning': <type 'exceptions.DeprecationWarning'>, 'EOFError': <type 'exceptions.EOFError'>, 'Ellipsis': Ellipsis, 'EnvironmentError': <type 'exceptions.EnvironmentError'>, ...}"
p5518
sS'embed64'
p5519
S'<function embed64>'
p5520
sS'IS_LIST_OF'
p5521
S"<class 'gluon.validators.IS_LIST_OF'>"
p5522
sS'INPUT'
p5523
S"<class 'gluon.html.INPUT'>"
p5524
sS'EMBED'
p5525
S"<class 'gluon.html.EMBED'>"
p5526
sS'_'
S'<function _>'
p5527
sS'H2'
p5528
S"<class 'gluon.html.H2'>"
p5529
sS'H3'
p5530
S"<class 'gluon.html.H3'>"
p5531
sS'BUTTON'
p5532
S"<class 'gluon.html.BUTTON'>"
p5533
sS'H1'
p5534
S"<class 'gluon.html.H1'>"
p5535
sS'H6'
p5536
S"<class 'gluon.html.H6'>"
p5537
sS'H4'
p5538
S"<class 'gluon.html.H4'>"
p5539
sS'H5'
p5540
S"<class 'gluon.html.H5'>"
p5541
sS'UL'
p5542
S"<class 'gluon.html.UL'>"
p5543
sS'IS_UPPER'
p5544
S"<class 'gluon.validators.IS_UPPER'>"
p5545
sS'xmlescape'
p5546
S'<function xmlescape>'
p5547
sS'IS_TIME'
p5548
S"<class 'gluon.validators.IS_TIME'>"
p5549
sS'OPTION'
p5550
S"<class 'gluon.html.OPTION'>"
p5551
sS'TITLE'
p5552
S"<class 'gluon.html.TITLE'>"
p5553
sS'CRYPT'
p5554
S"<class 'gluon.validators.CRYPT'>"
p5555
sS'IS_EMPTY_OR'
p5556
S"<class 'gluon.validators.IS_EMPTY_OR'>"
p5557
sS'MARKMIN'
p5558
S"<class 'gluon.html.MARKMIN'>"
p5559
sS'__name__'
p5560
S"'__restricted__'"
p5561
sS'COL'
p5562
S"<class 'gluon.html.COL'>"
p5563
sS'service'
p5564
S'<gluon.tools.Service object>'
p5565
sS'SCRIPT'
p5566
S"<class 'gluon.html.SCRIPT'>"
p5567
sS'is_mobile'
p5568
g100
sS'TABLE'
p5569
S"<class 'gluon.html.TABLE'>"
p5570
sS'IS_IPV4'
p5571
S"<class 'gluon.validators.IS_IPV4'>"
p5572
sS'IS_LENGTH'
p5573
S"<class 'gluon.validators.IS_LENGTH'>"
p5574
sS'XML'
p5575
S"<class 'gluon.html.XML'>"
p5576
sS'B'
S"<class 'gluon.html.B'>"
p5577
sS'IMG'
p5578
S"<class 'gluon.html.IMG'>"
p5579
sS'SQLTABLE'
p5580
S"<class 'gluon.sqlhtml.SQLTABLE'>"
p5581
sS'IS_MATCH'
p5582
S"<class 'gluon.validators.IS_MATCH'>"
p5583
sS'IS_ALPHANUMERIC'
p5584
S"<class 'gluon.validators.IS_ALPHANUMERIC'>"
p5585
sS'SPAN'
p5586
S"<class 'gluon.html.SPAN'>"
p5587
sS'IS_SLUG'
p5588
S"<class 'gluon.validators.IS_SLUG'>"
p5589
sS'movies'
p5590
S'[<Movie id:133093[sql] title:_"Blue Heelers" Second Chance (1999)_>]'
p5591
sS'CLEANUP'
p5592
S"<class 'gluon.validators.CLEANUP'>"
p5593
sS'im'
p5594
S'<imdb.parser.sql.IMDbSqlAccessSystem instance>'
p5595
sS'IS_DATE'
p5596
S"<class 'gluon.validators.IS_DATE'>"
p5597
sS'IS_EMAIL'
p5598
S"<class 'gluon.validators.IS_EMAIL'>"
p5599
sS'IS_NOT_EMPTY'
p5600
S"<class 'gluon.validators.IS_NOT_EMPTY'>"
p5601
sg56
S"<Storage {'body': <cStringIO.StringO object at 0..._vars': <Storage {}>, 'post_vars': <Storage {}>}>"
p5602
sS'BEAUTIFY'
p5603
S"<class 'gluon.html.BEAUTIFY'>"
p5604
sS'TBODY'
p5605
S"<class 'gluon.html.TBODY'>"
p5606
sS'CAT'
p5607
S"<class 'gluon.html.CAT'>"
p5608
sS'Field'
p5609
S"<class 'gluon.dal.Field'>"
p5610
sS'imdb'
p5611
S"<module 'imdb' from '/usr/local/lib/python2.7/dist-packages/imdb/__init__.pyc'>"
p5612
sS'middle_columns'
p5613
S"'twelve'"
p5614
sS'DIV'
p5615
S"<class 'gluon.html.DIV'>"
p5616
sS'LEGEND'
p5617
S"<class 'gluon.html.LEGEND'>"
p5618
sS'COLGROUP'
p5619
S"<class 'gluon.html.COLGROUP'>"
p5620
sS'DAL'
p5621
S"<class 'gluon.dal.DAL'>"
p5622
sS'TT'
p5623
S"<class 'gluon.html.TT'>"
p5624
sS'TR'
p5625
S"<class 'gluon.html.TR'>"
p5626
sS'LI'
p5627
S"<class 'gluon.html.LI'>"
p5628
sS'right_sidebar_enabled'
p5629
g1742
sS'IFRAME'
p5630
S"<class 'gluon.html.IFRAME'>"
p5631
sS'TD'
p5632
S"<class 'gluon.html.TD'>"
p5633
sS'PluginManager'
p5634
S"<class 'gluon.tools.PluginManager'>"
p5635
sS'IS_URL'
p5636
S"<class 'gluon.validators.IS_URL'>"
p5637
sS'A'
S"<class 'gluon.html.A'>"
p5638
sS'STYLE'
p5639
S"<class 'gluon.html.STYLE'>"
p5640
sS'IS_DATETIME_IN_RANGE'
p5641
S"<class 'gluon.validators.IS_DATETIME_IN_RANGE'>"
p5642
sS'FORM'
p5643
S"<class 'gluon.html.FORM'>"
p5644
sS'I'
S"<class 'gluon.html.I'>"
p5645
sS'crud'
p5646
S'<gluon.tools.Crud object>'
p5647
sS'IS_NOT_IN_DB'
p5648
S"<class 'gluon.validators.IS_NOT_IN_DB'>"
p5649
sS'imdb_connection_str'
p5650
S"'postgres://imdb:imdbsecret@localhost/imdb'"
p5651
sg3197
S"<Storage {'body': <cStringIO.StringO object at 0...t 0x7f28e0181c80>, 'view': 'default/index.html'}>"
p5652
sS'THEAD'
p5653
S"<class 'gluon.html.THEAD'>"
p5654
sS'IS_NULL_OR'
p5655
S"<class 'gluon.validators.IS_EMPTY_OR'>"
p5656
sS'IS_FLOAT_IN_RANGE'
p5657
S"<class 'gluon.validators.IS_FLOAT_IN_RANGE'>"
p5658
sS'IS_EXPR'
p5659
S"<class 'gluon.validators.IS_EXPR'>"
p5660
sS'T'
S'<gluon.languages.translator object>'
p5661
sS'IS_IN_SET'
p5662
S"<class 'gluon.validators.IS_IN_SET'>"
p5663
sS'IS_UPLOAD_FILENAME'
p5664
S"<class 'gluon.validators.IS_UPLOAD_FILENAME'>"
p5665
sS'IS_DECIMAL_IN_RANGE'
p5666
S"<class 'gluon.validators.IS_DECIMAL_IN_RANGE'>"
p5667
sssS'traceback'
p5668
S'Traceback (most recent call last):\n  File "/home/goshawk/web2py/gluon/restricted.py", line 205, in restricted\n    exec ccode in environment\n  File "/home/goshawk/web2py/applications/milo/views/default/index.html", line 90, in <module>\nNameError: name \'message\' is not defined\n'
p5669
s.