(dp1
S'output'
p2
S"<type 'exceptions.TypeError'> __init__() takes exactly 1 argument (2 given)"
p3
sS'layer'
p4
S'/home/goshawk/web2py/applications/milo/models/whisperer.py'
p5
sS'code'
p6
S"from scheduler import Scheduler\nimport matlab_wrapper\n\n\ndb_scheduler = DAL('postgres://milo:milosecret@localhost/milo-scheduler')\n\ndef create_urm(*args, **vars):\n    print args, vars\n    w = matlab_wrapper.Whisperer(db)\n    w.create_urm()\n    \ndef create_icm(*args, **vars):\n    w = matlab_wrapper.Whisperer(db)\n    w.create_icm()\n    \nmilo_scheduler = Scheduler(db_scheduler, dict(\n    create_urm=create_urm,\n    create_icm=create_icm\n    ))\n\n#import datetime    \n#db_scheduler.scheduler_task.insert(\n#        application_name='milo',\n#        function_name='create_urm',\n#        enabled=True,\n#        start_time=request.now,\n#        stop_time = request.now+datetime.timedelta(days=1)\n#        )\n\ncreate_urm()"
p7
sS'snapshot'
p8
(dp9
S'exception'
p10
(dp11
S'__hash__'
p12
S"<method-wrapper '__hash__' of exceptions.TypeError object>"
p13
sS'__setattr__'
p14
S"<method-wrapper '__setattr__' of exceptions.TypeError object>"
p15
sS'__reduce_ex__'
p16
S'<built-in method __reduce_ex__ of exceptions.TypeError object>'
p17
sS'__getslice__'
p18
S"<method-wrapper '__getslice__' of exceptions.TypeError object>"
p19
sS'__getitem__'
p20
S"<method-wrapper '__getitem__' of exceptions.TypeError object>"
p21
sS'__setstate__'
p22
S'<built-in method __setstate__ of exceptions.TypeError object>'
p23
sS'args'
p24
S"('__init__() takes exactly 1 argument (2 given)',)"
p25
sS'__reduce__'
p26
S'<built-in method __reduce__ of exceptions.TypeError object>'
p27
sS'__str__'
p28
S"<method-wrapper '__str__' of exceptions.TypeError object>"
p29
sS'__format__'
p30
S'<built-in method __format__ of exceptions.TypeError object>'
p31
sS'__getattribute__'
p32
S"<method-wrapper '__getattribute__' of exceptions.TypeError object>"
p33
sS'__class__'
p34
S"<type 'exceptions.TypeError'>"
p35
sS'__unicode__'
p36
S'<built-in method __unicode__ of exceptions.TypeError object>'
p37
sS'__delattr__'
p38
S"<method-wrapper '__delattr__' of exceptions.TypeError object>"
p39
sS'__subclasshook__'
p40
S'<built-in method __subclasshook__ of type object>'
p41
sS'__repr__'
p42
S"<method-wrapper '__repr__' of exceptions.TypeError object>"
p43
sS'__dict__'
p44
S'{}'
p45
sS'__sizeof__'
p46
S'<built-in method __sizeof__ of exceptions.TypeError object>'
p47
sS'__doc__'
p48
S"'Inappropriate argument type.'"
p49
sS'__init__'
p50
S"<method-wrapper '__init__' of exceptions.TypeError object>"
p51
sS'__new__'
p52
S'<built-in method __new__ of type object>'
p53
ssS'evalue'
p54
S'__init__() takes exactly 1 argument (2 given)'
p55
sS'request'
p56
ccopy_reg
_reconstructor
p57
(cgluon.html
BEAUTIFY
p58
c__builtin__
object
p59
NtRp60
(dp61
S'attributes'
p62
(dp63
sS'components'
p64
(lp65
g57
(cgluon.html
TABLE
p66
g59
NtRp67
(dp68
g62
(dp69
S'level'
p70
I5
ssS'parent'
p71
Nsg64
(lp72
g57
(cgluon.html
TR
p73
g59
NtRp74
(dp75
g62
(dp76
sg71
g67
sg64
(lp77
g57
(cgluon.html
TD
p78
g59
NtRp79
(dp80
g62
(dp81
S'_style'
p82
S'font-weight:bold;vertical-align:top'
p83
ssg71
g74
sg64
(lp84
S'ajax'
p85
asbag57
(g78
g59
NtRp86
(dp87
g62
(dp88
S'_valign'
p89
S'top'
p90
ssg71
g74
sg64
(lp91
S':'
asbag57
(g78
g59
NtRp92
(dp93
g62
(dp94
sg71
g74
sg64
(lp95
g57
(g58
g59
NtRp96
(dp97
g62
(dp98
g70
I5
ssg71
g92
sg64
(lp99
S'False'
p100
asbasbasbag57
(g73
g59
NtRp101
(dp102
g62
(dp103
sg71
g67
sg64
(lp104
g57
(g78
g59
NtRp105
(dp106
g62
(dp107
g82
g83
ssg71
g101
sg64
(lp108
S'application'
p109
asbag57
(g78
g59
NtRp110
(dp111
g62
(dp112
g89
g90
ssg71
g101
sg64
(lp113
S':'
asbag57
(g78
g59
NtRp114
(dp115
g62
(dp116
sg71
g101
sg64
(lp117
g57
(g58
g59
NtRp118
(dp119
g62
(dp120
g70
I5
ssg71
g114
sg64
(lp121
S'milo'
p122
asbasbasbag57
(g73
g59
NtRp123
(dp124
g62
(dp125
sg71
g67
sg64
(lp126
g57
(g78
g59
NtRp127
(dp128
g62
(dp129
g82
g83
ssg71
g123
sg64
(lp130
g24
asbag57
(g78
g59
NtRp131
(dp132
g62
(dp133
g89
g90
ssg71
g123
sg64
(lp134
S':'
asbag57
(g78
g59
NtRp135
(dp136
g62
(dp137
sg71
g123
sg64
(lp138
g57
(g58
g59
NtRp139
(dp140
g62
(dp141
g70
I5
ssg71
g135
sg64
(lp142
g57
(g66
g59
NtRp143
(dp144
g62
(dp145
g70
I4
ssg71
Nsg64
(lp146
sbasbasbasbag57
(g73
g59
NtRp147
(dp148
g62
(dp149
sg71
g67
sg64
(lp150
g57
(g78
g59
NtRp151
(dp152
g62
(dp153
g82
g83
ssg71
g147
sg64
(lp154
S'body'
p155
asbag57
(g78
g59
NtRp156
(dp157
g62
(dp158
g89
g90
ssg71
g147
sg64
(lp159
S':'
asbag57
(g78
g59
NtRp160
(dp161
g62
(dp162
sg71
g147
sg64
(lp163
g57
(g58
g59
NtRp164
(dp165
g62
(dp166
g70
I5
ssg71
g160
sg64
(lp167
S'<cStringIO.StringO object at 0x7f224041a228>'
p168
asbasbasbag57
(g73
g59
NtRp169
(dp170
g62
(dp171
sg71
g67
sg64
(lp172
g57
(g78
g59
NtRp173
(dp174
g62
(dp175
g82
g83
ssg71
g169
sg64
(lp176
S'client'
p177
asbag57
(g78
g59
NtRp178
(dp179
g62
(dp180
g89
g90
ssg71
g169
sg64
(lp181
S':'
asbag57
(g78
g59
NtRp182
(dp183
g62
(dp184
sg71
g169
sg64
(lp185
g57
(g58
g59
NtRp186
(dp187
g62
(dp188
g70
I5
ssg71
g182
sg64
(lp189
S'127.0.0.1'
p190
asbasbasbag57
(g73
g59
NtRp191
(dp192
g62
(dp193
sg71
g67
sg64
(lp194
g57
(g78
g59
NtRp195
(dp196
g62
(dp197
g82
g83
ssg71
g191
sg64
(lp198
S'controller'
p199
asbag57
(g78
g59
NtRp200
(dp201
g62
(dp202
g89
g90
ssg71
g191
sg64
(lp203
S':'
asbag57
(g78
g59
NtRp204
(dp205
g62
(dp206
sg71
g191
sg64
(lp207
g57
(g58
g59
NtRp208
(dp209
g62
(dp210
g70
I5
ssg71
g204
sg64
(lp211
S'default'
p212
asbasbasbag57
(g73
g59
NtRp213
(dp214
g62
(dp215
sg71
g67
sg64
(lp216
g57
(g78
g59
NtRp217
(dp218
g62
(dp219
g82
g83
ssg71
g213
sg64
(lp220
S'cookies'
p221
asbag57
(g78
g59
NtRp222
(dp223
g62
(dp224
g89
g90
ssg71
g213
sg64
(lp225
S':'
asbag57
(g78
g59
NtRp226
(dp227
g62
(dp228
sg71
g213
sg64
(lp229
g57
(g58
g59
NtRp230
(dp231
g62
(dp232
g70
I5
ssg71
g226
sg64
(lp233
g57
(g66
g59
NtRp234
(dp235
g62
(dp236
g70
I4
ssg71
Nsg64
(lp237
g57
(g73
g59
NtRp238
(dp239
g62
(dp240
sg71
g234
sg64
(lp241
g57
(g78
g59
NtRp242
(dp243
g62
(dp244
g82
g83
ssg71
g238
sg64
(lp245
S'session_id_admin'
p246
asbag57
(g78
g59
NtRp247
(dp248
g62
(dp249
g89
g90
ssg71
g238
sg64
(lp250
S':'
asbag57
(g78
g59
NtRp251
(dp252
g62
(dp253
sg71
g238
sg64
(lp254
g57
(g58
g59
NtRp255
(dp256
g62
(dp257
g70
I4
ssg71
g251
sg64
(lp258
g57
(g66
g59
NtRp259
(dp260
g62
(dp261
g70
I3
ssg71
Nsg64
(lp262
g57
(g73
g59
NtRp263
(dp264
g62
(dp265
sg71
g259
sg64
(lp266
g57
(g78
g59
NtRp267
(dp268
g62
(dp269
g82
g83
ssg71
g263
sg64
(lp270
S'comment'
p271
asbag57
(g78
g59
NtRp272
(dp273
g62
(dp274
g89
g90
ssg71
g263
sg64
(lp275
S':'
asbag57
(g78
g59
NtRp276
(dp277
g62
(dp278
sg71
g263
sg64
(lp279
g57
(g58
g59
NtRp280
(dp281
g62
(dp282
g70
I3
ssg71
g276
sg64
(lp283
S''
asbasbasbag57
(g73
g59
NtRp284
(dp285
g62
(dp286
sg71
g259
sg64
(lp287
g57
(g78
g59
NtRp288
(dp289
g62
(dp290
g82
g83
ssg71
g284
sg64
(lp291
S'domain'
p292
asbag57
(g78
g59
NtRp293
(dp294
g62
(dp295
g89
g90
ssg71
g284
sg64
(lp296
S':'
asbag57
(g78
g59
NtRp297
(dp298
g62
(dp299
sg71
g284
sg64
(lp300
g57
(g58
g59
NtRp301
(dp302
g62
(dp303
g70
I3
ssg71
g297
sg64
(lp304
S''
asbasbasbag57
(g73
g59
NtRp305
(dp306
g62
(dp307
sg71
g259
sg64
(lp308
g57
(g78
g59
NtRp309
(dp310
g62
(dp311
g82
g83
ssg71
g305
sg64
(lp312
S'expires'
p313
asbag57
(g78
g59
NtRp314
(dp315
g62
(dp316
g89
g90
ssg71
g305
sg64
(lp317
S':'
asbag57
(g78
g59
NtRp318
(dp319
g62
(dp320
sg71
g305
sg64
(lp321
g57
(g58
g59
NtRp322
(dp323
g62
(dp324
g70
I3
ssg71
g318
sg64
(lp325
S''
asbasbasbag57
(g73
g59
NtRp326
(dp327
g62
(dp328
sg71
g259
sg64
(lp329
g57
(g78
g59
NtRp330
(dp331
g62
(dp332
g82
g83
ssg71
g326
sg64
(lp333
S'httponly'
p334
asbag57
(g78
g59
NtRp335
(dp336
g62
(dp337
g89
g90
ssg71
g326
sg64
(lp338
S':'
asbag57
(g78
g59
NtRp339
(dp340
g62
(dp341
sg71
g326
sg64
(lp342
g57
(g58
g59
NtRp343
(dp344
g62
(dp345
g70
I3
ssg71
g339
sg64
(lp346
S''
asbasbasbag57
(g73
g59
NtRp347
(dp348
g62
(dp349
sg71
g259
sg64
(lp350
g57
(g78
g59
NtRp351
(dp352
g62
(dp353
g82
g83
ssg71
g347
sg64
(lp354
S'max-age'
p355
asbag57
(g78
g59
NtRp356
(dp357
g62
(dp358
g89
g90
ssg71
g347
sg64
(lp359
S':'
asbag57
(g78
g59
NtRp360
(dp361
g62
(dp362
sg71
g347
sg64
(lp363
g57
(g58
g59
NtRp364
(dp365
g62
(dp366
g70
I3
ssg71
g360
sg64
(lp367
S''
asbasbasbag57
(g73
g59
NtRp368
(dp369
g62
(dp370
sg71
g259
sg64
(lp371
g57
(g78
g59
NtRp372
(dp373
g62
(dp374
g82
g83
ssg71
g368
sg64
(lp375
S'path'
p376
asbag57
(g78
g59
NtRp377
(dp378
g62
(dp379
g89
g90
ssg71
g368
sg64
(lp380
S':'
asbag57
(g78
g59
NtRp381
(dp382
g62
(dp383
sg71
g368
sg64
(lp384
g57
(g58
g59
NtRp385
(dp386
g62
(dp387
g70
I3
ssg71
g381
sg64
(lp388
S''
asbasbasbag57
(g73
g59
NtRp389
(dp390
g62
(dp391
sg71
g259
sg64
(lp392
g57
(g78
g59
NtRp393
(dp394
g62
(dp395
g82
g83
ssg71
g389
sg64
(lp396
S'secure'
p397
asbag57
(g78
g59
NtRp398
(dp399
g62
(dp400
g89
g90
ssg71
g389
sg64
(lp401
S':'
asbag57
(g78
g59
NtRp402
(dp403
g62
(dp404
sg71
g389
sg64
(lp405
g57
(g58
g59
NtRp406
(dp407
g62
(dp408
g70
I3
ssg71
g402
sg64
(lp409
S''
asbasbasbag57
(g73
g59
NtRp410
(dp411
g62
(dp412
sg71
g259
sg64
(lp413
g57
(g78
g59
NtRp414
(dp415
g62
(dp416
g82
g83
ssg71
g410
sg64
(lp417
S'version'
p418
asbag57
(g78
g59
NtRp419
(dp420
g62
(dp421
g89
g90
ssg71
g410
sg64
(lp422
S':'
asbag57
(g78
g59
NtRp423
(dp424
g62
(dp425
sg71
g410
sg64
(lp426
g57
(g58
g59
NtRp427
(dp428
g62
(dp429
g70
I3
ssg71
g423
sg64
(lp430
S''
asbasbasbasbasbasbasbag57
(g73
g59
NtRp431
(dp432
g62
(dp433
sg71
g234
sg64
(lp434
g57
(g78
g59
NtRp435
(dp436
g62
(dp437
g82
g83
ssg71
g431
sg64
(lp438
S'session_id_milo'
p439
asbag57
(g78
g59
NtRp440
(dp441
g62
(dp442
g89
g90
ssg71
g431
sg64
(lp443
S':'
asbag57
(g78
g59
NtRp444
(dp445
g62
(dp446
sg71
g431
sg64
(lp447
g57
(g58
g59
NtRp448
(dp449
g62
(dp450
g70
I4
ssg71
g444
sg64
(lp451
g57
(g66
g59
NtRp452
(dp453
g62
(dp454
g70
I3
ssg71
Nsg64
(lp455
g57
(g73
g59
NtRp456
(dp457
g62
(dp458
sg71
g452
sg64
(lp459
g57
(g78
g59
NtRp460
(dp461
g62
(dp462
g82
g83
ssg71
g456
sg64
(lp463
g271
asbag57
(g78
g59
NtRp464
(dp465
g62
(dp466
g89
g90
ssg71
g456
sg64
(lp467
S':'
asbag57
(g78
g59
NtRp468
(dp469
g62
(dp470
sg71
g456
sg64
(lp471
g57
(g58
g59
NtRp472
(dp473
g62
(dp474
g70
I3
ssg71
g468
sg64
(lp475
S''
asbasbasbag57
(g73
g59
NtRp476
(dp477
g62
(dp478
sg71
g452
sg64
(lp479
g57
(g78
g59
NtRp480
(dp481
g62
(dp482
g82
g83
ssg71
g476
sg64
(lp483
g292
asbag57
(g78
g59
NtRp484
(dp485
g62
(dp486
g89
g90
ssg71
g476
sg64
(lp487
S':'
asbag57
(g78
g59
NtRp488
(dp489
g62
(dp490
sg71
g476
sg64
(lp491
g57
(g58
g59
NtRp492
(dp493
g62
(dp494
g70
I3
ssg71
g488
sg64
(lp495
S''
asbasbasbag57
(g73
g59
NtRp496
(dp497
g62
(dp498
sg71
g452
sg64
(lp499
g57
(g78
g59
NtRp500
(dp501
g62
(dp502
g82
g83
ssg71
g496
sg64
(lp503
g313
asbag57
(g78
g59
NtRp504
(dp505
g62
(dp506
g89
g90
ssg71
g496
sg64
(lp507
S':'
asbag57
(g78
g59
NtRp508
(dp509
g62
(dp510
sg71
g496
sg64
(lp511
g57
(g58
g59
NtRp512
(dp513
g62
(dp514
g70
I3
ssg71
g508
sg64
(lp515
S''
asbasbasbag57
(g73
g59
NtRp516
(dp517
g62
(dp518
sg71
g452
sg64
(lp519
g57
(g78
g59
NtRp520
(dp521
g62
(dp522
g82
g83
ssg71
g516
sg64
(lp523
g334
asbag57
(g78
g59
NtRp524
(dp525
g62
(dp526
g89
g90
ssg71
g516
sg64
(lp527
S':'
asbag57
(g78
g59
NtRp528
(dp529
g62
(dp530
sg71
g516
sg64
(lp531
g57
(g58
g59
NtRp532
(dp533
g62
(dp534
g70
I3
ssg71
g528
sg64
(lp535
S''
asbasbasbag57
(g73
g59
NtRp536
(dp537
g62
(dp538
sg71
g452
sg64
(lp539
g57
(g78
g59
NtRp540
(dp541
g62
(dp542
g82
g83
ssg71
g536
sg64
(lp543
g355
asbag57
(g78
g59
NtRp544
(dp545
g62
(dp546
g89
g90
ssg71
g536
sg64
(lp547
S':'
asbag57
(g78
g59
NtRp548
(dp549
g62
(dp550
sg71
g536
sg64
(lp551
g57
(g58
g59
NtRp552
(dp553
g62
(dp554
g70
I3
ssg71
g548
sg64
(lp555
S''
asbasbasbag57
(g73
g59
NtRp556
(dp557
g62
(dp558
sg71
g452
sg64
(lp559
g57
(g78
g59
NtRp560
(dp561
g62
(dp562
g82
g83
ssg71
g556
sg64
(lp563
g376
asbag57
(g78
g59
NtRp564
(dp565
g62
(dp566
g89
g90
ssg71
g556
sg64
(lp567
S':'
asbag57
(g78
g59
NtRp568
(dp569
g62
(dp570
sg71
g556
sg64
(lp571
g57
(g58
g59
NtRp572
(dp573
g62
(dp574
g70
I3
ssg71
g568
sg64
(lp575
S''
asbasbasbag57
(g73
g59
NtRp576
(dp577
g62
(dp578
sg71
g452
sg64
(lp579
g57
(g78
g59
NtRp580
(dp581
g62
(dp582
g82
g83
ssg71
g576
sg64
(lp583
g397
asbag57
(g78
g59
NtRp584
(dp585
g62
(dp586
g89
g90
ssg71
g576
sg64
(lp587
S':'
asbag57
(g78
g59
NtRp588
(dp589
g62
(dp590
sg71
g576
sg64
(lp591
g57
(g58
g59
NtRp592
(dp593
g62
(dp594
g70
I3
ssg71
g588
sg64
(lp595
S''
asbasbasbag57
(g73
g59
NtRp596
(dp597
g62
(dp598
sg71
g452
sg64
(lp599
g57
(g78
g59
NtRp600
(dp601
g62
(dp602
g82
g83
ssg71
g596
sg64
(lp603
g418
asbag57
(g78
g59
NtRp604
(dp605
g62
(dp606
g89
g90
ssg71
g596
sg64
(lp607
S':'
asbag57
(g78
g59
NtRp608
(dp609
g62
(dp610
sg71
g596
sg64
(lp611
g57
(g58
g59
NtRp612
(dp613
g62
(dp614
g70
I3
ssg71
g608
sg64
(lp615
S''
asbasbasbasbasbasbasbasbasbasbasbag57
(g73
g59
NtRp616
(dp617
g62
(dp618
sg71
g67
sg64
(lp619
g57
(g78
g59
NtRp620
(dp621
g62
(dp622
g82
g83
ssg71
g616
sg64
(lp623
S'env'
p624
asbag57
(g78
g59
NtRp625
(dp626
g62
(dp627
g89
g90
ssg71
g616
sg64
(lp628
S':'
asbag57
(g78
g59
NtRp629
(dp630
g62
(dp631
sg71
g616
sg64
(lp632
g57
(g58
g59
NtRp633
(dp634
g62
(dp635
g70
I5
ssg71
g629
sg64
(lp636
g57
(g66
g59
NtRp637
(dp638
g62
(dp639
g70
I4
ssg71
Nsg64
(lp640
g57
(g73
g59
NtRp641
(dp642
g62
(dp643
sg71
g637
sg64
(lp644
g57
(g78
g59
NtRp645
(dp646
g62
(dp647
g82
g83
ssg71
g641
sg64
(lp648
S'app_folders'
p649
asbag57
(g78
g59
NtRp650
(dp651
g62
(dp652
g89
g90
ssg71
g641
sg64
(lp653
S':'
asbag57
(g78
g59
NtRp654
(dp655
g62
(dp656
sg71
g641
sg64
(lp657
g57
(g58
g59
NtRp658
(dp659
g62
(dp660
g70
I4
ssg71
g654
sg64
(lp661
S"set(['/home/goshawk/web2py/applications/milo/', '/home/goshawk/web2py/applications/admin/'])"
p662
asbasbasbag57
(g73
g59
NtRp663
(dp664
g62
(dp665
sg71
g637
sg64
(lp666
g57
(g78
g59
NtRp667
(dp668
g62
(dp669
g82
g83
ssg71
g663
sg64
(lp670
S'applications_parent'
p671
asbag57
(g78
g59
NtRp672
(dp673
g62
(dp674
g89
g90
ssg71
g663
sg64
(lp675
S':'
asbag57
(g78
g59
NtRp676
(dp677
g62
(dp678
sg71
g663
sg64
(lp679
g57
(g58
g59
NtRp680
(dp681
g62
(dp682
g70
I4
ssg71
g676
sg64
(lp683
S'/home/goshawk/web2py'
p684
asbasbasbag57
(g73
g59
NtRp685
(dp686
g62
(dp687
sg71
g637
sg64
(lp688
g57
(g78
g59
NtRp689
(dp690
g62
(dp691
g82
g83
ssg71
g685
sg64
(lp692
S'cmd_args'
p693
asbag57
(g78
g59
NtRp694
(dp695
g62
(dp696
g89
g90
ssg71
g685
sg64
(lp697
S':'
asbag57
(g78
g59
NtRp698
(dp699
g62
(dp700
sg71
g685
sg64
(lp701
g57
(g58
g59
NtRp702
(dp703
g62
(dp704
g70
I4
ssg71
g698
sg64
(lp705
g57
(g66
g59
NtRp706
(dp707
g62
(dp708
g70
I3
ssg71
Nsg64
(lp709
sbasbasbasbag57
(g73
g59
NtRp710
(dp711
g62
(dp712
sg71
g637
sg64
(lp713
g57
(g78
g59
NtRp714
(dp715
g62
(dp716
g82
g83
ssg71
g710
sg64
(lp717
S'cmd_options'
p718
asbag57
(g78
g59
NtRp719
(dp720
g62
(dp721
g89
g90
ssg71
g710
sg64
(lp722
S':'
asbag57
(g78
g59
NtRp723
(dp724
g62
(dp725
sg71
g710
sg64
(lp726
g57
(g58
g59
NtRp727
(dp728
g62
(dp729
g70
I4
ssg71
g723
sg64
(lp730
S"<Values at 0x28eb0e0: {'verbose': False, 'ip': '127.0.0.1', 'shutdown_timeout': 5, 'taskbar': False, 'nocron': False, 'pid_filename': 'httpserver.pid', 'maxthreads': None, 'softcron': False, 'server_name': 'whisperer', 'bpython': False, 'nogui': False, 'port': 8000, 'extcron': False, 'debuglevel': 30, 'test': None, 'folder': '/home/goshawk/web2py', 'config': '', 'import_models': False, 'winservice': '', 'shell': None, 'run': '', 'log_filename': 'httpserver.log', 'args': [''], 'socket_timeout': 5, 'ssl_ca_certificate': None, 'scheduler': None, 'profiler_filename': None, 'ssl_private_key': '', 'password': 'admin', 'request_queue_size': 5, 'ssl_certificate': '', 'cronjob': False, 'numthreads': None, 'quiet': False, 'interfaces': None, 'minthreads': None, 'timeout': 10, 'plain': False, 'nobanner': False}>"
p731
asbasbasbag57
(g73
g59
NtRp732
(dp733
g62
(dp734
sg71
g637
sg64
(lp735
g57
(g78
g59
NtRp736
(dp737
g62
(dp738
g82
g83
ssg71
g732
sg64
(lp739
S'db_sessions'
p740
asbag57
(g78
g59
NtRp741
(dp742
g62
(dp743
g89
g90
ssg71
g732
sg64
(lp744
S':'
asbag57
(g78
g59
NtRp745
(dp746
g62
(dp747
sg71
g732
sg64
(lp748
g57
(g58
g59
NtRp749
(dp750
g62
(dp751
g70
I4
ssg71
g745
sg64
(lp752
S'set([])'
p753
asbasbasbag57
(g73
g59
NtRp754
(dp755
g62
(dp756
sg71
g637
sg64
(lp757
g57
(g78
g59
NtRp758
(dp759
g62
(dp760
g82
g83
ssg71
g754
sg64
(lp761
S'debugging'
p762
asbag57
(g78
g59
NtRp763
(dp764
g62
(dp765
g89
g90
ssg71
g754
sg64
(lp766
S':'
asbag57
(g78
g59
NtRp767
(dp768
g62
(dp769
sg71
g754
sg64
(lp770
g57
(g58
g59
NtRp771
(dp772
g62
(dp773
g70
I4
ssg71
g767
sg64
(lp774
g100
asbasbasbag57
(g73
g59
NtRp775
(dp776
g62
(dp777
sg71
g637
sg64
(lp778
g57
(g78
g59
NtRp779
(dp780
g62
(dp781
g82
g83
ssg71
g775
sg64
(lp782
S'gluon_parent'
p783
asbag57
(g78
g59
NtRp784
(dp785
g62
(dp786
g89
g90
ssg71
g775
sg64
(lp787
S':'
asbag57
(g78
g59
NtRp788
(dp789
g62
(dp790
sg71
g775
sg64
(lp791
g57
(g58
g59
NtRp792
(dp793
g62
(dp794
g70
I4
ssg71
g788
sg64
(lp795
S'/home/goshawk/web2py'
p796
asbasbasbag57
(g73
g59
NtRp797
(dp798
g62
(dp799
sg71
g637
sg64
(lp800
g57
(g78
g59
NtRp801
(dp802
g62
(dp803
g82
g83
ssg71
g797
sg64
(lp804
S'http_accept'
p805
asbag57
(g78
g59
NtRp806
(dp807
g62
(dp808
g89
g90
ssg71
g797
sg64
(lp809
S':'
asbag57
(g78
g59
NtRp810
(dp811
g62
(dp812
sg71
g797
sg64
(lp813
g57
(g58
g59
NtRp814
(dp815
g62
(dp816
g70
I4
ssg71
g810
sg64
(lp817
S'text/html,application/xhtml+xml,application/xml;q=0.9,*/*;q=0.8'
p818
asbasbasbag57
(g73
g59
NtRp819
(dp820
g62
(dp821
sg71
g637
sg64
(lp822
g57
(g78
g59
NtRp823
(dp824
g62
(dp825
g82
g83
ssg71
g819
sg64
(lp826
S'http_accept_charset'
p827
asbag57
(g78
g59
NtRp828
(dp829
g62
(dp830
g89
g90
ssg71
g819
sg64
(lp831
S':'
asbag57
(g78
g59
NtRp832
(dp833
g62
(dp834
sg71
g819
sg64
(lp835
g57
(g58
g59
NtRp836
(dp837
g62
(dp838
g70
I4
ssg71
g832
sg64
(lp839
S'ISO-8859-1,utf-8;q=0.7,*;q=0.3'
p840
asbasbasbag57
(g73
g59
NtRp841
(dp842
g62
(dp843
sg71
g637
sg64
(lp844
g57
(g78
g59
NtRp845
(dp846
g62
(dp847
g82
g83
ssg71
g841
sg64
(lp848
S'http_accept_encoding'
p849
asbag57
(g78
g59
NtRp850
(dp851
g62
(dp852
g89
g90
ssg71
g841
sg64
(lp853
S':'
asbag57
(g78
g59
NtRp854
(dp855
g62
(dp856
sg71
g841
sg64
(lp857
g57
(g58
g59
NtRp858
(dp859
g62
(dp860
g70
I4
ssg71
g854
sg64
(lp861
S'gzip,deflate,sdch'
p862
asbasbasbag57
(g73
g59
NtRp863
(dp864
g62
(dp865
sg71
g637
sg64
(lp866
g57
(g78
g59
NtRp867
(dp868
g62
(dp869
g82
g83
ssg71
g863
sg64
(lp870
S'http_accept_language'
p871
asbag57
(g78
g59
NtRp872
(dp873
g62
(dp874
g89
g90
ssg71
g863
sg64
(lp875
S':'
asbag57
(g78
g59
NtRp876
(dp877
g62
(dp878
sg71
g863
sg64
(lp879
g57
(g58
g59
NtRp880
(dp881
g62
(dp882
g70
I4
ssg71
g876
sg64
(lp883
S'en-US,en;q=0.8'
p884
asbasbasbag57
(g73
g59
NtRp885
(dp886
g62
(dp887
sg71
g637
sg64
(lp888
g57
(g78
g59
NtRp889
(dp890
g62
(dp891
g82
g83
ssg71
g885
sg64
(lp892
S'http_connection'
p893
asbag57
(g78
g59
NtRp894
(dp895
g62
(dp896
g89
g90
ssg71
g885
sg64
(lp897
S':'
asbag57
(g78
g59
NtRp898
(dp899
g62
(dp900
sg71
g885
sg64
(lp901
g57
(g58
g59
NtRp902
(dp903
g62
(dp904
g70
I4
ssg71
g898
sg64
(lp905
S'keep-alive'
p906
asbasbasbag57
(g73
g59
NtRp907
(dp908
g62
(dp909
sg71
g637
sg64
(lp910
g57
(g78
g59
NtRp911
(dp912
g62
(dp913
g82
g83
ssg71
g907
sg64
(lp914
S'http_cookie'
p915
asbag57
(g78
g59
NtRp916
(dp917
g62
(dp918
g89
g90
ssg71
g907
sg64
(lp919
S':'
asbag57
(g78
g59
NtRp920
(dp921
g62
(dp922
sg71
g907
sg64
(lp923
g57
(g58
g59
NtRp924
(dp925
g62
(dp926
g70
I4
ssg71
g920
sg64
(lp927
S'session_id_admin=127.0.0.1-f39a1bbf-3c78-4128-b7b3-8d9b76617349; session_id_milo=127.0.0.1-34abc964-d209-4f5a-8488-ddc958b476b9'
p928
asbasbasbag57
(g73
g59
NtRp929
(dp930
g62
(dp931
sg71
g637
sg64
(lp932
g57
(g78
g59
NtRp933
(dp934
g62
(dp935
g82
g83
ssg71
g929
sg64
(lp936
S'http_host'
p937
asbag57
(g78
g59
NtRp938
(dp939
g62
(dp940
g89
g90
ssg71
g929
sg64
(lp941
S':'
asbag57
(g78
g59
NtRp942
(dp943
g62
(dp944
sg71
g929
sg64
(lp945
g57
(g58
g59
NtRp946
(dp947
g62
(dp948
g70
I4
ssg71
g942
sg64
(lp949
S'127.0.0.1:8000'
p950
asbasbasbag57
(g73
g59
NtRp951
(dp952
g62
(dp953
sg71
g637
sg64
(lp954
g57
(g78
g59
NtRp955
(dp956
g62
(dp957
g82
g83
ssg71
g951
sg64
(lp958
S'http_user_agent'
p959
asbag57
(g78
g59
NtRp960
(dp961
g62
(dp962
g89
g90
ssg71
g951
sg64
(lp963
S':'
asbag57
(g78
g59
NtRp964
(dp965
g62
(dp966
sg71
g951
sg64
(lp967
g57
(g58
g59
NtRp968
(dp969
g62
(dp970
g70
I4
ssg71
g964
sg64
(lp971
S'Mozilla/5.0 (X11; Linux x86_64) AppleWebKit/535.19 (KHTML, like Gecko) Ubuntu/12.04 Chromium/18.0.1025.151 Chrome/18.0.1025.151 Safari/535.19'
p972
asbasbasbag57
(g73
g59
NtRp973
(dp974
g62
(dp975
sg71
g637
sg64
(lp976
g57
(g78
g59
NtRp977
(dp978
g62
(dp979
g82
g83
ssg71
g973
sg64
(lp980
S'is_jython'
p981
asbag57
(g78
g59
NtRp982
(dp983
g62
(dp984
g89
g90
ssg71
g973
sg64
(lp985
S':'
asbag57
(g78
g59
NtRp986
(dp987
g62
(dp988
sg71
g973
sg64
(lp989
g57
(g58
g59
NtRp990
(dp991
g62
(dp992
g70
I4
ssg71
g986
sg64
(lp993
g100
asbasbasbag57
(g73
g59
NtRp994
(dp995
g62
(dp996
sg71
g637
sg64
(lp997
g57
(g78
g59
NtRp998
(dp999
g62
(dp1000
g82
g83
ssg71
g994
sg64
(lp1001
S'is_pypy'
p1002
asbag57
(g78
g59
NtRp1003
(dp1004
g62
(dp1005
g89
g90
ssg71
g994
sg64
(lp1006
S':'
asbag57
(g78
g59
NtRp1007
(dp1008
g62
(dp1009
sg71
g994
sg64
(lp1010
g57
(g58
g59
NtRp1011
(dp1012
g62
(dp1013
g70
I4
ssg71
g1007
sg64
(lp1014
g100
asbasbasbag57
(g73
g59
NtRp1015
(dp1016
g62
(dp1017
sg71
g637
sg64
(lp1018
g57
(g78
g59
NtRp1019
(dp1020
g62
(dp1021
g82
g83
ssg71
g1015
sg64
(lp1022
S'path_info'
p1023
asbag57
(g78
g59
NtRp1024
(dp1025
g62
(dp1026
g89
g90
ssg71
g1015
sg64
(lp1027
S':'
asbag57
(g78
g59
NtRp1028
(dp1029
g62
(dp1030
sg71
g1015
sg64
(lp1031
g57
(g58
g59
NtRp1032
(dp1033
g62
(dp1034
g70
I4
ssg71
g1028
sg64
(lp1035
S'/'
asbasbasbag57
(g73
g59
NtRp1036
(dp1037
g62
(dp1038
sg71
g637
sg64
(lp1039
g57
(g78
g59
NtRp1040
(dp1041
g62
(dp1042
g82
g83
ssg71
g1036
sg64
(lp1043
S'query_string'
p1044
asbag57
(g78
g59
NtRp1045
(dp1046
g62
(dp1047
g89
g90
ssg71
g1036
sg64
(lp1048
S':'
asbag57
(g78
g59
NtRp1049
(dp1050
g62
(dp1051
sg71
g1036
sg64
(lp1052
g57
(g58
g59
NtRp1053
(dp1054
g62
(dp1055
g70
I4
ssg71
g1049
sg64
(lp1056
S''
asbasbasbag57
(g73
g59
NtRp1057
(dp1058
g62
(dp1059
sg71
g637
sg64
(lp1060
g57
(g78
g59
NtRp1061
(dp1062
g62
(dp1063
g82
g83
ssg71
g1057
sg64
(lp1064
S'remote_addr'
p1065
asbag57
(g78
g59
NtRp1066
(dp1067
g62
(dp1068
g89
g90
ssg71
g1057
sg64
(lp1069
S':'
asbag57
(g78
g59
NtRp1070
(dp1071
g62
(dp1072
sg71
g1057
sg64
(lp1073
g57
(g58
g59
NtRp1074
(dp1075
g62
(dp1076
g70
I4
ssg71
g1070
sg64
(lp1077
g190
asbasbasbag57
(g73
g59
NtRp1078
(dp1079
g62
(dp1080
sg71
g637
sg64
(lp1081
g57
(g78
g59
NtRp1082
(dp1083
g62
(dp1084
g82
g83
ssg71
g1078
sg64
(lp1085
S'remote_port'
p1086
asbag57
(g78
g59
NtRp1087
(dp1088
g62
(dp1089
g89
g90
ssg71
g1078
sg64
(lp1090
S':'
asbag57
(g78
g59
NtRp1091
(dp1092
g62
(dp1093
sg71
g1078
sg64
(lp1094
g57
(g58
g59
NtRp1095
(dp1096
g62
(dp1097
g70
I4
ssg71
g1091
sg64
(lp1098
S'33377'
p1099
asbasbasbag57
(g73
g59
NtRp1100
(dp1101
g62
(dp1102
sg71
g637
sg64
(lp1103
g57
(g78
g59
NtRp1104
(dp1105
g62
(dp1106
g82
g83
ssg71
g1100
sg64
(lp1107
S'request_method'
p1108
asbag57
(g78
g59
NtRp1109
(dp1110
g62
(dp1111
g89
g90
ssg71
g1100
sg64
(lp1112
S':'
asbag57
(g78
g59
NtRp1113
(dp1114
g62
(dp1115
sg71
g1100
sg64
(lp1116
g57
(g58
g59
NtRp1117
(dp1118
g62
(dp1119
g70
I4
ssg71
g1113
sg64
(lp1120
S'GET'
p1121
asbasbasbag57
(g73
g59
NtRp1122
(dp1123
g62
(dp1124
sg71
g637
sg64
(lp1125
g57
(g78
g59
NtRp1126
(dp1127
g62
(dp1128
g82
g83
ssg71
g1122
sg64
(lp1129
S'request_uri'
p1130
asbag57
(g78
g59
NtRp1131
(dp1132
g62
(dp1133
g89
g90
ssg71
g1122
sg64
(lp1134
S':'
asbag57
(g78
g59
NtRp1135
(dp1136
g62
(dp1137
sg71
g1122
sg64
(lp1138
g57
(g58
g59
NtRp1139
(dp1140
g62
(dp1141
g70
I4
ssg71
g1135
sg64
(lp1142
S'/'
asbasbasbag57
(g73
g59
NtRp1143
(dp1144
g62
(dp1145
sg71
g637
sg64
(lp1146
g57
(g78
g59
NtRp1147
(dp1148
g62
(dp1149
g82
g83
ssg71
g1143
sg64
(lp1150
S'script_name'
p1151
asbag57
(g78
g59
NtRp1152
(dp1153
g62
(dp1154
g89
g90
ssg71
g1143
sg64
(lp1155
S':'
asbag57
(g78
g59
NtRp1156
(dp1157
g62
(dp1158
sg71
g1143
sg64
(lp1159
g57
(g58
g59
NtRp1160
(dp1161
g62
(dp1162
g70
I4
ssg71
g1156
sg64
(lp1163
S''
asbasbasbag57
(g73
g59
NtRp1164
(dp1165
g62
(dp1166
sg71
g637
sg64
(lp1167
g57
(g78
g59
NtRp1168
(dp1169
g62
(dp1170
g82
g83
ssg71
g1164
sg64
(lp1171
S'server_name'
p1172
asbag57
(g78
g59
NtRp1173
(dp1174
g62
(dp1175
g89
g90
ssg71
g1164
sg64
(lp1176
S':'
asbag57
(g78
g59
NtRp1177
(dp1178
g62
(dp1179
sg71
g1164
sg64
(lp1180
g57
(g58
g59
NtRp1181
(dp1182
g62
(dp1183
g70
I4
ssg71
g1177
sg64
(lp1184
S'whisperer'
p1185
asbasbasbag57
(g73
g59
NtRp1186
(dp1187
g62
(dp1188
sg71
g637
sg64
(lp1189
g57
(g78
g59
NtRp1190
(dp1191
g62
(dp1192
g82
g83
ssg71
g1186
sg64
(lp1193
S'server_port'
p1194
asbag57
(g78
g59
NtRp1195
(dp1196
g62
(dp1197
g89
g90
ssg71
g1186
sg64
(lp1198
S':'
asbag57
(g78
g59
NtRp1199
(dp1200
g62
(dp1201
sg71
g1186
sg64
(lp1202
g57
(g58
g59
NtRp1203
(dp1204
g62
(dp1205
g70
I4
ssg71
g1199
sg64
(lp1206
S'8000'
p1207
asbasbasbag57
(g73
g59
NtRp1208
(dp1209
g62
(dp1210
sg71
g637
sg64
(lp1211
g57
(g78
g59
NtRp1212
(dp1213
g62
(dp1214
g82
g83
ssg71
g1208
sg64
(lp1215
S'server_protocol'
p1216
asbag57
(g78
g59
NtRp1217
(dp1218
g62
(dp1219
g89
g90
ssg71
g1208
sg64
(lp1220
S':'
asbag57
(g78
g59
NtRp1221
(dp1222
g62
(dp1223
sg71
g1208
sg64
(lp1224
g57
(g58
g59
NtRp1225
(dp1226
g62
(dp1227
g70
I4
ssg71
g1221
sg64
(lp1228
S'HTTP/1.1'
p1229
asbasbasbag57
(g73
g59
NtRp1230
(dp1231
g62
(dp1232
sg71
g637
sg64
(lp1233
g57
(g78
g59
NtRp1234
(dp1235
g62
(dp1236
g82
g83
ssg71
g1230
sg64
(lp1237
S'server_software'
p1238
asbag57
(g78
g59
NtRp1239
(dp1240
g62
(dp1241
g89
g90
ssg71
g1230
sg64
(lp1242
S':'
asbag57
(g78
g59
NtRp1243
(dp1244
g62
(dp1245
sg71
g1230
sg64
(lp1246
g57
(g58
g59
NtRp1247
(dp1248
g62
(dp1249
g70
I4
ssg71
g1243
sg64
(lp1250
S'Rocket 1.2.4'
p1251
asbasbasbag57
(g73
g59
NtRp1252
(dp1253
g62
(dp1254
sg71
g637
sg64
(lp1255
g57
(g78
g59
NtRp1256
(dp1257
g62
(dp1258
g82
g83
ssg71
g1252
sg64
(lp1259
S'web2py_crontype'
p1260
asbag57
(g78
g59
NtRp1261
(dp1262
g62
(dp1263
g89
g90
ssg71
g1252
sg64
(lp1264
S':'
asbag57
(g78
g59
NtRp1265
(dp1266
g62
(dp1267
sg71
g1252
sg64
(lp1268
g57
(g58
g59
NtRp1269
(dp1270
g62
(dp1271
g70
I4
ssg71
g1265
sg64
(lp1272
S'hard'
p1273
asbasbasbag57
(g73
g59
NtRp1274
(dp1275
g62
(dp1276
sg71
g637
sg64
(lp1277
g57
(g78
g59
NtRp1278
(dp1279
g62
(dp1280
g82
g83
ssg71
g1274
sg64
(lp1281
S'web2py_original_uri'
p1282
asbag57
(g78
g59
NtRp1283
(dp1284
g62
(dp1285
g89
g90
ssg71
g1274
sg64
(lp1286
S':'
asbag57
(g78
g59
NtRp1287
(dp1288
g62
(dp1289
sg71
g1274
sg64
(lp1290
g57
(g58
g59
NtRp1291
(dp1292
g62
(dp1293
g70
I4
ssg71
g1287
sg64
(lp1294
S'/'
asbasbasbag57
(g73
g59
NtRp1295
(dp1296
g62
(dp1297
sg71
g637
sg64
(lp1298
g57
(g78
g59
NtRp1299
(dp1300
g62
(dp1301
g82
g83
ssg71
g1295
sg64
(lp1302
S'web2py_path'
p1303
asbag57
(g78
g59
NtRp1304
(dp1305
g62
(dp1306
g89
g90
ssg71
g1295
sg64
(lp1307
S':'
asbag57
(g78
g59
NtRp1308
(dp1309
g62
(dp1310
sg71
g1295
sg64
(lp1311
g57
(g58
g59
NtRp1312
(dp1313
g62
(dp1314
g70
I4
ssg71
g1308
sg64
(lp1315
g684
asbasbasbag57
(g73
g59
NtRp1316
(dp1317
g62
(dp1318
sg71
g637
sg64
(lp1319
g57
(g78
g59
NtRp1320
(dp1321
g62
(dp1322
g82
g83
ssg71
g1316
sg64
(lp1323
S'web2py_version'
p1324
asbag57
(g78
g59
NtRp1325
(dp1326
g62
(dp1327
g89
g90
ssg71
g1316
sg64
(lp1328
S':'
asbag57
(g78
g59
NtRp1329
(dp1330
g62
(dp1331
sg71
g1316
sg64
(lp1332
g57
(g58
g59
NtRp1333
(dp1334
g62
(dp1335
g70
I4
ssg71
g1329
sg64
(lp1336
g57
(g66
g59
NtRp1337
(dp1338
g62
(dp1339
g70
I3
ssg71
Nsg64
(lp1340
g57
(g73
g59
NtRp1341
(dp1342
g62
(dp1343
sg71
g1337
sg64
(lp1344
g57
(g78
g59
NtRp1345
(dp1346
g62
(dp1347
sg71
g1341
sg64
(lp1348
g57
(g58
g59
NtRp1349
(dp1350
g62
(dp1351
g70
I3
ssg71
g1345
sg64
(lp1352
S'1'
asbasbasbag57
(g73
g59
NtRp1353
(dp1354
g62
(dp1355
sg71
g1337
sg64
(lp1356
g57
(g78
g59
NtRp1357
(dp1358
g62
(dp1359
sg71
g1353
sg64
(lp1360
g57
(g58
g59
NtRp1361
(dp1362
g62
(dp1363
g70
I3
ssg71
g1357
sg64
(lp1364
S'99'
p1365
asbasbasbag57
(g73
g59
NtRp1366
(dp1367
g62
(dp1368
sg71
g1337
sg64
(lp1369
g57
(g78
g59
NtRp1370
(dp1371
g62
(dp1372
sg71
g1366
sg64
(lp1373
g57
(g58
g59
NtRp1374
(dp1375
g62
(dp1376
g70
I3
ssg71
g1370
sg64
(lp1377
S'7'
asbasbasbag57
(g73
g59
NtRp1378
(dp1379
g62
(dp1380
sg71
g1337
sg64
(lp1381
g57
(g78
g59
NtRp1382
(dp1383
g62
(dp1384
sg71
g1378
sg64
(lp1385
g57
(g58
g59
NtRp1386
(dp1387
g62
(dp1388
g70
I3
ssg71
g1382
sg64
(lp1389
S'datetime.datetime(2012, 3, 4, 22, 12, 8)'
p1390
asbasbasbag57
(g73
g59
NtRp1391
(dp1392
g62
(dp1393
sg71
g1337
sg64
(lp1394
g57
(g78
g59
NtRp1395
(dp1396
g62
(dp1397
sg71
g1391
sg64
(lp1398
g57
(g58
g59
NtRp1399
(dp1400
g62
(dp1401
g70
I3
ssg71
g1395
sg64
(lp1402
S'stable'
p1403
asbasbasbasbasbasbasbag57
(g73
g59
NtRp1404
(dp1405
g62
(dp1406
sg71
g637
sg64
(lp1407
g57
(g78
g59
NtRp1408
(dp1409
g62
(dp1410
g82
g83
ssg71
g1404
sg64
(lp1411
S'wsgi_errors'
p1412
asbag57
(g78
g59
NtRp1413
(dp1414
g62
(dp1415
g89
g90
ssg71
g1404
sg64
(lp1416
S':'
asbag57
(g78
g59
NtRp1417
(dp1418
g62
(dp1419
sg71
g1404
sg64
(lp1420
g57
(g58
g59
NtRp1421
(dp1422
g62
(dp1423
g70
I4
ssg71
g1417
sg64
(lp1424
S"<open file '<stderr>', mode 'w' at 0x7f227f53f270>"
p1425
asbasbasbag57
(g73
g59
NtRp1426
(dp1427
g62
(dp1428
sg71
g637
sg64
(lp1429
g57
(g78
g59
NtRp1430
(dp1431
g62
(dp1432
g82
g83
ssg71
g1426
sg64
(lp1433
S'wsgi_file_wrapper'
p1434
asbag57
(g78
g59
NtRp1435
(dp1436
g62
(dp1437
g89
g90
ssg71
g1426
sg64
(lp1438
S':'
asbag57
(g78
g59
NtRp1439
(dp1440
g62
(dp1441
sg71
g1426
sg64
(lp1442
g57
(g58
g59
NtRp1443
(dp1444
g62
(dp1445
g70
I4
ssg71
g1439
sg64
(lp1446
S'<class wsgiref.util.FileWrapper at 0x2817f58>'
p1447
asbasbasbag57
(g73
g59
NtRp1448
(dp1449
g62
(dp1450
sg71
g637
sg64
(lp1451
g57
(g78
g59
NtRp1452
(dp1453
g62
(dp1454
g82
g83
ssg71
g1448
sg64
(lp1455
S'wsgi_input'
p1456
asbag57
(g78
g59
NtRp1457
(dp1458
g62
(dp1459
g89
g90
ssg71
g1448
sg64
(lp1460
S':'
asbag57
(g78
g59
NtRp1461
(dp1462
g62
(dp1463
sg71
g1448
sg64
(lp1464
g57
(g58
g59
NtRp1465
(dp1466
g62
(dp1467
g70
I4
ssg71
g1461
sg64
(lp1468
S'<socket._fileobject object at 0x7f22583cb8d0>'
p1469
asbasbasbag57
(g73
g59
NtRp1470
(dp1471
g62
(dp1472
sg71
g637
sg64
(lp1473
g57
(g78
g59
NtRp1474
(dp1475
g62
(dp1476
g82
g83
ssg71
g1470
sg64
(lp1477
S'wsgi_multiprocess'
p1478
asbag57
(g78
g59
NtRp1479
(dp1480
g62
(dp1481
g89
g90
ssg71
g1470
sg64
(lp1482
S':'
asbag57
(g78
g59
NtRp1483
(dp1484
g62
(dp1485
sg71
g1470
sg64
(lp1486
g57
(g58
g59
NtRp1487
(dp1488
g62
(dp1489
g70
I4
ssg71
g1483
sg64
(lp1490
g100
asbasbasbag57
(g73
g59
NtRp1491
(dp1492
g62
(dp1493
sg71
g637
sg64
(lp1494
g57
(g78
g59
NtRp1495
(dp1496
g62
(dp1497
g82
g83
ssg71
g1491
sg64
(lp1498
S'wsgi_multithread'
p1499
asbag57
(g78
g59
NtRp1500
(dp1501
g62
(dp1502
g89
g90
ssg71
g1491
sg64
(lp1503
S':'
asbag57
(g78
g59
NtRp1504
(dp1505
g62
(dp1506
sg71
g1491
sg64
(lp1507
g57
(g58
g59
NtRp1508
(dp1509
g62
(dp1510
g70
I4
ssg71
g1504
sg64
(lp1511
S'True'
p1512
asbasbasbag57
(g73
g59
NtRp1513
(dp1514
g62
(dp1515
sg71
g637
sg64
(lp1516
g57
(g78
g59
NtRp1517
(dp1518
g62
(dp1519
g82
g83
ssg71
g1513
sg64
(lp1520
S'wsgi_run_once'
p1521
asbag57
(g78
g59
NtRp1522
(dp1523
g62
(dp1524
g89
g90
ssg71
g1513
sg64
(lp1525
S':'
asbag57
(g78
g59
NtRp1526
(dp1527
g62
(dp1528
sg71
g1513
sg64
(lp1529
g57
(g58
g59
NtRp1530
(dp1531
g62
(dp1532
g70
I4
ssg71
g1526
sg64
(lp1533
g100
asbasbasbag57
(g73
g59
NtRp1534
(dp1535
g62
(dp1536
sg71
g637
sg64
(lp1537
g57
(g78
g59
NtRp1538
(dp1539
g62
(dp1540
g82
g83
ssg71
g1534
sg64
(lp1541
S'wsgi_url_scheme'
p1542
asbag57
(g78
g59
NtRp1543
(dp1544
g62
(dp1545
g89
g90
ssg71
g1534
sg64
(lp1546
S':'
asbag57
(g78
g59
NtRp1547
(dp1548
g62
(dp1549
sg71
g1534
sg64
(lp1550
g57
(g58
g59
NtRp1551
(dp1552
g62
(dp1553
g70
I4
ssg71
g1547
sg64
(lp1554
S'http'
p1555
asbasbasbag57
(g73
g59
NtRp1556
(dp1557
g62
(dp1558
sg71
g637
sg64
(lp1559
g57
(g78
g59
NtRp1560
(dp1561
g62
(dp1562
g82
g83
ssg71
g1556
sg64
(lp1563
S'wsgi_version'
p1564
asbag57
(g78
g59
NtRp1565
(dp1566
g62
(dp1567
g89
g90
ssg71
g1556
sg64
(lp1568
S':'
asbag57
(g78
g59
NtRp1569
(dp1570
g62
(dp1571
sg71
g1556
sg64
(lp1572
g57
(g58
g59
NtRp1573
(dp1574
g62
(dp1575
g70
I4
ssg71
g1569
sg64
(lp1576
g57
(g66
g59
NtRp1577
(dp1578
g62
(dp1579
g70
I3
ssg71
Nsg64
(lp1580
g57
(g73
g59
NtRp1581
(dp1582
g62
(dp1583
sg71
g1577
sg64
(lp1584
g57
(g78
g59
NtRp1585
(dp1586
g62
(dp1587
sg71
g1581
sg64
(lp1588
g57
(g58
g59
NtRp1589
(dp1590
g62
(dp1591
g70
I3
ssg71
g1585
sg64
(lp1592
S'1'
asbasbasbag57
(g73
g59
NtRp1593
(dp1594
g62
(dp1595
sg71
g1577
sg64
(lp1596
g57
(g78
g59
NtRp1597
(dp1598
g62
(dp1599
sg71
g1593
sg64
(lp1600
g57
(g58
g59
NtRp1601
(dp1602
g62
(dp1603
g70
I3
ssg71
g1597
sg64
(lp1604
S'0'
asbasbasbasbasbasbasbasbasbasbasbag57
(g73
g59
NtRp1605
(dp1606
g62
(dp1607
sg71
g67
sg64
(lp1608
g57
(g78
g59
NtRp1609
(dp1610
g62
(dp1611
g82
g83
ssg71
g1605
sg64
(lp1612
S'extension'
p1613
asbag57
(g78
g59
NtRp1614
(dp1615
g62
(dp1616
g89
g90
ssg71
g1605
sg64
(lp1617
S':'
asbag57
(g78
g59
NtRp1618
(dp1619
g62
(dp1620
sg71
g1605
sg64
(lp1621
g57
(g58
g59
NtRp1622
(dp1623
g62
(dp1624
g70
I5
ssg71
g1618
sg64
(lp1625
S'html'
p1626
asbasbasbag57
(g73
g59
NtRp1627
(dp1628
g62
(dp1629
sg71
g67
sg64
(lp1630
g57
(g78
g59
NtRp1631
(dp1632
g62
(dp1633
g82
g83
ssg71
g1627
sg64
(lp1634
S'folder'
p1635
asbag57
(g78
g59
NtRp1636
(dp1637
g62
(dp1638
g89
g90
ssg71
g1627
sg64
(lp1639
S':'
asbag57
(g78
g59
NtRp1640
(dp1641
g62
(dp1642
sg71
g1627
sg64
(lp1643
g57
(g58
g59
NtRp1644
(dp1645
g62
(dp1646
g70
I5
ssg71
g1640
sg64
(lp1647
S'/home/goshawk/web2py/applications/milo/'
p1648
asbasbasbag57
(g73
g59
NtRp1649
(dp1650
g62
(dp1651
sg71
g67
sg64
(lp1652
g57
(g78
g59
NtRp1653
(dp1654
g62
(dp1655
g82
g83
ssg71
g1649
sg64
(lp1656
S'function'
p1657
asbag57
(g78
g59
NtRp1658
(dp1659
g62
(dp1660
g89
g90
ssg71
g1649
sg64
(lp1661
S':'
asbag57
(g78
g59
NtRp1662
(dp1663
g62
(dp1664
sg71
g1649
sg64
(lp1665
g57
(g58
g59
NtRp1666
(dp1667
g62
(dp1668
g70
I5
ssg71
g1662
sg64
(lp1669
S'index'
p1670
asbasbasbag57
(g73
g59
NtRp1671
(dp1672
g62
(dp1673
sg71
g67
sg64
(lp1674
g57
(g78
g59
NtRp1675
(dp1676
g62
(dp1677
g82
g83
ssg71
g1671
sg64
(lp1678
S'get_vars'
p1679
asbag57
(g78
g59
NtRp1680
(dp1681
g62
(dp1682
g89
g90
ssg71
g1671
sg64
(lp1683
S':'
asbag57
(g78
g59
NtRp1684
(dp1685
g62
(dp1686
sg71
g1671
sg64
(lp1687
g57
(g58
g59
NtRp1688
(dp1689
g62
(dp1690
g70
I5
ssg71
g1684
sg64
(lp1691
g57
(g66
g59
NtRp1692
(dp1693
g62
(dp1694
g70
I4
ssg71
Nsg64
(lp1695
sbasbasbasbag57
(g73
g59
NtRp1696
(dp1697
g62
(dp1698
sg71
g67
sg64
(lp1699
g57
(g78
g59
NtRp1700
(dp1701
g62
(dp1702
g82
g83
ssg71
g1696
sg64
(lp1703
S'global_settings'
p1704
asbag57
(g78
g59
NtRp1705
(dp1706
g62
(dp1707
g89
g90
ssg71
g1696
sg64
(lp1708
S':'
asbag57
(g78
g59
NtRp1709
(dp1710
g62
(dp1711
sg71
g1696
sg64
(lp1712
g57
(g58
g59
NtRp1713
(dp1714
g62
(dp1715
g70
I5
ssg71
g1709
sg64
(lp1716
g57
(g66
g59
NtRp1717
(dp1718
g62
(dp1719
g70
I4
ssg71
Nsg64
(lp1720
g57
(g73
g59
NtRp1721
(dp1722
g62
(dp1723
sg71
g1717
sg64
(lp1724
g57
(g78
g59
NtRp1725
(dp1726
g62
(dp1727
g82
g83
ssg71
g1721
sg64
(lp1728
g649
asbag57
(g78
g59
NtRp1729
(dp1730
g62
(dp1731
g89
g90
ssg71
g1721
sg64
(lp1732
S':'
asbag57
(g78
g59
NtRp1733
(dp1734
g62
(dp1735
sg71
g1721
sg64
(lp1736
g57
(g58
g59
NtRp1737
(dp1738
g62
(dp1739
g70
I4
ssg71
g1733
sg64
(lp1740
S"set(['/home/goshawk/web2py/applications/milo/', '/home/goshawk/web2py/applications/admin/'])"
p1741
asbasbasbag57
(g73
g59
NtRp1742
(dp1743
g62
(dp1744
sg71
g1717
sg64
(lp1745
g57
(g78
g59
NtRp1746
(dp1747
g62
(dp1748
g82
g83
ssg71
g1742
sg64
(lp1749
g671
asbag57
(g78
g59
NtRp1750
(dp1751
g62
(dp1752
g89
g90
ssg71
g1742
sg64
(lp1753
S':'
asbag57
(g78
g59
NtRp1754
(dp1755
g62
(dp1756
sg71
g1742
sg64
(lp1757
g57
(g58
g59
NtRp1758
(dp1759
g62
(dp1760
g70
I4
ssg71
g1754
sg64
(lp1761
g684
asbasbasbag57
(g73
g59
NtRp1762
(dp1763
g62
(dp1764
sg71
g1717
sg64
(lp1765
g57
(g78
g59
NtRp1766
(dp1767
g62
(dp1768
g82
g83
ssg71
g1762
sg64
(lp1769
g693
asbag57
(g78
g59
NtRp1770
(dp1771
g62
(dp1772
g89
g90
ssg71
g1762
sg64
(lp1773
S':'
asbag57
(g78
g59
NtRp1774
(dp1775
g62
(dp1776
sg71
g1762
sg64
(lp1777
g57
(g58
g59
NtRp1778
(dp1779
g62
(dp1780
g70
I4
ssg71
g1774
sg64
(lp1781
g57
(g66
g59
NtRp1782
(dp1783
g62
(dp1784
g70
I3
ssg71
Nsg64
(lp1785
sbasbasbasbag57
(g73
g59
NtRp1786
(dp1787
g62
(dp1788
sg71
g1717
sg64
(lp1789
g57
(g78
g59
NtRp1790
(dp1791
g62
(dp1792
g82
g83
ssg71
g1786
sg64
(lp1793
g718
asbag57
(g78
g59
NtRp1794
(dp1795
g62
(dp1796
g89
g90
ssg71
g1786
sg64
(lp1797
S':'
asbag57
(g78
g59
NtRp1798
(dp1799
g62
(dp1800
sg71
g1786
sg64
(lp1801
g57
(g58
g59
NtRp1802
(dp1803
g62
(dp1804
g70
I4
ssg71
g1798
sg64
(lp1805
S"<Values at 0x28eb0e0: {'verbose': False, 'ip': '127.0.0.1', 'shutdown_timeout': 5, 'taskbar': False, 'nocron': False, 'pid_filename': 'httpserver.pid', 'maxthreads': None, 'softcron': False, 'server_name': 'whisperer', 'bpython': False, 'nogui': False, 'port': 8000, 'extcron': False, 'debuglevel': 30, 'test': None, 'folder': '/home/goshawk/web2py', 'config': '', 'import_models': False, 'winservice': '', 'shell': None, 'run': '', 'log_filename': 'httpserver.log', 'args': [''], 'socket_timeout': 5, 'ssl_ca_certificate': None, 'scheduler': None, 'profiler_filename': None, 'ssl_private_key': '', 'password': 'admin', 'request_queue_size': 5, 'ssl_certificate': '', 'cronjob': False, 'numthreads': None, 'quiet': False, 'interfaces': None, 'minthreads': None, 'timeout': 10, 'plain': False, 'nobanner': False}>"
p1806
asbasbasbag57
(g73
g59
NtRp1807
(dp1808
g62
(dp1809
sg71
g1717
sg64
(lp1810
g57
(g78
g59
NtRp1811
(dp1812
g62
(dp1813
g82
g83
ssg71
g1807
sg64
(lp1814
g740
asbag57
(g78
g59
NtRp1815
(dp1816
g62
(dp1817
g89
g90
ssg71
g1807
sg64
(lp1818
S':'
asbag57
(g78
g59
NtRp1819
(dp1820
g62
(dp1821
sg71
g1807
sg64
(lp1822
g57
(g58
g59
NtRp1823
(dp1824
g62
(dp1825
g70
I4
ssg71
g1819
sg64
(lp1826
S'set([])'
p1827
asbasbasbag57
(g73
g59
NtRp1828
(dp1829
g62
(dp1830
sg71
g1717
sg64
(lp1831
g57
(g78
g59
NtRp1832
(dp1833
g62
(dp1834
g82
g83
ssg71
g1828
sg64
(lp1835
g762
asbag57
(g78
g59
NtRp1836
(dp1837
g62
(dp1838
g89
g90
ssg71
g1828
sg64
(lp1839
S':'
asbag57
(g78
g59
NtRp1840
(dp1841
g62
(dp1842
sg71
g1828
sg64
(lp1843
g57
(g58
g59
NtRp1844
(dp1845
g62
(dp1846
g70
I4
ssg71
g1840
sg64
(lp1847
g100
asbasbasbag57
(g73
g59
NtRp1848
(dp1849
g62
(dp1850
sg71
g1717
sg64
(lp1851
g57
(g78
g59
NtRp1852
(dp1853
g62
(dp1854
g82
g83
ssg71
g1848
sg64
(lp1855
g783
asbag57
(g78
g59
NtRp1856
(dp1857
g62
(dp1858
g89
g90
ssg71
g1848
sg64
(lp1859
S':'
asbag57
(g78
g59
NtRp1860
(dp1861
g62
(dp1862
sg71
g1848
sg64
(lp1863
g57
(g58
g59
NtRp1864
(dp1865
g62
(dp1866
g70
I4
ssg71
g1860
sg64
(lp1867
g796
asbasbasbag57
(g73
g59
NtRp1868
(dp1869
g62
(dp1870
sg71
g1717
sg64
(lp1871
g57
(g78
g59
NtRp1872
(dp1873
g62
(dp1874
g82
g83
ssg71
g1868
sg64
(lp1875
g981
asbag57
(g78
g59
NtRp1876
(dp1877
g62
(dp1878
g89
g90
ssg71
g1868
sg64
(lp1879
S':'
asbag57
(g78
g59
NtRp1880
(dp1881
g62
(dp1882
sg71
g1868
sg64
(lp1883
g57
(g58
g59
NtRp1884
(dp1885
g62
(dp1886
g70
I4
ssg71
g1880
sg64
(lp1887
g100
asbasbasbag57
(g73
g59
NtRp1888
(dp1889
g62
(dp1890
sg71
g1717
sg64
(lp1891
g57
(g78
g59
NtRp1892
(dp1893
g62
(dp1894
g82
g83
ssg71
g1888
sg64
(lp1895
g1002
asbag57
(g78
g59
NtRp1896
(dp1897
g62
(dp1898
g89
g90
ssg71
g1888
sg64
(lp1899
S':'
asbag57
(g78
g59
NtRp1900
(dp1901
g62
(dp1902
sg71
g1888
sg64
(lp1903
g57
(g58
g59
NtRp1904
(dp1905
g62
(dp1906
g70
I4
ssg71
g1900
sg64
(lp1907
g100
asbasbasbag57
(g73
g59
NtRp1908
(dp1909
g62
(dp1910
sg71
g1717
sg64
(lp1911
g57
(g78
g59
NtRp1912
(dp1913
g62
(dp1914
g82
g83
ssg71
g1908
sg64
(lp1915
g1260
asbag57
(g78
g59
NtRp1916
(dp1917
g62
(dp1918
g89
g90
ssg71
g1908
sg64
(lp1919
S':'
asbag57
(g78
g59
NtRp1920
(dp1921
g62
(dp1922
sg71
g1908
sg64
(lp1923
g57
(g58
g59
NtRp1924
(dp1925
g62
(dp1926
g70
I4
ssg71
g1920
sg64
(lp1927
g1273
asbasbasbag57
(g73
g59
NtRp1928
(dp1929
g62
(dp1930
sg71
g1717
sg64
(lp1931
g57
(g78
g59
NtRp1932
(dp1933
g62
(dp1934
g82
g83
ssg71
g1928
sg64
(lp1935
g1324
asbag57
(g78
g59
NtRp1936
(dp1937
g62
(dp1938
g89
g90
ssg71
g1928
sg64
(lp1939
S':'
asbag57
(g78
g59
NtRp1940
(dp1941
g62
(dp1942
sg71
g1928
sg64
(lp1943
g57
(g58
g59
NtRp1944
(dp1945
g62
(dp1946
g70
I4
ssg71
g1940
sg64
(lp1947
g57
(g66
g59
NtRp1948
(dp1949
g62
(dp1950
g70
I3
ssg71
Nsg64
(lp1951
g57
(g73
g59
NtRp1952
(dp1953
g62
(dp1954
sg71
g1948
sg64
(lp1955
g57
(g78
g59
NtRp1956
(dp1957
g62
(dp1958
sg71
g1952
sg64
(lp1959
g57
(g58
g59
NtRp1960
(dp1961
g62
(dp1962
g70
I3
ssg71
g1956
sg64
(lp1963
S'1'
asbasbasbag57
(g73
g59
NtRp1964
(dp1965
g62
(dp1966
sg71
g1948
sg64
(lp1967
g57
(g78
g59
NtRp1968
(dp1969
g62
(dp1970
sg71
g1964
sg64
(lp1971
g57
(g58
g59
NtRp1972
(dp1973
g62
(dp1974
g70
I3
ssg71
g1968
sg64
(lp1975
S'99'
p1976
asbasbasbag57
(g73
g59
NtRp1977
(dp1978
g62
(dp1979
sg71
g1948
sg64
(lp1980
g57
(g78
g59
NtRp1981
(dp1982
g62
(dp1983
sg71
g1977
sg64
(lp1984
g57
(g58
g59
NtRp1985
(dp1986
g62
(dp1987
g70
I3
ssg71
g1981
sg64
(lp1988
S'7'
asbasbasbag57
(g73
g59
NtRp1989
(dp1990
g62
(dp1991
sg71
g1948
sg64
(lp1992
g57
(g78
g59
NtRp1993
(dp1994
g62
(dp1995
sg71
g1989
sg64
(lp1996
g57
(g58
g59
NtRp1997
(dp1998
g62
(dp1999
g70
I3
ssg71
g1993
sg64
(lp2000
S'datetime.datetime(2012, 3, 4, 22, 12, 8)'
p2001
asbasbasbag57
(g73
g59
NtRp2002
(dp2003
g62
(dp2004
sg71
g1948
sg64
(lp2005
g57
(g78
g59
NtRp2006
(dp2007
g62
(dp2008
sg71
g2002
sg64
(lp2009
g57
(g58
g59
NtRp2010
(dp2011
g62
(dp2012
g70
I3
ssg71
g2006
sg64
(lp2013
g1403
asbasbasbasbasbasbasbasbasbasbasbag57
(g73
g59
NtRp2014
(dp2015
g62
(dp2016
sg71
g67
sg64
(lp2017
g57
(g78
g59
NtRp2018
(dp2019
g62
(dp2020
g82
g83
ssg71
g2014
sg64
(lp2021
S'is_https'
p2022
asbag57
(g78
g59
NtRp2023
(dp2024
g62
(dp2025
g89
g90
ssg71
g2014
sg64
(lp2026
S':'
asbag57
(g78
g59
NtRp2027
(dp2028
g62
(dp2029
sg71
g2014
sg64
(lp2030
g57
(g58
g59
NtRp2031
(dp2032
g62
(dp2033
g70
I5
ssg71
g2027
sg64
(lp2034
g100
asbasbasbag57
(g73
g59
NtRp2035
(dp2036
g62
(dp2037
sg71
g67
sg64
(lp2038
g57
(g78
g59
NtRp2039
(dp2040
g62
(dp2041
g82
g83
ssg71
g2035
sg64
(lp2042
S'is_local'
p2043
asbag57
(g78
g59
NtRp2044
(dp2045
g62
(dp2046
g89
g90
ssg71
g2035
sg64
(lp2047
S':'
asbag57
(g78
g59
NtRp2048
(dp2049
g62
(dp2050
sg71
g2035
sg64
(lp2051
g57
(g58
g59
NtRp2052
(dp2053
g62
(dp2054
g70
I5
ssg71
g2048
sg64
(lp2055
g1512
asbasbasbag57
(g73
g59
NtRp2056
(dp2057
g62
(dp2058
sg71
g67
sg64
(lp2059
g57
(g78
g59
NtRp2060
(dp2061
g62
(dp2062
g82
g83
ssg71
g2056
sg64
(lp2063
S'is_restful'
p2064
asbag57
(g78
g59
NtRp2065
(dp2066
g62
(dp2067
g89
g90
ssg71
g2056
sg64
(lp2068
S':'
asbag57
(g78
g59
NtRp2069
(dp2070
g62
(dp2071
sg71
g2056
sg64
(lp2072
g57
(g58
g59
NtRp2073
(dp2074
g62
(dp2075
g70
I5
ssg71
g2069
sg64
(lp2076
g100
asbasbasbag57
(g73
g59
NtRp2077
(dp2078
g62
(dp2079
sg71
g67
sg64
(lp2080
g57
(g78
g59
NtRp2081
(dp2082
g62
(dp2083
g82
g83
ssg71
g2077
sg64
(lp2084
S'now'
p2085
asbag57
(g78
g59
NtRp2086
(dp2087
g62
(dp2088
g89
g90
ssg71
g2077
sg64
(lp2089
S':'
asbag57
(g78
g59
NtRp2090
(dp2091
g62
(dp2092
sg71
g2077
sg64
(lp2093
g57
(g58
g59
NtRp2094
(dp2095
g62
(dp2096
g70
I5
ssg71
g2090
sg64
(lp2097
S'datetime.datetime(2012, 6, 21, 3, 3, 43, 284219)'
p2098
asbasbasbag57
(g73
g59
NtRp2099
(dp2100
g62
(dp2101
sg71
g67
sg64
(lp2102
g57
(g78
g59
NtRp2103
(dp2104
g62
(dp2105
g82
g83
ssg71
g2099
sg64
(lp2106
S'post_vars'
p2107
asbag57
(g78
g59
NtRp2108
(dp2109
g62
(dp2110
g89
g90
ssg71
g2099
sg64
(lp2111
S':'
asbag57
(g78
g59
NtRp2112
(dp2113
g62
(dp2114
sg71
g2099
sg64
(lp2115
g57
(g58
g59
NtRp2116
(dp2117
g62
(dp2118
g70
I5
ssg71
g2112
sg64
(lp2119
g57
(g66
g59
NtRp2120
(dp2121
g62
(dp2122
g70
I4
ssg71
Nsg64
(lp2123
sbasbasbasbag57
(g73
g59
NtRp2124
(dp2125
g62
(dp2126
sg71
g67
sg64
(lp2127
g57
(g78
g59
NtRp2128
(dp2129
g62
(dp2130
g82
g83
ssg71
g2124
sg64
(lp2131
S'url'
p2132
asbag57
(g78
g59
NtRp2133
(dp2134
g62
(dp2135
g89
g90
ssg71
g2124
sg64
(lp2136
S':'
asbag57
(g78
g59
NtRp2137
(dp2138
g62
(dp2139
sg71
g2124
sg64
(lp2140
g57
(g58
g59
NtRp2141
(dp2142
g62
(dp2143
g70
I5
ssg71
g2137
sg64
(lp2144
S'/milo/default/index'
p2145
asbasbasbag57
(g73
g59
NtRp2146
(dp2147
g62
(dp2148
sg71
g67
sg64
(lp2149
g57
(g78
g59
NtRp2150
(dp2151
g62
(dp2152
g82
g83
ssg71
g2146
sg64
(lp2153
S'utcnow'
p2154
asbag57
(g78
g59
NtRp2155
(dp2156
g62
(dp2157
g89
g90
ssg71
g2146
sg64
(lp2158
S':'
asbag57
(g78
g59
NtRp2159
(dp2160
g62
(dp2161
sg71
g2146
sg64
(lp2162
g57
(g58
g59
NtRp2163
(dp2164
g62
(dp2165
g70
I5
ssg71
g2159
sg64
(lp2166
S'datetime.datetime(2012, 6, 21, 1, 3, 43, 284243)'
p2167
asbasbasbag57
(g73
g59
NtRp2168
(dp2169
g62
(dp2170
sg71
g67
sg64
(lp2171
g57
(g78
g59
NtRp2172
(dp2173
g62
(dp2174
g82
g83
ssg71
g2168
sg64
(lp2175
S'uuid'
p2176
asbag57
(g78
g59
NtRp2177
(dp2178
g62
(dp2179
g89
g90
ssg71
g2168
sg64
(lp2180
S':'
asbag57
(g78
g59
NtRp2181
(dp2182
g62
(dp2183
sg71
g2168
sg64
(lp2184
g57
(g58
g59
NtRp2185
(dp2186
g62
(dp2187
g70
I5
ssg71
g2181
sg64
(lp2188
S'milo/127.0.0.1.2012-06-21.03-03-43.d69a610e-0fd4-44ea-be84-43c5eb78295c'
p2189
asbasbasbag57
(g73
g59
NtRp2190
(dp2191
g62
(dp2192
sg71
g67
sg64
(lp2193
g57
(g78
g59
NtRp2194
(dp2195
g62
(dp2196
g82
g83
ssg71
g2190
sg64
(lp2197
S'vars'
p2198
asbag57
(g78
g59
NtRp2199
(dp2200
g62
(dp2201
g89
g90
ssg71
g2190
sg64
(lp2202
S':'
asbag57
(g78
g59
NtRp2203
(dp2204
g62
(dp2205
sg71
g2190
sg64
(lp2206
g57
(g58
g59
NtRp2207
(dp2208
g62
(dp2209
g70
I5
ssg71
g2203
sg64
(lp2210
g57
(g66
g59
NtRp2211
(dp2212
g62
(dp2213
g70
I4
ssg71
Nsg64
(lp2214
sbasbasbasbag57
(g73
g59
NtRp2215
(dp2216
g62
(dp2217
sg71
g67
sg64
(lp2218
g57
(g78
g59
NtRp2219
(dp2220
g62
(dp2221
g82
g83
ssg71
g2215
sg64
(lp2222
S'wsgi'
p2223
asbag57
(g78
g59
NtRp2224
(dp2225
g62
(dp2226
g89
g90
ssg71
g2215
sg64
(lp2227
S':'
asbag57
(g78
g59
NtRp2228
(dp2229
g62
(dp2230
sg71
g2215
sg64
(lp2231
g57
(g58
g59
NtRp2232
(dp2233
g62
(dp2234
g70
I5
ssg71
g2228
sg64
(lp2235
g57
(g66
g59
NtRp2236
(dp2237
g62
(dp2238
g70
I4
ssg71
Nsg64
(lp2239
g57
(g73
g59
NtRp2240
(dp2241
g62
(dp2242
sg71
g2236
sg64
(lp2243
g57
(g78
g59
NtRp2244
(dp2245
g62
(dp2246
g82
g83
ssg71
g2240
sg64
(lp2247
S'environ'
p2248
asbag57
(g78
g59
NtRp2249
(dp2250
g62
(dp2251
g89
g90
ssg71
g2240
sg64
(lp2252
S':'
asbag57
(g78
g59
NtRp2253
(dp2254
g62
(dp2255
sg71
g2240
sg64
(lp2256
g57
(g58
g59
NtRp2257
(dp2258
g62
(dp2259
g70
I4
ssg71
g2253
sg64
(lp2260
g57
(g66
g59
NtRp2261
(dp2262
g62
(dp2263
g70
I3
ssg71
Nsg64
(lp2264
g57
(g73
g59
NtRp2265
(dp2266
g62
(dp2267
sg71
g2261
sg64
(lp2268
g57
(g78
g59
NtRp2269
(dp2270
g62
(dp2271
g82
g83
ssg71
g2265
sg64
(lp2272
S'HTTP_ACCEPT'
p2273
asbag57
(g78
g59
NtRp2274
(dp2275
g62
(dp2276
g89
g90
ssg71
g2265
sg64
(lp2277
S':'
asbag57
(g78
g59
NtRp2278
(dp2279
g62
(dp2280
sg71
g2265
sg64
(lp2281
g57
(g58
g59
NtRp2282
(dp2283
g62
(dp2284
g70
I3
ssg71
g2278
sg64
(lp2285
g818
asbasbasbag57
(g73
g59
NtRp2286
(dp2287
g62
(dp2288
sg71
g2261
sg64
(lp2289
g57
(g78
g59
NtRp2290
(dp2291
g62
(dp2292
g82
g83
ssg71
g2286
sg64
(lp2293
S'HTTP_ACCEPT_CHARSET'
p2294
asbag57
(g78
g59
NtRp2295
(dp2296
g62
(dp2297
g89
g90
ssg71
g2286
sg64
(lp2298
S':'
asbag57
(g78
g59
NtRp2299
(dp2300
g62
(dp2301
sg71
g2286
sg64
(lp2302
g57
(g58
g59
NtRp2303
(dp2304
g62
(dp2305
g70
I3
ssg71
g2299
sg64
(lp2306
g840
asbasbasbag57
(g73
g59
NtRp2307
(dp2308
g62
(dp2309
sg71
g2261
sg64
(lp2310
g57
(g78
g59
NtRp2311
(dp2312
g62
(dp2313
g82
g83
ssg71
g2307
sg64
(lp2314
S'HTTP_ACCEPT_ENCODING'
p2315
asbag57
(g78
g59
NtRp2316
(dp2317
g62
(dp2318
g89
g90
ssg71
g2307
sg64
(lp2319
S':'
asbag57
(g78
g59
NtRp2320
(dp2321
g62
(dp2322
sg71
g2307
sg64
(lp2323
g57
(g58
g59
NtRp2324
(dp2325
g62
(dp2326
g70
I3
ssg71
g2320
sg64
(lp2327
g862
asbasbasbag57
(g73
g59
NtRp2328
(dp2329
g62
(dp2330
sg71
g2261
sg64
(lp2331
g57
(g78
g59
NtRp2332
(dp2333
g62
(dp2334
g82
g83
ssg71
g2328
sg64
(lp2335
S'HTTP_ACCEPT_LANGUAGE'
p2336
asbag57
(g78
g59
NtRp2337
(dp2338
g62
(dp2339
g89
g90
ssg71
g2328
sg64
(lp2340
S':'
asbag57
(g78
g59
NtRp2341
(dp2342
g62
(dp2343
sg71
g2328
sg64
(lp2344
g57
(g58
g59
NtRp2345
(dp2346
g62
(dp2347
g70
I3
ssg71
g2341
sg64
(lp2348
g884
asbasbasbag57
(g73
g59
NtRp2349
(dp2350
g62
(dp2351
sg71
g2261
sg64
(lp2352
g57
(g78
g59
NtRp2353
(dp2354
g62
(dp2355
g82
g83
ssg71
g2349
sg64
(lp2356
S'HTTP_CONNECTION'
p2357
asbag57
(g78
g59
NtRp2358
(dp2359
g62
(dp2360
g89
g90
ssg71
g2349
sg64
(lp2361
S':'
asbag57
(g78
g59
NtRp2362
(dp2363
g62
(dp2364
sg71
g2349
sg64
(lp2365
g57
(g58
g59
NtRp2366
(dp2367
g62
(dp2368
g70
I3
ssg71
g2362
sg64
(lp2369
g906
asbasbasbag57
(g73
g59
NtRp2370
(dp2371
g62
(dp2372
sg71
g2261
sg64
(lp2373
g57
(g78
g59
NtRp2374
(dp2375
g62
(dp2376
g82
g83
ssg71
g2370
sg64
(lp2377
S'HTTP_COOKIE'
p2378
asbag57
(g78
g59
NtRp2379
(dp2380
g62
(dp2381
g89
g90
ssg71
g2370
sg64
(lp2382
S':'
asbag57
(g78
g59
NtRp2383
(dp2384
g62
(dp2385
sg71
g2370
sg64
(lp2386
g57
(g58
g59
NtRp2387
(dp2388
g62
(dp2389
g70
I3
ssg71
g2383
sg64
(lp2390
g928
asbasbasbag57
(g73
g59
NtRp2391
(dp2392
g62
(dp2393
sg71
g2261
sg64
(lp2394
g57
(g78
g59
NtRp2395
(dp2396
g62
(dp2397
g82
g83
ssg71
g2391
sg64
(lp2398
S'HTTP_HOST'
p2399
asbag57
(g78
g59
NtRp2400
(dp2401
g62
(dp2402
g89
g90
ssg71
g2391
sg64
(lp2403
S':'
asbag57
(g78
g59
NtRp2404
(dp2405
g62
(dp2406
sg71
g2391
sg64
(lp2407
g57
(g58
g59
NtRp2408
(dp2409
g62
(dp2410
g70
I3
ssg71
g2404
sg64
(lp2411
g950
asbasbasbag57
(g73
g59
NtRp2412
(dp2413
g62
(dp2414
sg71
g2261
sg64
(lp2415
g57
(g78
g59
NtRp2416
(dp2417
g62
(dp2418
g82
g83
ssg71
g2412
sg64
(lp2419
S'HTTP_USER_AGENT'
p2420
asbag57
(g78
g59
NtRp2421
(dp2422
g62
(dp2423
g89
g90
ssg71
g2412
sg64
(lp2424
S':'
asbag57
(g78
g59
NtRp2425
(dp2426
g62
(dp2427
sg71
g2412
sg64
(lp2428
g57
(g58
g59
NtRp2429
(dp2430
g62
(dp2431
g70
I3
ssg71
g2425
sg64
(lp2432
g972
asbasbasbag57
(g73
g59
NtRp2433
(dp2434
g62
(dp2435
sg71
g2261
sg64
(lp2436
g57
(g78
g59
NtRp2437
(dp2438
g62
(dp2439
g82
g83
ssg71
g2433
sg64
(lp2440
S'PATH_INFO'
p2441
asbag57
(g78
g59
NtRp2442
(dp2443
g62
(dp2444
g89
g90
ssg71
g2433
sg64
(lp2445
S':'
asbag57
(g78
g59
NtRp2446
(dp2447
g62
(dp2448
sg71
g2433
sg64
(lp2449
g57
(g58
g59
NtRp2450
(dp2451
g62
(dp2452
g70
I3
ssg71
g2446
sg64
(lp2453
S'/'
asbasbasbag57
(g73
g59
NtRp2454
(dp2455
g62
(dp2456
sg71
g2261
sg64
(lp2457
g57
(g78
g59
NtRp2458
(dp2459
g62
(dp2460
g82
g83
ssg71
g2454
sg64
(lp2461
S'QUERY_STRING'
p2462
asbag57
(g78
g59
NtRp2463
(dp2464
g62
(dp2465
g89
g90
ssg71
g2454
sg64
(lp2466
S':'
asbag57
(g78
g59
NtRp2467
(dp2468
g62
(dp2469
sg71
g2454
sg64
(lp2470
g57
(g58
g59
NtRp2471
(dp2472
g62
(dp2473
g70
I3
ssg71
g2467
sg64
(lp2474
S''
asbasbasbag57
(g73
g59
NtRp2475
(dp2476
g62
(dp2477
sg71
g2261
sg64
(lp2478
g57
(g78
g59
NtRp2479
(dp2480
g62
(dp2481
g82
g83
ssg71
g2475
sg64
(lp2482
S'REMOTE_ADDR'
p2483
asbag57
(g78
g59
NtRp2484
(dp2485
g62
(dp2486
g89
g90
ssg71
g2475
sg64
(lp2487
S':'
asbag57
(g78
g59
NtRp2488
(dp2489
g62
(dp2490
sg71
g2475
sg64
(lp2491
g57
(g58
g59
NtRp2492
(dp2493
g62
(dp2494
g70
I3
ssg71
g2488
sg64
(lp2495
g190
asbasbasbag57
(g73
g59
NtRp2496
(dp2497
g62
(dp2498
sg71
g2261
sg64
(lp2499
g57
(g78
g59
NtRp2500
(dp2501
g62
(dp2502
g82
g83
ssg71
g2496
sg64
(lp2503
S'REMOTE_PORT'
p2504
asbag57
(g78
g59
NtRp2505
(dp2506
g62
(dp2507
g89
g90
ssg71
g2496
sg64
(lp2508
S':'
asbag57
(g78
g59
NtRp2509
(dp2510
g62
(dp2511
sg71
g2496
sg64
(lp2512
g57
(g58
g59
NtRp2513
(dp2514
g62
(dp2515
g70
I3
ssg71
g2509
sg64
(lp2516
g1099
asbasbasbag57
(g73
g59
NtRp2517
(dp2518
g62
(dp2519
sg71
g2261
sg64
(lp2520
g57
(g78
g59
NtRp2521
(dp2522
g62
(dp2523
g82
g83
ssg71
g2517
sg64
(lp2524
S'REQUEST_METHOD'
p2525
asbag57
(g78
g59
NtRp2526
(dp2527
g62
(dp2528
g89
g90
ssg71
g2517
sg64
(lp2529
S':'
asbag57
(g78
g59
NtRp2530
(dp2531
g62
(dp2532
sg71
g2517
sg64
(lp2533
g57
(g58
g59
NtRp2534
(dp2535
g62
(dp2536
g70
I3
ssg71
g2530
sg64
(lp2537
g1121
asbasbasbag57
(g73
g59
NtRp2538
(dp2539
g62
(dp2540
sg71
g2261
sg64
(lp2541
g57
(g78
g59
NtRp2542
(dp2543
g62
(dp2544
g82
g83
ssg71
g2538
sg64
(lp2545
S'REQUEST_URI'
p2546
asbag57
(g78
g59
NtRp2547
(dp2548
g62
(dp2549
g89
g90
ssg71
g2538
sg64
(lp2550
S':'
asbag57
(g78
g59
NtRp2551
(dp2552
g62
(dp2553
sg71
g2538
sg64
(lp2554
g57
(g58
g59
NtRp2555
(dp2556
g62
(dp2557
g70
I3
ssg71
g2551
sg64
(lp2558
S'/'
asbasbasbag57
(g73
g59
NtRp2559
(dp2560
g62
(dp2561
sg71
g2261
sg64
(lp2562
g57
(g78
g59
NtRp2563
(dp2564
g62
(dp2565
g82
g83
ssg71
g2559
sg64
(lp2566
S'SCRIPT_NAME'
p2567
asbag57
(g78
g59
NtRp2568
(dp2569
g62
(dp2570
g89
g90
ssg71
g2559
sg64
(lp2571
S':'
asbag57
(g78
g59
NtRp2572
(dp2573
g62
(dp2574
sg71
g2559
sg64
(lp2575
g57
(g58
g59
NtRp2576
(dp2577
g62
(dp2578
g70
I3
ssg71
g2572
sg64
(lp2579
S''
asbasbasbag57
(g73
g59
NtRp2580
(dp2581
g62
(dp2582
sg71
g2261
sg64
(lp2583
g57
(g78
g59
NtRp2584
(dp2585
g62
(dp2586
g82
g83
ssg71
g2580
sg64
(lp2587
S'SERVER_NAME'
p2588
asbag57
(g78
g59
NtRp2589
(dp2590
g62
(dp2591
g89
g90
ssg71
g2580
sg64
(lp2592
S':'
asbag57
(g78
g59
NtRp2593
(dp2594
g62
(dp2595
sg71
g2580
sg64
(lp2596
g57
(g58
g59
NtRp2597
(dp2598
g62
(dp2599
g70
I3
ssg71
g2593
sg64
(lp2600
g1185
asbasbasbag57
(g73
g59
NtRp2601
(dp2602
g62
(dp2603
sg71
g2261
sg64
(lp2604
g57
(g78
g59
NtRp2605
(dp2606
g62
(dp2607
g82
g83
ssg71
g2601
sg64
(lp2608
S'SERVER_PORT'
p2609
asbag57
(g78
g59
NtRp2610
(dp2611
g62
(dp2612
g89
g90
ssg71
g2601
sg64
(lp2613
S':'
asbag57
(g78
g59
NtRp2614
(dp2615
g62
(dp2616
sg71
g2601
sg64
(lp2617
g57
(g58
g59
NtRp2618
(dp2619
g62
(dp2620
g70
I3
ssg71
g2614
sg64
(lp2621
g1207
asbasbasbag57
(g73
g59
NtRp2622
(dp2623
g62
(dp2624
sg71
g2261
sg64
(lp2625
g57
(g78
g59
NtRp2626
(dp2627
g62
(dp2628
g82
g83
ssg71
g2622
sg64
(lp2629
S'SERVER_PROTOCOL'
p2630
asbag57
(g78
g59
NtRp2631
(dp2632
g62
(dp2633
g89
g90
ssg71
g2622
sg64
(lp2634
S':'
asbag57
(g78
g59
NtRp2635
(dp2636
g62
(dp2637
sg71
g2622
sg64
(lp2638
g57
(g58
g59
NtRp2639
(dp2640
g62
(dp2641
g70
I3
ssg71
g2635
sg64
(lp2642
g1229
asbasbasbag57
(g73
g59
NtRp2643
(dp2644
g62
(dp2645
sg71
g2261
sg64
(lp2646
g57
(g78
g59
NtRp2647
(dp2648
g62
(dp2649
g82
g83
ssg71
g2643
sg64
(lp2650
S'SERVER_SOFTWARE'
p2651
asbag57
(g78
g59
NtRp2652
(dp2653
g62
(dp2654
g89
g90
ssg71
g2643
sg64
(lp2655
S':'
asbag57
(g78
g59
NtRp2656
(dp2657
g62
(dp2658
sg71
g2643
sg64
(lp2659
g57
(g58
g59
NtRp2660
(dp2661
g62
(dp2662
g70
I3
ssg71
g2656
sg64
(lp2663
g1251
asbasbasbag57
(g73
g59
NtRp2664
(dp2665
g62
(dp2666
sg71
g2261
sg64
(lp2667
g57
(g78
g59
NtRp2668
(dp2669
g62
(dp2670
g82
g83
ssg71
g2664
sg64
(lp2671
S'WEB2PY_ORIGINAL_URI'
p2672
asbag57
(g78
g59
NtRp2673
(dp2674
g62
(dp2675
g89
g90
ssg71
g2664
sg64
(lp2676
S':'
asbag57
(g78
g59
NtRp2677
(dp2678
g62
(dp2679
sg71
g2664
sg64
(lp2680
g57
(g58
g59
NtRp2681
(dp2682
g62
(dp2683
g70
I3
ssg71
g2677
sg64
(lp2684
S'/'
asbasbasbag57
(g73
g59
NtRp2685
(dp2686
g62
(dp2687
sg71
g2261
sg64
(lp2688
g57
(g78
g59
NtRp2689
(dp2690
g62
(dp2691
g82
g83
ssg71
g2685
sg64
(lp2692
S'wsgi.errors'
p2693
asbag57
(g78
g59
NtRp2694
(dp2695
g62
(dp2696
g89
g90
ssg71
g2685
sg64
(lp2697
S':'
asbag57
(g78
g59
NtRp2698
(dp2699
g62
(dp2700
sg71
g2685
sg64
(lp2701
g57
(g58
g59
NtRp2702
(dp2703
g62
(dp2704
g70
I3
ssg71
g2698
sg64
(lp2705
S"<open file '<stderr>', mode 'w' at 0x7f227f53f270>"
p2706
asbasbasbag57
(g73
g59
NtRp2707
(dp2708
g62
(dp2709
sg71
g2261
sg64
(lp2710
g57
(g78
g59
NtRp2711
(dp2712
g62
(dp2713
g82
g83
ssg71
g2707
sg64
(lp2714
S'wsgi.file_wrapper'
p2715
asbag57
(g78
g59
NtRp2716
(dp2717
g62
(dp2718
g89
g90
ssg71
g2707
sg64
(lp2719
S':'
asbag57
(g78
g59
NtRp2720
(dp2721
g62
(dp2722
sg71
g2707
sg64
(lp2723
g57
(g58
g59
NtRp2724
(dp2725
g62
(dp2726
g70
I3
ssg71
g2720
sg64
(lp2727
S'<class wsgiref.util.FileWrapper at 0x2817f58>'
p2728
asbasbasbag57
(g73
g59
NtRp2729
(dp2730
g62
(dp2731
sg71
g2261
sg64
(lp2732
g57
(g78
g59
NtRp2733
(dp2734
g62
(dp2735
g82
g83
ssg71
g2729
sg64
(lp2736
S'wsgi.input'
p2737
asbag57
(g78
g59
NtRp2738
(dp2739
g62
(dp2740
g89
g90
ssg71
g2729
sg64
(lp2741
S':'
asbag57
(g78
g59
NtRp2742
(dp2743
g62
(dp2744
sg71
g2729
sg64
(lp2745
g57
(g58
g59
NtRp2746
(dp2747
g62
(dp2748
g70
I3
ssg71
g2742
sg64
(lp2749
S'<cStringIO.StringO object at 0x7f224041a228>'
p2750
asbasbasbag57
(g73
g59
NtRp2751
(dp2752
g62
(dp2753
sg71
g2261
sg64
(lp2754
g57
(g78
g59
NtRp2755
(dp2756
g62
(dp2757
g82
g83
ssg71
g2751
sg64
(lp2758
S'wsgi.multiprocess'
p2759
asbag57
(g78
g59
NtRp2760
(dp2761
g62
(dp2762
g89
g90
ssg71
g2751
sg64
(lp2763
S':'
asbag57
(g78
g59
NtRp2764
(dp2765
g62
(dp2766
sg71
g2751
sg64
(lp2767
g57
(g58
g59
NtRp2768
(dp2769
g62
(dp2770
g70
I3
ssg71
g2764
sg64
(lp2771
g100
asbasbasbag57
(g73
g59
NtRp2772
(dp2773
g62
(dp2774
sg71
g2261
sg64
(lp2775
g57
(g78
g59
NtRp2776
(dp2777
g62
(dp2778
g82
g83
ssg71
g2772
sg64
(lp2779
S'wsgi.multithread'
p2780
asbag57
(g78
g59
NtRp2781
(dp2782
g62
(dp2783
g89
g90
ssg71
g2772
sg64
(lp2784
S':'
asbag57
(g78
g59
NtRp2785
(dp2786
g62
(dp2787
sg71
g2772
sg64
(lp2788
g57
(g58
g59
NtRp2789
(dp2790
g62
(dp2791
g70
I3
ssg71
g2785
sg64
(lp2792
g1512
asbasbasbag57
(g73
g59
NtRp2793
(dp2794
g62
(dp2795
sg71
g2261
sg64
(lp2796
g57
(g78
g59
NtRp2797
(dp2798
g62
(dp2799
g82
g83
ssg71
g2793
sg64
(lp2800
S'wsgi.run_once'
p2801
asbag57
(g78
g59
NtRp2802
(dp2803
g62
(dp2804
g89
g90
ssg71
g2793
sg64
(lp2805
S':'
asbag57
(g78
g59
NtRp2806
(dp2807
g62
(dp2808
sg71
g2793
sg64
(lp2809
g57
(g58
g59
NtRp2810
(dp2811
g62
(dp2812
g70
I3
ssg71
g2806
sg64
(lp2813
g100
asbasbasbag57
(g73
g59
NtRp2814
(dp2815
g62
(dp2816
sg71
g2261
sg64
(lp2817
g57
(g78
g59
NtRp2818
(dp2819
g62
(dp2820
g82
g83
ssg71
g2814
sg64
(lp2821
S'wsgi.url_scheme'
p2822
asbag57
(g78
g59
NtRp2823
(dp2824
g62
(dp2825
g89
g90
ssg71
g2814
sg64
(lp2826
S':'
asbag57
(g78
g59
NtRp2827
(dp2828
g62
(dp2829
sg71
g2814
sg64
(lp2830
g57
(g58
g59
NtRp2831
(dp2832
g62
(dp2833
g70
I3
ssg71
g2827
sg64
(lp2834
g1555
asbasbasbag57
(g73
g59
NtRp2835
(dp2836
g62
(dp2837
sg71
g2261
sg64
(lp2838
g57
(g78
g59
NtRp2839
(dp2840
g62
(dp2841
g82
g83
ssg71
g2835
sg64
(lp2842
S'wsgi.version'
p2843
asbag57
(g78
g59
NtRp2844
(dp2845
g62
(dp2846
g89
g90
ssg71
g2835
sg64
(lp2847
S':'
asbag57
(g78
g59
NtRp2848
(dp2849
g62
(dp2850
sg71
g2835
sg64
(lp2851
g57
(g58
g59
NtRp2852
(dp2853
g62
(dp2854
g70
I3
ssg71
g2848
sg64
(lp2855
S'1'
asbasbasbasbasbasbasbasbasbasbasbasbasbsS'frames'
p2856
(lp2857
(dp2858
S'file'
p2859
S'/home/goshawk/web2py/gluon/restricted.py'
p2860
sS'dump'
p2861
(dp2862
S'environment'
p2863
S"{'A': <class 'gluon.html.A'>, 'Auth': <class 'gluon.tools.Auth'>, 'B': <class 'gluon.html.B'>, 'BEAUTIFY': <class 'gluon.html.BEAUTIFY'>, 'BODY': <class 'gluon.html.BODY'>, 'BR': <class 'gluon.html.BR'>, 'BUTTON': <class 'gluon.html.BUTTON'>, 'CAT': <class 'gluon.html.CAT'>, 'CENTER': <class 'gluon.html.CENTER'>, 'CLEANUP': <class 'gluon.validators.CLEANUP'>, ...}"
p2864
sS'ccode'
p2865
S'<code object <module> at 0x7f226910e930, file "/...y/applications/milo/models/whisperer.py", line 1>'
p2866
ssS'lnum'
p2867
I205
sS'lines'
p2868
(dp2869
I200
S'    try:'
p2870
sI201
S'        if type(code) == types.CodeType:'
p2871
sI202
S'            ccode = code'
p2872
sI203
S'        else:'
p2873
sI204
S'            ccode = compile2(code,layer)'
p2874
sI205
S'        exec ccode in environment'
p2875
sI206
S'    except HTTP:'
p2876
sI207
S'        raise'
p2877
sI208
S'    except RestrictedError:'
p2878
sI209
S'        # do not encapsulate (obfuscate) the original RestrictedError'
p2879
ssS'call'
p2880
S"(code='from scheduler import Scheduler\\nimport matlab_wr...tetime.timedelta(days=1)\\n#        )\\n\\ncreate_urm()', environment={'A': <class 'gluon.html.A'>, 'Auth': <class 'gluon.tools.Auth'>, 'B': <class 'gluon.html.B'>, 'BEAUTIFY': <class 'gluon.html.BEAUTIFY'>, 'BODY': <class 'gluon.html.BODY'>, 'BR': <class 'gluon.html.BR'>, 'BUTTON': <class 'gluon.html.BUTTON'>, 'CAT': <class 'gluon.html.CAT'>, 'CENTER': <class 'gluon.html.CENTER'>, 'CLEANUP': <class 'gluon.validators.CLEANUP'>, ...}, layer='/home/goshawk/web2py/applications/milo/models/whisperer.py')"
p2881
sS'func'
p2882
S'restricted'
p2883
sa(dp2884
g2859
S'/home/goshawk/web2py/applications/milo/models/whisperer.py'
p2885
sg2861
(dp2886
S'create_urm'
p2887
S'<function create_urm>'
p2888
ssg2867
I30
sg2868
(dp2889
I21
S'#import datetime'
p2890
sI22
S'#db_scheduler.scheduler_task.insert('
p2891
sI23
S"#        application_name='milo',"
p2892
sI24
S"#        function_name='create_urm',"
p2893
sI25
S'#        enabled=True,'
p2894
sI26
S'#        start_time=request.now,'
p2895
sI27
S'#        stop_time = request.now+datetime.timedelta(days=1)'
p2896
sI28
S'#        )'
p2897
sI29
S''
sI30
S'create_urm()'
p2898
ssg2880
S'()'
p2899
sg2882
S'<module>'
p2900
sa(dp2901
g2859
S'/home/goshawk/web2py/applications/milo/models/whisperer.py'
p2902
sg2861
(dp2903
S'global db'
p2904
S"<DAL {'auth_event': <Table {'origin': <gluon.dal...': <gluon.dal.Field object at 0x7f22583eb3d0>}>}>"
p2905
sS'global matlab_wrapper'
p2906
S"<module 'applications.milo.modules.matlab_wrappe...om 'applications/milo/modules/matlab_wrapper.py'>"
p2907
sS'w'
S'undefined'
p2908
sS'matlab_wrapper.Whisperer'
p2909
S"<class 'applications.milo.modules.matlab_wrapper.Whisperer'>"
p2910
ssg2867
I9
sg2868
(dp2911
I4
S''
sI5
S"db_scheduler = DAL('postgres://milo:milosecret@localhost/milo-scheduler')"
p2912
sI6
S''
sI7
S'def create_urm(*args, **vars):'
p2913
sI8
S'    print args, vars'
p2914
sI9
S'    w = matlab_wrapper.Whisperer(db)'
p2915
sI10
S'    w.create_urm()'
p2916
sI11
S''
sI12
S'def create_icm(*args, **vars):'
p2917
sI13
S'    w = matlab_wrapper.Whisperer(db)'
p2918
ssg2880
S'(*args=(), **vars={})'
p2919
sg2882
S'create_urm'
p2920
sasS'pyver'
p2921
S'Python 2.7.3: /usr/bin/python'
p2922
sS'session'
p2923
g57
(g58
g59
NtRp2924
(dp2925
g62
(dp2926
sg64
(lp2927
g57
(g66
g59
NtRp2928
(dp2929
g62
(dp2930
g70
I5
ssg71
Nsg64
(lp2931
g57
(g73
g59
NtRp2932
(dp2933
g62
(dp2934
sg71
g2928
sg64
(lp2935
g57
(g78
g59
NtRp2936
(dp2937
g62
(dp2938
g82
g83
ssg71
g2932
sg64
(lp2939
S'last_query'
p2940
asbag57
(g78
g59
NtRp2941
(dp2942
g62
(dp2943
g89
g90
ssg71
g2932
sg64
(lp2944
S':'
asbag57
(g78
g59
NtRp2945
(dp2946
g62
(dp2947
sg71
g2932
sg64
(lp2948
g57
(g58
g59
NtRp2949
(dp2950
g62
(dp2951
g70
I5
ssg71
g2945
sg64
(lp2952
S'db_scheduler.scheduler_run.id>0'
p2953
asbasbasbasbasbsS'etype'
p2954
S"<type 'exceptions.TypeError'>"
p2955
sS'date'
p2956
S'Thu Jun 21 03:03:43 2012'
p2957
sS'response'
p2958
g57
(g58
g59
NtRp2959
(dp2960
g62
(dp2961
sg64
(lp2962
g57
(g66
g59
NtRp2963
(dp2964
g62
(dp2965
g70
I5
ssg71
Nsg64
(lp2966
g57
(g73
g59
NtRp2967
(dp2968
g62
(dp2969
sg71
g2963
sg64
(lp2970
g57
(g78
g59
NtRp2971
(dp2972
g62
(dp2973
g82
g83
ssg71
g2967
sg64
(lp2974
g155
asbag57
(g78
g59
NtRp2975
(dp2976
g62
(dp2977
g89
g90
ssg71
g2967
sg64
(lp2978
S':'
asbag57
(g78
g59
NtRp2979
(dp2980
g62
(dp2981
sg71
g2967
sg64
(lp2982
g57
(g58
g59
NtRp2983
(dp2984
g62
(dp2985
g70
I5
ssg71
g2979
sg64
(lp2986
S'<cStringIO.StringO object at 0x7f2240055420>'
p2987
asbasbasbag57
(g73
g59
NtRp2988
(dp2989
g62
(dp2990
sg71
g2963
sg64
(lp2991
g57
(g78
g59
NtRp2992
(dp2993
g62
(dp2994
g82
g83
ssg71
g2988
sg64
(lp2995
g221
asbag57
(g78
g59
NtRp2996
(dp2997
g62
(dp2998
g89
g90
ssg71
g2988
sg64
(lp2999
S':'
asbag57
(g78
g59
NtRp3000
(dp3001
g62
(dp3002
sg71
g2988
sg64
(lp3003
g57
(g58
g59
NtRp3004
(dp3005
g62
(dp3006
g70
I5
ssg71
g3000
sg64
(lp3007
g57
(g66
g59
NtRp3008
(dp3009
g62
(dp3010
g70
I4
ssg71
Nsg64
(lp3011
g57
(g73
g59
NtRp3012
(dp3013
g62
(dp3014
sg71
g3008
sg64
(lp3015
g57
(g78
g59
NtRp3016
(dp3017
g62
(dp3018
g82
g83
ssg71
g3012
sg64
(lp3019
S'session_id_milo'
p3020
asbag57
(g78
g59
NtRp3021
(dp3022
g62
(dp3023
g89
g90
ssg71
g3012
sg64
(lp3024
S':'
asbag57
(g78
g59
NtRp3025
(dp3026
g62
(dp3027
sg71
g3012
sg64
(lp3028
g57
(g58
g59
NtRp3029
(dp3030
g62
(dp3031
g70
I4
ssg71
g3025
sg64
(lp3032
g57
(g66
g59
NtRp3033
(dp3034
g62
(dp3035
g70
I3
ssg71
Nsg64
(lp3036
g57
(g73
g59
NtRp3037
(dp3038
g62
(dp3039
sg71
g3033
sg64
(lp3040
g57
(g78
g59
NtRp3041
(dp3042
g62
(dp3043
g82
g83
ssg71
g3037
sg64
(lp3044
g271
asbag57
(g78
g59
NtRp3045
(dp3046
g62
(dp3047
g89
g90
ssg71
g3037
sg64
(lp3048
S':'
asbag57
(g78
g59
NtRp3049
(dp3050
g62
(dp3051
sg71
g3037
sg64
(lp3052
g57
(g58
g59
NtRp3053
(dp3054
g62
(dp3055
g70
I3
ssg71
g3049
sg64
(lp3056
S''
asbasbasbag57
(g73
g59
NtRp3057
(dp3058
g62
(dp3059
sg71
g3033
sg64
(lp3060
g57
(g78
g59
NtRp3061
(dp3062
g62
(dp3063
g82
g83
ssg71
g3057
sg64
(lp3064
g292
asbag57
(g78
g59
NtRp3065
(dp3066
g62
(dp3067
g89
g90
ssg71
g3057
sg64
(lp3068
S':'
asbag57
(g78
g59
NtRp3069
(dp3070
g62
(dp3071
sg71
g3057
sg64
(lp3072
g57
(g58
g59
NtRp3073
(dp3074
g62
(dp3075
g70
I3
ssg71
g3069
sg64
(lp3076
S''
asbasbasbag57
(g73
g59
NtRp3077
(dp3078
g62
(dp3079
sg71
g3033
sg64
(lp3080
g57
(g78
g59
NtRp3081
(dp3082
g62
(dp3083
g82
g83
ssg71
g3077
sg64
(lp3084
g313
asbag57
(g78
g59
NtRp3085
(dp3086
g62
(dp3087
g89
g90
ssg71
g3077
sg64
(lp3088
S':'
asbag57
(g78
g59
NtRp3089
(dp3090
g62
(dp3091
sg71
g3077
sg64
(lp3092
g57
(g58
g59
NtRp3093
(dp3094
g62
(dp3095
g70
I3
ssg71
g3089
sg64
(lp3096
S''
asbasbasbag57
(g73
g59
NtRp3097
(dp3098
g62
(dp3099
sg71
g3033
sg64
(lp3100
g57
(g78
g59
NtRp3101
(dp3102
g62
(dp3103
g82
g83
ssg71
g3097
sg64
(lp3104
g334
asbag57
(g78
g59
NtRp3105
(dp3106
g62
(dp3107
g89
g90
ssg71
g3097
sg64
(lp3108
S':'
asbag57
(g78
g59
NtRp3109
(dp3110
g62
(dp3111
sg71
g3097
sg64
(lp3112
g57
(g58
g59
NtRp3113
(dp3114
g62
(dp3115
g70
I3
ssg71
g3109
sg64
(lp3116
S''
asbasbasbag57
(g73
g59
NtRp3117
(dp3118
g62
(dp3119
sg71
g3033
sg64
(lp3120
g57
(g78
g59
NtRp3121
(dp3122
g62
(dp3123
g82
g83
ssg71
g3117
sg64
(lp3124
g355
asbag57
(g78
g59
NtRp3125
(dp3126
g62
(dp3127
g89
g90
ssg71
g3117
sg64
(lp3128
S':'
asbag57
(g78
g59
NtRp3129
(dp3130
g62
(dp3131
sg71
g3117
sg64
(lp3132
g57
(g58
g59
NtRp3133
(dp3134
g62
(dp3135
g70
I3
ssg71
g3129
sg64
(lp3136
S''
asbasbasbag57
(g73
g59
NtRp3137
(dp3138
g62
(dp3139
sg71
g3033
sg64
(lp3140
g57
(g78
g59
NtRp3141
(dp3142
g62
(dp3143
g82
g83
ssg71
g3137
sg64
(lp3144
g376
asbag57
(g78
g59
NtRp3145
(dp3146
g62
(dp3147
g89
g90
ssg71
g3137
sg64
(lp3148
S':'
asbag57
(g78
g59
NtRp3149
(dp3150
g62
(dp3151
sg71
g3137
sg64
(lp3152
g57
(g58
g59
NtRp3153
(dp3154
g62
(dp3155
g70
I3
ssg71
g3149
sg64
(lp3156
S'/'
asbasbasbag57
(g73
g59
NtRp3157
(dp3158
g62
(dp3159
sg71
g3033
sg64
(lp3160
g57
(g78
g59
NtRp3161
(dp3162
g62
(dp3163
g82
g83
ssg71
g3157
sg64
(lp3164
g397
asbag57
(g78
g59
NtRp3165
(dp3166
g62
(dp3167
g89
g90
ssg71
g3157
sg64
(lp3168
S':'
asbag57
(g78
g59
NtRp3169
(dp3170
g62
(dp3171
sg71
g3157
sg64
(lp3172
g57
(g58
g59
NtRp3173
(dp3174
g62
(dp3175
g70
I3
ssg71
g3169
sg64
(lp3176
S''
asbasbasbag57
(g73
g59
NtRp3177
(dp3178
g62
(dp3179
sg71
g3033
sg64
(lp3180
g57
(g78
g59
NtRp3181
(dp3182
g62
(dp3183
g82
g83
ssg71
g3177
sg64
(lp3184
g418
asbag57
(g78
g59
NtRp3185
(dp3186
g62
(dp3187
g89
g90
ssg71
g3177
sg64
(lp3188
S':'
asbag57
(g78
g59
NtRp3189
(dp3190
g62
(dp3191
sg71
g3177
sg64
(lp3192
g57
(g58
g59
NtRp3193
(dp3194
g62
(dp3195
g70
I3
ssg71
g3189
sg64
(lp3196
S''
asbasbasbasbasbasbasbasbasbasbasbag57
(g73
g59
NtRp3197
(dp3198
g62
(dp3199
sg71
g2963
sg64
(lp3200
g57
(g78
g59
NtRp3201
(dp3202
g62
(dp3203
g82
g83
ssg71
g3197
sg64
(lp3204
S'delimiters'
p3205
asbag57
(g78
g59
NtRp3206
(dp3207
g62
(dp3208
g89
g90
ssg71
g3197
sg64
(lp3209
S':'
asbag57
(g78
g59
NtRp3210
(dp3211
g62
(dp3212
sg71
g3197
sg64
(lp3213
g57
(g58
g59
NtRp3214
(dp3215
g62
(dp3216
g70
I5
ssg71
g3210
sg64
(lp3217
g57
(g66
g59
NtRp3218
(dp3219
g62
(dp3220
g70
I4
ssg71
Nsg64
(lp3221
g57
(g73
g59
NtRp3222
(dp3223
g62
(dp3224
sg71
g3218
sg64
(lp3225
g57
(g78
g59
NtRp3226
(dp3227
g62
(dp3228
sg71
g3222
sg64
(lp3229
g57
(g58
g59
NtRp3230
(dp3231
g62
(dp3232
g70
I4
ssg71
g3226
sg64
(lp3233
S'{{'
p3234
asbasbasbag57
(g73
g59
NtRp3235
(dp3236
g62
(dp3237
sg71
g3218
sg64
(lp3238
g57
(g78
g59
NtRp3239
(dp3240
g62
(dp3241
sg71
g3235
sg64
(lp3242
g57
(g58
g59
NtRp3243
(dp3244
g62
(dp3245
g70
I4
ssg71
g3239
sg64
(lp3246
S'}}'
p3247
asbasbasbasbasbasbasbag57
(g73
g59
NtRp3248
(dp3249
g62
(dp3250
sg71
g2963
sg64
(lp3251
g57
(g78
g59
NtRp3252
(dp3253
g62
(dp3254
g82
g83
ssg71
g3248
sg64
(lp3255
S'files'
p3256
asbag57
(g78
g59
NtRp3257
(dp3258
g62
(dp3259
g89
g90
ssg71
g3248
sg64
(lp3260
S':'
asbag57
(g78
g59
NtRp3261
(dp3262
g62
(dp3263
sg71
g3248
sg64
(lp3264
g57
(g58
g59
NtRp3265
(dp3266
g62
(dp3267
g70
I5
ssg71
g3261
sg64
(lp3268
g57
(g66
g59
NtRp3269
(dp3270
g62
(dp3271
g70
I4
ssg71
Nsg64
(lp3272
sbasbasbasbag57
(g73
g59
NtRp3273
(dp3274
g62
(dp3275
sg71
g2963
sg64
(lp3276
g57
(g78
g59
NtRp3277
(dp3278
g62
(dp3279
g82
g83
ssg71
g3273
sg64
(lp3280
S'flash'
p3281
asbag57
(g78
g59
NtRp3282
(dp3283
g62
(dp3284
g89
g90
ssg71
g3273
sg64
(lp3285
S':'
asbag57
(g78
g59
NtRp3286
(dp3287
g62
(dp3288
sg71
g3273
sg64
(lp3289
g57
(g58
g59
NtRp3290
(dp3291
g62
(dp3292
g70
I5
ssg71
g3286
sg64
(lp3293
S''
asbasbasbag57
(g73
g59
NtRp3294
(dp3295
g62
(dp3296
sg71
g2963
sg64
(lp3297
g57
(g78
g59
NtRp3298
(dp3299
g62
(dp3300
g82
g83
ssg71
g3294
sg64
(lp3301
S'generic_patterns'
p3302
asbag57
(g78
g59
NtRp3303
(dp3304
g62
(dp3305
g89
g90
ssg71
g3294
sg64
(lp3306
S':'
asbag57
(g78
g59
NtRp3307
(dp3308
g62
(dp3309
sg71
g3294
sg64
(lp3310
g57
(g58
g59
NtRp3311
(dp3312
g62
(dp3313
g70
I5
ssg71
g3307
sg64
(lp3314
g57
(g66
g59
NtRp3315
(dp3316
g62
(dp3317
g70
I4
ssg71
Nsg64
(lp3318
g57
(g73
g59
NtRp3319
(dp3320
g62
(dp3321
sg71
g3315
sg64
(lp3322
g57
(g78
g59
NtRp3323
(dp3324
g62
(dp3325
sg71
g3319
sg64
(lp3326
g57
(g58
g59
NtRp3327
(dp3328
g62
(dp3329
g70
I4
ssg71
g3323
sg64
(lp3330
S'*'
asbasbasbasbasbasbasbag57
(g73
g59
NtRp3331
(dp3332
g62
(dp3333
sg71
g2963
sg64
(lp3334
g57
(g78
g59
NtRp3335
(dp3336
g62
(dp3337
g82
g83
ssg71
g3331
sg64
(lp3338
S'headers'
p3339
asbag57
(g78
g59
NtRp3340
(dp3341
g62
(dp3342
g89
g90
ssg71
g3331
sg64
(lp3343
S':'
asbag57
(g78
g59
NtRp3344
(dp3345
g62
(dp3346
sg71
g3331
sg64
(lp3347
g57
(g58
g59
NtRp3348
(dp3349
g62
(dp3350
g70
I5
ssg71
g3344
sg64
(lp3351
g57
(g66
g59
NtRp3352
(dp3353
g62
(dp3354
g70
I4
ssg71
Nsg64
(lp3355
g57
(g73
g59
NtRp3356
(dp3357
g62
(dp3358
sg71
g3352
sg64
(lp3359
g57
(g78
g59
NtRp3360
(dp3361
g62
(dp3362
g82
g83
ssg71
g3356
sg64
(lp3363
S'Cache-Control'
p3364
asbag57
(g78
g59
NtRp3365
(dp3366
g62
(dp3367
g89
g90
ssg71
g3356
sg64
(lp3368
S':'
asbag57
(g78
g59
NtRp3369
(dp3370
g62
(dp3371
sg71
g3356
sg64
(lp3372
g57
(g58
g59
NtRp3373
(dp3374
g62
(dp3375
g70
I4
ssg71
g3369
sg64
(lp3376
S'no-store, no-cache, must-revalidate, post-check=0, pre-check=0'
p3377
asbasbasbag57
(g73
g59
NtRp3378
(dp3379
g62
(dp3380
sg71
g3352
sg64
(lp3381
g57
(g78
g59
NtRp3382
(dp3383
g62
(dp3384
g82
g83
ssg71
g3378
sg64
(lp3385
S'Content-Type'
p3386
asbag57
(g78
g59
NtRp3387
(dp3388
g62
(dp3389
g89
g90
ssg71
g3378
sg64
(lp3390
S':'
asbag57
(g78
g59
NtRp3391
(dp3392
g62
(dp3393
sg71
g3378
sg64
(lp3394
g57
(g58
g59
NtRp3395
(dp3396
g62
(dp3397
g70
I4
ssg71
g3391
sg64
(lp3398
S'text/html; charset=utf-8'
p3399
asbasbasbag57
(g73
g59
NtRp3400
(dp3401
g62
(dp3402
sg71
g3352
sg64
(lp3403
g57
(g78
g59
NtRp3404
(dp3405
g62
(dp3406
g82
g83
ssg71
g3400
sg64
(lp3407
S'Expires'
p3408
asbag57
(g78
g59
NtRp3409
(dp3410
g62
(dp3411
g89
g90
ssg71
g3400
sg64
(lp3412
S':'
asbag57
(g78
g59
NtRp3413
(dp3414
g62
(dp3415
sg71
g3400
sg64
(lp3416
g57
(g58
g59
NtRp3417
(dp3418
g62
(dp3419
g70
I4
ssg71
g3413
sg64
(lp3420
S'Thu, 21 Jun 2012 01:03:43 GMT'
p3421
asbasbasbag57
(g73
g59
NtRp3422
(dp3423
g62
(dp3424
sg71
g3352
sg64
(lp3425
g57
(g78
g59
NtRp3426
(dp3427
g62
(dp3428
g82
g83
ssg71
g3422
sg64
(lp3429
S'Pragma'
p3430
asbag57
(g78
g59
NtRp3431
(dp3432
g62
(dp3433
g89
g90
ssg71
g3422
sg64
(lp3434
S':'
asbag57
(g78
g59
NtRp3435
(dp3436
g62
(dp3437
sg71
g3422
sg64
(lp3438
g57
(g58
g59
NtRp3439
(dp3440
g62
(dp3441
g70
I4
ssg71
g3435
sg64
(lp3442
S'no-cache'
p3443
asbasbasbag57
(g73
g59
NtRp3444
(dp3445
g62
(dp3446
sg71
g3352
sg64
(lp3447
g57
(g78
g59
NtRp3448
(dp3449
g62
(dp3450
g82
g83
ssg71
g3444
sg64
(lp3451
S'X-Powered-By'
p3452
asbag57
(g78
g59
NtRp3453
(dp3454
g62
(dp3455
g89
g90
ssg71
g3444
sg64
(lp3456
S':'
asbag57
(g78
g59
NtRp3457
(dp3458
g62
(dp3459
sg71
g3444
sg64
(lp3460
g57
(g58
g59
NtRp3461
(dp3462
g62
(dp3463
g70
I4
ssg71
g3457
sg64
(lp3464
S'web2py'
p3465
asbasbasbasbasbasbasbag57
(g73
g59
NtRp3466
(dp3467
g62
(dp3468
sg71
g2963
sg64
(lp3469
g57
(g78
g59
NtRp3470
(dp3471
g62
(dp3472
g82
g83
ssg71
g3466
sg64
(lp3473
S'menu'
p3474
asbag57
(g78
g59
NtRp3475
(dp3476
g62
(dp3477
g89
g90
ssg71
g3466
sg64
(lp3478
S':'
asbag57
(g78
g59
NtRp3479
(dp3480
g62
(dp3481
sg71
g3466
sg64
(lp3482
g57
(g58
g59
NtRp3483
(dp3484
g62
(dp3485
g70
I5
ssg71
g3479
sg64
(lp3486
g57
(g66
g59
NtRp3487
(dp3488
g62
(dp3489
g70
I4
ssg71
Nsg64
(lp3490
g57
(g73
g59
NtRp3491
(dp3492
g62
(dp3493
sg71
g3487
sg64
(lp3494
g57
(g78
g59
NtRp3495
(dp3496
g62
(dp3497
sg71
g3491
sg64
(lp3498
g57
(g58
g59
NtRp3499
(dp3500
g62
(dp3501
g70
I4
ssg71
g3495
sg64
(lp3502
g57
(g66
g59
NtRp3503
(dp3504
g62
(dp3505
g70
I3
ssg71
Nsg64
(lp3506
g57
(g73
g59
NtRp3507
(dp3508
g62
(dp3509
sg71
g3503
sg64
(lp3510
g57
(g78
g59
NtRp3511
(dp3512
g62
(dp3513
sg71
g3507
sg64
(lp3514
g57
(g58
g59
NtRp3515
(dp3516
g62
(dp3517
g70
I3
ssg71
g3511
sg64
(lp3518
cgluon.languages
lazyT_unpickle
p3519
(S't\x04\x00\x00\x00Home'
tRp3520
asbasbasbag57
(g73
g59
NtRp3521
(dp3522
g62
(dp3523
sg71
g3503
sg64
(lp3524
g57
(g78
g59
NtRp3525
(dp3526
g62
(dp3527
sg71
g3521
sg64
(lp3528
g57
(g58
g59
NtRp3529
(dp3530
g62
(dp3531
g70
I3
ssg71
g3525
sg64
(lp3532
g100
asbasbasbag57
(g73
g59
NtRp3533
(dp3534
g62
(dp3535
sg71
g3503
sg64
(lp3536
g57
(g78
g59
NtRp3537
(dp3538
g62
(dp3539
sg71
g3533
sg64
(lp3540
g57
(g58
g59
NtRp3541
(dp3542
g62
(dp3543
g70
I3
ssg71
g3537
sg64
(lp3544
S'/milo/default/index'
p3545
asbasbasbag57
(g73
g59
NtRp3546
(dp3547
g62
(dp3548
sg71
g3503
sg64
(lp3549
g57
(g78
g59
NtRp3550
(dp3551
g62
(dp3552
sg71
g3546
sg64
(lp3553
g57
(g58
g59
NtRp3554
(dp3555
g62
(dp3556
g70
I3
ssg71
g3550
sg64
(lp3557
g57
(g66
g59
NtRp3558
(dp3559
g62
(dp3560
g70
I2
ssg71
Nsg64
(lp3561
sbasbasbasbasbasbasbasbag57
(g73
g59
NtRp3562
(dp3563
g62
(dp3564
sg71
g3487
sg64
(lp3565
g57
(g78
g59
NtRp3566
(dp3567
g62
(dp3568
sg71
g3562
sg64
(lp3569
g57
(g58
g59
NtRp3570
(dp3571
g62
(dp3572
g70
I4
ssg71
g3566
sg64
(lp3573
g57
(g66
g59
NtRp3574
(dp3575
g62
(dp3576
g70
I3
ssg71
Nsg64
(lp3577
g57
(g73
g59
NtRp3578
(dp3579
g62
(dp3580
sg71
g3574
sg64
(lp3581
g57
(g78
g59
NtRp3582
(dp3583
g62
(dp3584
sg71
g3578
sg64
(lp3585
g57
(g58
g59
NtRp3586
(dp3587
g62
(dp3588
g70
I3
ssg71
g3582
sg64
(lp3589
g3519
(S't\x05\x00\x00\x00Admin'
tRp3590
asbasbasbag57
(g73
g59
NtRp3591
(dp3592
g62
(dp3593
sg71
g3574
sg64
(lp3594
g57
(g78
g59
NtRp3595
(dp3596
g62
(dp3597
sg71
g3591
sg64
(lp3598
g57
(g58
g59
NtRp3599
(dp3600
g62
(dp3601
g70
I3
ssg71
g3595
sg64
(lp3602
g100
asbasbasbag57
(g73
g59
NtRp3603
(dp3604
g62
(dp3605
sg71
g3574
sg64
(lp3606
g57
(g78
g59
NtRp3607
(dp3608
g62
(dp3609
sg71
g3603
sg64
(lp3610
g57
(g58
g59
NtRp3611
(dp3612
g62
(dp3613
g70
I3
ssg71
g3607
sg64
(lp3614
S'/milo/admin/index'
p3615
asbasbasbag57
(g73
g59
NtRp3616
(dp3617
g62
(dp3618
sg71
g3574
sg64
(lp3619
g57
(g78
g59
NtRp3620
(dp3621
g62
(dp3622
sg71
g3616
sg64
(lp3623
g57
(g58
g59
NtRp3624
(dp3625
g62
(dp3626
g70
I3
ssg71
g3620
sg64
(lp3627
g57
(g66
g59
NtRp3628
(dp3629
g62
(dp3630
g70
I2
ssg71
Nsg64
(lp3631
sbasbasbasbasbasbasbasbag57
(g73
g59
NtRp3632
(dp3633
g62
(dp3634
sg71
g3487
sg64
(lp3635
g57
(g78
g59
NtRp3636
(dp3637
g62
(dp3638
sg71
g3632
sg64
(lp3639
g57
(g58
g59
NtRp3640
(dp3641
g62
(dp3642
g70
I4
ssg71
g3636
sg64
(lp3643
g57
(g66
g59
NtRp3644
(dp3645
g62
(dp3646
g70
I3
ssg71
Nsg64
(lp3647
g57
(g73
g59
NtRp3648
(dp3649
g62
(dp3650
sg71
g3644
sg64
(lp3651
g57
(g78
g59
NtRp3652
(dp3653
g62
(dp3654
sg71
g3648
sg64
(lp3655
g57
(g58
g59
NtRp3656
(dp3657
g62
(dp3658
g70
I3
ssg71
g3652
sg64
(lp3659
g57
(cgluon.html
SPAN
p3660
g59
NtRp3661
(dp3662
g62
(dp3663
g82
S'color:yellow'
p3664
ssg71
Nsg64
(lp3665
g3465
asbasbasbasbag57
(g73
g59
NtRp3666
(dp3667
g62
(dp3668
sg71
g3644
sg64
(lp3669
g57
(g78
g59
NtRp3670
(dp3671
g62
(dp3672
sg71
g3666
sg64
(lp3673
g57
(g58
g59
NtRp3674
(dp3675
g62
(dp3676
g70
I3
ssg71
g3670
sg64
(lp3677
g100
asbasbasbag57
(g73
g59
NtRp3678
(dp3679
g62
(dp3680
sg71
g3644
sg64
(lp3681
g57
(g78
g59
NtRp3682
(dp3683
g62
(dp3684
sg71
g3678
sg64
(lp3685
g57
(g58
g59
NtRp3686
(dp3687
g62
(dp3688
g70
I3
ssg71
g3682
sg64
(lp3689
S'None'
p3690
asbasbasbag57
(g73
g59
NtRp3691
(dp3692
g62
(dp3693
sg71
g3644
sg64
(lp3694
g57
(g78
g59
NtRp3695
(dp3696
g62
(dp3697
sg71
g3691
sg64
(lp3698
g57
(g58
g59
NtRp3699
(dp3700
g62
(dp3701
g70
I3
ssg71
g3695
sg64
(lp3702
g57
(g66
g59
NtRp3703
(dp3704
g62
(dp3705
g70
I2
ssg71
Nsg64
(lp3706
g57
(g73
g59
NtRp3707
(dp3708
g62
(dp3709
sg71
g3703
sg64
(lp3710
g57
(g78
g59
NtRp3711
(dp3712
g62
(dp3713
sg71
g3707
sg64
(lp3714
g57
(g58
g59
NtRp3715
(dp3716
g62
(dp3717
g70
I2
ssg71
g3711
sg64
(lp3718
g57
(g66
g59
NtRp3719
(dp3720
g62
(dp3721
g70
I1
ssg71
Nsg64
(lp3722
g57
(g73
g59
NtRp3723
(dp3724
g62
(dp3725
sg71
g3719
sg64
(lp3726
g57
(g78
g59
NtRp3727
(dp3728
g62
(dp3729
sg71
g3723
sg64
(lp3730
g57
(g58
g59
NtRp3731
(dp3732
g62
(dp3733
g70
I1
ssg71
g3727
sg64
(lp3734
g3519
(S's\x08\x00\x00\x00My Sites'
tRp3735
asbasbasbag57
(g73
g59
NtRp3736
(dp3737
g62
(dp3738
sg71
g3719
sg64
(lp3739
g57
(g78
g59
NtRp3740
(dp3741
g62
(dp3742
sg71
g3736
sg64
(lp3743
g57
(g58
g59
NtRp3744
(dp3745
g62
(dp3746
g70
I1
ssg71
g3740
sg64
(lp3747
I00
asbasbasbag57
(g73
g59
NtRp3748
(dp3749
g62
(dp3750
sg71
g3719
sg64
(lp3751
g57
(g78
g59
NtRp3752
(dp3753
g62
(dp3754
sg71
g3748
sg64
(lp3755
g57
(g58
g59
NtRp3756
(dp3757
g62
(dp3758
g70
I1
ssg71
g3752
sg64
(lp3759
S'/admin/default/site'
p3760
asbasbasbasbasbasbasbag57
(g73
g59
NtRp3761
(dp3762
g62
(dp3763
sg71
g3703
sg64
(lp3764
g57
(g78
g59
NtRp3765
(dp3766
g62
(dp3767
sg71
g3761
sg64
(lp3768
g57
(g58
g59
NtRp3769
(dp3770
g62
(dp3771
g70
I2
ssg71
g3765
sg64
(lp3772
g57
(g66
g59
NtRp3773
(dp3774
g62
(dp3775
g70
I1
ssg71
Nsg64
(lp3776
g57
(g73
g59
NtRp3777
(dp3778
g62
(dp3779
sg71
g3773
sg64
(lp3780
g57
(g78
g59
NtRp3781
(dp3782
g62
(dp3783
sg71
g3777
sg64
(lp3784
g57
(g58
g59
NtRp3785
(dp3786
g62
(dp3787
g70
I1
ssg71
g3781
sg64
(lp3788
g3519
(S's\x08\x00\x00\x00This App'
tRp3789
asbasbasbag57
(g73
g59
NtRp3790
(dp3791
g62
(dp3792
sg71
g3773
sg64
(lp3793
g57
(g78
g59
NtRp3794
(dp3795
g62
(dp3796
sg71
g3790
sg64
(lp3797
g57
(g58
g59
NtRp3798
(dp3799
g62
(dp3800
g70
I1
ssg71
g3794
sg64
(lp3801
I00
asbasbasbag57
(g73
g59
NtRp3802
(dp3803
g62
(dp3804
sg71
g3773
sg64
(lp3805
g57
(g78
g59
NtRp3806
(dp3807
g62
(dp3808
sg71
g3802
sg64
(lp3809
g57
(g58
g59
NtRp3810
(dp3811
g62
(dp3812
g70
I1
ssg71
g3806
sg64
(lp3813
S'/admin/default/design/milo'
p3814
asbasbasbag57
(g73
g59
NtRp3815
(dp3816
g62
(dp3817
sg71
g3773
sg64
(lp3818
g57
(g78
g59
NtRp3819
(dp3820
g62
(dp3821
sg71
g3815
sg64
(lp3822
g57
(g58
g59
NtRp3823
(dp3824
g62
(dp3825
g70
I1
ssg71
g3819
sg64
(lp3826
(lp3827
(g3519
(S't\n\x00\x00\x00Controller'
tRp3828
I00
S'/admin/default/edit/milo/controllers/default.py'
tp3829
a(g3519
(S't\x04\x00\x00\x00View'
tRp3830
I00
S'/admin/default/edit/milo/views/default/index.html'
tp3831
a(g3519
(S't\x06\x00\x00\x00Layout'
tRp3832
I00
S'/admin/default/edit/milo/views/layout.html'
tp3833
a(g3519
(S't\n\x00\x00\x00Stylesheet'
tRp3834
I00
S'/admin/default/edit/milo/static/css/web2py.css'
tp3835
a(g3519
(S's\x08\x00\x00\x00DB Model'
tRp3836
I00
S'/admin/default/edit/milo/models/db.py'
tp3837
a(g3519
(S's\n\x00\x00\x00Menu Model'
tRp3838
I00
S'/admin/default/edit/milo/models/menu.py'
tp3839
a(g3519
(S't\x08\x00\x00\x00Database'
tRp3840
I00
S'/milo/appadmin/index'
tp3841
a(g3519
(S't\x06\x00\x00\x00Errors'
tRp3842
I00
S'/admin/default/errors/milo'
tp3843
a(g3519
(S't\x05\x00\x00\x00About'
tRp3844
I00
S'/admin/default/about/milo'
tp3845
aasbasbasbasbasbasbasbag57
(g73
g59
NtRp3846
(dp3847
g62
(dp3848
sg71
g3703
sg64
(lp3849
g57
(g78
g59
NtRp3850
(dp3851
g62
(dp3852
sg71
g3846
sg64
(lp3853
g57
(g58
g59
NtRp3854
(dp3855
g62
(dp3856
g70
I2
ssg71
g3850
sg64
(lp3857
g57
(g66
g59
NtRp3858
(dp3859
g62
(dp3860
g70
I1
ssg71
Nsg64
(lp3861
g57
(g73
g59
NtRp3862
(dp3863
g62
(dp3864
sg71
g3858
sg64
(lp3865
g57
(g78
g59
NtRp3866
(dp3867
g62
(dp3868
sg71
g3862
sg64
(lp3869
g57
(g58
g59
NtRp3870
(dp3871
g62
(dp3872
g70
I1
ssg71
g3866
sg64
(lp3873
S'web2py.com'
p3874
asbasbasbag57
(g73
g59
NtRp3875
(dp3876
g62
(dp3877
sg71
g3858
sg64
(lp3878
g57
(g78
g59
NtRp3879
(dp3880
g62
(dp3881
sg71
g3875
sg64
(lp3882
g57
(g58
g59
NtRp3883
(dp3884
g62
(dp3885
g70
I1
ssg71
g3879
sg64
(lp3886
I00
asbasbasbag57
(g73
g59
NtRp3887
(dp3888
g62
(dp3889
sg71
g3858
sg64
(lp3890
g57
(g78
g59
NtRp3891
(dp3892
g62
(dp3893
sg71
g3887
sg64
(lp3894
g57
(g58
g59
NtRp3895
(dp3896
g62
(dp3897
g70
I1
ssg71
g3891
sg64
(lp3898
S'http://www.web2py.com'
p3899
asbasbasbag57
(g73
g59
NtRp3900
(dp3901
g62
(dp3902
sg71
g3858
sg64
(lp3903
g57
(g78
g59
NtRp3904
(dp3905
g62
(dp3906
sg71
g3900
sg64
(lp3907
g57
(g58
g59
NtRp3908
(dp3909
g62
(dp3910
g70
I1
ssg71
g3904
sg64
(lp3911
(lp3912
(g3519
(S't\x08\x00\x00\x00Download'
tRp3913
I00
S'http://www.web2py.com/examples/default/download'
p3914
tp3915
a(g3519
(S't\x07\x00\x00\x00Support'
tRp3916
I00
S'http://www.web2py.com/examples/default/support'
p3917
tp3918
a(g3519
(S't\x04\x00\x00\x00Demo'
tRp3919
I00
S'http://web2py.com/demo_admin'
p3920
tp3921
a(g3519
(S's\x0e\x00\x00\x00Quick Examples'
tRp3922
I00
S'http://web2py.com/examples/default/examples'
p3923
tp3924
a(g3519
(S't\x03\x00\x00\x00FAQ'
tRp3925
I00
S'http://web2py.com/AlterEgo'
p3926
tp3927
a(g3519
(S't\x06\x00\x00\x00Videos'
tRp3928
I00
S'http://www.web2py.com/examples/default/videos/'
p3929
tp3930
a(g3519
(S's\x11\x00\x00\x00Free Applications'
tRp3931
I00
S'http://web2py.com/appliances'
p3932
tp3933
a(g3519
(S't\x07\x00\x00\x00Plugins'
tRp3934
I00
S'http://web2py.com/plugins'
p3935
tp3936
a(g3519
(S't\x07\x00\x00\x00Layouts'
tRp3937
I00
S'http://web2py.com/layouts'
p3938
tp3939
a(g3519
(S't\x07\x00\x00\x00Recipes'
tRp3940
I00
S'http://web2pyslices.com/'
p3941
tp3942
a(g3519
(S't\x08\x00\x00\x00Semantic'
tRp3943
I00
S'http://web2py.com/semantic'
p3944
tp3945
aasbasbasbasbasbasbasbag57
(g73
g59
NtRp3946
(dp3947
g62
(dp3948
sg71
g3703
sg64
(lp3949
g57
(g78
g59
NtRp3950
(dp3951
g62
(dp3952
sg71
g3946
sg64
(lp3953
g57
(g58
g59
NtRp3954
(dp3955
g62
(dp3956
g70
I2
ssg71
g3950
sg64
(lp3957
g57
(g66
g59
NtRp3958
(dp3959
g62
(dp3960
g70
I1
ssg71
Nsg64
(lp3961
g57
(g73
g59
NtRp3962
(dp3963
g62
(dp3964
sg71
g3958
sg64
(lp3965
g57
(g78
g59
NtRp3966
(dp3967
g62
(dp3968
sg71
g3962
sg64
(lp3969
g57
(g58
g59
NtRp3970
(dp3971
g62
(dp3972
g70
I1
ssg71
g3966
sg64
(lp3973
g3519
(S't\r\x00\x00\x00Documentation'
tRp3974
asbasbasbag57
(g73
g59
NtRp3975
(dp3976
g62
(dp3977
sg71
g3958
sg64
(lp3978
g57
(g78
g59
NtRp3979
(dp3980
g62
(dp3981
sg71
g3975
sg64
(lp3982
g57
(g58
g59
NtRp3983
(dp3984
g62
(dp3985
g70
I1
ssg71
g3979
sg64
(lp3986
I00
asbasbasbag57
(g73
g59
NtRp3987
(dp3988
g62
(dp3989
sg71
g3958
sg64
(lp3990
g57
(g78
g59
NtRp3991
(dp3992
g62
(dp3993
sg71
g3987
sg64
(lp3994
g57
(g58
g59
NtRp3995
(dp3996
g62
(dp3997
g70
I1
ssg71
g3991
sg64
(lp3998
S'http://www.web2py.com/book'
p3999
asbasbasbag57
(g73
g59
NtRp4000
(dp4001
g62
(dp4002
sg71
g3958
sg64
(lp4003
g57
(g78
g59
NtRp4004
(dp4005
g62
(dp4006
sg71
g4000
sg64
(lp4007
g57
(g58
g59
NtRp4008
(dp4009
g62
(dp4010
g70
I1
ssg71
g4004
sg64
(lp4011
(lp4012
(g3519
(S't\x07\x00\x00\x00Preface'
tRp4013
I00
S'http://www.web2py.com/book/default/chapter/00'
p4014
tp4015
a(g3519
(S't\x0c\x00\x00\x00Introduction'
tRp4016
I00
S'http://www.web2py.com/book/default/chapter/01'
p4017
tp4018
a(g3519
(S't\x06\x00\x00\x00Python'
tRp4019
I00
S'http://www.web2py.com/book/default/chapter/02'
p4020
tp4021
a(g3519
(S't\x08\x00\x00\x00Overview'
tRp4022
I00
S'http://www.web2py.com/book/default/chapter/03'
p4023
tp4024
a(g3519
(S's\x08\x00\x00\x00The Core'
tRp4025
I00
S'http://www.web2py.com/book/default/chapter/04'
p4026
tp4027
a(g3519
(S's\t\x00\x00\x00The Views'
tRp4028
I00
S'http://www.web2py.com/book/default/chapter/05'
p4029
tp4030
a(g3519
(S't\x08\x00\x00\x00Database'
tRp4031
I00
S'http://www.web2py.com/book/default/chapter/06'
p4032
tp4033
a(g3519
(S's\x14\x00\x00\x00Forms and Validators'
tRp4034
I00
S'http://www.web2py.com/book/default/chapter/07'
p4035
tp4036
a(g3519
(S's\r\x00\x00\x00Email and SMS'
tRp4037
I00
S'http://www.web2py.com/book/default/chapter/08'
p4038
tp4039
a(g3519
(S's\x0e\x00\x00\x00Access Control'
tRp4040
I00
S'http://www.web2py.com/book/default/chapter/09'
p4041
tp4042
a(g3519
(S't\x08\x00\x00\x00Services'
tRp4043
I00
S'http://www.web2py.com/book/default/chapter/10'
p4044
tp4045
a(g3519
(S's\x0c\x00\x00\x00Ajax Recipes'
tRp4046
I00
S'http://www.web2py.com/book/default/chapter/11'
p4047
tp4048
a(g3519
(S's\x16\x00\x00\x00Components and Plugins'
tRp4049
I00
S'http://www.web2py.com/book/default/chapter/12'
p4050
tp4051
a(g3519
(S's\x12\x00\x00\x00Deployment Recipes'
tRp4052
I00
S'http://www.web2py.com/book/default/chapter/13'
p4053
tp4054
a(g3519
(S's\r\x00\x00\x00Other Recipes'
tRp4055
I00
S'http://www.web2py.com/book/default/chapter/14'
p4056
tp4057
a(g3519
(S's\r\x00\x00\x00Buy this book'
tRp4058
I00
S'http://stores.lulu.com/web2py'
p4059
tp4060
aasbasbasbasbasbasbasbag57
(g73
g59
NtRp4061
(dp4062
g62
(dp4063
sg71
g3703
sg64
(lp4064
g57
(g78
g59
NtRp4065
(dp4066
g62
(dp4067
sg71
g4061
sg64
(lp4068
g57
(g58
g59
NtRp4069
(dp4070
g62
(dp4071
g70
I2
ssg71
g4065
sg64
(lp4072
g57
(g66
g59
NtRp4073
(dp4074
g62
(dp4075
g70
I1
ssg71
Nsg64
(lp4076
g57
(g73
g59
NtRp4077
(dp4078
g62
(dp4079
sg71
g4073
sg64
(lp4080
g57
(g78
g59
NtRp4081
(dp4082
g62
(dp4083
sg71
g4077
sg64
(lp4084
g57
(g58
g59
NtRp4085
(dp4086
g62
(dp4087
g70
I1
ssg71
g4081
sg64
(lp4088
g3519
(S't\t\x00\x00\x00Community'
tRp4089
asbasbasbag57
(g73
g59
NtRp4090
(dp4091
g62
(dp4092
sg71
g4073
sg64
(lp4093
g57
(g78
g59
NtRp4094
(dp4095
g62
(dp4096
sg71
g4090
sg64
(lp4097
g57
(g58
g59
NtRp4098
(dp4099
g62
(dp4100
g70
I1
ssg71
g4094
sg64
(lp4101
I00
asbasbasbag57
(g73
g59
NtRp4102
(dp4103
g62
(dp4104
sg71
g4073
sg64
(lp4105
g57
(g78
g59
NtRp4106
(dp4107
g62
(dp4108
sg71
g4102
sg64
(lp4109
g57
(g58
g59
NtRp4110
(dp4111
g62
(dp4112
g70
I1
ssg71
g4106
sg64
(lp4113
Nasbasbasbag57
(g73
g59
NtRp4114
(dp4115
g62
(dp4116
sg71
g4073
sg64
(lp4117
g57
(g78
g59
NtRp4118
(dp4119
g62
(dp4120
sg71
g4114
sg64
(lp4121
g57
(g58
g59
NtRp4122
(dp4123
g62
(dp4124
g70
I1
ssg71
g4118
sg64
(lp4125
(lp4126
(g3519
(S't\x06\x00\x00\x00Groups'
tRp4127
I00
S'http://www.web2py.com/examples/default/usergroups'
p4128
tp4129
a(g3519
(S't\x07\x00\x00\x00Twitter'
tRp4130
I00
S'http://twitter.com/web2py'
p4131
tp4132
a(g3519
(S's\t\x00\x00\x00Live Chat'
tRp4133
I00
S'http://webchat.freenode.net/?channels=web2py'
p4134
tp4135
aasbasbasbasbasbasbasbag57
(g73
g59
NtRp4136
(dp4137
g62
(dp4138
sg71
g3703
sg64
(lp4139
g57
(g78
g59
NtRp4140
(dp4141
g62
(dp4142
sg71
g4136
sg64
(lp4143
g57
(g58
g59
NtRp4144
(dp4145
g62
(dp4146
g70
I2
ssg71
g4140
sg64
(lp4147
g57
(g66
g59
NtRp4148
(dp4149
g62
(dp4150
g70
I1
ssg71
Nsg64
(lp4151
g57
(g73
g59
NtRp4152
(dp4153
g62
(dp4154
sg71
g4148
sg64
(lp4155
g57
(g78
g59
NtRp4156
(dp4157
g62
(dp4158
sg71
g4152
sg64
(lp4159
g57
(g58
g59
NtRp4160
(dp4161
g62
(dp4162
g70
I1
ssg71
g4156
sg64
(lp4163
g3519
(S't\x07\x00\x00\x00Plugins'
tRp4164
asbasbasbag57
(g73
g59
NtRp4165
(dp4166
g62
(dp4167
sg71
g4148
sg64
(lp4168
g57
(g78
g59
NtRp4169
(dp4170
g62
(dp4171
sg71
g4165
sg64
(lp4172
g57
(g58
g59
NtRp4173
(dp4174
g62
(dp4175
g70
I1
ssg71
g4169
sg64
(lp4176
I00
asbasbasbag57
(g73
g59
NtRp4177
(dp4178
g62
(dp4179
sg71
g4148
sg64
(lp4180
g57
(g78
g59
NtRp4181
(dp4182
g62
(dp4183
sg71
g4177
sg64
(lp4184
g57
(g58
g59
NtRp4185
(dp4186
g62
(dp4187
g70
I1
ssg71
g4181
sg64
(lp4188
Nasbasbasbag57
(g73
g59
NtRp4189
(dp4190
g62
(dp4191
sg71
g4148
sg64
(lp4192
g57
(g78
g59
NtRp4193
(dp4194
g62
(dp4195
sg71
g4189
sg64
(lp4196
g57
(g58
g59
NtRp4197
(dp4198
g62
(dp4199
g70
I1
ssg71
g4193
sg64
(lp4200
(lp4201
(S'plugin_wiki'
p4202
I00
S'http://web2py.com/examples/default/download'
p4203
tp4204
a(g3519
(S's\r\x00\x00\x00Other Plugins'
tRp4205
I00
g3935
tp4206
a(g3519
(S's\x0e\x00\x00\x00Layout Plugins'
tRp4207
I00
g3938
tp4208
aasbasbasbasbasbasbasbasbasbasbasbasbasbasbasbasbasbasbasbag57
(g73
g59
NtRp4209
(dp4210
g62
(dp4211
sg71
g2963
sg64
(lp4212
g57
(g78
g59
NtRp4213
(dp4214
g62
(dp4215
g82
g83
ssg71
g4209
sg64
(lp4216
S'meta'
p4217
asbag57
(g78
g59
NtRp4218
(dp4219
g62
(dp4220
g89
g90
ssg71
g4209
sg64
(lp4221
S':'
asbag57
(g78
g59
NtRp4222
(dp4223
g62
(dp4224
sg71
g4209
sg64
(lp4225
g57
(g58
g59
NtRp4226
(dp4227
g62
(dp4228
g70
I5
ssg71
g4222
sg64
(lp4229
g57
(g66
g59
NtRp4230
(dp4231
g62
(dp4232
g70
I4
ssg71
Nsg64
(lp4233
g57
(g73
g59
NtRp4234
(dp4235
g62
(dp4236
sg71
g4230
sg64
(lp4237
g57
(g78
g59
NtRp4238
(dp4239
g62
(dp4240
g82
g83
ssg71
g4234
sg64
(lp4241
S'author'
p4242
asbag57
(g78
g59
NtRp4243
(dp4244
g62
(dp4245
g89
g90
ssg71
g4234
sg64
(lp4246
S':'
asbag57
(g78
g59
NtRp4247
(dp4248
g62
(dp4249
sg71
g4234
sg64
(lp4250
g57
(g58
g59
NtRp4251
(dp4252
g62
(dp4253
g70
I4
ssg71
g4247
sg64
(lp4254
S'Vincenzo Ampolo <vincenzo.ampolo@gmail.com>'
p4255
asbasbasbag57
(g73
g59
NtRp4256
(dp4257
g62
(dp4258
sg71
g4230
sg64
(lp4259
g57
(g78
g59
NtRp4260
(dp4261
g62
(dp4262
g82
g83
ssg71
g4256
sg64
(lp4263
S'copyright'
p4264
asbag57
(g78
g59
NtRp4265
(dp4266
g62
(dp4267
g89
g90
ssg71
g4256
sg64
(lp4268
S':'
asbag57
(g78
g59
NtRp4269
(dp4270
g62
(dp4271
sg71
g4256
sg64
(lp4272
g57
(g58
g59
NtRp4273
(dp4274
g62
(dp4275
g70
I4
ssg71
g4269
sg64
(lp4276
S'Copyright 2012'
p4277
asbasbasbag57
(g73
g59
NtRp4278
(dp4279
g62
(dp4280
sg71
g4230
sg64
(lp4281
g57
(g78
g59
NtRp4282
(dp4283
g62
(dp4284
g82
g83
ssg71
g4278
sg64
(lp4285
S'description'
p4286
asbag57
(g78
g59
NtRp4287
(dp4288
g62
(dp4289
g89
g90
ssg71
g4278
sg64
(lp4290
S':'
asbag57
(g78
g59
NtRp4291
(dp4292
g62
(dp4293
sg71
g4278
sg64
(lp4294
g57
(g58
g59
NtRp4295
(dp4296
g62
(dp4297
g70
I4
ssg71
g4291
sg64
(lp4298
S'Milo recommendation system'
p4299
asbasbasbag57
(g73
g59
NtRp4300
(dp4301
g62
(dp4302
sg71
g4230
sg64
(lp4303
g57
(g78
g59
NtRp4304
(dp4305
g62
(dp4306
g82
g83
ssg71
g4300
sg64
(lp4307
S'generator'
p4308
asbag57
(g78
g59
NtRp4309
(dp4310
g62
(dp4311
g89
g90
ssg71
g4300
sg64
(lp4312
S':'
asbag57
(g78
g59
NtRp4313
(dp4314
g62
(dp4315
sg71
g4300
sg64
(lp4316
g57
(g58
g59
NtRp4317
(dp4318
g62
(dp4319
g70
I4
ssg71
g4313
sg64
(lp4320
S'Web2py Web Framework'
p4321
asbasbasbag57
(g73
g59
NtRp4322
(dp4323
g62
(dp4324
sg71
g4230
sg64
(lp4325
g57
(g78
g59
NtRp4326
(dp4327
g62
(dp4328
g82
g83
ssg71
g4322
sg64
(lp4329
S'keywords'
p4330
asbag57
(g78
g59
NtRp4331
(dp4332
g62
(dp4333
g89
g90
ssg71
g4322
sg64
(lp4334
S':'
asbag57
(g78
g59
NtRp4335
(dp4336
g62
(dp4337
sg71
g4322
sg64
(lp4338
g57
(g58
g59
NtRp4339
(dp4340
g62
(dp4341
g70
I4
ssg71
g4335
sg64
(lp4342
S'web2py, python, framework'
p4343
asbasbasbasbasbasbasbag57
(g73
g59
NtRp4344
(dp4345
g62
(dp4346
sg71
g2963
sg64
(lp4347
g57
(g78
g59
NtRp4348
(dp4349
g62
(dp4350
g82
g83
ssg71
g4344
sg64
(lp4351
S'postprocessing'
p4352
asbag57
(g78
g59
NtRp4353
(dp4354
g62
(dp4355
g89
g90
ssg71
g4344
sg64
(lp4356
S':'
asbag57
(g78
g59
NtRp4357
(dp4358
g62
(dp4359
sg71
g4344
sg64
(lp4360
g57
(g58
g59
NtRp4361
(dp4362
g62
(dp4363
g70
I5
ssg71
g4357
sg64
(lp4364
g57
(g66
g59
NtRp4365
(dp4366
g62
(dp4367
g70
I4
ssg71
Nsg64
(lp4368
sbasbasbasbag57
(g73
g59
NtRp4369
(dp4370
g62
(dp4371
sg71
g2963
sg64
(lp4372
g57
(g78
g59
NtRp4373
(dp4374
g62
(dp4375
g82
g83
ssg71
g4369
sg64
(lp4376
S'session_file'
p4377
asbag57
(g78
g59
NtRp4378
(dp4379
g62
(dp4380
g89
g90
ssg71
g4369
sg64
(lp4381
S':'
asbag57
(g78
g59
NtRp4382
(dp4383
g62
(dp4384
sg71
g4369
sg64
(lp4385
g57
(g58
g59
NtRp4386
(dp4387
g62
(dp4388
g70
I5
ssg71
g4382
sg64
(lp4389
S"<open file '/home/goshawk/web2py/applications/milo/sessions/127.0.0.1-34abc964-d209-4f5a-8488-ddc958b476b9', mode 'rb+' at 0x7f224042f810>"
p4390
asbasbasbag57
(g73
g59
NtRp4391
(dp4392
g62
(dp4393
sg71
g2963
sg64
(lp4394
g57
(g78
g59
NtRp4395
(dp4396
g62
(dp4397
g82
g83
ssg71
g4391
sg64
(lp4398
S'session_filename'
p4399
asbag57
(g78
g59
NtRp4400
(dp4401
g62
(dp4402
g89
g90
ssg71
g4391
sg64
(lp4403
S':'
asbag57
(g78
g59
NtRp4404
(dp4405
g62
(dp4406
sg71
g4391
sg64
(lp4407
g57
(g58
g59
NtRp4408
(dp4409
g62
(dp4410
g70
I5
ssg71
g4404
sg64
(lp4411
S'/home/goshawk/web2py/applications/milo/sessions/127.0.0.1-34abc964-d209-4f5a-8488-ddc958b476b9'
p4412
asbasbasbag57
(g73
g59
NtRp4413
(dp4414
g62
(dp4415
sg71
g2963
sg64
(lp4416
g57
(g78
g59
NtRp4417
(dp4418
g62
(dp4419
g82
g83
ssg71
g4413
sg64
(lp4420
S'session_id'
p4421
asbag57
(g78
g59
NtRp4422
(dp4423
g62
(dp4424
g89
g90
ssg71
g4413
sg64
(lp4425
S':'
asbag57
(g78
g59
NtRp4426
(dp4427
g62
(dp4428
sg71
g4413
sg64
(lp4429
g57
(g58
g59
NtRp4430
(dp4431
g62
(dp4432
g70
I5
ssg71
g4426
sg64
(lp4433
S'127.0.0.1-34abc964-d209-4f5a-8488-ddc958b476b9'
p4434
asbasbasbag57
(g73
g59
NtRp4435
(dp4436
g62
(dp4437
sg71
g2963
sg64
(lp4438
g57
(g78
g59
NtRp4439
(dp4440
g62
(dp4441
g82
g83
ssg71
g4435
sg64
(lp4442
S'session_id_name'
p4443
asbag57
(g78
g59
NtRp4444
(dp4445
g62
(dp4446
g89
g90
ssg71
g4435
sg64
(lp4447
S':'
asbag57
(g78
g59
NtRp4448
(dp4449
g62
(dp4450
sg71
g4435
sg64
(lp4451
g57
(g58
g59
NtRp4452
(dp4453
g62
(dp4454
g70
I5
ssg71
g4448
sg64
(lp4455
g3020
asbasbasbag57
(g73
g59
NtRp4456
(dp4457
g62
(dp4458
sg71
g2963
sg64
(lp4459
g57
(g78
g59
NtRp4460
(dp4461
g62
(dp4462
g82
g83
ssg71
g4456
sg64
(lp4463
S'session_locked'
p4464
asbag57
(g78
g59
NtRp4465
(dp4466
g62
(dp4467
g89
g90
ssg71
g4456
sg64
(lp4468
S':'
asbag57
(g78
g59
NtRp4469
(dp4470
g62
(dp4471
sg71
g4456
sg64
(lp4472
g57
(g58
g59
NtRp4473
(dp4474
g62
(dp4475
g70
I5
ssg71
g4469
sg64
(lp4476
g1512
asbasbasbag57
(g73
g59
NtRp4477
(dp4478
g62
(dp4479
sg71
g2963
sg64
(lp4480
g57
(g78
g59
NtRp4481
(dp4482
g62
(dp4483
g82
g83
ssg71
g4477
sg64
(lp4484
S'session_new'
p4485
asbag57
(g78
g59
NtRp4486
(dp4487
g62
(dp4488
g89
g90
ssg71
g4477
sg64
(lp4489
S':'
asbag57
(g78
g59
NtRp4490
(dp4491
g62
(dp4492
sg71
g4477
sg64
(lp4493
g57
(g58
g59
NtRp4494
(dp4495
g62
(dp4496
g70
I5
ssg71
g4490
sg64
(lp4497
g100
asbasbasbag57
(g73
g59
NtRp4498
(dp4499
g62
(dp4500
sg71
g2963
sg64
(lp4501
g57
(g78
g59
NtRp4502
(dp4503
g62
(dp4504
g82
g83
ssg71
g4498
sg64
(lp4505
S'status'
p4506
asbag57
(g78
g59
NtRp4507
(dp4508
g62
(dp4509
g89
g90
ssg71
g4498
sg64
(lp4510
S':'
asbag57
(g78
g59
NtRp4511
(dp4512
g62
(dp4513
sg71
g4498
sg64
(lp4514
g57
(g58
g59
NtRp4515
(dp4516
g62
(dp4517
g70
I5
ssg71
g4511
sg64
(lp4518
S'200'
p4519
asbasbasbag57
(g73
g59
NtRp4520
(dp4521
g62
(dp4522
sg71
g2963
sg64
(lp4523
g57
(g78
g59
NtRp4524
(dp4525
g62
(dp4526
g82
g83
ssg71
g4520
sg64
(lp4527
S'title'
p4528
asbag57
(g78
g59
NtRp4529
(dp4530
g62
(dp4531
g89
g90
ssg71
g4520
sg64
(lp4532
S':'
asbag57
(g78
g59
NtRp4533
(dp4534
g62
(dp4535
sg71
g4520
sg64
(lp4536
g57
(g58
g59
NtRp4537
(dp4538
g62
(dp4539
g70
I5
ssg71
g4533
sg64
(lp4540
S'Milo'
p4541
asbasbasbag57
(g73
g59
NtRp4542
(dp4543
g62
(dp4544
sg71
g2963
sg64
(lp4545
g57
(g78
g59
NtRp4546
(dp4547
g62
(dp4548
g82
g83
ssg71
g4542
sg64
(lp4549
g2176
asbag57
(g78
g59
NtRp4550
(dp4551
g62
(dp4552
g89
g90
ssg71
g4542
sg64
(lp4553
S':'
asbag57
(g78
g59
NtRp4554
(dp4555
g62
(dp4556
sg71
g4542
sg64
(lp4557
g57
(g58
g59
NtRp4558
(dp4559
g62
(dp4560
g70
I5
ssg71
g4554
sg64
(lp4561
g2189
asbasbasbag57
(g73
g59
NtRp4562
(dp4563
g62
(dp4564
sg71
g2963
sg64
(lp4565
g57
(g78
g59
NtRp4566
(dp4567
g62
(dp4568
g82
g83
ssg71
g4562
sg64
(lp4569
S'view'
p4570
asbag57
(g78
g59
NtRp4571
(dp4572
g62
(dp4573
g89
g90
ssg71
g4562
sg64
(lp4574
S':'
asbag57
(g78
g59
NtRp4575
(dp4576
g62
(dp4577
sg71
g4562
sg64
(lp4578
g57
(g58
g59
NtRp4579
(dp4580
g62
(dp4581
g70
I5
ssg71
g4575
sg64
(lp4582
S'default/index.html'
p4583
asbasbasbasbasbsS'locals'
p4584
(dp4585
g24
S'()'
p4586
sg2198
g45
sssS'traceback'
p4587
S'Traceback (most recent call last):\n  File "/home/goshawk/web2py/gluon/restricted.py", line 205, in restricted\n    exec ccode in environment\n  File "/home/goshawk/web2py/applications/milo/models/whisperer.py", line 30, in <module>\n    create_urm()\n  File "/home/goshawk/web2py/applications/milo/models/whisperer.py", line 9, in create_urm\n    w = matlab_wrapper.Whisperer(db)\nTypeError: __init__() takes exactly 1 argument (2 given)\n'
p4588
s.