(dp1
S'output'
p2
S'<class \'psycopg2.ProgrammingError\'> syntax error at or near "NOT"\nLINE 1: CREATE INDEX IF NOT EXISTS iuser_imovie ON ratings (iuser,im...\n                        ^\n'
p3
sS'layer'
p4
S'/home/goshawk/web2py/applications/milo/models/db.py'
p5
sS'code'
p6
S"# -*- coding: utf-8 -*-\n\n#########################################################################\n## This scaffolding model makes your app work on Google App Engine too\n## File is released under public domain and you can use without limitations\n#########################################################################\n\n## if SSL/HTTPS is properly configured and you want all HTTP requests to\n## be redirected to HTTPS, uncomment the line below:\n# request.requires_https()\n\nif not request.env.web2py_runtime_gae:\n    ## if NOT running on Google App Engine use SQLite or other DB\n    db = DAL('postgres://milo:milosecret@localhost/milo-reloaded')\nelse:\n    ## connect to Google BigTable (optional 'google:datastore://namespace')\n    db = DAL('google:datastore')\n    ## store sessions and tickets there\n    session.connect(request, response, db = db)\n    ## or store session in Memcache, Redis, etc.\n    ## from gluon.contrib.memdb import MEMDB\n    ## from google.appengine.api.memcache import Client\n    ## session.connect(request, response, db = MEMDB(Client()))\n\n## by default give a view/generic.extension to all actions from localhost\n## none otherwise. a pattern can be 'controller/function.extension'\nresponse.generic_patterns = ['*'] if request.is_local else []\n## (optional) optimize handling of static files\n# response.optimize_css = 'concat,minify,inline'\n# response.optimize_js = 'concat,minify,inline'\n\n#########################################################################\n## Here is sample code if you need for\n## - email capabilities\n## - authentication (registration, login, logout, ... )\n## - authorization (role based authorization)\n## - services (xml, csv, json, xmlrpc, jsonrpc, amf, rss)\n## - old style crud actions\n## (more options discussed in gluon/tools.py)\n#########################################################################\n\nfrom gluon.tools import Auth, Crud, Service, PluginManager, prettydate\nauth = Auth(db, hmac_key=Auth.get_or_create_key())\ncrud, service, plugins = Crud(db), Service(), PluginManager()\n\n## create all tables needed by auth if not custom tables\nauth.define_tables()\n\n## configure email\nmail=auth.settings.mailer\nmail.settings.server = 'logging' or 'smtp.gmail.com:587'\nmail.settings.sender = 'you@gmail.com'\nmail.settings.login = 'username:password'\n\n## configure auth policy\nauth.settings.registration_requires_verification = False\nauth.settings.registration_requires_approval = False\nauth.settings.reset_password_requires_verification = True\n\n## if you need to use OpenID, Facebook, MySpace, Twitter, Linkedin, etc.\n## register with janrain.com, write your domain:api_key in private/janrain.key\nfrom gluon.contrib.login_methods.rpx_account import use_janrain\nuse_janrain(auth,filename='private/janrain.key')\n\n#########################################################################\n## Define your tables below (or better in another model file) for example\n##\n## >>> db.define_table('mytable',Field('myfield','string'))\n##\n## Fields can be 'string','text','password','integer','double','boolean'\n##       'date','time','datetime','blob','upload', 'reference TABLENAME'\n## There is an implicit 'id integer autoincrement' field\n## Consult manual for more options, validators, etc.\n##\n## More API examples for controllers:\n##\n## >>> db.mytable.insert(myfield='value')\n## >>> rows=db(db.mytable.myfield=='value').select(db.mytable.ALL)\n## >>> for row in rows: print row.id, row.myfield\n#########################################################################\n\nimport imdb\n\nimdb_connection_str = 'postgres://imdb:imdbsecret@localhost/imdb'\n\nim = imdb.IMDb('sql', uri=imdb_connection_str)\n\n\ndb.define_table('users',\n        Field('name'),\n        Field('email'),\n        Field('imdb_id', 'integer')\n        )\n\ndb.define_table('movies',\n        Field('imdb_id', 'integer')\n        )\n\ndb.define_table('ratings',\n        Field('iuser', db.users, requires = IS_IN_DB(db,'users.id',db.users._format)),\n        Field('imovie', db.movies, requires = IS_IN_DB(db,'movies.id',db.movies._format)),\n        Field('rating', 'double')\n        )\n\ndb.executesql('CREATE INDEX IF NOT EXISTS iuser_imovie ON ratings (iuser,imovie);')\n\n\ndb.define_table('features',\n        Field('name'),\n        Field('type')\n        )\n\ndb.define_table('movies_features',\n        Field('movie', db.movies, requires = IS_IN_DB(db,'movies.id',db.movies._format)),\n        Field('feature', db.features, requires = IS_IN_DB(db,'features.id',db.features._format)),\n        Field('times', 'integer')\n        )\n"
p7
sS'snapshot'
p8
(dp9
S'exception'
p10
(dp11
S'__module__'
p12
S"'psycopg2'"
p13
sS'__getslice__'
p14
S"<method-wrapper '__getslice__' of ProgrammingError object>"
p15
sS'__str__'
p16
S"<method-wrapper '__str__' of ProgrammingError object>"
p17
sS'__reduce__'
p18
S'<built-in method __reduce__ of ProgrammingError object>'
p19
sS'__dict__'
p20
S'{\'cursor\': <cursor object at 0x7f138c4a6050; closed: 0>, \'pgcode\': \'42601\', \'pgerror\': \'ERROR:  syntax error at or near "NOT"\\nLINE 1: CR...N ratings (iuser,im...\\n                        ^\\n\'}'
p21
sS'__sizeof__'
p22
S'<built-in method __sizeof__ of ProgrammingError object>'
p23
sS'__weakref__'
p24
S'None'
p25
sS'__init__'
p26
S"<method-wrapper '__init__' of ProgrammingError object>"
p27
sS'__setattr__'
p28
S"<method-wrapper '__setattr__' of ProgrammingError object>"
p29
sS'__reduce_ex__'
p30
S'<built-in method __reduce_ex__ of ProgrammingError object>'
p31
sS'__new__'
p32
S'<built-in method __new__ of type object>'
p33
sS'__format__'
p34
S'<built-in method __format__ of ProgrammingError object>'
p35
sS'__class__'
p36
S"<class 'psycopg2.ProgrammingError'>"
p37
sS'pgerror'
p38
S'\'ERROR:  syntax error at or near "NOT"\\nLINE 1: CR...N ratings (iuser,im...\\n                        ^\\n\''
p39
sS'__doc__'
p40
S"'Error related to database programming (SQL error, table not found etc).'"
p41
sS'__getitem__'
p42
S"<method-wrapper '__getitem__' of ProgrammingError object>"
p43
sS'__setstate__'
p44
S'<built-in method __setstate__ of ProgrammingError object>'
p45
sS'__getattribute__'
p46
S"<method-wrapper '__getattribute__' of ProgrammingError object>"
p47
sS'args'
p48
S'(\'syntax error at or near "NOT"\\nLINE 1: CREATE IND...N ratings (iuser,im...\\n                        ^\\n\',)'
p49
sS'__subclasshook__'
p50
S'<built-in method __subclasshook__ of type object>'
p51
sS'pgcode'
p52
S"'42601'"
p53
sS'__unicode__'
p54
S'<built-in method __unicode__ of ProgrammingError object>'
p55
sS'cursor'
p56
S'<cursor object at 0x7f138c4a6050; closed: 0>'
p57
sS'__delattr__'
p58
S"<method-wrapper '__delattr__' of ProgrammingError object>"
p59
sS'__repr__'
p60
S"<method-wrapper '__repr__' of ProgrammingError object>"
p61
sS'__hash__'
p62
S"<method-wrapper '__hash__' of ProgrammingError object>"
p63
ssS'evalue'
p64
S'syntax error at or near "NOT"\nLINE 1: CREATE INDEX IF NOT EXISTS iuser_imovie ON ratings (iuser,im...\n                        ^\n'
p65
sS'request'
p66
ccopy_reg
_reconstructor
p67
(cgluon.html
BEAUTIFY
p68
c__builtin__
object
p69
NtRp70
(dp71
S'attributes'
p72
(dp73
sS'components'
p74
(lp75
g67
(cgluon.html
TABLE
p76
g69
NtRp77
(dp78
g72
(dp79
S'level'
p80
I5
ssS'parent'
p81
Nsg74
(lp82
g67
(cgluon.html
TR
p83
g69
NtRp84
(dp85
g72
(dp86
sg81
g77
sg74
(lp87
g67
(cgluon.html
TD
p88
g69
NtRp89
(dp90
g72
(dp91
S'_style'
p92
S'font-weight:bold;vertical-align:top'
p93
ssg81
g84
sg74
(lp94
S'ajax'
p95
asbag67
(g88
g69
NtRp96
(dp97
g72
(dp98
S'_valign'
p99
S'top'
p100
ssg81
g84
sg74
(lp101
S':'
asbag67
(g88
g69
NtRp102
(dp103
g72
(dp104
sg81
g84
sg74
(lp105
g67
(g68
g69
NtRp106
(dp107
g72
(dp108
g80
I5
ssg81
g102
sg74
(lp109
S'False'
p110
asbasbasbag67
(g83
g69
NtRp111
(dp112
g72
(dp113
sg81
g77
sg74
(lp114
g67
(g88
g69
NtRp115
(dp116
g72
(dp117
g92
g93
ssg81
g111
sg74
(lp118
S'application'
p119
asbag67
(g88
g69
NtRp120
(dp121
g72
(dp122
g99
g100
ssg81
g111
sg74
(lp123
S':'
asbag67
(g88
g69
NtRp124
(dp125
g72
(dp126
sg81
g111
sg74
(lp127
g67
(g68
g69
NtRp128
(dp129
g72
(dp130
g80
I5
ssg81
g124
sg74
(lp131
S'milo'
p132
asbasbasbag67
(g83
g69
NtRp133
(dp134
g72
(dp135
sg81
g77
sg74
(lp136
g67
(g88
g69
NtRp137
(dp138
g72
(dp139
g92
g93
ssg81
g133
sg74
(lp140
g48
asbag67
(g88
g69
NtRp141
(dp142
g72
(dp143
g99
g100
ssg81
g133
sg74
(lp144
S':'
asbag67
(g88
g69
NtRp145
(dp146
g72
(dp147
sg81
g133
sg74
(lp148
g67
(g68
g69
NtRp149
(dp150
g72
(dp151
g80
I5
ssg81
g145
sg74
(lp152
g67
(g76
g69
NtRp153
(dp154
g72
(dp155
g80
I4
ssg81
Nsg74
(lp156
g67
(g83
g69
NtRp157
(dp158
g72
(dp159
sg81
g153
sg74
(lp160
g67
(g88
g69
NtRp161
(dp162
g72
(dp163
sg81
g157
sg74
(lp164
g67
(g68
g69
NtRp165
(dp166
g72
(dp167
g80
I4
ssg81
g161
sg74
(lp168
S'db'
p169
asbasbasbasbasbasbasbag67
(g83
g69
NtRp170
(dp171
g72
(dp172
sg81
g77
sg74
(lp173
g67
(g88
g69
NtRp174
(dp175
g72
(dp176
g92
g93
ssg81
g170
sg74
(lp177
S'body'
p178
asbag67
(g88
g69
NtRp179
(dp180
g72
(dp181
g99
g100
ssg81
g170
sg74
(lp182
S':'
asbag67
(g88
g69
NtRp183
(dp184
g72
(dp185
sg81
g170
sg74
(lp186
g67
(g68
g69
NtRp187
(dp188
g72
(dp189
g80
I5
ssg81
g183
sg74
(lp190
S'<cStringIO.StringO object at 0x7f13b09c9148>'
p191
asbasbasbag67
(g83
g69
NtRp192
(dp193
g72
(dp194
sg81
g77
sg74
(lp195
g67
(g88
g69
NtRp196
(dp197
g72
(dp198
g92
g93
ssg81
g192
sg74
(lp199
S'client'
p200
asbag67
(g88
g69
NtRp201
(dp202
g72
(dp203
g99
g100
ssg81
g192
sg74
(lp204
S':'
asbag67
(g88
g69
NtRp205
(dp206
g72
(dp207
sg81
g192
sg74
(lp208
g67
(g68
g69
NtRp209
(dp210
g72
(dp211
g80
I5
ssg81
g205
sg74
(lp212
S'127.0.0.1'
p213
asbasbasbag67
(g83
g69
NtRp214
(dp215
g72
(dp216
sg81
g77
sg74
(lp217
g67
(g88
g69
NtRp218
(dp219
g72
(dp220
g92
g93
ssg81
g214
sg74
(lp221
S'controller'
p222
asbag67
(g88
g69
NtRp223
(dp224
g72
(dp225
g99
g100
ssg81
g214
sg74
(lp226
S':'
asbag67
(g88
g69
NtRp227
(dp228
g72
(dp229
sg81
g214
sg74
(lp230
g67
(g68
g69
NtRp231
(dp232
g72
(dp233
g80
I5
ssg81
g227
sg74
(lp234
S'appadmin'
p235
asbasbasbag67
(g83
g69
NtRp236
(dp237
g72
(dp238
sg81
g77
sg74
(lp239
g67
(g88
g69
NtRp240
(dp241
g72
(dp242
g92
g93
ssg81
g236
sg74
(lp243
S'cookies'
p244
asbag67
(g88
g69
NtRp245
(dp246
g72
(dp247
g99
g100
ssg81
g236
sg74
(lp248
S':'
asbag67
(g88
g69
NtRp249
(dp250
g72
(dp251
sg81
g236
sg74
(lp252
g67
(g68
g69
NtRp253
(dp254
g72
(dp255
g80
I5
ssg81
g249
sg74
(lp256
g67
(g76
g69
NtRp257
(dp258
g72
(dp259
g80
I4
ssg81
Nsg74
(lp260
g67
(g83
g69
NtRp261
(dp262
g72
(dp263
sg81
g257
sg74
(lp264
g67
(g88
g69
NtRp265
(dp266
g72
(dp267
g92
g93
ssg81
g261
sg74
(lp268
S'session_id_admin'
p269
asbag67
(g88
g69
NtRp270
(dp271
g72
(dp272
g99
g100
ssg81
g261
sg74
(lp273
S':'
asbag67
(g88
g69
NtRp274
(dp275
g72
(dp276
sg81
g261
sg74
(lp277
g67
(g68
g69
NtRp278
(dp279
g72
(dp280
g80
I4
ssg81
g274
sg74
(lp281
g67
(g76
g69
NtRp282
(dp283
g72
(dp284
g80
I3
ssg81
Nsg74
(lp285
g67
(g83
g69
NtRp286
(dp287
g72
(dp288
sg81
g282
sg74
(lp289
g67
(g88
g69
NtRp290
(dp291
g72
(dp292
g92
g93
ssg81
g286
sg74
(lp293
S'comment'
p294
asbag67
(g88
g69
NtRp295
(dp296
g72
(dp297
g99
g100
ssg81
g286
sg74
(lp298
S':'
asbag67
(g88
g69
NtRp299
(dp300
g72
(dp301
sg81
g286
sg74
(lp302
g67
(g68
g69
NtRp303
(dp304
g72
(dp305
g80
I3
ssg81
g299
sg74
(lp306
S''
asbasbasbag67
(g83
g69
NtRp307
(dp308
g72
(dp309
sg81
g282
sg74
(lp310
g67
(g88
g69
NtRp311
(dp312
g72
(dp313
g92
g93
ssg81
g307
sg74
(lp314
S'domain'
p315
asbag67
(g88
g69
NtRp316
(dp317
g72
(dp318
g99
g100
ssg81
g307
sg74
(lp319
S':'
asbag67
(g88
g69
NtRp320
(dp321
g72
(dp322
sg81
g307
sg74
(lp323
g67
(g68
g69
NtRp324
(dp325
g72
(dp326
g80
I3
ssg81
g320
sg74
(lp327
S''
asbasbasbag67
(g83
g69
NtRp328
(dp329
g72
(dp330
sg81
g282
sg74
(lp331
g67
(g88
g69
NtRp332
(dp333
g72
(dp334
g92
g93
ssg81
g328
sg74
(lp335
S'expires'
p336
asbag67
(g88
g69
NtRp337
(dp338
g72
(dp339
g99
g100
ssg81
g328
sg74
(lp340
S':'
asbag67
(g88
g69
NtRp341
(dp342
g72
(dp343
sg81
g328
sg74
(lp344
g67
(g68
g69
NtRp345
(dp346
g72
(dp347
g80
I3
ssg81
g341
sg74
(lp348
S''
asbasbasbag67
(g83
g69
NtRp349
(dp350
g72
(dp351
sg81
g282
sg74
(lp352
g67
(g88
g69
NtRp353
(dp354
g72
(dp355
g92
g93
ssg81
g349
sg74
(lp356
S'httponly'
p357
asbag67
(g88
g69
NtRp358
(dp359
g72
(dp360
g99
g100
ssg81
g349
sg74
(lp361
S':'
asbag67
(g88
g69
NtRp362
(dp363
g72
(dp364
sg81
g349
sg74
(lp365
g67
(g68
g69
NtRp366
(dp367
g72
(dp368
g80
I3
ssg81
g362
sg74
(lp369
S''
asbasbasbag67
(g83
g69
NtRp370
(dp371
g72
(dp372
sg81
g282
sg74
(lp373
g67
(g88
g69
NtRp374
(dp375
g72
(dp376
g92
g93
ssg81
g370
sg74
(lp377
S'max-age'
p378
asbag67
(g88
g69
NtRp379
(dp380
g72
(dp381
g99
g100
ssg81
g370
sg74
(lp382
S':'
asbag67
(g88
g69
NtRp383
(dp384
g72
(dp385
sg81
g370
sg74
(lp386
g67
(g68
g69
NtRp387
(dp388
g72
(dp389
g80
I3
ssg81
g383
sg74
(lp390
S''
asbasbasbag67
(g83
g69
NtRp391
(dp392
g72
(dp393
sg81
g282
sg74
(lp394
g67
(g88
g69
NtRp395
(dp396
g72
(dp397
g92
g93
ssg81
g391
sg74
(lp398
S'path'
p399
asbag67
(g88
g69
NtRp400
(dp401
g72
(dp402
g99
g100
ssg81
g391
sg74
(lp403
S':'
asbag67
(g88
g69
NtRp404
(dp405
g72
(dp406
sg81
g391
sg74
(lp407
g67
(g68
g69
NtRp408
(dp409
g72
(dp410
g80
I3
ssg81
g404
sg74
(lp411
S''
asbasbasbag67
(g83
g69
NtRp412
(dp413
g72
(dp414
sg81
g282
sg74
(lp415
g67
(g88
g69
NtRp416
(dp417
g72
(dp418
g92
g93
ssg81
g412
sg74
(lp419
S'secure'
p420
asbag67
(g88
g69
NtRp421
(dp422
g72
(dp423
g99
g100
ssg81
g412
sg74
(lp424
S':'
asbag67
(g88
g69
NtRp425
(dp426
g72
(dp427
sg81
g412
sg74
(lp428
g67
(g68
g69
NtRp429
(dp430
g72
(dp431
g80
I3
ssg81
g425
sg74
(lp432
S''
asbasbasbag67
(g83
g69
NtRp433
(dp434
g72
(dp435
sg81
g282
sg74
(lp436
g67
(g88
g69
NtRp437
(dp438
g72
(dp439
g92
g93
ssg81
g433
sg74
(lp440
S'version'
p441
asbag67
(g88
g69
NtRp442
(dp443
g72
(dp444
g99
g100
ssg81
g433
sg74
(lp445
S':'
asbag67
(g88
g69
NtRp446
(dp447
g72
(dp448
sg81
g433
sg74
(lp449
g67
(g68
g69
NtRp450
(dp451
g72
(dp452
g80
I3
ssg81
g446
sg74
(lp453
S''
asbasbasbasbasbasbasbag67
(g83
g69
NtRp454
(dp455
g72
(dp456
sg81
g257
sg74
(lp457
g67
(g88
g69
NtRp458
(dp459
g72
(dp460
g92
g93
ssg81
g454
sg74
(lp461
S'session_id_milo'
p462
asbag67
(g88
g69
NtRp463
(dp464
g72
(dp465
g99
g100
ssg81
g454
sg74
(lp466
S':'
asbag67
(g88
g69
NtRp467
(dp468
g72
(dp469
sg81
g454
sg74
(lp470
g67
(g68
g69
NtRp471
(dp472
g72
(dp473
g80
I4
ssg81
g467
sg74
(lp474
g67
(g76
g69
NtRp475
(dp476
g72
(dp477
g80
I3
ssg81
Nsg74
(lp478
g67
(g83
g69
NtRp479
(dp480
g72
(dp481
sg81
g475
sg74
(lp482
g67
(g88
g69
NtRp483
(dp484
g72
(dp485
g92
g93
ssg81
g479
sg74
(lp486
g294
asbag67
(g88
g69
NtRp487
(dp488
g72
(dp489
g99
g100
ssg81
g479
sg74
(lp490
S':'
asbag67
(g88
g69
NtRp491
(dp492
g72
(dp493
sg81
g479
sg74
(lp494
g67
(g68
g69
NtRp495
(dp496
g72
(dp497
g80
I3
ssg81
g491
sg74
(lp498
S''
asbasbasbag67
(g83
g69
NtRp499
(dp500
g72
(dp501
sg81
g475
sg74
(lp502
g67
(g88
g69
NtRp503
(dp504
g72
(dp505
g92
g93
ssg81
g499
sg74
(lp506
g315
asbag67
(g88
g69
NtRp507
(dp508
g72
(dp509
g99
g100
ssg81
g499
sg74
(lp510
S':'
asbag67
(g88
g69
NtRp511
(dp512
g72
(dp513
sg81
g499
sg74
(lp514
g67
(g68
g69
NtRp515
(dp516
g72
(dp517
g80
I3
ssg81
g511
sg74
(lp518
S''
asbasbasbag67
(g83
g69
NtRp519
(dp520
g72
(dp521
sg81
g475
sg74
(lp522
g67
(g88
g69
NtRp523
(dp524
g72
(dp525
g92
g93
ssg81
g519
sg74
(lp526
g336
asbag67
(g88
g69
NtRp527
(dp528
g72
(dp529
g99
g100
ssg81
g519
sg74
(lp530
S':'
asbag67
(g88
g69
NtRp531
(dp532
g72
(dp533
sg81
g519
sg74
(lp534
g67
(g68
g69
NtRp535
(dp536
g72
(dp537
g80
I3
ssg81
g531
sg74
(lp538
S''
asbasbasbag67
(g83
g69
NtRp539
(dp540
g72
(dp541
sg81
g475
sg74
(lp542
g67
(g88
g69
NtRp543
(dp544
g72
(dp545
g92
g93
ssg81
g539
sg74
(lp546
g357
asbag67
(g88
g69
NtRp547
(dp548
g72
(dp549
g99
g100
ssg81
g539
sg74
(lp550
S':'
asbag67
(g88
g69
NtRp551
(dp552
g72
(dp553
sg81
g539
sg74
(lp554
g67
(g68
g69
NtRp555
(dp556
g72
(dp557
g80
I3
ssg81
g551
sg74
(lp558
S''
asbasbasbag67
(g83
g69
NtRp559
(dp560
g72
(dp561
sg81
g475
sg74
(lp562
g67
(g88
g69
NtRp563
(dp564
g72
(dp565
g92
g93
ssg81
g559
sg74
(lp566
g378
asbag67
(g88
g69
NtRp567
(dp568
g72
(dp569
g99
g100
ssg81
g559
sg74
(lp570
S':'
asbag67
(g88
g69
NtRp571
(dp572
g72
(dp573
sg81
g559
sg74
(lp574
g67
(g68
g69
NtRp575
(dp576
g72
(dp577
g80
I3
ssg81
g571
sg74
(lp578
S''
asbasbasbag67
(g83
g69
NtRp579
(dp580
g72
(dp581
sg81
g475
sg74
(lp582
g67
(g88
g69
NtRp583
(dp584
g72
(dp585
g92
g93
ssg81
g579
sg74
(lp586
g399
asbag67
(g88
g69
NtRp587
(dp588
g72
(dp589
g99
g100
ssg81
g579
sg74
(lp590
S':'
asbag67
(g88
g69
NtRp591
(dp592
g72
(dp593
sg81
g579
sg74
(lp594
g67
(g68
g69
NtRp595
(dp596
g72
(dp597
g80
I3
ssg81
g591
sg74
(lp598
S''
asbasbasbag67
(g83
g69
NtRp599
(dp600
g72
(dp601
sg81
g475
sg74
(lp602
g67
(g88
g69
NtRp603
(dp604
g72
(dp605
g92
g93
ssg81
g599
sg74
(lp606
g420
asbag67
(g88
g69
NtRp607
(dp608
g72
(dp609
g99
g100
ssg81
g599
sg74
(lp610
S':'
asbag67
(g88
g69
NtRp611
(dp612
g72
(dp613
sg81
g599
sg74
(lp614
g67
(g68
g69
NtRp615
(dp616
g72
(dp617
g80
I3
ssg81
g611
sg74
(lp618
S''
asbasbasbag67
(g83
g69
NtRp619
(dp620
g72
(dp621
sg81
g475
sg74
(lp622
g67
(g88
g69
NtRp623
(dp624
g72
(dp625
g92
g93
ssg81
g619
sg74
(lp626
g441
asbag67
(g88
g69
NtRp627
(dp628
g72
(dp629
g99
g100
ssg81
g619
sg74
(lp630
S':'
asbag67
(g88
g69
NtRp631
(dp632
g72
(dp633
sg81
g619
sg74
(lp634
g67
(g68
g69
NtRp635
(dp636
g72
(dp637
g80
I3
ssg81
g631
sg74
(lp638
S''
asbasbasbasbasbasbasbasbasbasbasbag67
(g83
g69
NtRp639
(dp640
g72
(dp641
sg81
g77
sg74
(lp642
g67
(g88
g69
NtRp643
(dp644
g72
(dp645
g92
g93
ssg81
g639
sg74
(lp646
S'env'
p647
asbag67
(g88
g69
NtRp648
(dp649
g72
(dp650
g99
g100
ssg81
g639
sg74
(lp651
S':'
asbag67
(g88
g69
NtRp652
(dp653
g72
(dp654
sg81
g639
sg74
(lp655
g67
(g68
g69
NtRp656
(dp657
g72
(dp658
g80
I5
ssg81
g652
sg74
(lp659
g67
(g76
g69
NtRp660
(dp661
g72
(dp662
g80
I4
ssg81
Nsg74
(lp663
g67
(g83
g69
NtRp664
(dp665
g72
(dp666
sg81
g660
sg74
(lp667
g67
(g88
g69
NtRp668
(dp669
g72
(dp670
g92
g93
ssg81
g664
sg74
(lp671
S'app_folders'
p672
asbag67
(g88
g69
NtRp673
(dp674
g72
(dp675
g99
g100
ssg81
g664
sg74
(lp676
S':'
asbag67
(g88
g69
NtRp677
(dp678
g72
(dp679
sg81
g664
sg74
(lp680
g67
(g68
g69
NtRp681
(dp682
g72
(dp683
g80
I4
ssg81
g677
sg74
(lp684
S"set(['/home/goshawk/web2py/applications/milo/', '/home/goshawk/web2py/applications/admin/'])"
p685
asbasbasbag67
(g83
g69
NtRp686
(dp687
g72
(dp688
sg81
g660
sg74
(lp689
g67
(g88
g69
NtRp690
(dp691
g72
(dp692
g92
g93
ssg81
g686
sg74
(lp693
S'applications_parent'
p694
asbag67
(g88
g69
NtRp695
(dp696
g72
(dp697
g99
g100
ssg81
g686
sg74
(lp698
S':'
asbag67
(g88
g69
NtRp699
(dp700
g72
(dp701
sg81
g686
sg74
(lp702
g67
(g68
g69
NtRp703
(dp704
g72
(dp705
g80
I4
ssg81
g699
sg74
(lp706
S'/home/goshawk/web2py'
p707
asbasbasbag67
(g83
g69
NtRp708
(dp709
g72
(dp710
sg81
g660
sg74
(lp711
g67
(g88
g69
NtRp712
(dp713
g72
(dp714
g92
g93
ssg81
g708
sg74
(lp715
S'cmd_args'
p716
asbag67
(g88
g69
NtRp717
(dp718
g72
(dp719
g99
g100
ssg81
g708
sg74
(lp720
S':'
asbag67
(g88
g69
NtRp721
(dp722
g72
(dp723
sg81
g708
sg74
(lp724
g67
(g68
g69
NtRp725
(dp726
g72
(dp727
g80
I4
ssg81
g721
sg74
(lp728
g67
(g76
g69
NtRp729
(dp730
g72
(dp731
g80
I3
ssg81
Nsg74
(lp732
sbasbasbasbag67
(g83
g69
NtRp733
(dp734
g72
(dp735
sg81
g660
sg74
(lp736
g67
(g88
g69
NtRp737
(dp738
g72
(dp739
g92
g93
ssg81
g733
sg74
(lp740
S'cmd_options'
p741
asbag67
(g88
g69
NtRp742
(dp743
g72
(dp744
g99
g100
ssg81
g733
sg74
(lp745
S':'
asbag67
(g88
g69
NtRp746
(dp747
g72
(dp748
sg81
g733
sg74
(lp749
g67
(g68
g69
NtRp750
(dp751
g72
(dp752
g80
I4
ssg81
g746
sg74
(lp753
S"<Values at 0x14d30e0: {'verbose': False, 'ip': '127.0.0.1', 'shutdown_timeout': 5, 'taskbar': False, 'nocron': False, 'pid_filename': 'httpserver.pid', 'maxthreads': None, 'softcron': False, 'server_name': 'whisperer', 'bpython': False, 'nogui': False, 'port': 8000, 'extcron': False, 'debuglevel': 30, 'test': None, 'folder': '/home/goshawk/web2py', 'config': '', 'import_models': False, 'winservice': '', 'shell': None, 'run': '', 'log_filename': 'httpserver.log', 'args': [''], 'socket_timeout': 5, 'ssl_ca_certificate': None, 'scheduler': None, 'profiler_filename': None, 'ssl_private_key': '', 'password': 'admin', 'request_queue_size': 5, 'ssl_certificate': '', 'cronjob': False, 'numthreads': None, 'quiet': False, 'interfaces': None, 'minthreads': None, 'timeout': 10, 'plain': False, 'nobanner': False}>"
p754
asbasbasbag67
(g83
g69
NtRp755
(dp756
g72
(dp757
sg81
g660
sg74
(lp758
g67
(g88
g69
NtRp759
(dp760
g72
(dp761
g92
g93
ssg81
g755
sg74
(lp762
S'db_sessions'
p763
asbag67
(g88
g69
NtRp764
(dp765
g72
(dp766
g99
g100
ssg81
g755
sg74
(lp767
S':'
asbag67
(g88
g69
NtRp768
(dp769
g72
(dp770
sg81
g755
sg74
(lp771
g67
(g68
g69
NtRp772
(dp773
g72
(dp774
g80
I4
ssg81
g768
sg74
(lp775
S'set([])'
p776
asbasbasbag67
(g83
g69
NtRp777
(dp778
g72
(dp779
sg81
g660
sg74
(lp780
g67
(g88
g69
NtRp781
(dp782
g72
(dp783
g92
g93
ssg81
g777
sg74
(lp784
S'debugging'
p785
asbag67
(g88
g69
NtRp786
(dp787
g72
(dp788
g99
g100
ssg81
g777
sg74
(lp789
S':'
asbag67
(g88
g69
NtRp790
(dp791
g72
(dp792
sg81
g777
sg74
(lp793
g67
(g68
g69
NtRp794
(dp795
g72
(dp796
g80
I4
ssg81
g790
sg74
(lp797
g110
asbasbasbag67
(g83
g69
NtRp798
(dp799
g72
(dp800
sg81
g660
sg74
(lp801
g67
(g88
g69
NtRp802
(dp803
g72
(dp804
g92
g93
ssg81
g798
sg74
(lp805
S'gluon_parent'
p806
asbag67
(g88
g69
NtRp807
(dp808
g72
(dp809
g99
g100
ssg81
g798
sg74
(lp810
S':'
asbag67
(g88
g69
NtRp811
(dp812
g72
(dp813
sg81
g798
sg74
(lp814
g67
(g68
g69
NtRp815
(dp816
g72
(dp817
g80
I4
ssg81
g811
sg74
(lp818
S'/home/goshawk/web2py'
p819
asbasbasbag67
(g83
g69
NtRp820
(dp821
g72
(dp822
sg81
g660
sg74
(lp823
g67
(g88
g69
NtRp824
(dp825
g72
(dp826
g92
g93
ssg81
g820
sg74
(lp827
S'http_accept'
p828
asbag67
(g88
g69
NtRp829
(dp830
g72
(dp831
g99
g100
ssg81
g820
sg74
(lp832
S':'
asbag67
(g88
g69
NtRp833
(dp834
g72
(dp835
sg81
g820
sg74
(lp836
g67
(g68
g69
NtRp837
(dp838
g72
(dp839
g80
I4
ssg81
g833
sg74
(lp840
S'text/html,application/xhtml+xml,application/xml;q=0.9,*/*;q=0.8'
p841
asbasbasbag67
(g83
g69
NtRp842
(dp843
g72
(dp844
sg81
g660
sg74
(lp845
g67
(g88
g69
NtRp846
(dp847
g72
(dp848
g92
g93
ssg81
g842
sg74
(lp849
S'http_accept_charset'
p850
asbag67
(g88
g69
NtRp851
(dp852
g72
(dp853
g99
g100
ssg81
g842
sg74
(lp854
S':'
asbag67
(g88
g69
NtRp855
(dp856
g72
(dp857
sg81
g842
sg74
(lp858
g67
(g68
g69
NtRp859
(dp860
g72
(dp861
g80
I4
ssg81
g855
sg74
(lp862
S'ISO-8859-1,utf-8;q=0.7,*;q=0.3'
p863
asbasbasbag67
(g83
g69
NtRp864
(dp865
g72
(dp866
sg81
g660
sg74
(lp867
g67
(g88
g69
NtRp868
(dp869
g72
(dp870
g92
g93
ssg81
g864
sg74
(lp871
S'http_accept_encoding'
p872
asbag67
(g88
g69
NtRp873
(dp874
g72
(dp875
g99
g100
ssg81
g864
sg74
(lp876
S':'
asbag67
(g88
g69
NtRp877
(dp878
g72
(dp879
sg81
g864
sg74
(lp880
g67
(g68
g69
NtRp881
(dp882
g72
(dp883
g80
I4
ssg81
g877
sg74
(lp884
S'gzip,deflate,sdch'
p885
asbasbasbag67
(g83
g69
NtRp886
(dp887
g72
(dp888
sg81
g660
sg74
(lp889
g67
(g88
g69
NtRp890
(dp891
g72
(dp892
g92
g93
ssg81
g886
sg74
(lp893
S'http_accept_language'
p894
asbag67
(g88
g69
NtRp895
(dp896
g72
(dp897
g99
g100
ssg81
g886
sg74
(lp898
S':'
asbag67
(g88
g69
NtRp899
(dp900
g72
(dp901
sg81
g886
sg74
(lp902
g67
(g68
g69
NtRp903
(dp904
g72
(dp905
g80
I4
ssg81
g899
sg74
(lp906
S'en-US,en;q=0.8'
p907
asbasbasbag67
(g83
g69
NtRp908
(dp909
g72
(dp910
sg81
g660
sg74
(lp911
g67
(g88
g69
NtRp912
(dp913
g72
(dp914
g92
g93
ssg81
g908
sg74
(lp915
S'http_cache_control'
p916
asbag67
(g88
g69
NtRp917
(dp918
g72
(dp919
g99
g100
ssg81
g908
sg74
(lp920
S':'
asbag67
(g88
g69
NtRp921
(dp922
g72
(dp923
sg81
g908
sg74
(lp924
g67
(g68
g69
NtRp925
(dp926
g72
(dp927
g80
I4
ssg81
g921
sg74
(lp928
S'max-age=0'
p929
asbasbasbag67
(g83
g69
NtRp930
(dp931
g72
(dp932
sg81
g660
sg74
(lp933
g67
(g88
g69
NtRp934
(dp935
g72
(dp936
g92
g93
ssg81
g930
sg74
(lp937
S'http_connection'
p938
asbag67
(g88
g69
NtRp939
(dp940
g72
(dp941
g99
g100
ssg81
g930
sg74
(lp942
S':'
asbag67
(g88
g69
NtRp943
(dp944
g72
(dp945
sg81
g930
sg74
(lp946
g67
(g68
g69
NtRp947
(dp948
g72
(dp949
g80
I4
ssg81
g943
sg74
(lp950
S'keep-alive'
p951
asbasbasbag67
(g83
g69
NtRp952
(dp953
g72
(dp954
sg81
g660
sg74
(lp955
g67
(g88
g69
NtRp956
(dp957
g72
(dp958
g92
g93
ssg81
g952
sg74
(lp959
S'http_cookie'
p960
asbag67
(g88
g69
NtRp961
(dp962
g72
(dp963
g99
g100
ssg81
g952
sg74
(lp964
S':'
asbag67
(g88
g69
NtRp965
(dp966
g72
(dp967
sg81
g952
sg74
(lp968
g67
(g68
g69
NtRp969
(dp970
g72
(dp971
g80
I4
ssg81
g965
sg74
(lp972
S'session_id_milo=127.0.0.1-19614cfd-e191-4bce-bf28-2da4d735c3fb; session_id_admin=127.0.0.1-d48f224c-3229-4026-85e5-6400c20fa8bb'
p973
asbasbasbag67
(g83
g69
NtRp974
(dp975
g72
(dp976
sg81
g660
sg74
(lp977
g67
(g88
g69
NtRp978
(dp979
g72
(dp980
g92
g93
ssg81
g974
sg74
(lp981
S'http_host'
p982
asbag67
(g88
g69
NtRp983
(dp984
g72
(dp985
g99
g100
ssg81
g974
sg74
(lp986
S':'
asbag67
(g88
g69
NtRp987
(dp988
g72
(dp989
sg81
g974
sg74
(lp990
g67
(g68
g69
NtRp991
(dp992
g72
(dp993
g80
I4
ssg81
g987
sg74
(lp994
S'localhost:8000'
p995
asbasbasbag67
(g83
g69
NtRp996
(dp997
g72
(dp998
sg81
g660
sg74
(lp999
g67
(g88
g69
NtRp1000
(dp1001
g72
(dp1002
g92
g93
ssg81
g996
sg74
(lp1003
S'http_user_agent'
p1004
asbag67
(g88
g69
NtRp1005
(dp1006
g72
(dp1007
g99
g100
ssg81
g996
sg74
(lp1008
S':'
asbag67
(g88
g69
NtRp1009
(dp1010
g72
(dp1011
sg81
g996
sg74
(lp1012
g67
(g68
g69
NtRp1013
(dp1014
g72
(dp1015
g80
I4
ssg81
g1009
sg74
(lp1016
S'Mozilla/5.0 (X11; Linux x86_64) AppleWebKit/535.19 (KHTML, like Gecko) Ubuntu/12.04 Chromium/18.0.1025.168 Chrome/18.0.1025.168 Safari/535.19'
p1017
asbasbasbag67
(g83
g69
NtRp1018
(dp1019
g72
(dp1020
sg81
g660
sg74
(lp1021
g67
(g88
g69
NtRp1022
(dp1023
g72
(dp1024
g92
g93
ssg81
g1018
sg74
(lp1025
S'is_jython'
p1026
asbag67
(g88
g69
NtRp1027
(dp1028
g72
(dp1029
g99
g100
ssg81
g1018
sg74
(lp1030
S':'
asbag67
(g88
g69
NtRp1031
(dp1032
g72
(dp1033
sg81
g1018
sg74
(lp1034
g67
(g68
g69
NtRp1035
(dp1036
g72
(dp1037
g80
I4
ssg81
g1031
sg74
(lp1038
g110
asbasbasbag67
(g83
g69
NtRp1039
(dp1040
g72
(dp1041
sg81
g660
sg74
(lp1042
g67
(g88
g69
NtRp1043
(dp1044
g72
(dp1045
g92
g93
ssg81
g1039
sg74
(lp1046
S'is_pypy'
p1047
asbag67
(g88
g69
NtRp1048
(dp1049
g72
(dp1050
g99
g100
ssg81
g1039
sg74
(lp1051
S':'
asbag67
(g88
g69
NtRp1052
(dp1053
g72
(dp1054
sg81
g1039
sg74
(lp1055
g67
(g68
g69
NtRp1056
(dp1057
g72
(dp1058
g80
I4
ssg81
g1052
sg74
(lp1059
g110
asbasbasbag67
(g83
g69
NtRp1060
(dp1061
g72
(dp1062
sg81
g660
sg74
(lp1063
g67
(g88
g69
NtRp1064
(dp1065
g72
(dp1066
g92
g93
ssg81
g1060
sg74
(lp1067
S'path_info'
p1068
asbag67
(g88
g69
NtRp1069
(dp1070
g72
(dp1071
g99
g100
ssg81
g1060
sg74
(lp1072
S':'
asbag67
(g88
g69
NtRp1073
(dp1074
g72
(dp1075
sg81
g1060
sg74
(lp1076
g67
(g68
g69
NtRp1077
(dp1078
g72
(dp1079
g80
I4
ssg81
g1073
sg74
(lp1080
S'/milo/appadmin/select/db'
p1081
asbasbasbag67
(g83
g69
NtRp1082
(dp1083
g72
(dp1084
sg81
g660
sg74
(lp1085
g67
(g88
g69
NtRp1086
(dp1087
g72
(dp1088
g92
g93
ssg81
g1082
sg74
(lp1089
S'query_string'
p1090
asbag67
(g88
g69
NtRp1091
(dp1092
g72
(dp1093
g99
g100
ssg81
g1082
sg74
(lp1094
S':'
asbag67
(g88
g69
NtRp1095
(dp1096
g72
(dp1097
sg81
g1082
sg74
(lp1098
g67
(g68
g69
NtRp1099
(dp1100
g72
(dp1101
g80
I4
ssg81
g1095
sg74
(lp1102
S''
asbasbasbag67
(g83
g69
NtRp1103
(dp1104
g72
(dp1105
sg81
g660
sg74
(lp1106
g67
(g88
g69
NtRp1107
(dp1108
g72
(dp1109
g92
g93
ssg81
g1103
sg74
(lp1110
S'remote_addr'
p1111
asbag67
(g88
g69
NtRp1112
(dp1113
g72
(dp1114
g99
g100
ssg81
g1103
sg74
(lp1115
S':'
asbag67
(g88
g69
NtRp1116
(dp1117
g72
(dp1118
sg81
g1103
sg74
(lp1119
g67
(g68
g69
NtRp1120
(dp1121
g72
(dp1122
g80
I4
ssg81
g1116
sg74
(lp1123
g213
asbasbasbag67
(g83
g69
NtRp1124
(dp1125
g72
(dp1126
sg81
g660
sg74
(lp1127
g67
(g88
g69
NtRp1128
(dp1129
g72
(dp1130
g92
g93
ssg81
g1124
sg74
(lp1131
S'remote_port'
p1132
asbag67
(g88
g69
NtRp1133
(dp1134
g72
(dp1135
g99
g100
ssg81
g1124
sg74
(lp1136
S':'
asbag67
(g88
g69
NtRp1137
(dp1138
g72
(dp1139
sg81
g1124
sg74
(lp1140
g67
(g68
g69
NtRp1141
(dp1142
g72
(dp1143
g80
I4
ssg81
g1137
sg74
(lp1144
S'35804'
p1145
asbasbasbag67
(g83
g69
NtRp1146
(dp1147
g72
(dp1148
sg81
g660
sg74
(lp1149
g67
(g88
g69
NtRp1150
(dp1151
g72
(dp1152
g92
g93
ssg81
g1146
sg74
(lp1153
S'request_method'
p1154
asbag67
(g88
g69
NtRp1155
(dp1156
g72
(dp1157
g99
g100
ssg81
g1146
sg74
(lp1158
S':'
asbag67
(g88
g69
NtRp1159
(dp1160
g72
(dp1161
sg81
g1146
sg74
(lp1162
g67
(g68
g69
NtRp1163
(dp1164
g72
(dp1165
g80
I4
ssg81
g1159
sg74
(lp1166
S'GET'
p1167
asbasbasbag67
(g83
g69
NtRp1168
(dp1169
g72
(dp1170
sg81
g660
sg74
(lp1171
g67
(g88
g69
NtRp1172
(dp1173
g72
(dp1174
g92
g93
ssg81
g1168
sg74
(lp1175
S'request_uri'
p1176
asbag67
(g88
g69
NtRp1177
(dp1178
g72
(dp1179
g99
g100
ssg81
g1168
sg74
(lp1180
S':'
asbag67
(g88
g69
NtRp1181
(dp1182
g72
(dp1183
sg81
g1168
sg74
(lp1184
g67
(g68
g69
NtRp1185
(dp1186
g72
(dp1187
g80
I4
ssg81
g1181
sg74
(lp1188
g1081
asbasbasbag67
(g83
g69
NtRp1189
(dp1190
g72
(dp1191
sg81
g660
sg74
(lp1192
g67
(g88
g69
NtRp1193
(dp1194
g72
(dp1195
g92
g93
ssg81
g1189
sg74
(lp1196
S'script_name'
p1197
asbag67
(g88
g69
NtRp1198
(dp1199
g72
(dp1200
g99
g100
ssg81
g1189
sg74
(lp1201
S':'
asbag67
(g88
g69
NtRp1202
(dp1203
g72
(dp1204
sg81
g1189
sg74
(lp1205
g67
(g68
g69
NtRp1206
(dp1207
g72
(dp1208
g80
I4
ssg81
g1202
sg74
(lp1209
S''
asbasbasbag67
(g83
g69
NtRp1210
(dp1211
g72
(dp1212
sg81
g660
sg74
(lp1213
g67
(g88
g69
NtRp1214
(dp1215
g72
(dp1216
g92
g93
ssg81
g1210
sg74
(lp1217
S'server_name'
p1218
asbag67
(g88
g69
NtRp1219
(dp1220
g72
(dp1221
g99
g100
ssg81
g1210
sg74
(lp1222
S':'
asbag67
(g88
g69
NtRp1223
(dp1224
g72
(dp1225
sg81
g1210
sg74
(lp1226
g67
(g68
g69
NtRp1227
(dp1228
g72
(dp1229
g80
I4
ssg81
g1223
sg74
(lp1230
S'whisperer'
p1231
asbasbasbag67
(g83
g69
NtRp1232
(dp1233
g72
(dp1234
sg81
g660
sg74
(lp1235
g67
(g88
g69
NtRp1236
(dp1237
g72
(dp1238
g92
g93
ssg81
g1232
sg74
(lp1239
S'server_port'
p1240
asbag67
(g88
g69
NtRp1241
(dp1242
g72
(dp1243
g99
g100
ssg81
g1232
sg74
(lp1244
S':'
asbag67
(g88
g69
NtRp1245
(dp1246
g72
(dp1247
sg81
g1232
sg74
(lp1248
g67
(g68
g69
NtRp1249
(dp1250
g72
(dp1251
g80
I4
ssg81
g1245
sg74
(lp1252
S'8000'
p1253
asbasbasbag67
(g83
g69
NtRp1254
(dp1255
g72
(dp1256
sg81
g660
sg74
(lp1257
g67
(g88
g69
NtRp1258
(dp1259
g72
(dp1260
g92
g93
ssg81
g1254
sg74
(lp1261
S'server_protocol'
p1262
asbag67
(g88
g69
NtRp1263
(dp1264
g72
(dp1265
g99
g100
ssg81
g1254
sg74
(lp1266
S':'
asbag67
(g88
g69
NtRp1267
(dp1268
g72
(dp1269
sg81
g1254
sg74
(lp1270
g67
(g68
g69
NtRp1271
(dp1272
g72
(dp1273
g80
I4
ssg81
g1267
sg74
(lp1274
S'HTTP/1.1'
p1275
asbasbasbag67
(g83
g69
NtRp1276
(dp1277
g72
(dp1278
sg81
g660
sg74
(lp1279
g67
(g88
g69
NtRp1280
(dp1281
g72
(dp1282
g92
g93
ssg81
g1276
sg74
(lp1283
S'server_software'
p1284
asbag67
(g88
g69
NtRp1285
(dp1286
g72
(dp1287
g99
g100
ssg81
g1276
sg74
(lp1288
S':'
asbag67
(g88
g69
NtRp1289
(dp1290
g72
(dp1291
sg81
g1276
sg74
(lp1292
g67
(g68
g69
NtRp1293
(dp1294
g72
(dp1295
g80
I4
ssg81
g1289
sg74
(lp1296
S'Rocket 1.2.4'
p1297
asbasbasbag67
(g83
g69
NtRp1298
(dp1299
g72
(dp1300
sg81
g660
sg74
(lp1301
g67
(g88
g69
NtRp1302
(dp1303
g72
(dp1304
g92
g93
ssg81
g1298
sg74
(lp1305
S'web2py_crontype'
p1306
asbag67
(g88
g69
NtRp1307
(dp1308
g72
(dp1309
g99
g100
ssg81
g1298
sg74
(lp1310
S':'
asbag67
(g88
g69
NtRp1311
(dp1312
g72
(dp1313
sg81
g1298
sg74
(lp1314
g67
(g68
g69
NtRp1315
(dp1316
g72
(dp1317
g80
I4
ssg81
g1311
sg74
(lp1318
S'hard'
p1319
asbasbasbag67
(g83
g69
NtRp1320
(dp1321
g72
(dp1322
sg81
g660
sg74
(lp1323
g67
(g88
g69
NtRp1324
(dp1325
g72
(dp1326
g92
g93
ssg81
g1320
sg74
(lp1327
S'web2py_original_uri'
p1328
asbag67
(g88
g69
NtRp1329
(dp1330
g72
(dp1331
g99
g100
ssg81
g1320
sg74
(lp1332
S':'
asbag67
(g88
g69
NtRp1333
(dp1334
g72
(dp1335
sg81
g1320
sg74
(lp1336
g67
(g68
g69
NtRp1337
(dp1338
g72
(dp1339
g80
I4
ssg81
g1333
sg74
(lp1340
g1081
asbasbasbag67
(g83
g69
NtRp1341
(dp1342
g72
(dp1343
sg81
g660
sg74
(lp1344
g67
(g88
g69
NtRp1345
(dp1346
g72
(dp1347
g92
g93
ssg81
g1341
sg74
(lp1348
S'web2py_path'
p1349
asbag67
(g88
g69
NtRp1350
(dp1351
g72
(dp1352
g99
g100
ssg81
g1341
sg74
(lp1353
S':'
asbag67
(g88
g69
NtRp1354
(dp1355
g72
(dp1356
sg81
g1341
sg74
(lp1357
g67
(g68
g69
NtRp1358
(dp1359
g72
(dp1360
g80
I4
ssg81
g1354
sg74
(lp1361
g707
asbasbasbag67
(g83
g69
NtRp1362
(dp1363
g72
(dp1364
sg81
g660
sg74
(lp1365
g67
(g88
g69
NtRp1366
(dp1367
g72
(dp1368
g92
g93
ssg81
g1362
sg74
(lp1369
S'web2py_version'
p1370
asbag67
(g88
g69
NtRp1371
(dp1372
g72
(dp1373
g99
g100
ssg81
g1362
sg74
(lp1374
S':'
asbag67
(g88
g69
NtRp1375
(dp1376
g72
(dp1377
sg81
g1362
sg74
(lp1378
g67
(g68
g69
NtRp1379
(dp1380
g72
(dp1381
g80
I4
ssg81
g1375
sg74
(lp1382
g67
(g76
g69
NtRp1383
(dp1384
g72
(dp1385
g80
I3
ssg81
Nsg74
(lp1386
g67
(g83
g69
NtRp1387
(dp1388
g72
(dp1389
sg81
g1383
sg74
(lp1390
g67
(g88
g69
NtRp1391
(dp1392
g72
(dp1393
sg81
g1387
sg74
(lp1394
g67
(g68
g69
NtRp1395
(dp1396
g72
(dp1397
g80
I3
ssg81
g1391
sg74
(lp1398
S'1'
asbasbasbag67
(g83
g69
NtRp1399
(dp1400
g72
(dp1401
sg81
g1383
sg74
(lp1402
g67
(g88
g69
NtRp1403
(dp1404
g72
(dp1405
sg81
g1399
sg74
(lp1406
g67
(g68
g69
NtRp1407
(dp1408
g72
(dp1409
g80
I3
ssg81
g1403
sg74
(lp1410
S'99'
p1411
asbasbasbag67
(g83
g69
NtRp1412
(dp1413
g72
(dp1414
sg81
g1383
sg74
(lp1415
g67
(g88
g69
NtRp1416
(dp1417
g72
(dp1418
sg81
g1412
sg74
(lp1419
g67
(g68
g69
NtRp1420
(dp1421
g72
(dp1422
g80
I3
ssg81
g1416
sg74
(lp1423
S'7'
asbasbasbag67
(g83
g69
NtRp1424
(dp1425
g72
(dp1426
sg81
g1383
sg74
(lp1427
g67
(g88
g69
NtRp1428
(dp1429
g72
(dp1430
sg81
g1424
sg74
(lp1431
g67
(g68
g69
NtRp1432
(dp1433
g72
(dp1434
g80
I3
ssg81
g1428
sg74
(lp1435
S'datetime.datetime(2012, 3, 4, 22, 12, 8)'
p1436
asbasbasbag67
(g83
g69
NtRp1437
(dp1438
g72
(dp1439
sg81
g1383
sg74
(lp1440
g67
(g88
g69
NtRp1441
(dp1442
g72
(dp1443
sg81
g1437
sg74
(lp1444
g67
(g68
g69
NtRp1445
(dp1446
g72
(dp1447
g80
I3
ssg81
g1441
sg74
(lp1448
S'stable'
p1449
asbasbasbasbasbasbasbag67
(g83
g69
NtRp1450
(dp1451
g72
(dp1452
sg81
g660
sg74
(lp1453
g67
(g88
g69
NtRp1454
(dp1455
g72
(dp1456
g92
g93
ssg81
g1450
sg74
(lp1457
S'wsgi_errors'
p1458
asbag67
(g88
g69
NtRp1459
(dp1460
g72
(dp1461
g99
g100
ssg81
g1450
sg74
(lp1462
S':'
asbag67
(g88
g69
NtRp1463
(dp1464
g72
(dp1465
sg81
g1450
sg74
(lp1466
g67
(g68
g69
NtRp1467
(dp1468
g72
(dp1469
g80
I4
ssg81
g1463
sg74
(lp1470
S"<open file '<stderr>', mode 'w' at 0x7f13cb382270>"
p1471
asbasbasbag67
(g83
g69
NtRp1472
(dp1473
g72
(dp1474
sg81
g660
sg74
(lp1475
g67
(g88
g69
NtRp1476
(dp1477
g72
(dp1478
g92
g93
ssg81
g1472
sg74
(lp1479
S'wsgi_file_wrapper'
p1480
asbag67
(g88
g69
NtRp1481
(dp1482
g72
(dp1483
g99
g100
ssg81
g1472
sg74
(lp1484
S':'
asbag67
(g88
g69
NtRp1485
(dp1486
g72
(dp1487
sg81
g1472
sg74
(lp1488
g67
(g68
g69
NtRp1489
(dp1490
g72
(dp1491
g80
I4
ssg81
g1485
sg74
(lp1492
S'<class wsgiref.util.FileWrapper at 0x13fff58>'
p1493
asbasbasbag67
(g83
g69
NtRp1494
(dp1495
g72
(dp1496
sg81
g660
sg74
(lp1497
g67
(g88
g69
NtRp1498
(dp1499
g72
(dp1500
g92
g93
ssg81
g1494
sg74
(lp1501
S'wsgi_input'
p1502
asbag67
(g88
g69
NtRp1503
(dp1504
g72
(dp1505
g99
g100
ssg81
g1494
sg74
(lp1506
S':'
asbag67
(g88
g69
NtRp1507
(dp1508
g72
(dp1509
sg81
g1494
sg74
(lp1510
g67
(g68
g69
NtRp1511
(dp1512
g72
(dp1513
g80
I4
ssg81
g1507
sg74
(lp1514
S'<socket._fileobject object at 0x7f13b5399f50>'
p1515
asbasbasbag67
(g83
g69
NtRp1516
(dp1517
g72
(dp1518
sg81
g660
sg74
(lp1519
g67
(g88
g69
NtRp1520
(dp1521
g72
(dp1522
g92
g93
ssg81
g1516
sg74
(lp1523
S'wsgi_multiprocess'
p1524
asbag67
(g88
g69
NtRp1525
(dp1526
g72
(dp1527
g99
g100
ssg81
g1516
sg74
(lp1528
S':'
asbag67
(g88
g69
NtRp1529
(dp1530
g72
(dp1531
sg81
g1516
sg74
(lp1532
g67
(g68
g69
NtRp1533
(dp1534
g72
(dp1535
g80
I4
ssg81
g1529
sg74
(lp1536
g110
asbasbasbag67
(g83
g69
NtRp1537
(dp1538
g72
(dp1539
sg81
g660
sg74
(lp1540
g67
(g88
g69
NtRp1541
(dp1542
g72
(dp1543
g92
g93
ssg81
g1537
sg74
(lp1544
S'wsgi_multithread'
p1545
asbag67
(g88
g69
NtRp1546
(dp1547
g72
(dp1548
g99
g100
ssg81
g1537
sg74
(lp1549
S':'
asbag67
(g88
g69
NtRp1550
(dp1551
g72
(dp1552
sg81
g1537
sg74
(lp1553
g67
(g68
g69
NtRp1554
(dp1555
g72
(dp1556
g80
I4
ssg81
g1550
sg74
(lp1557
S'True'
p1558
asbasbasbag67
(g83
g69
NtRp1559
(dp1560
g72
(dp1561
sg81
g660
sg74
(lp1562
g67
(g88
g69
NtRp1563
(dp1564
g72
(dp1565
g92
g93
ssg81
g1559
sg74
(lp1566
S'wsgi_run_once'
p1567
asbag67
(g88
g69
NtRp1568
(dp1569
g72
(dp1570
g99
g100
ssg81
g1559
sg74
(lp1571
S':'
asbag67
(g88
g69
NtRp1572
(dp1573
g72
(dp1574
sg81
g1559
sg74
(lp1575
g67
(g68
g69
NtRp1576
(dp1577
g72
(dp1578
g80
I4
ssg81
g1572
sg74
(lp1579
g110
asbasbasbag67
(g83
g69
NtRp1580
(dp1581
g72
(dp1582
sg81
g660
sg74
(lp1583
g67
(g88
g69
NtRp1584
(dp1585
g72
(dp1586
g92
g93
ssg81
g1580
sg74
(lp1587
S'wsgi_url_scheme'
p1588
asbag67
(g88
g69
NtRp1589
(dp1590
g72
(dp1591
g99
g100
ssg81
g1580
sg74
(lp1592
S':'
asbag67
(g88
g69
NtRp1593
(dp1594
g72
(dp1595
sg81
g1580
sg74
(lp1596
g67
(g68
g69
NtRp1597
(dp1598
g72
(dp1599
g80
I4
ssg81
g1593
sg74
(lp1600
S'http'
p1601
asbasbasbag67
(g83
g69
NtRp1602
(dp1603
g72
(dp1604
sg81
g660
sg74
(lp1605
g67
(g88
g69
NtRp1606
(dp1607
g72
(dp1608
g92
g93
ssg81
g1602
sg74
(lp1609
S'wsgi_version'
p1610
asbag67
(g88
g69
NtRp1611
(dp1612
g72
(dp1613
g99
g100
ssg81
g1602
sg74
(lp1614
S':'
asbag67
(g88
g69
NtRp1615
(dp1616
g72
(dp1617
sg81
g1602
sg74
(lp1618
g67
(g68
g69
NtRp1619
(dp1620
g72
(dp1621
g80
I4
ssg81
g1615
sg74
(lp1622
g67
(g76
g69
NtRp1623
(dp1624
g72
(dp1625
g80
I3
ssg81
Nsg74
(lp1626
g67
(g83
g69
NtRp1627
(dp1628
g72
(dp1629
sg81
g1623
sg74
(lp1630
g67
(g88
g69
NtRp1631
(dp1632
g72
(dp1633
sg81
g1627
sg74
(lp1634
g67
(g68
g69
NtRp1635
(dp1636
g72
(dp1637
g80
I3
ssg81
g1631
sg74
(lp1638
S'1'
asbasbasbag67
(g83
g69
NtRp1639
(dp1640
g72
(dp1641
sg81
g1623
sg74
(lp1642
g67
(g88
g69
NtRp1643
(dp1644
g72
(dp1645
sg81
g1639
sg74
(lp1646
g67
(g68
g69
NtRp1647
(dp1648
g72
(dp1649
g80
I3
ssg81
g1643
sg74
(lp1650
S'0'
asbasbasbasbasbasbasbasbasbasbasbag67
(g83
g69
NtRp1651
(dp1652
g72
(dp1653
sg81
g77
sg74
(lp1654
g67
(g88
g69
NtRp1655
(dp1656
g72
(dp1657
g92
g93
ssg81
g1651
sg74
(lp1658
S'extension'
p1659
asbag67
(g88
g69
NtRp1660
(dp1661
g72
(dp1662
g99
g100
ssg81
g1651
sg74
(lp1663
S':'
asbag67
(g88
g69
NtRp1664
(dp1665
g72
(dp1666
sg81
g1651
sg74
(lp1667
g67
(g68
g69
NtRp1668
(dp1669
g72
(dp1670
g80
I5
ssg81
g1664
sg74
(lp1671
S'html'
p1672
asbasbasbag67
(g83
g69
NtRp1673
(dp1674
g72
(dp1675
sg81
g77
sg74
(lp1676
g67
(g88
g69
NtRp1677
(dp1678
g72
(dp1679
g92
g93
ssg81
g1673
sg74
(lp1680
S'folder'
p1681
asbag67
(g88
g69
NtRp1682
(dp1683
g72
(dp1684
g99
g100
ssg81
g1673
sg74
(lp1685
S':'
asbag67
(g88
g69
NtRp1686
(dp1687
g72
(dp1688
sg81
g1673
sg74
(lp1689
g67
(g68
g69
NtRp1690
(dp1691
g72
(dp1692
g80
I5
ssg81
g1686
sg74
(lp1693
S'/home/goshawk/web2py/applications/milo/'
p1694
asbasbasbag67
(g83
g69
NtRp1695
(dp1696
g72
(dp1697
sg81
g77
sg74
(lp1698
g67
(g88
g69
NtRp1699
(dp1700
g72
(dp1701
g92
g93
ssg81
g1695
sg74
(lp1702
S'function'
p1703
asbag67
(g88
g69
NtRp1704
(dp1705
g72
(dp1706
g99
g100
ssg81
g1695
sg74
(lp1707
S':'
asbag67
(g88
g69
NtRp1708
(dp1709
g72
(dp1710
sg81
g1695
sg74
(lp1711
g67
(g68
g69
NtRp1712
(dp1713
g72
(dp1714
g80
I5
ssg81
g1708
sg74
(lp1715
S'select'
p1716
asbasbasbag67
(g83
g69
NtRp1717
(dp1718
g72
(dp1719
sg81
g77
sg74
(lp1720
g67
(g88
g69
NtRp1721
(dp1722
g72
(dp1723
g92
g93
ssg81
g1717
sg74
(lp1724
S'get_vars'
p1725
asbag67
(g88
g69
NtRp1726
(dp1727
g72
(dp1728
g99
g100
ssg81
g1717
sg74
(lp1729
S':'
asbag67
(g88
g69
NtRp1730
(dp1731
g72
(dp1732
sg81
g1717
sg74
(lp1733
g67
(g68
g69
NtRp1734
(dp1735
g72
(dp1736
g80
I5
ssg81
g1730
sg74
(lp1737
g67
(g76
g69
NtRp1738
(dp1739
g72
(dp1740
g80
I4
ssg81
Nsg74
(lp1741
sbasbasbasbag67
(g83
g69
NtRp1742
(dp1743
g72
(dp1744
sg81
g77
sg74
(lp1745
g67
(g88
g69
NtRp1746
(dp1747
g72
(dp1748
g92
g93
ssg81
g1742
sg74
(lp1749
S'global_settings'
p1750
asbag67
(g88
g69
NtRp1751
(dp1752
g72
(dp1753
g99
g100
ssg81
g1742
sg74
(lp1754
S':'
asbag67
(g88
g69
NtRp1755
(dp1756
g72
(dp1757
sg81
g1742
sg74
(lp1758
g67
(g68
g69
NtRp1759
(dp1760
g72
(dp1761
g80
I5
ssg81
g1755
sg74
(lp1762
g67
(g76
g69
NtRp1763
(dp1764
g72
(dp1765
g80
I4
ssg81
Nsg74
(lp1766
g67
(g83
g69
NtRp1767
(dp1768
g72
(dp1769
sg81
g1763
sg74
(lp1770
g67
(g88
g69
NtRp1771
(dp1772
g72
(dp1773
g92
g93
ssg81
g1767
sg74
(lp1774
g672
asbag67
(g88
g69
NtRp1775
(dp1776
g72
(dp1777
g99
g100
ssg81
g1767
sg74
(lp1778
S':'
asbag67
(g88
g69
NtRp1779
(dp1780
g72
(dp1781
sg81
g1767
sg74
(lp1782
g67
(g68
g69
NtRp1783
(dp1784
g72
(dp1785
g80
I4
ssg81
g1779
sg74
(lp1786
S"set(['/home/goshawk/web2py/applications/milo/', '/home/goshawk/web2py/applications/admin/'])"
p1787
asbasbasbag67
(g83
g69
NtRp1788
(dp1789
g72
(dp1790
sg81
g1763
sg74
(lp1791
g67
(g88
g69
NtRp1792
(dp1793
g72
(dp1794
g92
g93
ssg81
g1788
sg74
(lp1795
g694
asbag67
(g88
g69
NtRp1796
(dp1797
g72
(dp1798
g99
g100
ssg81
g1788
sg74
(lp1799
S':'
asbag67
(g88
g69
NtRp1800
(dp1801
g72
(dp1802
sg81
g1788
sg74
(lp1803
g67
(g68
g69
NtRp1804
(dp1805
g72
(dp1806
g80
I4
ssg81
g1800
sg74
(lp1807
g707
asbasbasbag67
(g83
g69
NtRp1808
(dp1809
g72
(dp1810
sg81
g1763
sg74
(lp1811
g67
(g88
g69
NtRp1812
(dp1813
g72
(dp1814
g92
g93
ssg81
g1808
sg74
(lp1815
g716
asbag67
(g88
g69
NtRp1816
(dp1817
g72
(dp1818
g99
g100
ssg81
g1808
sg74
(lp1819
S':'
asbag67
(g88
g69
NtRp1820
(dp1821
g72
(dp1822
sg81
g1808
sg74
(lp1823
g67
(g68
g69
NtRp1824
(dp1825
g72
(dp1826
g80
I4
ssg81
g1820
sg74
(lp1827
g67
(g76
g69
NtRp1828
(dp1829
g72
(dp1830
g80
I3
ssg81
Nsg74
(lp1831
sbasbasbasbag67
(g83
g69
NtRp1832
(dp1833
g72
(dp1834
sg81
g1763
sg74
(lp1835
g67
(g88
g69
NtRp1836
(dp1837
g72
(dp1838
g92
g93
ssg81
g1832
sg74
(lp1839
g741
asbag67
(g88
g69
NtRp1840
(dp1841
g72
(dp1842
g99
g100
ssg81
g1832
sg74
(lp1843
S':'
asbag67
(g88
g69
NtRp1844
(dp1845
g72
(dp1846
sg81
g1832
sg74
(lp1847
g67
(g68
g69
NtRp1848
(dp1849
g72
(dp1850
g80
I4
ssg81
g1844
sg74
(lp1851
S"<Values at 0x14d30e0: {'verbose': False, 'ip': '127.0.0.1', 'shutdown_timeout': 5, 'taskbar': False, 'nocron': False, 'pid_filename': 'httpserver.pid', 'maxthreads': None, 'softcron': False, 'server_name': 'whisperer', 'bpython': False, 'nogui': False, 'port': 8000, 'extcron': False, 'debuglevel': 30, 'test': None, 'folder': '/home/goshawk/web2py', 'config': '', 'import_models': False, 'winservice': '', 'shell': None, 'run': '', 'log_filename': 'httpserver.log', 'args': [''], 'socket_timeout': 5, 'ssl_ca_certificate': None, 'scheduler': None, 'profiler_filename': None, 'ssl_private_key': '', 'password': 'admin', 'request_queue_size': 5, 'ssl_certificate': '', 'cronjob': False, 'numthreads': None, 'quiet': False, 'interfaces': None, 'minthreads': None, 'timeout': 10, 'plain': False, 'nobanner': False}>"
p1852
asbasbasbag67
(g83
g69
NtRp1853
(dp1854
g72
(dp1855
sg81
g1763
sg74
(lp1856
g67
(g88
g69
NtRp1857
(dp1858
g72
(dp1859
g92
g93
ssg81
g1853
sg74
(lp1860
g763
asbag67
(g88
g69
NtRp1861
(dp1862
g72
(dp1863
g99
g100
ssg81
g1853
sg74
(lp1864
S':'
asbag67
(g88
g69
NtRp1865
(dp1866
g72
(dp1867
sg81
g1853
sg74
(lp1868
g67
(g68
g69
NtRp1869
(dp1870
g72
(dp1871
g80
I4
ssg81
g1865
sg74
(lp1872
S'set([])'
p1873
asbasbasbag67
(g83
g69
NtRp1874
(dp1875
g72
(dp1876
sg81
g1763
sg74
(lp1877
g67
(g88
g69
NtRp1878
(dp1879
g72
(dp1880
g92
g93
ssg81
g1874
sg74
(lp1881
g785
asbag67
(g88
g69
NtRp1882
(dp1883
g72
(dp1884
g99
g100
ssg81
g1874
sg74
(lp1885
S':'
asbag67
(g88
g69
NtRp1886
(dp1887
g72
(dp1888
sg81
g1874
sg74
(lp1889
g67
(g68
g69
NtRp1890
(dp1891
g72
(dp1892
g80
I4
ssg81
g1886
sg74
(lp1893
g110
asbasbasbag67
(g83
g69
NtRp1894
(dp1895
g72
(dp1896
sg81
g1763
sg74
(lp1897
g67
(g88
g69
NtRp1898
(dp1899
g72
(dp1900
g92
g93
ssg81
g1894
sg74
(lp1901
g806
asbag67
(g88
g69
NtRp1902
(dp1903
g72
(dp1904
g99
g100
ssg81
g1894
sg74
(lp1905
S':'
asbag67
(g88
g69
NtRp1906
(dp1907
g72
(dp1908
sg81
g1894
sg74
(lp1909
g67
(g68
g69
NtRp1910
(dp1911
g72
(dp1912
g80
I4
ssg81
g1906
sg74
(lp1913
g819
asbasbasbag67
(g83
g69
NtRp1914
(dp1915
g72
(dp1916
sg81
g1763
sg74
(lp1917
g67
(g88
g69
NtRp1918
(dp1919
g72
(dp1920
g92
g93
ssg81
g1914
sg74
(lp1921
g1026
asbag67
(g88
g69
NtRp1922
(dp1923
g72
(dp1924
g99
g100
ssg81
g1914
sg74
(lp1925
S':'
asbag67
(g88
g69
NtRp1926
(dp1927
g72
(dp1928
sg81
g1914
sg74
(lp1929
g67
(g68
g69
NtRp1930
(dp1931
g72
(dp1932
g80
I4
ssg81
g1926
sg74
(lp1933
g110
asbasbasbag67
(g83
g69
NtRp1934
(dp1935
g72
(dp1936
sg81
g1763
sg74
(lp1937
g67
(g88
g69
NtRp1938
(dp1939
g72
(dp1940
g92
g93
ssg81
g1934
sg74
(lp1941
g1047
asbag67
(g88
g69
NtRp1942
(dp1943
g72
(dp1944
g99
g100
ssg81
g1934
sg74
(lp1945
S':'
asbag67
(g88
g69
NtRp1946
(dp1947
g72
(dp1948
sg81
g1934
sg74
(lp1949
g67
(g68
g69
NtRp1950
(dp1951
g72
(dp1952
g80
I4
ssg81
g1946
sg74
(lp1953
g110
asbasbasbag67
(g83
g69
NtRp1954
(dp1955
g72
(dp1956
sg81
g1763
sg74
(lp1957
g67
(g88
g69
NtRp1958
(dp1959
g72
(dp1960
g92
g93
ssg81
g1954
sg74
(lp1961
g1306
asbag67
(g88
g69
NtRp1962
(dp1963
g72
(dp1964
g99
g100
ssg81
g1954
sg74
(lp1965
S':'
asbag67
(g88
g69
NtRp1966
(dp1967
g72
(dp1968
sg81
g1954
sg74
(lp1969
g67
(g68
g69
NtRp1970
(dp1971
g72
(dp1972
g80
I4
ssg81
g1966
sg74
(lp1973
g1319
asbasbasbag67
(g83
g69
NtRp1974
(dp1975
g72
(dp1976
sg81
g1763
sg74
(lp1977
g67
(g88
g69
NtRp1978
(dp1979
g72
(dp1980
g92
g93
ssg81
g1974
sg74
(lp1981
g1370
asbag67
(g88
g69
NtRp1982
(dp1983
g72
(dp1984
g99
g100
ssg81
g1974
sg74
(lp1985
S':'
asbag67
(g88
g69
NtRp1986
(dp1987
g72
(dp1988
sg81
g1974
sg74
(lp1989
g67
(g68
g69
NtRp1990
(dp1991
g72
(dp1992
g80
I4
ssg81
g1986
sg74
(lp1993
g67
(g76
g69
NtRp1994
(dp1995
g72
(dp1996
g80
I3
ssg81
Nsg74
(lp1997
g67
(g83
g69
NtRp1998
(dp1999
g72
(dp2000
sg81
g1994
sg74
(lp2001
g67
(g88
g69
NtRp2002
(dp2003
g72
(dp2004
sg81
g1998
sg74
(lp2005
g67
(g68
g69
NtRp2006
(dp2007
g72
(dp2008
g80
I3
ssg81
g2002
sg74
(lp2009
S'1'
asbasbasbag67
(g83
g69
NtRp2010
(dp2011
g72
(dp2012
sg81
g1994
sg74
(lp2013
g67
(g88
g69
NtRp2014
(dp2015
g72
(dp2016
sg81
g2010
sg74
(lp2017
g67
(g68
g69
NtRp2018
(dp2019
g72
(dp2020
g80
I3
ssg81
g2014
sg74
(lp2021
S'99'
p2022
asbasbasbag67
(g83
g69
NtRp2023
(dp2024
g72
(dp2025
sg81
g1994
sg74
(lp2026
g67
(g88
g69
NtRp2027
(dp2028
g72
(dp2029
sg81
g2023
sg74
(lp2030
g67
(g68
g69
NtRp2031
(dp2032
g72
(dp2033
g80
I3
ssg81
g2027
sg74
(lp2034
S'7'
asbasbasbag67
(g83
g69
NtRp2035
(dp2036
g72
(dp2037
sg81
g1994
sg74
(lp2038
g67
(g88
g69
NtRp2039
(dp2040
g72
(dp2041
sg81
g2035
sg74
(lp2042
g67
(g68
g69
NtRp2043
(dp2044
g72
(dp2045
g80
I3
ssg81
g2039
sg74
(lp2046
S'datetime.datetime(2012, 3, 4, 22, 12, 8)'
p2047
asbasbasbag67
(g83
g69
NtRp2048
(dp2049
g72
(dp2050
sg81
g1994
sg74
(lp2051
g67
(g88
g69
NtRp2052
(dp2053
g72
(dp2054
sg81
g2048
sg74
(lp2055
g67
(g68
g69
NtRp2056
(dp2057
g72
(dp2058
g80
I3
ssg81
g2052
sg74
(lp2059
g1449
asbasbasbasbasbasbasbasbasbasbasbag67
(g83
g69
NtRp2060
(dp2061
g72
(dp2062
sg81
g77
sg74
(lp2063
g67
(g88
g69
NtRp2064
(dp2065
g72
(dp2066
g92
g93
ssg81
g2060
sg74
(lp2067
S'is_https'
p2068
asbag67
(g88
g69
NtRp2069
(dp2070
g72
(dp2071
g99
g100
ssg81
g2060
sg74
(lp2072
S':'
asbag67
(g88
g69
NtRp2073
(dp2074
g72
(dp2075
sg81
g2060
sg74
(lp2076
g67
(g68
g69
NtRp2077
(dp2078
g72
(dp2079
g80
I5
ssg81
g2073
sg74
(lp2080
g110
asbasbasbag67
(g83
g69
NtRp2081
(dp2082
g72
(dp2083
sg81
g77
sg74
(lp2084
g67
(g88
g69
NtRp2085
(dp2086
g72
(dp2087
g92
g93
ssg81
g2081
sg74
(lp2088
S'is_local'
p2089
asbag67
(g88
g69
NtRp2090
(dp2091
g72
(dp2092
g99
g100
ssg81
g2081
sg74
(lp2093
S':'
asbag67
(g88
g69
NtRp2094
(dp2095
g72
(dp2096
sg81
g2081
sg74
(lp2097
g67
(g68
g69
NtRp2098
(dp2099
g72
(dp2100
g80
I5
ssg81
g2094
sg74
(lp2101
g1558
asbasbasbag67
(g83
g69
NtRp2102
(dp2103
g72
(dp2104
sg81
g77
sg74
(lp2105
g67
(g88
g69
NtRp2106
(dp2107
g72
(dp2108
g92
g93
ssg81
g2102
sg74
(lp2109
S'is_restful'
p2110
asbag67
(g88
g69
NtRp2111
(dp2112
g72
(dp2113
g99
g100
ssg81
g2102
sg74
(lp2114
S':'
asbag67
(g88
g69
NtRp2115
(dp2116
g72
(dp2117
sg81
g2102
sg74
(lp2118
g67
(g68
g69
NtRp2119
(dp2120
g72
(dp2121
g80
I5
ssg81
g2115
sg74
(lp2122
g110
asbasbasbag67
(g83
g69
NtRp2123
(dp2124
g72
(dp2125
sg81
g77
sg74
(lp2126
g67
(g88
g69
NtRp2127
(dp2128
g72
(dp2129
g92
g93
ssg81
g2123
sg74
(lp2130
S'now'
p2131
asbag67
(g88
g69
NtRp2132
(dp2133
g72
(dp2134
g99
g100
ssg81
g2123
sg74
(lp2135
S':'
asbag67
(g88
g69
NtRp2136
(dp2137
g72
(dp2138
sg81
g2123
sg74
(lp2139
g67
(g68
g69
NtRp2140
(dp2141
g72
(dp2142
g80
I5
ssg81
g2136
sg74
(lp2143
S'datetime.datetime(2012, 7, 9, 2, 39, 43, 879884)'
p2144
asbasbasbag67
(g83
g69
NtRp2145
(dp2146
g72
(dp2147
sg81
g77
sg74
(lp2148
g67
(g88
g69
NtRp2149
(dp2150
g72
(dp2151
g92
g93
ssg81
g2145
sg74
(lp2152
S'post_vars'
p2153
asbag67
(g88
g69
NtRp2154
(dp2155
g72
(dp2156
g99
g100
ssg81
g2145
sg74
(lp2157
S':'
asbag67
(g88
g69
NtRp2158
(dp2159
g72
(dp2160
sg81
g2145
sg74
(lp2161
g67
(g68
g69
NtRp2162
(dp2163
g72
(dp2164
g80
I5
ssg81
g2158
sg74
(lp2165
g67
(g76
g69
NtRp2166
(dp2167
g72
(dp2168
g80
I4
ssg81
Nsg74
(lp2169
sbasbasbasbag67
(g83
g69
NtRp2170
(dp2171
g72
(dp2172
sg81
g77
sg74
(lp2173
g67
(g88
g69
NtRp2174
(dp2175
g72
(dp2176
g92
g93
ssg81
g2170
sg74
(lp2177
S'raw_args'
p2178
asbag67
(g88
g69
NtRp2179
(dp2180
g72
(dp2181
g99
g100
ssg81
g2170
sg74
(lp2182
S':'
asbag67
(g88
g69
NtRp2183
(dp2184
g72
(dp2185
sg81
g2170
sg74
(lp2186
g67
(g68
g69
NtRp2187
(dp2188
g72
(dp2189
g80
I5
ssg81
g2183
sg74
(lp2190
g169
asbasbasbag67
(g83
g69
NtRp2191
(dp2192
g72
(dp2193
sg81
g77
sg74
(lp2194
g67
(g88
g69
NtRp2195
(dp2196
g72
(dp2197
g92
g93
ssg81
g2191
sg74
(lp2198
S'url'
p2199
asbag67
(g88
g69
NtRp2200
(dp2201
g72
(dp2202
g99
g100
ssg81
g2191
sg74
(lp2203
S':'
asbag67
(g88
g69
NtRp2204
(dp2205
g72
(dp2206
sg81
g2191
sg74
(lp2207
g67
(g68
g69
NtRp2208
(dp2209
g72
(dp2210
g80
I5
ssg81
g2204
sg74
(lp2211
S'/milo/appadmin/select/db'
p2212
asbasbasbag67
(g83
g69
NtRp2213
(dp2214
g72
(dp2215
sg81
g77
sg74
(lp2216
g67
(g88
g69
NtRp2217
(dp2218
g72
(dp2219
g92
g93
ssg81
g2213
sg74
(lp2220
S'utcnow'
p2221
asbag67
(g88
g69
NtRp2222
(dp2223
g72
(dp2224
g99
g100
ssg81
g2213
sg74
(lp2225
S':'
asbag67
(g88
g69
NtRp2226
(dp2227
g72
(dp2228
sg81
g2213
sg74
(lp2229
g67
(g68
g69
NtRp2230
(dp2231
g72
(dp2232
g80
I5
ssg81
g2226
sg74
(lp2233
S'datetime.datetime(2012, 7, 9, 0, 39, 43, 879909)'
p2234
asbasbasbag67
(g83
g69
NtRp2235
(dp2236
g72
(dp2237
sg81
g77
sg74
(lp2238
g67
(g88
g69
NtRp2239
(dp2240
g72
(dp2241
g92
g93
ssg81
g2235
sg74
(lp2242
S'uuid'
p2243
asbag67
(g88
g69
NtRp2244
(dp2245
g72
(dp2246
g99
g100
ssg81
g2235
sg74
(lp2247
S':'
asbag67
(g88
g69
NtRp2248
(dp2249
g72
(dp2250
sg81
g2235
sg74
(lp2251
g67
(g68
g69
NtRp2252
(dp2253
g72
(dp2254
g80
I5
ssg81
g2248
sg74
(lp2255
S'milo/127.0.0.1.2012-07-09.02-39-43.5280d1d4-7815-420b-966b-b44c70457569'
p2256
asbasbasbag67
(g83
g69
NtRp2257
(dp2258
g72
(dp2259
sg81
g77
sg74
(lp2260
g67
(g88
g69
NtRp2261
(dp2262
g72
(dp2263
g92
g93
ssg81
g2257
sg74
(lp2264
S'vars'
p2265
asbag67
(g88
g69
NtRp2266
(dp2267
g72
(dp2268
g99
g100
ssg81
g2257
sg74
(lp2269
S':'
asbag67
(g88
g69
NtRp2270
(dp2271
g72
(dp2272
sg81
g2257
sg74
(lp2273
g67
(g68
g69
NtRp2274
(dp2275
g72
(dp2276
g80
I5
ssg81
g2270
sg74
(lp2277
g67
(g76
g69
NtRp2278
(dp2279
g72
(dp2280
g80
I4
ssg81
Nsg74
(lp2281
sbasbasbasbag67
(g83
g69
NtRp2282
(dp2283
g72
(dp2284
sg81
g77
sg74
(lp2285
g67
(g88
g69
NtRp2286
(dp2287
g72
(dp2288
g92
g93
ssg81
g2282
sg74
(lp2289
S'wsgi'
p2290
asbag67
(g88
g69
NtRp2291
(dp2292
g72
(dp2293
g99
g100
ssg81
g2282
sg74
(lp2294
S':'
asbag67
(g88
g69
NtRp2295
(dp2296
g72
(dp2297
sg81
g2282
sg74
(lp2298
g67
(g68
g69
NtRp2299
(dp2300
g72
(dp2301
g80
I5
ssg81
g2295
sg74
(lp2302
g67
(g76
g69
NtRp2303
(dp2304
g72
(dp2305
g80
I4
ssg81
Nsg74
(lp2306
g67
(g83
g69
NtRp2307
(dp2308
g72
(dp2309
sg81
g2303
sg74
(lp2310
g67
(g88
g69
NtRp2311
(dp2312
g72
(dp2313
g92
g93
ssg81
g2307
sg74
(lp2314
S'environ'
p2315
asbag67
(g88
g69
NtRp2316
(dp2317
g72
(dp2318
g99
g100
ssg81
g2307
sg74
(lp2319
S':'
asbag67
(g88
g69
NtRp2320
(dp2321
g72
(dp2322
sg81
g2307
sg74
(lp2323
g67
(g68
g69
NtRp2324
(dp2325
g72
(dp2326
g80
I4
ssg81
g2320
sg74
(lp2327
g67
(g76
g69
NtRp2328
(dp2329
g72
(dp2330
g80
I3
ssg81
Nsg74
(lp2331
g67
(g83
g69
NtRp2332
(dp2333
g72
(dp2334
sg81
g2328
sg74
(lp2335
g67
(g88
g69
NtRp2336
(dp2337
g72
(dp2338
g92
g93
ssg81
g2332
sg74
(lp2339
S'HTTP_ACCEPT'
p2340
asbag67
(g88
g69
NtRp2341
(dp2342
g72
(dp2343
g99
g100
ssg81
g2332
sg74
(lp2344
S':'
asbag67
(g88
g69
NtRp2345
(dp2346
g72
(dp2347
sg81
g2332
sg74
(lp2348
g67
(g68
g69
NtRp2349
(dp2350
g72
(dp2351
g80
I3
ssg81
g2345
sg74
(lp2352
g841
asbasbasbag67
(g83
g69
NtRp2353
(dp2354
g72
(dp2355
sg81
g2328
sg74
(lp2356
g67
(g88
g69
NtRp2357
(dp2358
g72
(dp2359
g92
g93
ssg81
g2353
sg74
(lp2360
S'HTTP_ACCEPT_CHARSET'
p2361
asbag67
(g88
g69
NtRp2362
(dp2363
g72
(dp2364
g99
g100
ssg81
g2353
sg74
(lp2365
S':'
asbag67
(g88
g69
NtRp2366
(dp2367
g72
(dp2368
sg81
g2353
sg74
(lp2369
g67
(g68
g69
NtRp2370
(dp2371
g72
(dp2372
g80
I3
ssg81
g2366
sg74
(lp2373
g863
asbasbasbag67
(g83
g69
NtRp2374
(dp2375
g72
(dp2376
sg81
g2328
sg74
(lp2377
g67
(g88
g69
NtRp2378
(dp2379
g72
(dp2380
g92
g93
ssg81
g2374
sg74
(lp2381
S'HTTP_ACCEPT_ENCODING'
p2382
asbag67
(g88
g69
NtRp2383
(dp2384
g72
(dp2385
g99
g100
ssg81
g2374
sg74
(lp2386
S':'
asbag67
(g88
g69
NtRp2387
(dp2388
g72
(dp2389
sg81
g2374
sg74
(lp2390
g67
(g68
g69
NtRp2391
(dp2392
g72
(dp2393
g80
I3
ssg81
g2387
sg74
(lp2394
g885
asbasbasbag67
(g83
g69
NtRp2395
(dp2396
g72
(dp2397
sg81
g2328
sg74
(lp2398
g67
(g88
g69
NtRp2399
(dp2400
g72
(dp2401
g92
g93
ssg81
g2395
sg74
(lp2402
S'HTTP_ACCEPT_LANGUAGE'
p2403
asbag67
(g88
g69
NtRp2404
(dp2405
g72
(dp2406
g99
g100
ssg81
g2395
sg74
(lp2407
S':'
asbag67
(g88
g69
NtRp2408
(dp2409
g72
(dp2410
sg81
g2395
sg74
(lp2411
g67
(g68
g69
NtRp2412
(dp2413
g72
(dp2414
g80
I3
ssg81
g2408
sg74
(lp2415
g907
asbasbasbag67
(g83
g69
NtRp2416
(dp2417
g72
(dp2418
sg81
g2328
sg74
(lp2419
g67
(g88
g69
NtRp2420
(dp2421
g72
(dp2422
g92
g93
ssg81
g2416
sg74
(lp2423
S'HTTP_CACHE_CONTROL'
p2424
asbag67
(g88
g69
NtRp2425
(dp2426
g72
(dp2427
g99
g100
ssg81
g2416
sg74
(lp2428
S':'
asbag67
(g88
g69
NtRp2429
(dp2430
g72
(dp2431
sg81
g2416
sg74
(lp2432
g67
(g68
g69
NtRp2433
(dp2434
g72
(dp2435
g80
I3
ssg81
g2429
sg74
(lp2436
g929
asbasbasbag67
(g83
g69
NtRp2437
(dp2438
g72
(dp2439
sg81
g2328
sg74
(lp2440
g67
(g88
g69
NtRp2441
(dp2442
g72
(dp2443
g92
g93
ssg81
g2437
sg74
(lp2444
S'HTTP_CONNECTION'
p2445
asbag67
(g88
g69
NtRp2446
(dp2447
g72
(dp2448
g99
g100
ssg81
g2437
sg74
(lp2449
S':'
asbag67
(g88
g69
NtRp2450
(dp2451
g72
(dp2452
sg81
g2437
sg74
(lp2453
g67
(g68
g69
NtRp2454
(dp2455
g72
(dp2456
g80
I3
ssg81
g2450
sg74
(lp2457
g951
asbasbasbag67
(g83
g69
NtRp2458
(dp2459
g72
(dp2460
sg81
g2328
sg74
(lp2461
g67
(g88
g69
NtRp2462
(dp2463
g72
(dp2464
g92
g93
ssg81
g2458
sg74
(lp2465
S'HTTP_COOKIE'
p2466
asbag67
(g88
g69
NtRp2467
(dp2468
g72
(dp2469
g99
g100
ssg81
g2458
sg74
(lp2470
S':'
asbag67
(g88
g69
NtRp2471
(dp2472
g72
(dp2473
sg81
g2458
sg74
(lp2474
g67
(g68
g69
NtRp2475
(dp2476
g72
(dp2477
g80
I3
ssg81
g2471
sg74
(lp2478
g973
asbasbasbag67
(g83
g69
NtRp2479
(dp2480
g72
(dp2481
sg81
g2328
sg74
(lp2482
g67
(g88
g69
NtRp2483
(dp2484
g72
(dp2485
g92
g93
ssg81
g2479
sg74
(lp2486
S'HTTP_HOST'
p2487
asbag67
(g88
g69
NtRp2488
(dp2489
g72
(dp2490
g99
g100
ssg81
g2479
sg74
(lp2491
S':'
asbag67
(g88
g69
NtRp2492
(dp2493
g72
(dp2494
sg81
g2479
sg74
(lp2495
g67
(g68
g69
NtRp2496
(dp2497
g72
(dp2498
g80
I3
ssg81
g2492
sg74
(lp2499
g995
asbasbasbag67
(g83
g69
NtRp2500
(dp2501
g72
(dp2502
sg81
g2328
sg74
(lp2503
g67
(g88
g69
NtRp2504
(dp2505
g72
(dp2506
g92
g93
ssg81
g2500
sg74
(lp2507
S'HTTP_USER_AGENT'
p2508
asbag67
(g88
g69
NtRp2509
(dp2510
g72
(dp2511
g99
g100
ssg81
g2500
sg74
(lp2512
S':'
asbag67
(g88
g69
NtRp2513
(dp2514
g72
(dp2515
sg81
g2500
sg74
(lp2516
g67
(g68
g69
NtRp2517
(dp2518
g72
(dp2519
g80
I3
ssg81
g2513
sg74
(lp2520
g1017
asbasbasbag67
(g83
g69
NtRp2521
(dp2522
g72
(dp2523
sg81
g2328
sg74
(lp2524
g67
(g88
g69
NtRp2525
(dp2526
g72
(dp2527
g92
g93
ssg81
g2521
sg74
(lp2528
S'PATH_INFO'
p2529
asbag67
(g88
g69
NtRp2530
(dp2531
g72
(dp2532
g99
g100
ssg81
g2521
sg74
(lp2533
S':'
asbag67
(g88
g69
NtRp2534
(dp2535
g72
(dp2536
sg81
g2521
sg74
(lp2537
g67
(g68
g69
NtRp2538
(dp2539
g72
(dp2540
g80
I3
ssg81
g2534
sg74
(lp2541
g1081
asbasbasbag67
(g83
g69
NtRp2542
(dp2543
g72
(dp2544
sg81
g2328
sg74
(lp2545
g67
(g88
g69
NtRp2546
(dp2547
g72
(dp2548
g92
g93
ssg81
g2542
sg74
(lp2549
S'QUERY_STRING'
p2550
asbag67
(g88
g69
NtRp2551
(dp2552
g72
(dp2553
g99
g100
ssg81
g2542
sg74
(lp2554
S':'
asbag67
(g88
g69
NtRp2555
(dp2556
g72
(dp2557
sg81
g2542
sg74
(lp2558
g67
(g68
g69
NtRp2559
(dp2560
g72
(dp2561
g80
I3
ssg81
g2555
sg74
(lp2562
S''
asbasbasbag67
(g83
g69
NtRp2563
(dp2564
g72
(dp2565
sg81
g2328
sg74
(lp2566
g67
(g88
g69
NtRp2567
(dp2568
g72
(dp2569
g92
g93
ssg81
g2563
sg74
(lp2570
S'REMOTE_ADDR'
p2571
asbag67
(g88
g69
NtRp2572
(dp2573
g72
(dp2574
g99
g100
ssg81
g2563
sg74
(lp2575
S':'
asbag67
(g88
g69
NtRp2576
(dp2577
g72
(dp2578
sg81
g2563
sg74
(lp2579
g67
(g68
g69
NtRp2580
(dp2581
g72
(dp2582
g80
I3
ssg81
g2576
sg74
(lp2583
g213
asbasbasbag67
(g83
g69
NtRp2584
(dp2585
g72
(dp2586
sg81
g2328
sg74
(lp2587
g67
(g88
g69
NtRp2588
(dp2589
g72
(dp2590
g92
g93
ssg81
g2584
sg74
(lp2591
S'REMOTE_PORT'
p2592
asbag67
(g88
g69
NtRp2593
(dp2594
g72
(dp2595
g99
g100
ssg81
g2584
sg74
(lp2596
S':'
asbag67
(g88
g69
NtRp2597
(dp2598
g72
(dp2599
sg81
g2584
sg74
(lp2600
g67
(g68
g69
NtRp2601
(dp2602
g72
(dp2603
g80
I3
ssg81
g2597
sg74
(lp2604
g1145
asbasbasbag67
(g83
g69
NtRp2605
(dp2606
g72
(dp2607
sg81
g2328
sg74
(lp2608
g67
(g88
g69
NtRp2609
(dp2610
g72
(dp2611
g92
g93
ssg81
g2605
sg74
(lp2612
S'REQUEST_METHOD'
p2613
asbag67
(g88
g69
NtRp2614
(dp2615
g72
(dp2616
g99
g100
ssg81
g2605
sg74
(lp2617
S':'
asbag67
(g88
g69
NtRp2618
(dp2619
g72
(dp2620
sg81
g2605
sg74
(lp2621
g67
(g68
g69
NtRp2622
(dp2623
g72
(dp2624
g80
I3
ssg81
g2618
sg74
(lp2625
g1167
asbasbasbag67
(g83
g69
NtRp2626
(dp2627
g72
(dp2628
sg81
g2328
sg74
(lp2629
g67
(g88
g69
NtRp2630
(dp2631
g72
(dp2632
g92
g93
ssg81
g2626
sg74
(lp2633
S'REQUEST_URI'
p2634
asbag67
(g88
g69
NtRp2635
(dp2636
g72
(dp2637
g99
g100
ssg81
g2626
sg74
(lp2638
S':'
asbag67
(g88
g69
NtRp2639
(dp2640
g72
(dp2641
sg81
g2626
sg74
(lp2642
g67
(g68
g69
NtRp2643
(dp2644
g72
(dp2645
g80
I3
ssg81
g2639
sg74
(lp2646
g1081
asbasbasbag67
(g83
g69
NtRp2647
(dp2648
g72
(dp2649
sg81
g2328
sg74
(lp2650
g67
(g88
g69
NtRp2651
(dp2652
g72
(dp2653
g92
g93
ssg81
g2647
sg74
(lp2654
S'SCRIPT_NAME'
p2655
asbag67
(g88
g69
NtRp2656
(dp2657
g72
(dp2658
g99
g100
ssg81
g2647
sg74
(lp2659
S':'
asbag67
(g88
g69
NtRp2660
(dp2661
g72
(dp2662
sg81
g2647
sg74
(lp2663
g67
(g68
g69
NtRp2664
(dp2665
g72
(dp2666
g80
I3
ssg81
g2660
sg74
(lp2667
S''
asbasbasbag67
(g83
g69
NtRp2668
(dp2669
g72
(dp2670
sg81
g2328
sg74
(lp2671
g67
(g88
g69
NtRp2672
(dp2673
g72
(dp2674
g92
g93
ssg81
g2668
sg74
(lp2675
S'SERVER_NAME'
p2676
asbag67
(g88
g69
NtRp2677
(dp2678
g72
(dp2679
g99
g100
ssg81
g2668
sg74
(lp2680
S':'
asbag67
(g88
g69
NtRp2681
(dp2682
g72
(dp2683
sg81
g2668
sg74
(lp2684
g67
(g68
g69
NtRp2685
(dp2686
g72
(dp2687
g80
I3
ssg81
g2681
sg74
(lp2688
g1231
asbasbasbag67
(g83
g69
NtRp2689
(dp2690
g72
(dp2691
sg81
g2328
sg74
(lp2692
g67
(g88
g69
NtRp2693
(dp2694
g72
(dp2695
g92
g93
ssg81
g2689
sg74
(lp2696
S'SERVER_PORT'
p2697
asbag67
(g88
g69
NtRp2698
(dp2699
g72
(dp2700
g99
g100
ssg81
g2689
sg74
(lp2701
S':'
asbag67
(g88
g69
NtRp2702
(dp2703
g72
(dp2704
sg81
g2689
sg74
(lp2705
g67
(g68
g69
NtRp2706
(dp2707
g72
(dp2708
g80
I3
ssg81
g2702
sg74
(lp2709
g1253
asbasbasbag67
(g83
g69
NtRp2710
(dp2711
g72
(dp2712
sg81
g2328
sg74
(lp2713
g67
(g88
g69
NtRp2714
(dp2715
g72
(dp2716
g92
g93
ssg81
g2710
sg74
(lp2717
S'SERVER_PROTOCOL'
p2718
asbag67
(g88
g69
NtRp2719
(dp2720
g72
(dp2721
g99
g100
ssg81
g2710
sg74
(lp2722
S':'
asbag67
(g88
g69
NtRp2723
(dp2724
g72
(dp2725
sg81
g2710
sg74
(lp2726
g67
(g68
g69
NtRp2727
(dp2728
g72
(dp2729
g80
I3
ssg81
g2723
sg74
(lp2730
g1275
asbasbasbag67
(g83
g69
NtRp2731
(dp2732
g72
(dp2733
sg81
g2328
sg74
(lp2734
g67
(g88
g69
NtRp2735
(dp2736
g72
(dp2737
g92
g93
ssg81
g2731
sg74
(lp2738
S'SERVER_SOFTWARE'
p2739
asbag67
(g88
g69
NtRp2740
(dp2741
g72
(dp2742
g99
g100
ssg81
g2731
sg74
(lp2743
S':'
asbag67
(g88
g69
NtRp2744
(dp2745
g72
(dp2746
sg81
g2731
sg74
(lp2747
g67
(g68
g69
NtRp2748
(dp2749
g72
(dp2750
g80
I3
ssg81
g2744
sg74
(lp2751
g1297
asbasbasbag67
(g83
g69
NtRp2752
(dp2753
g72
(dp2754
sg81
g2328
sg74
(lp2755
g67
(g88
g69
NtRp2756
(dp2757
g72
(dp2758
g92
g93
ssg81
g2752
sg74
(lp2759
S'WEB2PY_ORIGINAL_URI'
p2760
asbag67
(g88
g69
NtRp2761
(dp2762
g72
(dp2763
g99
g100
ssg81
g2752
sg74
(lp2764
S':'
asbag67
(g88
g69
NtRp2765
(dp2766
g72
(dp2767
sg81
g2752
sg74
(lp2768
g67
(g68
g69
NtRp2769
(dp2770
g72
(dp2771
g80
I3
ssg81
g2765
sg74
(lp2772
g1081
asbasbasbag67
(g83
g69
NtRp2773
(dp2774
g72
(dp2775
sg81
g2328
sg74
(lp2776
g67
(g88
g69
NtRp2777
(dp2778
g72
(dp2779
g92
g93
ssg81
g2773
sg74
(lp2780
S'wsgi.errors'
p2781
asbag67
(g88
g69
NtRp2782
(dp2783
g72
(dp2784
g99
g100
ssg81
g2773
sg74
(lp2785
S':'
asbag67
(g88
g69
NtRp2786
(dp2787
g72
(dp2788
sg81
g2773
sg74
(lp2789
g67
(g68
g69
NtRp2790
(dp2791
g72
(dp2792
g80
I3
ssg81
g2786
sg74
(lp2793
S"<open file '<stderr>', mode 'w' at 0x7f13cb382270>"
p2794
asbasbasbag67
(g83
g69
NtRp2795
(dp2796
g72
(dp2797
sg81
g2328
sg74
(lp2798
g67
(g88
g69
NtRp2799
(dp2800
g72
(dp2801
g92
g93
ssg81
g2795
sg74
(lp2802
S'wsgi.file_wrapper'
p2803
asbag67
(g88
g69
NtRp2804
(dp2805
g72
(dp2806
g99
g100
ssg81
g2795
sg74
(lp2807
S':'
asbag67
(g88
g69
NtRp2808
(dp2809
g72
(dp2810
sg81
g2795
sg74
(lp2811
g67
(g68
g69
NtRp2812
(dp2813
g72
(dp2814
g80
I3
ssg81
g2808
sg74
(lp2815
S'<class wsgiref.util.FileWrapper at 0x13fff58>'
p2816
asbasbasbag67
(g83
g69
NtRp2817
(dp2818
g72
(dp2819
sg81
g2328
sg74
(lp2820
g67
(g88
g69
NtRp2821
(dp2822
g72
(dp2823
g92
g93
ssg81
g2817
sg74
(lp2824
S'wsgi.input'
p2825
asbag67
(g88
g69
NtRp2826
(dp2827
g72
(dp2828
g99
g100
ssg81
g2817
sg74
(lp2829
S':'
asbag67
(g88
g69
NtRp2830
(dp2831
g72
(dp2832
sg81
g2817
sg74
(lp2833
g67
(g68
g69
NtRp2834
(dp2835
g72
(dp2836
g80
I3
ssg81
g2830
sg74
(lp2837
S'<cStringIO.StringO object at 0x7f13b09c9148>'
p2838
asbasbasbag67
(g83
g69
NtRp2839
(dp2840
g72
(dp2841
sg81
g2328
sg74
(lp2842
g67
(g88
g69
NtRp2843
(dp2844
g72
(dp2845
g92
g93
ssg81
g2839
sg74
(lp2846
S'wsgi.multiprocess'
p2847
asbag67
(g88
g69
NtRp2848
(dp2849
g72
(dp2850
g99
g100
ssg81
g2839
sg74
(lp2851
S':'
asbag67
(g88
g69
NtRp2852
(dp2853
g72
(dp2854
sg81
g2839
sg74
(lp2855
g67
(g68
g69
NtRp2856
(dp2857
g72
(dp2858
g80
I3
ssg81
g2852
sg74
(lp2859
g110
asbasbasbag67
(g83
g69
NtRp2860
(dp2861
g72
(dp2862
sg81
g2328
sg74
(lp2863
g67
(g88
g69
NtRp2864
(dp2865
g72
(dp2866
g92
g93
ssg81
g2860
sg74
(lp2867
S'wsgi.multithread'
p2868
asbag67
(g88
g69
NtRp2869
(dp2870
g72
(dp2871
g99
g100
ssg81
g2860
sg74
(lp2872
S':'
asbag67
(g88
g69
NtRp2873
(dp2874
g72
(dp2875
sg81
g2860
sg74
(lp2876
g67
(g68
g69
NtRp2877
(dp2878
g72
(dp2879
g80
I3
ssg81
g2873
sg74
(lp2880
g1558
asbasbasbag67
(g83
g69
NtRp2881
(dp2882
g72
(dp2883
sg81
g2328
sg74
(lp2884
g67
(g88
g69
NtRp2885
(dp2886
g72
(dp2887
g92
g93
ssg81
g2881
sg74
(lp2888
S'wsgi.run_once'
p2889
asbag67
(g88
g69
NtRp2890
(dp2891
g72
(dp2892
g99
g100
ssg81
g2881
sg74
(lp2893
S':'
asbag67
(g88
g69
NtRp2894
(dp2895
g72
(dp2896
sg81
g2881
sg74
(lp2897
g67
(g68
g69
NtRp2898
(dp2899
g72
(dp2900
g80
I3
ssg81
g2894
sg74
(lp2901
g110
asbasbasbag67
(g83
g69
NtRp2902
(dp2903
g72
(dp2904
sg81
g2328
sg74
(lp2905
g67
(g88
g69
NtRp2906
(dp2907
g72
(dp2908
g92
g93
ssg81
g2902
sg74
(lp2909
S'wsgi.url_scheme'
p2910
asbag67
(g88
g69
NtRp2911
(dp2912
g72
(dp2913
g99
g100
ssg81
g2902
sg74
(lp2914
S':'
asbag67
(g88
g69
NtRp2915
(dp2916
g72
(dp2917
sg81
g2902
sg74
(lp2918
g67
(g68
g69
NtRp2919
(dp2920
g72
(dp2921
g80
I3
ssg81
g2915
sg74
(lp2922
g1601
asbasbasbag67
(g83
g69
NtRp2923
(dp2924
g72
(dp2925
sg81
g2328
sg74
(lp2926
g67
(g88
g69
NtRp2927
(dp2928
g72
(dp2929
g92
g93
ssg81
g2923
sg74
(lp2930
S'wsgi.version'
p2931
asbag67
(g88
g69
NtRp2932
(dp2933
g72
(dp2934
g99
g100
ssg81
g2923
sg74
(lp2935
S':'
asbag67
(g88
g69
NtRp2936
(dp2937
g72
(dp2938
sg81
g2923
sg74
(lp2939
g67
(g68
g69
NtRp2940
(dp2941
g72
(dp2942
g80
I3
ssg81
g2936
sg74
(lp2943
S'1'
asbasbasbasbasbasbasbasbasbasbasbasbasbsS'frames'
p2944
(lp2945
(dp2946
S'file'
p2947
S'/home/goshawk/web2py/gluon/restricted.py'
p2948
sS'dump'
p2949
(dp2950
S'environment'
p2951
S"{'A': <class 'gluon.html.A'>, 'Auth': <class 'gluon.tools.Auth'>, 'B': <class 'gluon.html.B'>, 'BEAUTIFY': <class 'gluon.html.BEAUTIFY'>, 'BODY': <class 'gluon.html.BODY'>, 'BR': <class 'gluon.html.BR'>, 'BUTTON': <class 'gluon.html.BUTTON'>, 'CAT': <class 'gluon.html.CAT'>, 'CENTER': <class 'gluon.html.CENTER'>, 'CLEANUP': <class 'gluon.validators.CLEANUP'>, ...}"
p2952
sS'ccode'
p2953
S'<code object <module> at 0x7f13b09c8430, file "/.../web2py/applications/milo/models/db.py", line 12>'
p2954
ssS'lnum'
p2955
I205
sS'lines'
p2956
(dp2957
I200
S'    try:'
p2958
sI201
S'        if type(code) == types.CodeType:'
p2959
sI202
S'            ccode = code'
p2960
sI203
S'        else:'
p2961
sI204
S'            ccode = compile2(code,layer)'
p2962
sI205
S'        exec ccode in environment'
p2963
sI206
S'    except HTTP:'
p2964
sI207
S'        raise'
p2965
sI208
S'    except RestrictedError:'
p2966
sI209
S'        # do not encapsulate (obfuscate) the original RestrictedError'
p2967
ssS'call'
p2968
S'(code="# -*- coding: utf-8 -*-\\n\\n#######################...t)),\\n        Field(\'times\', \'integer\')\\n        )\\n", environment={\'A\': <class \'gluon.html.A\'>, \'Auth\': <class \'gluon.tools.Auth\'>, \'B\': <class \'gluon.html.B\'>, \'BEAUTIFY\': <class \'gluon.html.BEAUTIFY\'>, \'BODY\': <class \'gluon.html.BODY\'>, \'BR\': <class \'gluon.html.BR\'>, \'BUTTON\': <class \'gluon.html.BUTTON\'>, \'CAT\': <class \'gluon.html.CAT\'>, \'CENTER\': <class \'gluon.html.CENTER\'>, \'CLEANUP\': <class \'gluon.validators.CLEANUP\'>, ...}, layer=\'/home/goshawk/web2py/applications/milo/models/db.py\')'
p2969
sS'func'
p2970
S'restricted'
p2971
sa(dp2972
g2947
S'/home/goshawk/web2py/applications/milo/models/db.py'
p2973
sg2949
(dp2974
S'db.executesql'
p2975
S"<bound method DAL.executesql of <DAL {'auth_even...: <gluon.dal.Field object at 0x7f13b09c5550>}>}>>"
p2976
sS'db'
p2977
S"<DAL {'auth_event': <Table {'origin': <gluon.dal...': <gluon.dal.Field object at 0x7f13b09c5550>}>}>"
p2978
ssg2955
I105
sg2956
(dp2979
I100
S"        Field('iuser', db.users, requires = IS_IN_DB(db,'users.id',db.users._format)),"
p2980
sI101
S"        Field('imovie', db.movies, requires = IS_IN_DB(db,'movies.id',db.movies._format)),"
p2981
sI102
S"        Field('rating', 'double')"
p2982
sI103
S'        )'
p2983
sI104
S''
sI105
S"db.executesql('CREATE INDEX IF NOT EXISTS iuser_imovie ON ratings (iuser,imovie);')"
p2984
sI106
S''
sI107
S''
sI108
S"db.define_table('features',"
p2985
sI109
S"        Field('name'),"
p2986
ssg2968
S'()'
p2987
sg2970
S'<module>'
p2988
sa(dp2989
g2947
S'/home/goshawk/web2py/gluon/dal.py'
p2990
sg2949
(dp2991
S'query'
p2992
S"'CREATE INDEX IF NOT EXISTS iuser_imovie ON ratings (iuser,imovie);'"
p2993
sS'self'
p2994
S"<DAL {'auth_event': <Table {'origin': <gluon.dal...': <gluon.dal.Field object at 0x7f13b09c5550>}>}>"
p2995
sS'self._adapter'
p2996
S'<gluon.dal.PostgreSQLAdapter object>'
p2997
sS'self._adapter.execute'
p2998
S'<bound method PostgreSQLAdapter.execute of <gluon.dal.PostgreSQLAdapter object>>'
p2999
ssg2955
I6394
sg2956
(dp3000
I6389
S'        --bmeredyk'
p3001
sI6390
S'        """'
p3002
sI6391
S'        if placeholders:'
p3003
sI6392
S'            self._adapter.execute(query, placeholders)'
p3004
sI6393
S'        else:'
p3005
sI6394
S'            self._adapter.execute(query)'
p3006
sI6395
S'        if as_dict:'
p3007
sI6396
S"            if not hasattr(self._adapter.cursor,'description'):"
p3008
sI6397
S'                raise RuntimeError, "database does not support executesql(...,as_dict=True)"'
p3009
sI6398
S'            # Non-DAL legacy db query, converts cursor results to dict.'
p3010
ssg2968
S"(self=<DAL {'auth_event': <Table {'origin': <gluon.dal...': <gluon.dal.Field object at 0x7f13b09c5550>}>}>, query='CREATE INDEX IF NOT EXISTS iuser_imovie ON ratings (iuser,imovie);', placeholders=None, as_dict=False)"
p3011
sg2970
S'executesql'
p3012
sa(dp3013
g2947
S'/home/goshawk/web2py/gluon/dal.py'
p3014
sg2949
(dp3015
S'a'
S"('CREATE INDEX IF NOT EXISTS iuser_imovie ON ratings (iuser,imovie);',)"
p3016
sS'self'
p3017
S'<gluon.dal.PostgreSQLAdapter object>'
p3018
sS'b'
S'{}'
p3019
sS'self.log_execute'
p3020
S'<bound method PostgreSQLAdapter.log_execute of <gluon.dal.PostgreSQLAdapter object>>'
p3021
ssg2955
I1392
sg2956
(dp3022
I1387
S'        self.db._timings.append((a[0],time.time()-t0))'
p3023
sI1388
S'        del self.db._timings[:-TIMINGSSIZE]'
p3024
sI1389
S'        return ret'
p3025
sI1390
S''
sI1391
S'    def execute(self, *a, **b):'
p3026
sI1392
S'        return self.log_execute(*a, **b)'
p3027
sI1393
S''
sI1394
S'    def represent(self, obj, fieldtype):'
p3028
sI1395
S'        if isinstance(obj, CALLABLETYPES):'
p3029
sI1396
S'            obj = obj()'
p3030
ssg2968
S"(self=<gluon.dal.PostgreSQLAdapter object>, *a=('CREATE INDEX IF NOT EXISTS iuser_imovie ON ratings (iuser,imovie);',), **b={})"
p3031
sg2970
S'execute'
p3032
sa(dp3033
g2947
S'/home/goshawk/web2py/gluon/dal.py'
p3034
sg2949
(dp3035
S'a'
S"('CREATE INDEX IF NOT EXISTS iuser_imovie ON ratings (iuser,imovie);',)"
p3036
sS'b'
g3019
sS'self'
p3037
S'<gluon.dal.PostgreSQLAdapter object>'
p3038
sS'ret'
p3039
S'undefined'
p3040
sS'self.cursor'
p3041
S'<cursor object at 0x7f138c4a6050; closed: 0>'
p3042
sS'self.cursor.execute'
p3043
S'<built-in method execute of psycopg2._psycopg.cursor object>'
p3044
ssg2955
I1386
sg2956
(dp3045
I1381
S'        self.execute(query)'
p3046
sI1382
S''
sI1383
S'    def log_execute(self, *a, **b):'
p3047
sI1384
S'        self.db._lastsql = a[0]'
p3048
sI1385
S'        t0 = time.time()'
p3049
sI1386
S'        ret = self.cursor.execute(*a, **b)'
p3050
sI1387
S'        self.db._timings.append((a[0],time.time()-t0))'
p3051
sI1388
S'        del self.db._timings[:-TIMINGSSIZE]'
p3052
sI1389
S'        return ret'
p3053
sI1390
S''
ssg2968
S"(self=<gluon.dal.PostgreSQLAdapter object>, *a=('CREATE INDEX IF NOT EXISTS iuser_imovie ON ratings (iuser,imovie);',), **b={})"
p3054
sg2970
S'log_execute'
p3055
sasS'pyver'
p3056
S'Python 2.7.3: /usr/bin/python'
p3057
sS'session'
p3058
g67
(g68
g69
NtRp3059
(dp3060
g72
(dp3061
sg74
(lp3062
g67
(g76
g69
NtRp3063
(dp3064
g72
(dp3065
g80
I5
ssg81
Nsg74
(lp3066
g67
(g83
g69
NtRp3067
(dp3068
g72
(dp3069
sg81
g3063
sg74
(lp3070
g67
(g88
g69
NtRp3071
(dp3072
g72
(dp3073
g92
g93
ssg81
g3067
sg74
(lp3074
S'last_query'
p3075
asbag67
(g88
g69
NtRp3076
(dp3077
g72
(dp3078
g99
g100
ssg81
g3067
sg74
(lp3079
S':'
asbag67
(g88
g69
NtRp3080
(dp3081
g72
(dp3082
sg81
g3067
sg74
(lp3083
g67
(g68
g69
NtRp3084
(dp3085
g72
(dp3086
g80
I5
ssg81
g3080
sg74
(lp3087
S'(db.ratings.id>0)&(db.ratings.iuser==4)&(db.ratings.imovie==4505)'
p3088
asbasbasbasbasbsS'etype'
p3089
S"<class 'psycopg2.ProgrammingError'>"
p3090
sS'date'
p3091
S'Mon Jul  9 02:39:43 2012'
p3092
sS'response'
p3093
g67
(g68
g69
NtRp3094
(dp3095
g72
(dp3096
sg74
(lp3097
g67
(g76
g69
NtRp3098
(dp3099
g72
(dp3100
g80
I5
ssg81
Nsg74
(lp3101
g67
(g83
g69
NtRp3102
(dp3103
g72
(dp3104
sg81
g3098
sg74
(lp3105
g67
(g88
g69
NtRp3106
(dp3107
g72
(dp3108
g92
g93
ssg81
g3102
sg74
(lp3109
g178
asbag67
(g88
g69
NtRp3110
(dp3111
g72
(dp3112
g99
g100
ssg81
g3102
sg74
(lp3113
S':'
asbag67
(g88
g69
NtRp3114
(dp3115
g72
(dp3116
sg81
g3102
sg74
(lp3117
g67
(g68
g69
NtRp3118
(dp3119
g72
(dp3120
g80
I5
ssg81
g3114
sg74
(lp3121
S'<cStringIO.StringO object at 0x7f13b09c9618>'
p3122
asbasbasbag67
(g83
g69
NtRp3123
(dp3124
g72
(dp3125
sg81
g3098
sg74
(lp3126
g67
(g88
g69
NtRp3127
(dp3128
g72
(dp3129
g92
g93
ssg81
g3123
sg74
(lp3130
g244
asbag67
(g88
g69
NtRp3131
(dp3132
g72
(dp3133
g99
g100
ssg81
g3123
sg74
(lp3134
S':'
asbag67
(g88
g69
NtRp3135
(dp3136
g72
(dp3137
sg81
g3123
sg74
(lp3138
g67
(g68
g69
NtRp3139
(dp3140
g72
(dp3141
g80
I5
ssg81
g3135
sg74
(lp3142
g67
(g76
g69
NtRp3143
(dp3144
g72
(dp3145
g80
I4
ssg81
Nsg74
(lp3146
g67
(g83
g69
NtRp3147
(dp3148
g72
(dp3149
sg81
g3143
sg74
(lp3150
g67
(g88
g69
NtRp3151
(dp3152
g72
(dp3153
g92
g93
ssg81
g3147
sg74
(lp3154
S'session_id_milo'
p3155
asbag67
(g88
g69
NtRp3156
(dp3157
g72
(dp3158
g99
g100
ssg81
g3147
sg74
(lp3159
S':'
asbag67
(g88
g69
NtRp3160
(dp3161
g72
(dp3162
sg81
g3147
sg74
(lp3163
g67
(g68
g69
NtRp3164
(dp3165
g72
(dp3166
g80
I4
ssg81
g3160
sg74
(lp3167
g67
(g76
g69
NtRp3168
(dp3169
g72
(dp3170
g80
I3
ssg81
Nsg74
(lp3171
g67
(g83
g69
NtRp3172
(dp3173
g72
(dp3174
sg81
g3168
sg74
(lp3175
g67
(g88
g69
NtRp3176
(dp3177
g72
(dp3178
g92
g93
ssg81
g3172
sg74
(lp3179
g294
asbag67
(g88
g69
NtRp3180
(dp3181
g72
(dp3182
g99
g100
ssg81
g3172
sg74
(lp3183
S':'
asbag67
(g88
g69
NtRp3184
(dp3185
g72
(dp3186
sg81
g3172
sg74
(lp3187
g67
(g68
g69
NtRp3188
(dp3189
g72
(dp3190
g80
I3
ssg81
g3184
sg74
(lp3191
S''
asbasbasbag67
(g83
g69
NtRp3192
(dp3193
g72
(dp3194
sg81
g3168
sg74
(lp3195
g67
(g88
g69
NtRp3196
(dp3197
g72
(dp3198
g92
g93
ssg81
g3192
sg74
(lp3199
g315
asbag67
(g88
g69
NtRp3200
(dp3201
g72
(dp3202
g99
g100
ssg81
g3192
sg74
(lp3203
S':'
asbag67
(g88
g69
NtRp3204
(dp3205
g72
(dp3206
sg81
g3192
sg74
(lp3207
g67
(g68
g69
NtRp3208
(dp3209
g72
(dp3210
g80
I3
ssg81
g3204
sg74
(lp3211
S''
asbasbasbag67
(g83
g69
NtRp3212
(dp3213
g72
(dp3214
sg81
g3168
sg74
(lp3215
g67
(g88
g69
NtRp3216
(dp3217
g72
(dp3218
g92
g93
ssg81
g3212
sg74
(lp3219
g336
asbag67
(g88
g69
NtRp3220
(dp3221
g72
(dp3222
g99
g100
ssg81
g3212
sg74
(lp3223
S':'
asbag67
(g88
g69
NtRp3224
(dp3225
g72
(dp3226
sg81
g3212
sg74
(lp3227
g67
(g68
g69
NtRp3228
(dp3229
g72
(dp3230
g80
I3
ssg81
g3224
sg74
(lp3231
S''
asbasbasbag67
(g83
g69
NtRp3232
(dp3233
g72
(dp3234
sg81
g3168
sg74
(lp3235
g67
(g88
g69
NtRp3236
(dp3237
g72
(dp3238
g92
g93
ssg81
g3232
sg74
(lp3239
g357
asbag67
(g88
g69
NtRp3240
(dp3241
g72
(dp3242
g99
g100
ssg81
g3232
sg74
(lp3243
S':'
asbag67
(g88
g69
NtRp3244
(dp3245
g72
(dp3246
sg81
g3232
sg74
(lp3247
g67
(g68
g69
NtRp3248
(dp3249
g72
(dp3250
g80
I3
ssg81
g3244
sg74
(lp3251
S''
asbasbasbag67
(g83
g69
NtRp3252
(dp3253
g72
(dp3254
sg81
g3168
sg74
(lp3255
g67
(g88
g69
NtRp3256
(dp3257
g72
(dp3258
g92
g93
ssg81
g3252
sg74
(lp3259
g378
asbag67
(g88
g69
NtRp3260
(dp3261
g72
(dp3262
g99
g100
ssg81
g3252
sg74
(lp3263
S':'
asbag67
(g88
g69
NtRp3264
(dp3265
g72
(dp3266
sg81
g3252
sg74
(lp3267
g67
(g68
g69
NtRp3268
(dp3269
g72
(dp3270
g80
I3
ssg81
g3264
sg74
(lp3271
S''
asbasbasbag67
(g83
g69
NtRp3272
(dp3273
g72
(dp3274
sg81
g3168
sg74
(lp3275
g67
(g88
g69
NtRp3276
(dp3277
g72
(dp3278
g92
g93
ssg81
g3272
sg74
(lp3279
g399
asbag67
(g88
g69
NtRp3280
(dp3281
g72
(dp3282
g99
g100
ssg81
g3272
sg74
(lp3283
S':'
asbag67
(g88
g69
NtRp3284
(dp3285
g72
(dp3286
sg81
g3272
sg74
(lp3287
g67
(g68
g69
NtRp3288
(dp3289
g72
(dp3290
g80
I3
ssg81
g3284
sg74
(lp3291
S'/'
asbasbasbag67
(g83
g69
NtRp3292
(dp3293
g72
(dp3294
sg81
g3168
sg74
(lp3295
g67
(g88
g69
NtRp3296
(dp3297
g72
(dp3298
g92
g93
ssg81
g3292
sg74
(lp3299
g420
asbag67
(g88
g69
NtRp3300
(dp3301
g72
(dp3302
g99
g100
ssg81
g3292
sg74
(lp3303
S':'
asbag67
(g88
g69
NtRp3304
(dp3305
g72
(dp3306
sg81
g3292
sg74
(lp3307
g67
(g68
g69
NtRp3308
(dp3309
g72
(dp3310
g80
I3
ssg81
g3304
sg74
(lp3311
S''
asbasbasbag67
(g83
g69
NtRp3312
(dp3313
g72
(dp3314
sg81
g3168
sg74
(lp3315
g67
(g88
g69
NtRp3316
(dp3317
g72
(dp3318
g92
g93
ssg81
g3312
sg74
(lp3319
g441
asbag67
(g88
g69
NtRp3320
(dp3321
g72
(dp3322
g99
g100
ssg81
g3312
sg74
(lp3323
S':'
asbag67
(g88
g69
NtRp3324
(dp3325
g72
(dp3326
sg81
g3312
sg74
(lp3327
g67
(g68
g69
NtRp3328
(dp3329
g72
(dp3330
g80
I3
ssg81
g3324
sg74
(lp3331
S''
asbasbasbasbasbasbasbasbasbasbasbag67
(g83
g69
NtRp3332
(dp3333
g72
(dp3334
sg81
g3098
sg74
(lp3335
g67
(g88
g69
NtRp3336
(dp3337
g72
(dp3338
g92
g93
ssg81
g3332
sg74
(lp3339
S'delimiters'
p3340
asbag67
(g88
g69
NtRp3341
(dp3342
g72
(dp3343
g99
g100
ssg81
g3332
sg74
(lp3344
S':'
asbag67
(g88
g69
NtRp3345
(dp3346
g72
(dp3347
sg81
g3332
sg74
(lp3348
g67
(g68
g69
NtRp3349
(dp3350
g72
(dp3351
g80
I5
ssg81
g3345
sg74
(lp3352
g67
(g76
g69
NtRp3353
(dp3354
g72
(dp3355
g80
I4
ssg81
Nsg74
(lp3356
g67
(g83
g69
NtRp3357
(dp3358
g72
(dp3359
sg81
g3353
sg74
(lp3360
g67
(g88
g69
NtRp3361
(dp3362
g72
(dp3363
sg81
g3357
sg74
(lp3364
g67
(g68
g69
NtRp3365
(dp3366
g72
(dp3367
g80
I4
ssg81
g3361
sg74
(lp3368
S'{{'
p3369
asbasbasbag67
(g83
g69
NtRp3370
(dp3371
g72
(dp3372
sg81
g3353
sg74
(lp3373
g67
(g88
g69
NtRp3374
(dp3375
g72
(dp3376
sg81
g3370
sg74
(lp3377
g67
(g68
g69
NtRp3378
(dp3379
g72
(dp3380
g80
I4
ssg81
g3374
sg74
(lp3381
S'}}'
p3382
asbasbasbasbasbasbasbag67
(g83
g69
NtRp3383
(dp3384
g72
(dp3385
sg81
g3098
sg74
(lp3386
g67
(g88
g69
NtRp3387
(dp3388
g72
(dp3389
g92
g93
ssg81
g3383
sg74
(lp3390
S'files'
p3391
asbag67
(g88
g69
NtRp3392
(dp3393
g72
(dp3394
g99
g100
ssg81
g3383
sg74
(lp3395
S':'
asbag67
(g88
g69
NtRp3396
(dp3397
g72
(dp3398
sg81
g3383
sg74
(lp3399
g67
(g68
g69
NtRp3400
(dp3401
g72
(dp3402
g80
I5
ssg81
g3396
sg74
(lp3403
g67
(g76
g69
NtRp3404
(dp3405
g72
(dp3406
g80
I4
ssg81
Nsg74
(lp3407
sbasbasbasbag67
(g83
g69
NtRp3408
(dp3409
g72
(dp3410
sg81
g3098
sg74
(lp3411
g67
(g88
g69
NtRp3412
(dp3413
g72
(dp3414
g92
g93
ssg81
g3408
sg74
(lp3415
S'flash'
p3416
asbag67
(g88
g69
NtRp3417
(dp3418
g72
(dp3419
g99
g100
ssg81
g3408
sg74
(lp3420
S':'
asbag67
(g88
g69
NtRp3421
(dp3422
g72
(dp3423
sg81
g3408
sg74
(lp3424
g67
(g68
g69
NtRp3425
(dp3426
g72
(dp3427
g80
I5
ssg81
g3421
sg74
(lp3428
S''
asbasbasbag67
(g83
g69
NtRp3429
(dp3430
g72
(dp3431
sg81
g3098
sg74
(lp3432
g67
(g88
g69
NtRp3433
(dp3434
g72
(dp3435
g92
g93
ssg81
g3429
sg74
(lp3436
S'generic_patterns'
p3437
asbag67
(g88
g69
NtRp3438
(dp3439
g72
(dp3440
g99
g100
ssg81
g3429
sg74
(lp3441
S':'
asbag67
(g88
g69
NtRp3442
(dp3443
g72
(dp3444
sg81
g3429
sg74
(lp3445
g67
(g68
g69
NtRp3446
(dp3447
g72
(dp3448
g80
I5
ssg81
g3442
sg74
(lp3449
g67
(g76
g69
NtRp3450
(dp3451
g72
(dp3452
g80
I4
ssg81
Nsg74
(lp3453
g67
(g83
g69
NtRp3454
(dp3455
g72
(dp3456
sg81
g3450
sg74
(lp3457
g67
(g88
g69
NtRp3458
(dp3459
g72
(dp3460
sg81
g3454
sg74
(lp3461
g67
(g68
g69
NtRp3462
(dp3463
g72
(dp3464
g80
I4
ssg81
g3458
sg74
(lp3465
S'*'
asbasbasbasbasbasbasbag67
(g83
g69
NtRp3466
(dp3467
g72
(dp3468
sg81
g3098
sg74
(lp3469
g67
(g88
g69
NtRp3470
(dp3471
g72
(dp3472
g92
g93
ssg81
g3466
sg74
(lp3473
S'headers'
p3474
asbag67
(g88
g69
NtRp3475
(dp3476
g72
(dp3477
g99
g100
ssg81
g3466
sg74
(lp3478
S':'
asbag67
(g88
g69
NtRp3479
(dp3480
g72
(dp3481
sg81
g3466
sg74
(lp3482
g67
(g68
g69
NtRp3483
(dp3484
g72
(dp3485
g80
I5
ssg81
g3479
sg74
(lp3486
g67
(g76
g69
NtRp3487
(dp3488
g72
(dp3489
g80
I4
ssg81
Nsg74
(lp3490
g67
(g83
g69
NtRp3491
(dp3492
g72
(dp3493
sg81
g3487
sg74
(lp3494
g67
(g88
g69
NtRp3495
(dp3496
g72
(dp3497
g92
g93
ssg81
g3491
sg74
(lp3498
S'Cache-Control'
p3499
asbag67
(g88
g69
NtRp3500
(dp3501
g72
(dp3502
g99
g100
ssg81
g3491
sg74
(lp3503
S':'
asbag67
(g88
g69
NtRp3504
(dp3505
g72
(dp3506
sg81
g3491
sg74
(lp3507
g67
(g68
g69
NtRp3508
(dp3509
g72
(dp3510
g80
I4
ssg81
g3504
sg74
(lp3511
S'no-store, no-cache, must-revalidate, post-check=0, pre-check=0'
p3512
asbasbasbag67
(g83
g69
NtRp3513
(dp3514
g72
(dp3515
sg81
g3487
sg74
(lp3516
g67
(g88
g69
NtRp3517
(dp3518
g72
(dp3519
g92
g93
ssg81
g3513
sg74
(lp3520
S'Content-Type'
p3521
asbag67
(g88
g69
NtRp3522
(dp3523
g72
(dp3524
g99
g100
ssg81
g3513
sg74
(lp3525
S':'
asbag67
(g88
g69
NtRp3526
(dp3527
g72
(dp3528
sg81
g3513
sg74
(lp3529
g67
(g68
g69
NtRp3530
(dp3531
g72
(dp3532
g80
I4
ssg81
g3526
sg74
(lp3533
S'text/html; charset=utf-8'
p3534
asbasbasbag67
(g83
g69
NtRp3535
(dp3536
g72
(dp3537
sg81
g3487
sg74
(lp3538
g67
(g88
g69
NtRp3539
(dp3540
g72
(dp3541
g92
g93
ssg81
g3535
sg74
(lp3542
S'Expires'
p3543
asbag67
(g88
g69
NtRp3544
(dp3545
g72
(dp3546
g99
g100
ssg81
g3535
sg74
(lp3547
S':'
asbag67
(g88
g69
NtRp3548
(dp3549
g72
(dp3550
sg81
g3535
sg74
(lp3551
g67
(g68
g69
NtRp3552
(dp3553
g72
(dp3554
g80
I4
ssg81
g3548
sg74
(lp3555
S'Mon, 09 Jul 2012 00:39:43 GMT'
p3556
asbasbasbag67
(g83
g69
NtRp3557
(dp3558
g72
(dp3559
sg81
g3487
sg74
(lp3560
g67
(g88
g69
NtRp3561
(dp3562
g72
(dp3563
g92
g93
ssg81
g3557
sg74
(lp3564
S'Pragma'
p3565
asbag67
(g88
g69
NtRp3566
(dp3567
g72
(dp3568
g99
g100
ssg81
g3557
sg74
(lp3569
S':'
asbag67
(g88
g69
NtRp3570
(dp3571
g72
(dp3572
sg81
g3557
sg74
(lp3573
g67
(g68
g69
NtRp3574
(dp3575
g72
(dp3576
g80
I4
ssg81
g3570
sg74
(lp3577
S'no-cache'
p3578
asbasbasbag67
(g83
g69
NtRp3579
(dp3580
g72
(dp3581
sg81
g3487
sg74
(lp3582
g67
(g88
g69
NtRp3583
(dp3584
g72
(dp3585
g92
g93
ssg81
g3579
sg74
(lp3586
S'X-Powered-By'
p3587
asbag67
(g88
g69
NtRp3588
(dp3589
g72
(dp3590
g99
g100
ssg81
g3579
sg74
(lp3591
S':'
asbag67
(g88
g69
NtRp3592
(dp3593
g72
(dp3594
sg81
g3579
sg74
(lp3595
g67
(g68
g69
NtRp3596
(dp3597
g72
(dp3598
g80
I4
ssg81
g3592
sg74
(lp3599
S'web2py'
p3600
asbasbasbasbasbasbasbag67
(g83
g69
NtRp3601
(dp3602
g72
(dp3603
sg81
g3098
sg74
(lp3604
g67
(g88
g69
NtRp3605
(dp3606
g72
(dp3607
g92
g93
ssg81
g3601
sg74
(lp3608
S'menu'
p3609
asbag67
(g88
g69
NtRp3610
(dp3611
g72
(dp3612
g99
g100
ssg81
g3601
sg74
(lp3613
S':'
asbag67
(g88
g69
NtRp3614
(dp3615
g72
(dp3616
sg81
g3601
sg74
(lp3617
g67
(g68
g69
NtRp3618
(dp3619
g72
(dp3620
g80
I5
ssg81
g3614
sg74
(lp3621
g67
(g76
g69
NtRp3622
(dp3623
g72
(dp3624
g80
I4
ssg81
Nsg74
(lp3625
sbasbasbasbag67
(g83
g69
NtRp3626
(dp3627
g72
(dp3628
sg81
g3098
sg74
(lp3629
g67
(g88
g69
NtRp3630
(dp3631
g72
(dp3632
g92
g93
ssg81
g3626
sg74
(lp3633
S'meta'
p3634
asbag67
(g88
g69
NtRp3635
(dp3636
g72
(dp3637
g99
g100
ssg81
g3626
sg74
(lp3638
S':'
asbag67
(g88
g69
NtRp3639
(dp3640
g72
(dp3641
sg81
g3626
sg74
(lp3642
g67
(g68
g69
NtRp3643
(dp3644
g72
(dp3645
g80
I5
ssg81
g3639
sg74
(lp3646
g67
(g76
g69
NtRp3647
(dp3648
g72
(dp3649
g80
I4
ssg81
Nsg74
(lp3650
sbasbasbasbag67
(g83
g69
NtRp3651
(dp3652
g72
(dp3653
sg81
g3098
sg74
(lp3654
g67
(g88
g69
NtRp3655
(dp3656
g72
(dp3657
g92
g93
ssg81
g3651
sg74
(lp3658
S'postprocessing'
p3659
asbag67
(g88
g69
NtRp3660
(dp3661
g72
(dp3662
g99
g100
ssg81
g3651
sg74
(lp3663
S':'
asbag67
(g88
g69
NtRp3664
(dp3665
g72
(dp3666
sg81
g3651
sg74
(lp3667
g67
(g68
g69
NtRp3668
(dp3669
g72
(dp3670
g80
I5
ssg81
g3664
sg74
(lp3671
g67
(g76
g69
NtRp3672
(dp3673
g72
(dp3674
g80
I4
ssg81
Nsg74
(lp3675
sbasbasbasbag67
(g83
g69
NtRp3676
(dp3677
g72
(dp3678
sg81
g3098
sg74
(lp3679
g67
(g88
g69
NtRp3680
(dp3681
g72
(dp3682
g92
g93
ssg81
g3676
sg74
(lp3683
S'session_file'
p3684
asbag67
(g88
g69
NtRp3685
(dp3686
g72
(dp3687
g99
g100
ssg81
g3676
sg74
(lp3688
S':'
asbag67
(g88
g69
NtRp3689
(dp3690
g72
(dp3691
sg81
g3676
sg74
(lp3692
g67
(g68
g69
NtRp3693
(dp3694
g72
(dp3695
g80
I5
ssg81
g3689
sg74
(lp3696
S"<open file '/home/goshawk/web2py/applications/milo/sessions/127.0.0.1-19614cfd-e191-4bce-bf28-2da4d735c3fb', mode 'rb+' at 0x7f13b05dec90>"
p3697
asbasbasbag67
(g83
g69
NtRp3698
(dp3699
g72
(dp3700
sg81
g3098
sg74
(lp3701
g67
(g88
g69
NtRp3702
(dp3703
g72
(dp3704
g92
g93
ssg81
g3698
sg74
(lp3705
S'session_filename'
p3706
asbag67
(g88
g69
NtRp3707
(dp3708
g72
(dp3709
g99
g100
ssg81
g3698
sg74
(lp3710
S':'
asbag67
(g88
g69
NtRp3711
(dp3712
g72
(dp3713
sg81
g3698
sg74
(lp3714
g67
(g68
g69
NtRp3715
(dp3716
g72
(dp3717
g80
I5
ssg81
g3711
sg74
(lp3718
S'/home/goshawk/web2py/applications/milo/sessions/127.0.0.1-19614cfd-e191-4bce-bf28-2da4d735c3fb'
p3719
asbasbasbag67
(g83
g69
NtRp3720
(dp3721
g72
(dp3722
sg81
g3098
sg74
(lp3723
g67
(g88
g69
NtRp3724
(dp3725
g72
(dp3726
g92
g93
ssg81
g3720
sg74
(lp3727
S'session_id'
p3728
asbag67
(g88
g69
NtRp3729
(dp3730
g72
(dp3731
g99
g100
ssg81
g3720
sg74
(lp3732
S':'
asbag67
(g88
g69
NtRp3733
(dp3734
g72
(dp3735
sg81
g3720
sg74
(lp3736
g67
(g68
g69
NtRp3737
(dp3738
g72
(dp3739
g80
I5
ssg81
g3733
sg74
(lp3740
S'127.0.0.1-19614cfd-e191-4bce-bf28-2da4d735c3fb'
p3741
asbasbasbag67
(g83
g69
NtRp3742
(dp3743
g72
(dp3744
sg81
g3098
sg74
(lp3745
g67
(g88
g69
NtRp3746
(dp3747
g72
(dp3748
g92
g93
ssg81
g3742
sg74
(lp3749
S'session_id_name'
p3750
asbag67
(g88
g69
NtRp3751
(dp3752
g72
(dp3753
g99
g100
ssg81
g3742
sg74
(lp3754
S':'
asbag67
(g88
g69
NtRp3755
(dp3756
g72
(dp3757
sg81
g3742
sg74
(lp3758
g67
(g68
g69
NtRp3759
(dp3760
g72
(dp3761
g80
I5
ssg81
g3755
sg74
(lp3762
g3155
asbasbasbag67
(g83
g69
NtRp3763
(dp3764
g72
(dp3765
sg81
g3098
sg74
(lp3766
g67
(g88
g69
NtRp3767
(dp3768
g72
(dp3769
g92
g93
ssg81
g3763
sg74
(lp3770
S'session_locked'
p3771
asbag67
(g88
g69
NtRp3772
(dp3773
g72
(dp3774
g99
g100
ssg81
g3763
sg74
(lp3775
S':'
asbag67
(g88
g69
NtRp3776
(dp3777
g72
(dp3778
sg81
g3763
sg74
(lp3779
g67
(g68
g69
NtRp3780
(dp3781
g72
(dp3782
g80
I5
ssg81
g3776
sg74
(lp3783
g1558
asbasbasbag67
(g83
g69
NtRp3784
(dp3785
g72
(dp3786
sg81
g3098
sg74
(lp3787
g67
(g88
g69
NtRp3788
(dp3789
g72
(dp3790
g92
g93
ssg81
g3784
sg74
(lp3791
S'session_new'
p3792
asbag67
(g88
g69
NtRp3793
(dp3794
g72
(dp3795
g99
g100
ssg81
g3784
sg74
(lp3796
S':'
asbag67
(g88
g69
NtRp3797
(dp3798
g72
(dp3799
sg81
g3784
sg74
(lp3800
g67
(g68
g69
NtRp3801
(dp3802
g72
(dp3803
g80
I5
ssg81
g3797
sg74
(lp3804
g110
asbasbasbag67
(g83
g69
NtRp3805
(dp3806
g72
(dp3807
sg81
g3098
sg74
(lp3808
g67
(g88
g69
NtRp3809
(dp3810
g72
(dp3811
g92
g93
ssg81
g3805
sg74
(lp3812
S'status'
p3813
asbag67
(g88
g69
NtRp3814
(dp3815
g72
(dp3816
g99
g100
ssg81
g3805
sg74
(lp3817
S':'
asbag67
(g88
g69
NtRp3818
(dp3819
g72
(dp3820
sg81
g3805
sg74
(lp3821
g67
(g68
g69
NtRp3822
(dp3823
g72
(dp3824
g80
I5
ssg81
g3818
sg74
(lp3825
S'200'
p3826
asbasbasbag67
(g83
g69
NtRp3827
(dp3828
g72
(dp3829
sg81
g3098
sg74
(lp3830
g67
(g88
g69
NtRp3831
(dp3832
g72
(dp3833
g92
g93
ssg81
g3827
sg74
(lp3834
g2243
asbag67
(g88
g69
NtRp3835
(dp3836
g72
(dp3837
g99
g100
ssg81
g3827
sg74
(lp3838
S':'
asbag67
(g88
g69
NtRp3839
(dp3840
g72
(dp3841
sg81
g3827
sg74
(lp3842
g67
(g68
g69
NtRp3843
(dp3844
g72
(dp3845
g80
I5
ssg81
g3839
sg74
(lp3846
g2256
asbasbasbag67
(g83
g69
NtRp3847
(dp3848
g72
(dp3849
sg81
g3098
sg74
(lp3850
g67
(g88
g69
NtRp3851
(dp3852
g72
(dp3853
g92
g93
ssg81
g3847
sg74
(lp3854
S'view'
p3855
asbag67
(g88
g69
NtRp3856
(dp3857
g72
(dp3858
g99
g100
ssg81
g3847
sg74
(lp3859
S':'
asbag67
(g88
g69
NtRp3860
(dp3861
g72
(dp3862
sg81
g3847
sg74
(lp3863
g67
(g68
g69
NtRp3864
(dp3865
g72
(dp3866
g80
I5
ssg81
g3860
sg74
(lp3867
S'appadmin/select.html'
p3868
asbasbasbasbasbsS'locals'
p3869
(dp3870
S'a'
S"('CREATE INDEX IF NOT EXISTS iuser_imovie ON ratings (iuser,imovie);',)"
p3871
sS'self'
p3872
S'<gluon.dal.PostgreSQLAdapter object>'
p3873
sS'b'
g3019
sS't0'
p3874
S'1341794383.95906'
p3875
sssS'traceback'
p3876
S'Traceback (most recent call last):\n  File "/home/goshawk/web2py/gluon/restricted.py", line 205, in restricted\n    exec ccode in environment\n  File "/home/goshawk/web2py/applications/milo/models/db.py", line 105, in <module>\n    db.executesql(\'CREATE INDEX IF NOT EXISTS iuser_imovie ON ratings (iuser,imovie);\')\n  File "/home/goshawk/web2py/gluon/dal.py", line 6394, in executesql\n    self._adapter.execute(query)\n  File "/home/goshawk/web2py/gluon/dal.py", line 1392, in execute\n    return self.log_execute(*a, **b)\n  File "/home/goshawk/web2py/gluon/dal.py", line 1386, in log_execute\n    ret = self.cursor.execute(*a, **b)\nProgrammingError: syntax error at or near "NOT"\nLINE 1: CREATE INDEX IF NOT EXISTS iuser_imovie ON ratings (iuser,im...\n                        ^\n\n'
p3877
s.