(dp1
S'output'
p2
S'<class \'psycopg2.ProgrammingError\'> relation "users" already exists\n'
p3
sS'layer'
p4
S'/home/goshawk/web2py/applications/milo/models/db.py'
p5
sS'code'
p6
S"# -*- coding: utf-8 -*-\n\n#########################################################################\n## This scaffolding model makes your app work on Google App Engine too\n## File is released under public domain and you can use without limitations\n#########################################################################\n\n## if SSL/HTTPS is properly configured and you want all HTTP requests to\n## be redirected to HTTPS, uncomment the line below:\n# request.requires_https()\n\nif not request.env.web2py_runtime_gae:\n    ## if NOT running on Google App Engine use SQLite or other DB\n    db = DAL('postgres://milo:milosecret@localhost/milo-reloaded')\nelse:\n    ## connect to Google BigTable (optional 'google:datastore://namespace')\n    db = DAL('google:datastore')\n    ## store sessions and tickets there\n    session.connect(request, response, db = db)\n    ## or store session in Memcache, Redis, etc.\n    ## from gluon.contrib.memdb import MEMDB\n    ## from google.appengine.api.memcache import Client\n    ## session.connect(request, response, db = MEMDB(Client()))\n\n## by default give a view/generic.extension to all actions from localhost\n## none otherwise. a pattern can be 'controller/function.extension'\nresponse.generic_patterns = ['*'] if request.is_local else []\n## (optional) optimize handling of static files\n# response.optimize_css = 'concat,minify,inline'\n# response.optimize_js = 'concat,minify,inline'\n\n#########################################################################\n## Here is sample code if you need for\n## - email capabilities\n## - authentication (registration, login, logout, ... )\n## - authorization (role based authorization)\n## - services (xml, csv, json, xmlrpc, jsonrpc, amf, rss)\n## - old style crud actions\n## (more options discussed in gluon/tools.py)\n#########################################################################\n\nfrom gluon.tools import Auth, Crud, Service, PluginManager, prettydate\nauth = Auth(db, hmac_key=Auth.get_or_create_key())\ncrud, service, plugins = Crud(db), Service(), PluginManager()\n\n## create all tables needed by auth if not custom tables\nauth.define_tables()\n\n## configure email\nmail=auth.settings.mailer\nmail.settings.server = 'logging' or 'smtp.gmail.com:587'\nmail.settings.sender = 'you@gmail.com'\nmail.settings.login = 'username:password'\n\n## configure auth policy\nauth.settings.registration_requires_verification = False\nauth.settings.registration_requires_approval = False\nauth.settings.reset_password_requires_verification = True\n\n## if you need to use OpenID, Facebook, MySpace, Twitter, Linkedin, etc.\n## register with janrain.com, write your domain:api_key in private/janrain.key\nfrom gluon.contrib.login_methods.rpx_account import use_janrain\nuse_janrain(auth,filename='private/janrain.key')\n\n#########################################################################\n## Define your tables below (or better in another model file) for example\n##\n## >>> db.define_table('mytable',Field('myfield','string'))\n##\n## Fields can be 'string','text','password','integer','double','boolean'\n##       'date','time','datetime','blob','upload', 'reference TABLENAME'\n## There is an implicit 'id integer autoincrement' field\n## Consult manual for more options, validators, etc.\n##\n## More API examples for controllers:\n##\n## >>> db.mytable.insert(myfield='value')\n## >>> rows=db(db.mytable.myfield=='value').select(db.mytable.ALL)\n## >>> for row in rows: print row.id, row.myfield\n#########################################################################\n\nimport imdb\n\nimdb_connection_str = 'postgres://imdb:imdbsecret@localhost/imdb'\n\nim = imdb.IMDb('sql', uri=imdb_connection_str)\n\ndb.define_table('users',\n        Field('name'),\n        Field('email'),\n        Field('imdb_id', 'integer')\n        )\n\ndb.define_table('movies',\n        Field('imdb_id', 'integer')\n        )\n\ndb.define_table('ratings',\n        Field('iuser', db.users),\n        Field('imovie', db.movies),\n        Field('rating', 'double')\n        )\n"
p7
sS'snapshot'
p8
(dp9
S'exception'
p10
(dp11
S'__module__'
p12
S"'psycopg2'"
p13
sS'__getslice__'
p14
S"<method-wrapper '__getslice__' of ProgrammingError object>"
p15
sS'__str__'
p16
S"<method-wrapper '__str__' of ProgrammingError object>"
p17
sS'__reduce__'
p18
S'<built-in method __reduce__ of ProgrammingError object>'
p19
sS'__dict__'
p20
S'{\'cursor\': <cursor object at 0x7fe3b80b4620; closed: 0>, \'pgcode\': \'42P07\', \'pgerror\': \'ERROR:  relation "users" already exists\\n\'}'
p21
sS'__sizeof__'
p22
S'<built-in method __sizeof__ of ProgrammingError object>'
p23
sS'__weakref__'
p24
S'None'
p25
sS'__init__'
p26
S"<method-wrapper '__init__' of ProgrammingError object>"
p27
sS'__setattr__'
p28
S"<method-wrapper '__setattr__' of ProgrammingError object>"
p29
sS'__reduce_ex__'
p30
S'<built-in method __reduce_ex__ of ProgrammingError object>'
p31
sS'__new__'
p32
S'<built-in method __new__ of type object>'
p33
sS'__format__'
p34
S'<built-in method __format__ of ProgrammingError object>'
p35
sS'__class__'
p36
S"<class 'psycopg2.ProgrammingError'>"
p37
sS'pgerror'
p38
S'\'ERROR:  relation "users" already exists\\n\''
p39
sS'__doc__'
p40
S"'Error related to database programming (SQL error, table not found etc).'"
p41
sS'__getitem__'
p42
S"<method-wrapper '__getitem__' of ProgrammingError object>"
p43
sS'__setstate__'
p44
S'<built-in method __setstate__ of ProgrammingError object>'
p45
sS'__getattribute__'
p46
S"<method-wrapper '__getattribute__' of ProgrammingError object>"
p47
sS'args'
p48
S'(\'relation "users" already exists\\n\',)'
p49
sS'__subclasshook__'
p50
S'<built-in method __subclasshook__ of type object>'
p51
sS'pgcode'
p52
S"'42P07'"
p53
sS'__unicode__'
p54
S'<built-in method __unicode__ of ProgrammingError object>'
p55
sS'cursor'
p56
S'<cursor object at 0x7fe3b80b4620; closed: 0>'
p57
sS'__delattr__'
p58
S"<method-wrapper '__delattr__' of ProgrammingError object>"
p59
sS'__repr__'
p60
S"<method-wrapper '__repr__' of ProgrammingError object>"
p61
sS'__hash__'
p62
S"<method-wrapper '__hash__' of ProgrammingError object>"
p63
ssS'evalue'
p64
S'relation "users" already exists\n'
p65
sS'request'
p66
ccopy_reg
_reconstructor
p67
(cgluon.html
BEAUTIFY
p68
c__builtin__
object
p69
NtRp70
(dp71
S'attributes'
p72
(dp73
sS'components'
p74
(lp75
g67
(cgluon.html
TABLE
p76
g69
NtRp77
(dp78
g72
(dp79
S'level'
p80
I5
ssS'parent'
p81
Nsg74
(lp82
g67
(cgluon.html
TR
p83
g69
NtRp84
(dp85
g72
(dp86
sg81
g77
sg74
(lp87
g67
(cgluon.html
TD
p88
g69
NtRp89
(dp90
g72
(dp91
S'_style'
p92
S'font-weight:bold;vertical-align:top'
p93
ssg81
g84
sg74
(lp94
S'ajax'
p95
asbag67
(g88
g69
NtRp96
(dp97
g72
(dp98
S'_valign'
p99
S'top'
p100
ssg81
g84
sg74
(lp101
S':'
asbag67
(g88
g69
NtRp102
(dp103
g72
(dp104
sg81
g84
sg74
(lp105
g67
(g68
g69
NtRp106
(dp107
g72
(dp108
g80
I5
ssg81
g102
sg74
(lp109
S'False'
p110
asbasbasbag67
(g83
g69
NtRp111
(dp112
g72
(dp113
sg81
g77
sg74
(lp114
g67
(g88
g69
NtRp115
(dp116
g72
(dp117
g92
g93
ssg81
g111
sg74
(lp118
S'application'
p119
asbag67
(g88
g69
NtRp120
(dp121
g72
(dp122
g99
g100
ssg81
g111
sg74
(lp123
S':'
asbag67
(g88
g69
NtRp124
(dp125
g72
(dp126
sg81
g111
sg74
(lp127
g67
(g68
g69
NtRp128
(dp129
g72
(dp130
g80
I5
ssg81
g124
sg74
(lp131
S'milo'
p132
asbasbasbag67
(g83
g69
NtRp133
(dp134
g72
(dp135
sg81
g77
sg74
(lp136
g67
(g88
g69
NtRp137
(dp138
g72
(dp139
g92
g93
ssg81
g133
sg74
(lp140
g48
asbag67
(g88
g69
NtRp141
(dp142
g72
(dp143
g99
g100
ssg81
g133
sg74
(lp144
S':'
asbag67
(g88
g69
NtRp145
(dp146
g72
(dp147
sg81
g133
sg74
(lp148
g67
(g68
g69
NtRp149
(dp150
g72
(dp151
g80
I5
ssg81
g145
sg74
(lp152
g67
(g76
g69
NtRp153
(dp154
g72
(dp155
g80
I4
ssg81
Nsg74
(lp156
sbasbasbasbag67
(g83
g69
NtRp157
(dp158
g72
(dp159
sg81
g77
sg74
(lp160
g67
(g88
g69
NtRp161
(dp162
g72
(dp163
g92
g93
ssg81
g157
sg74
(lp164
S'body'
p165
asbag67
(g88
g69
NtRp166
(dp167
g72
(dp168
g99
g100
ssg81
g157
sg74
(lp169
S':'
asbag67
(g88
g69
NtRp170
(dp171
g72
(dp172
sg81
g157
sg74
(lp173
g67
(g68
g69
NtRp174
(dp175
g72
(dp176
g80
I5
ssg81
g170
sg74
(lp177
S'<cStringIO.StringO object at 0x7fe3b8620228>'
p178
asbasbasbag67
(g83
g69
NtRp179
(dp180
g72
(dp181
sg81
g77
sg74
(lp182
g67
(g88
g69
NtRp183
(dp184
g72
(dp185
g92
g93
ssg81
g179
sg74
(lp186
S'client'
p187
asbag67
(g88
g69
NtRp188
(dp189
g72
(dp190
g99
g100
ssg81
g179
sg74
(lp191
S':'
asbag67
(g88
g69
NtRp192
(dp193
g72
(dp194
sg81
g179
sg74
(lp195
g67
(g68
g69
NtRp196
(dp197
g72
(dp198
g80
I5
ssg81
g192
sg74
(lp199
S'127.0.0.1'
p200
asbasbasbag67
(g83
g69
NtRp201
(dp202
g72
(dp203
sg81
g77
sg74
(lp204
g67
(g88
g69
NtRp205
(dp206
g72
(dp207
g92
g93
ssg81
g201
sg74
(lp208
S'controller'
p209
asbag67
(g88
g69
NtRp210
(dp211
g72
(dp212
g99
g100
ssg81
g201
sg74
(lp213
S':'
asbag67
(g88
g69
NtRp214
(dp215
g72
(dp216
sg81
g201
sg74
(lp217
g67
(g68
g69
NtRp218
(dp219
g72
(dp220
g80
I5
ssg81
g214
sg74
(lp221
S'default'
p222
asbasbasbag67
(g83
g69
NtRp223
(dp224
g72
(dp225
sg81
g77
sg74
(lp226
g67
(g88
g69
NtRp227
(dp228
g72
(dp229
g92
g93
ssg81
g223
sg74
(lp230
S'cookies'
p231
asbag67
(g88
g69
NtRp232
(dp233
g72
(dp234
g99
g100
ssg81
g223
sg74
(lp235
S':'
asbag67
(g88
g69
NtRp236
(dp237
g72
(dp238
sg81
g223
sg74
(lp239
g67
(g68
g69
NtRp240
(dp241
g72
(dp242
g80
I5
ssg81
g236
sg74
(lp243
g67
(g76
g69
NtRp244
(dp245
g72
(dp246
g80
I4
ssg81
Nsg74
(lp247
g67
(g83
g69
NtRp248
(dp249
g72
(dp250
sg81
g244
sg74
(lp251
g67
(g88
g69
NtRp252
(dp253
g72
(dp254
g92
g93
ssg81
g248
sg74
(lp255
S'session_id_admin'
p256
asbag67
(g88
g69
NtRp257
(dp258
g72
(dp259
g99
g100
ssg81
g248
sg74
(lp260
S':'
asbag67
(g88
g69
NtRp261
(dp262
g72
(dp263
sg81
g248
sg74
(lp264
g67
(g68
g69
NtRp265
(dp266
g72
(dp267
g80
I4
ssg81
g261
sg74
(lp268
g67
(g76
g69
NtRp269
(dp270
g72
(dp271
g80
I3
ssg81
Nsg74
(lp272
g67
(g83
g69
NtRp273
(dp274
g72
(dp275
sg81
g269
sg74
(lp276
g67
(g88
g69
NtRp277
(dp278
g72
(dp279
g92
g93
ssg81
g273
sg74
(lp280
S'comment'
p281
asbag67
(g88
g69
NtRp282
(dp283
g72
(dp284
g99
g100
ssg81
g273
sg74
(lp285
S':'
asbag67
(g88
g69
NtRp286
(dp287
g72
(dp288
sg81
g273
sg74
(lp289
g67
(g68
g69
NtRp290
(dp291
g72
(dp292
g80
I3
ssg81
g286
sg74
(lp293
S''
asbasbasbag67
(g83
g69
NtRp294
(dp295
g72
(dp296
sg81
g269
sg74
(lp297
g67
(g88
g69
NtRp298
(dp299
g72
(dp300
g92
g93
ssg81
g294
sg74
(lp301
S'domain'
p302
asbag67
(g88
g69
NtRp303
(dp304
g72
(dp305
g99
g100
ssg81
g294
sg74
(lp306
S':'
asbag67
(g88
g69
NtRp307
(dp308
g72
(dp309
sg81
g294
sg74
(lp310
g67
(g68
g69
NtRp311
(dp312
g72
(dp313
g80
I3
ssg81
g307
sg74
(lp314
S''
asbasbasbag67
(g83
g69
NtRp315
(dp316
g72
(dp317
sg81
g269
sg74
(lp318
g67
(g88
g69
NtRp319
(dp320
g72
(dp321
g92
g93
ssg81
g315
sg74
(lp322
S'expires'
p323
asbag67
(g88
g69
NtRp324
(dp325
g72
(dp326
g99
g100
ssg81
g315
sg74
(lp327
S':'
asbag67
(g88
g69
NtRp328
(dp329
g72
(dp330
sg81
g315
sg74
(lp331
g67
(g68
g69
NtRp332
(dp333
g72
(dp334
g80
I3
ssg81
g328
sg74
(lp335
S''
asbasbasbag67
(g83
g69
NtRp336
(dp337
g72
(dp338
sg81
g269
sg74
(lp339
g67
(g88
g69
NtRp340
(dp341
g72
(dp342
g92
g93
ssg81
g336
sg74
(lp343
S'httponly'
p344
asbag67
(g88
g69
NtRp345
(dp346
g72
(dp347
g99
g100
ssg81
g336
sg74
(lp348
S':'
asbag67
(g88
g69
NtRp349
(dp350
g72
(dp351
sg81
g336
sg74
(lp352
g67
(g68
g69
NtRp353
(dp354
g72
(dp355
g80
I3
ssg81
g349
sg74
(lp356
S''
asbasbasbag67
(g83
g69
NtRp357
(dp358
g72
(dp359
sg81
g269
sg74
(lp360
g67
(g88
g69
NtRp361
(dp362
g72
(dp363
g92
g93
ssg81
g357
sg74
(lp364
S'max-age'
p365
asbag67
(g88
g69
NtRp366
(dp367
g72
(dp368
g99
g100
ssg81
g357
sg74
(lp369
S':'
asbag67
(g88
g69
NtRp370
(dp371
g72
(dp372
sg81
g357
sg74
(lp373
g67
(g68
g69
NtRp374
(dp375
g72
(dp376
g80
I3
ssg81
g370
sg74
(lp377
S''
asbasbasbag67
(g83
g69
NtRp378
(dp379
g72
(dp380
sg81
g269
sg74
(lp381
g67
(g88
g69
NtRp382
(dp383
g72
(dp384
g92
g93
ssg81
g378
sg74
(lp385
S'path'
p386
asbag67
(g88
g69
NtRp387
(dp388
g72
(dp389
g99
g100
ssg81
g378
sg74
(lp390
S':'
asbag67
(g88
g69
NtRp391
(dp392
g72
(dp393
sg81
g378
sg74
(lp394
g67
(g68
g69
NtRp395
(dp396
g72
(dp397
g80
I3
ssg81
g391
sg74
(lp398
S''
asbasbasbag67
(g83
g69
NtRp399
(dp400
g72
(dp401
sg81
g269
sg74
(lp402
g67
(g88
g69
NtRp403
(dp404
g72
(dp405
g92
g93
ssg81
g399
sg74
(lp406
S'secure'
p407
asbag67
(g88
g69
NtRp408
(dp409
g72
(dp410
g99
g100
ssg81
g399
sg74
(lp411
S':'
asbag67
(g88
g69
NtRp412
(dp413
g72
(dp414
sg81
g399
sg74
(lp415
g67
(g68
g69
NtRp416
(dp417
g72
(dp418
g80
I3
ssg81
g412
sg74
(lp419
S''
asbasbasbag67
(g83
g69
NtRp420
(dp421
g72
(dp422
sg81
g269
sg74
(lp423
g67
(g88
g69
NtRp424
(dp425
g72
(dp426
g92
g93
ssg81
g420
sg74
(lp427
S'version'
p428
asbag67
(g88
g69
NtRp429
(dp430
g72
(dp431
g99
g100
ssg81
g420
sg74
(lp432
S':'
asbag67
(g88
g69
NtRp433
(dp434
g72
(dp435
sg81
g420
sg74
(lp436
g67
(g68
g69
NtRp437
(dp438
g72
(dp439
g80
I3
ssg81
g433
sg74
(lp440
S''
asbasbasbasbasbasbasbag67
(g83
g69
NtRp441
(dp442
g72
(dp443
sg81
g244
sg74
(lp444
g67
(g88
g69
NtRp445
(dp446
g72
(dp447
g92
g93
ssg81
g441
sg74
(lp448
S'session_id_milo'
p449
asbag67
(g88
g69
NtRp450
(dp451
g72
(dp452
g99
g100
ssg81
g441
sg74
(lp453
S':'
asbag67
(g88
g69
NtRp454
(dp455
g72
(dp456
sg81
g441
sg74
(lp457
g67
(g68
g69
NtRp458
(dp459
g72
(dp460
g80
I4
ssg81
g454
sg74
(lp461
g67
(g76
g69
NtRp462
(dp463
g72
(dp464
g80
I3
ssg81
Nsg74
(lp465
g67
(g83
g69
NtRp466
(dp467
g72
(dp468
sg81
g462
sg74
(lp469
g67
(g88
g69
NtRp470
(dp471
g72
(dp472
g92
g93
ssg81
g466
sg74
(lp473
g281
asbag67
(g88
g69
NtRp474
(dp475
g72
(dp476
g99
g100
ssg81
g466
sg74
(lp477
S':'
asbag67
(g88
g69
NtRp478
(dp479
g72
(dp480
sg81
g466
sg74
(lp481
g67
(g68
g69
NtRp482
(dp483
g72
(dp484
g80
I3
ssg81
g478
sg74
(lp485
S''
asbasbasbag67
(g83
g69
NtRp486
(dp487
g72
(dp488
sg81
g462
sg74
(lp489
g67
(g88
g69
NtRp490
(dp491
g72
(dp492
g92
g93
ssg81
g486
sg74
(lp493
g302
asbag67
(g88
g69
NtRp494
(dp495
g72
(dp496
g99
g100
ssg81
g486
sg74
(lp497
S':'
asbag67
(g88
g69
NtRp498
(dp499
g72
(dp500
sg81
g486
sg74
(lp501
g67
(g68
g69
NtRp502
(dp503
g72
(dp504
g80
I3
ssg81
g498
sg74
(lp505
S''
asbasbasbag67
(g83
g69
NtRp506
(dp507
g72
(dp508
sg81
g462
sg74
(lp509
g67
(g88
g69
NtRp510
(dp511
g72
(dp512
g92
g93
ssg81
g506
sg74
(lp513
g323
asbag67
(g88
g69
NtRp514
(dp515
g72
(dp516
g99
g100
ssg81
g506
sg74
(lp517
S':'
asbag67
(g88
g69
NtRp518
(dp519
g72
(dp520
sg81
g506
sg74
(lp521
g67
(g68
g69
NtRp522
(dp523
g72
(dp524
g80
I3
ssg81
g518
sg74
(lp525
S''
asbasbasbag67
(g83
g69
NtRp526
(dp527
g72
(dp528
sg81
g462
sg74
(lp529
g67
(g88
g69
NtRp530
(dp531
g72
(dp532
g92
g93
ssg81
g526
sg74
(lp533
g344
asbag67
(g88
g69
NtRp534
(dp535
g72
(dp536
g99
g100
ssg81
g526
sg74
(lp537
S':'
asbag67
(g88
g69
NtRp538
(dp539
g72
(dp540
sg81
g526
sg74
(lp541
g67
(g68
g69
NtRp542
(dp543
g72
(dp544
g80
I3
ssg81
g538
sg74
(lp545
S''
asbasbasbag67
(g83
g69
NtRp546
(dp547
g72
(dp548
sg81
g462
sg74
(lp549
g67
(g88
g69
NtRp550
(dp551
g72
(dp552
g92
g93
ssg81
g546
sg74
(lp553
g365
asbag67
(g88
g69
NtRp554
(dp555
g72
(dp556
g99
g100
ssg81
g546
sg74
(lp557
S':'
asbag67
(g88
g69
NtRp558
(dp559
g72
(dp560
sg81
g546
sg74
(lp561
g67
(g68
g69
NtRp562
(dp563
g72
(dp564
g80
I3
ssg81
g558
sg74
(lp565
S''
asbasbasbag67
(g83
g69
NtRp566
(dp567
g72
(dp568
sg81
g462
sg74
(lp569
g67
(g88
g69
NtRp570
(dp571
g72
(dp572
g92
g93
ssg81
g566
sg74
(lp573
g386
asbag67
(g88
g69
NtRp574
(dp575
g72
(dp576
g99
g100
ssg81
g566
sg74
(lp577
S':'
asbag67
(g88
g69
NtRp578
(dp579
g72
(dp580
sg81
g566
sg74
(lp581
g67
(g68
g69
NtRp582
(dp583
g72
(dp584
g80
I3
ssg81
g578
sg74
(lp585
S''
asbasbasbag67
(g83
g69
NtRp586
(dp587
g72
(dp588
sg81
g462
sg74
(lp589
g67
(g88
g69
NtRp590
(dp591
g72
(dp592
g92
g93
ssg81
g586
sg74
(lp593
g407
asbag67
(g88
g69
NtRp594
(dp595
g72
(dp596
g99
g100
ssg81
g586
sg74
(lp597
S':'
asbag67
(g88
g69
NtRp598
(dp599
g72
(dp600
sg81
g586
sg74
(lp601
g67
(g68
g69
NtRp602
(dp603
g72
(dp604
g80
I3
ssg81
g598
sg74
(lp605
S''
asbasbasbag67
(g83
g69
NtRp606
(dp607
g72
(dp608
sg81
g462
sg74
(lp609
g67
(g88
g69
NtRp610
(dp611
g72
(dp612
g92
g93
ssg81
g606
sg74
(lp613
g428
asbag67
(g88
g69
NtRp614
(dp615
g72
(dp616
g99
g100
ssg81
g606
sg74
(lp617
S':'
asbag67
(g88
g69
NtRp618
(dp619
g72
(dp620
sg81
g606
sg74
(lp621
g67
(g68
g69
NtRp622
(dp623
g72
(dp624
g80
I3
ssg81
g618
sg74
(lp625
S''
asbasbasbasbasbasbasbag67
(g83
g69
NtRp626
(dp627
g72
(dp628
sg81
g244
sg74
(lp629
g67
(g88
g69
NtRp630
(dp631
g72
(dp632
g92
g93
ssg81
g626
sg74
(lp633
S'session_id_milo_survey'
p634
asbag67
(g88
g69
NtRp635
(dp636
g72
(dp637
g99
g100
ssg81
g626
sg74
(lp638
S':'
asbag67
(g88
g69
NtRp639
(dp640
g72
(dp641
sg81
g626
sg74
(lp642
g67
(g68
g69
NtRp643
(dp644
g72
(dp645
g80
I4
ssg81
g639
sg74
(lp646
g67
(g76
g69
NtRp647
(dp648
g72
(dp649
g80
I3
ssg81
Nsg74
(lp650
g67
(g83
g69
NtRp651
(dp652
g72
(dp653
sg81
g647
sg74
(lp654
g67
(g88
g69
NtRp655
(dp656
g72
(dp657
g92
g93
ssg81
g651
sg74
(lp658
g281
asbag67
(g88
g69
NtRp659
(dp660
g72
(dp661
g99
g100
ssg81
g651
sg74
(lp662
S':'
asbag67
(g88
g69
NtRp663
(dp664
g72
(dp665
sg81
g651
sg74
(lp666
g67
(g68
g69
NtRp667
(dp668
g72
(dp669
g80
I3
ssg81
g663
sg74
(lp670
S''
asbasbasbag67
(g83
g69
NtRp671
(dp672
g72
(dp673
sg81
g647
sg74
(lp674
g67
(g88
g69
NtRp675
(dp676
g72
(dp677
g92
g93
ssg81
g671
sg74
(lp678
g302
asbag67
(g88
g69
NtRp679
(dp680
g72
(dp681
g99
g100
ssg81
g671
sg74
(lp682
S':'
asbag67
(g88
g69
NtRp683
(dp684
g72
(dp685
sg81
g671
sg74
(lp686
g67
(g68
g69
NtRp687
(dp688
g72
(dp689
g80
I3
ssg81
g683
sg74
(lp690
S''
asbasbasbag67
(g83
g69
NtRp691
(dp692
g72
(dp693
sg81
g647
sg74
(lp694
g67
(g88
g69
NtRp695
(dp696
g72
(dp697
g92
g93
ssg81
g691
sg74
(lp698
g323
asbag67
(g88
g69
NtRp699
(dp700
g72
(dp701
g99
g100
ssg81
g691
sg74
(lp702
S':'
asbag67
(g88
g69
NtRp703
(dp704
g72
(dp705
sg81
g691
sg74
(lp706
g67
(g68
g69
NtRp707
(dp708
g72
(dp709
g80
I3
ssg81
g703
sg74
(lp710
S''
asbasbasbag67
(g83
g69
NtRp711
(dp712
g72
(dp713
sg81
g647
sg74
(lp714
g67
(g88
g69
NtRp715
(dp716
g72
(dp717
g92
g93
ssg81
g711
sg74
(lp718
g344
asbag67
(g88
g69
NtRp719
(dp720
g72
(dp721
g99
g100
ssg81
g711
sg74
(lp722
S':'
asbag67
(g88
g69
NtRp723
(dp724
g72
(dp725
sg81
g711
sg74
(lp726
g67
(g68
g69
NtRp727
(dp728
g72
(dp729
g80
I3
ssg81
g723
sg74
(lp730
S''
asbasbasbag67
(g83
g69
NtRp731
(dp732
g72
(dp733
sg81
g647
sg74
(lp734
g67
(g88
g69
NtRp735
(dp736
g72
(dp737
g92
g93
ssg81
g731
sg74
(lp738
g365
asbag67
(g88
g69
NtRp739
(dp740
g72
(dp741
g99
g100
ssg81
g731
sg74
(lp742
S':'
asbag67
(g88
g69
NtRp743
(dp744
g72
(dp745
sg81
g731
sg74
(lp746
g67
(g68
g69
NtRp747
(dp748
g72
(dp749
g80
I3
ssg81
g743
sg74
(lp750
S''
asbasbasbag67
(g83
g69
NtRp751
(dp752
g72
(dp753
sg81
g647
sg74
(lp754
g67
(g88
g69
NtRp755
(dp756
g72
(dp757
g92
g93
ssg81
g751
sg74
(lp758
g386
asbag67
(g88
g69
NtRp759
(dp760
g72
(dp761
g99
g100
ssg81
g751
sg74
(lp762
S':'
asbag67
(g88
g69
NtRp763
(dp764
g72
(dp765
sg81
g751
sg74
(lp766
g67
(g68
g69
NtRp767
(dp768
g72
(dp769
g80
I3
ssg81
g763
sg74
(lp770
S''
asbasbasbag67
(g83
g69
NtRp771
(dp772
g72
(dp773
sg81
g647
sg74
(lp774
g67
(g88
g69
NtRp775
(dp776
g72
(dp777
g92
g93
ssg81
g771
sg74
(lp778
g407
asbag67
(g88
g69
NtRp779
(dp780
g72
(dp781
g99
g100
ssg81
g771
sg74
(lp782
S':'
asbag67
(g88
g69
NtRp783
(dp784
g72
(dp785
sg81
g771
sg74
(lp786
g67
(g68
g69
NtRp787
(dp788
g72
(dp789
g80
I3
ssg81
g783
sg74
(lp790
S''
asbasbasbag67
(g83
g69
NtRp791
(dp792
g72
(dp793
sg81
g647
sg74
(lp794
g67
(g88
g69
NtRp795
(dp796
g72
(dp797
g92
g93
ssg81
g791
sg74
(lp798
g428
asbag67
(g88
g69
NtRp799
(dp800
g72
(dp801
g99
g100
ssg81
g791
sg74
(lp802
S':'
asbag67
(g88
g69
NtRp803
(dp804
g72
(dp805
sg81
g791
sg74
(lp806
g67
(g68
g69
NtRp807
(dp808
g72
(dp809
g80
I3
ssg81
g803
sg74
(lp810
S''
asbasbasbasbasbasbasbag67
(g83
g69
NtRp811
(dp812
g72
(dp813
sg81
g244
sg74
(lp814
g67
(g88
g69
NtRp815
(dp816
g72
(dp817
g92
g93
ssg81
g811
sg74
(lp818
S'session_id_welcome'
p819
asbag67
(g88
g69
NtRp820
(dp821
g72
(dp822
g99
g100
ssg81
g811
sg74
(lp823
S':'
asbag67
(g88
g69
NtRp824
(dp825
g72
(dp826
sg81
g811
sg74
(lp827
g67
(g68
g69
NtRp828
(dp829
g72
(dp830
g80
I4
ssg81
g824
sg74
(lp831
g67
(g76
g69
NtRp832
(dp833
g72
(dp834
g80
I3
ssg81
Nsg74
(lp835
g67
(g83
g69
NtRp836
(dp837
g72
(dp838
sg81
g832
sg74
(lp839
g67
(g88
g69
NtRp840
(dp841
g72
(dp842
g92
g93
ssg81
g836
sg74
(lp843
g281
asbag67
(g88
g69
NtRp844
(dp845
g72
(dp846
g99
g100
ssg81
g836
sg74
(lp847
S':'
asbag67
(g88
g69
NtRp848
(dp849
g72
(dp850
sg81
g836
sg74
(lp851
g67
(g68
g69
NtRp852
(dp853
g72
(dp854
g80
I3
ssg81
g848
sg74
(lp855
S''
asbasbasbag67
(g83
g69
NtRp856
(dp857
g72
(dp858
sg81
g832
sg74
(lp859
g67
(g88
g69
NtRp860
(dp861
g72
(dp862
g92
g93
ssg81
g856
sg74
(lp863
g302
asbag67
(g88
g69
NtRp864
(dp865
g72
(dp866
g99
g100
ssg81
g856
sg74
(lp867
S':'
asbag67
(g88
g69
NtRp868
(dp869
g72
(dp870
sg81
g856
sg74
(lp871
g67
(g68
g69
NtRp872
(dp873
g72
(dp874
g80
I3
ssg81
g868
sg74
(lp875
S''
asbasbasbag67
(g83
g69
NtRp876
(dp877
g72
(dp878
sg81
g832
sg74
(lp879
g67
(g88
g69
NtRp880
(dp881
g72
(dp882
g92
g93
ssg81
g876
sg74
(lp883
g323
asbag67
(g88
g69
NtRp884
(dp885
g72
(dp886
g99
g100
ssg81
g876
sg74
(lp887
S':'
asbag67
(g88
g69
NtRp888
(dp889
g72
(dp890
sg81
g876
sg74
(lp891
g67
(g68
g69
NtRp892
(dp893
g72
(dp894
g80
I3
ssg81
g888
sg74
(lp895
S''
asbasbasbag67
(g83
g69
NtRp896
(dp897
g72
(dp898
sg81
g832
sg74
(lp899
g67
(g88
g69
NtRp900
(dp901
g72
(dp902
g92
g93
ssg81
g896
sg74
(lp903
g344
asbag67
(g88
g69
NtRp904
(dp905
g72
(dp906
g99
g100
ssg81
g896
sg74
(lp907
S':'
asbag67
(g88
g69
NtRp908
(dp909
g72
(dp910
sg81
g896
sg74
(lp911
g67
(g68
g69
NtRp912
(dp913
g72
(dp914
g80
I3
ssg81
g908
sg74
(lp915
S''
asbasbasbag67
(g83
g69
NtRp916
(dp917
g72
(dp918
sg81
g832
sg74
(lp919
g67
(g88
g69
NtRp920
(dp921
g72
(dp922
g92
g93
ssg81
g916
sg74
(lp923
g365
asbag67
(g88
g69
NtRp924
(dp925
g72
(dp926
g99
g100
ssg81
g916
sg74
(lp927
S':'
asbag67
(g88
g69
NtRp928
(dp929
g72
(dp930
sg81
g916
sg74
(lp931
g67
(g68
g69
NtRp932
(dp933
g72
(dp934
g80
I3
ssg81
g928
sg74
(lp935
S''
asbasbasbag67
(g83
g69
NtRp936
(dp937
g72
(dp938
sg81
g832
sg74
(lp939
g67
(g88
g69
NtRp940
(dp941
g72
(dp942
g92
g93
ssg81
g936
sg74
(lp943
g386
asbag67
(g88
g69
NtRp944
(dp945
g72
(dp946
g99
g100
ssg81
g936
sg74
(lp947
S':'
asbag67
(g88
g69
NtRp948
(dp949
g72
(dp950
sg81
g936
sg74
(lp951
g67
(g68
g69
NtRp952
(dp953
g72
(dp954
g80
I3
ssg81
g948
sg74
(lp955
S''
asbasbasbag67
(g83
g69
NtRp956
(dp957
g72
(dp958
sg81
g832
sg74
(lp959
g67
(g88
g69
NtRp960
(dp961
g72
(dp962
g92
g93
ssg81
g956
sg74
(lp963
g407
asbag67
(g88
g69
NtRp964
(dp965
g72
(dp966
g99
g100
ssg81
g956
sg74
(lp967
S':'
asbag67
(g88
g69
NtRp968
(dp969
g72
(dp970
sg81
g956
sg74
(lp971
g67
(g68
g69
NtRp972
(dp973
g72
(dp974
g80
I3
ssg81
g968
sg74
(lp975
S''
asbasbasbag67
(g83
g69
NtRp976
(dp977
g72
(dp978
sg81
g832
sg74
(lp979
g67
(g88
g69
NtRp980
(dp981
g72
(dp982
g92
g93
ssg81
g976
sg74
(lp983
g428
asbag67
(g88
g69
NtRp984
(dp985
g72
(dp986
g99
g100
ssg81
g976
sg74
(lp987
S':'
asbag67
(g88
g69
NtRp988
(dp989
g72
(dp990
sg81
g976
sg74
(lp991
g67
(g68
g69
NtRp992
(dp993
g72
(dp994
g80
I3
ssg81
g988
sg74
(lp995
S''
asbasbasbasbasbasbasbasbasbasbasbag67
(g83
g69
NtRp996
(dp997
g72
(dp998
sg81
g77
sg74
(lp999
g67
(g88
g69
NtRp1000
(dp1001
g72
(dp1002
g92
g93
ssg81
g996
sg74
(lp1003
S'env'
p1004
asbag67
(g88
g69
NtRp1005
(dp1006
g72
(dp1007
g99
g100
ssg81
g996
sg74
(lp1008
S':'
asbag67
(g88
g69
NtRp1009
(dp1010
g72
(dp1011
sg81
g996
sg74
(lp1012
g67
(g68
g69
NtRp1013
(dp1014
g72
(dp1015
g80
I5
ssg81
g1009
sg74
(lp1016
g67
(g76
g69
NtRp1017
(dp1018
g72
(dp1019
g80
I4
ssg81
Nsg74
(lp1020
g67
(g83
g69
NtRp1021
(dp1022
g72
(dp1023
sg81
g1017
sg74
(lp1024
g67
(g88
g69
NtRp1025
(dp1026
g72
(dp1027
g92
g93
ssg81
g1021
sg74
(lp1028
S'app_folders'
p1029
asbag67
(g88
g69
NtRp1030
(dp1031
g72
(dp1032
g99
g100
ssg81
g1021
sg74
(lp1033
S':'
asbag67
(g88
g69
NtRp1034
(dp1035
g72
(dp1036
sg81
g1021
sg74
(lp1037
g67
(g68
g69
NtRp1038
(dp1039
g72
(dp1040
g80
I4
ssg81
g1034
sg74
(lp1041
S"set(['/home/goshawk/web2py/applications/milo/', '/home/goshawk/web2py/applications/admin/', '/home/goshawk/web2py/applications/welcome/', '/home/goshawk/web2py/applications/milo_survey/', '/home/goshawk/web2py/applications/examples/'])"
p1042
asbasbasbag67
(g83
g69
NtRp1043
(dp1044
g72
(dp1045
sg81
g1017
sg74
(lp1046
g67
(g88
g69
NtRp1047
(dp1048
g72
(dp1049
g92
g93
ssg81
g1043
sg74
(lp1050
S'applications_parent'
p1051
asbag67
(g88
g69
NtRp1052
(dp1053
g72
(dp1054
g99
g100
ssg81
g1043
sg74
(lp1055
S':'
asbag67
(g88
g69
NtRp1056
(dp1057
g72
(dp1058
sg81
g1043
sg74
(lp1059
g67
(g68
g69
NtRp1060
(dp1061
g72
(dp1062
g80
I4
ssg81
g1056
sg74
(lp1063
S'/home/goshawk/web2py'
p1064
asbasbasbag67
(g83
g69
NtRp1065
(dp1066
g72
(dp1067
sg81
g1017
sg74
(lp1068
g67
(g88
g69
NtRp1069
(dp1070
g72
(dp1071
g92
g93
ssg81
g1065
sg74
(lp1072
S'cmd_args'
p1073
asbag67
(g88
g69
NtRp1074
(dp1075
g72
(dp1076
g99
g100
ssg81
g1065
sg74
(lp1077
S':'
asbag67
(g88
g69
NtRp1078
(dp1079
g72
(dp1080
sg81
g1065
sg74
(lp1081
g67
(g68
g69
NtRp1082
(dp1083
g72
(dp1084
g80
I4
ssg81
g1078
sg74
(lp1085
g67
(g76
g69
NtRp1086
(dp1087
g72
(dp1088
g80
I3
ssg81
Nsg74
(lp1089
sbasbasbasbag67
(g83
g69
NtRp1090
(dp1091
g72
(dp1092
sg81
g1017
sg74
(lp1093
g67
(g88
g69
NtRp1094
(dp1095
g72
(dp1096
g92
g93
ssg81
g1090
sg74
(lp1097
S'cmd_options'
p1098
asbag67
(g88
g69
NtRp1099
(dp1100
g72
(dp1101
g99
g100
ssg81
g1090
sg74
(lp1102
S':'
asbag67
(g88
g69
NtRp1103
(dp1104
g72
(dp1105
sg81
g1090
sg74
(lp1106
g67
(g68
g69
NtRp1107
(dp1108
g72
(dp1109
g80
I4
ssg81
g1103
sg74
(lp1110
S"<Values at 0x22f8b48: {'verbose': False, 'ip': '127.0.0.1', 'shutdown_timeout': 5, 'taskbar': False, 'nocron': False, 'pid_filename': 'httpserver.pid', 'maxthreads': None, 'softcron': False, 'server_name': 'whisperer', 'bpython': False, 'nogui': False, 'port': 8000, 'extcron': False, 'debuglevel': 30, 'test': None, 'folder': '/home/goshawk/web2py', 'config': '', 'import_models': False, 'winservice': '', 'shell': None, 'run': '', 'log_filename': 'httpserver.log', 'args': [''], 'socket_timeout': 5, 'ssl_ca_certificate': None, 'scheduler': None, 'profiler_filename': None, 'ssl_private_key': '', 'password': 'admin', 'request_queue_size': 5, 'ssl_certificate': '', 'cronjob': False, 'numthreads': None, 'quiet': False, 'interfaces': None, 'minthreads': None, 'timeout': 10, 'plain': False, 'nobanner': False}>"
p1111
asbasbasbag67
(g83
g69
NtRp1112
(dp1113
g72
(dp1114
sg81
g1017
sg74
(lp1115
g67
(g88
g69
NtRp1116
(dp1117
g72
(dp1118
g92
g93
ssg81
g1112
sg74
(lp1119
S'db_sessions'
p1120
asbag67
(g88
g69
NtRp1121
(dp1122
g72
(dp1123
g99
g100
ssg81
g1112
sg74
(lp1124
S':'
asbag67
(g88
g69
NtRp1125
(dp1126
g72
(dp1127
sg81
g1112
sg74
(lp1128
g67
(g68
g69
NtRp1129
(dp1130
g72
(dp1131
g80
I4
ssg81
g1125
sg74
(lp1132
S'set([])'
p1133
asbasbasbag67
(g83
g69
NtRp1134
(dp1135
g72
(dp1136
sg81
g1017
sg74
(lp1137
g67
(g88
g69
NtRp1138
(dp1139
g72
(dp1140
g92
g93
ssg81
g1134
sg74
(lp1141
S'debugging'
p1142
asbag67
(g88
g69
NtRp1143
(dp1144
g72
(dp1145
g99
g100
ssg81
g1134
sg74
(lp1146
S':'
asbag67
(g88
g69
NtRp1147
(dp1148
g72
(dp1149
sg81
g1134
sg74
(lp1150
g67
(g68
g69
NtRp1151
(dp1152
g72
(dp1153
g80
I4
ssg81
g1147
sg74
(lp1154
g110
asbasbasbag67
(g83
g69
NtRp1155
(dp1156
g72
(dp1157
sg81
g1017
sg74
(lp1158
g67
(g88
g69
NtRp1159
(dp1160
g72
(dp1161
g92
g93
ssg81
g1155
sg74
(lp1162
S'gluon_parent'
p1163
asbag67
(g88
g69
NtRp1164
(dp1165
g72
(dp1166
g99
g100
ssg81
g1155
sg74
(lp1167
S':'
asbag67
(g88
g69
NtRp1168
(dp1169
g72
(dp1170
sg81
g1155
sg74
(lp1171
g67
(g68
g69
NtRp1172
(dp1173
g72
(dp1174
g80
I4
ssg81
g1168
sg74
(lp1175
S'/home/goshawk/web2py'
p1176
asbasbasbag67
(g83
g69
NtRp1177
(dp1178
g72
(dp1179
sg81
g1017
sg74
(lp1180
g67
(g88
g69
NtRp1181
(dp1182
g72
(dp1183
g92
g93
ssg81
g1177
sg74
(lp1184
S'http_accept'
p1185
asbag67
(g88
g69
NtRp1186
(dp1187
g72
(dp1188
g99
g100
ssg81
g1177
sg74
(lp1189
S':'
asbag67
(g88
g69
NtRp1190
(dp1191
g72
(dp1192
sg81
g1177
sg74
(lp1193
g67
(g68
g69
NtRp1194
(dp1195
g72
(dp1196
g80
I4
ssg81
g1190
sg74
(lp1197
S'text/html,application/xhtml+xml,application/xml;q=0.9,*/*;q=0.8'
p1198
asbasbasbag67
(g83
g69
NtRp1199
(dp1200
g72
(dp1201
sg81
g1017
sg74
(lp1202
g67
(g88
g69
NtRp1203
(dp1204
g72
(dp1205
g92
g93
ssg81
g1199
sg74
(lp1206
S'http_accept_charset'
p1207
asbag67
(g88
g69
NtRp1208
(dp1209
g72
(dp1210
g99
g100
ssg81
g1199
sg74
(lp1211
S':'
asbag67
(g88
g69
NtRp1212
(dp1213
g72
(dp1214
sg81
g1199
sg74
(lp1215
g67
(g68
g69
NtRp1216
(dp1217
g72
(dp1218
g80
I4
ssg81
g1212
sg74
(lp1219
S'ISO-8859-1,utf-8;q=0.7,*;q=0.3'
p1220
asbasbasbag67
(g83
g69
NtRp1221
(dp1222
g72
(dp1223
sg81
g1017
sg74
(lp1224
g67
(g88
g69
NtRp1225
(dp1226
g72
(dp1227
g92
g93
ssg81
g1221
sg74
(lp1228
S'http_accept_encoding'
p1229
asbag67
(g88
g69
NtRp1230
(dp1231
g72
(dp1232
g99
g100
ssg81
g1221
sg74
(lp1233
S':'
asbag67
(g88
g69
NtRp1234
(dp1235
g72
(dp1236
sg81
g1221
sg74
(lp1237
g67
(g68
g69
NtRp1238
(dp1239
g72
(dp1240
g80
I4
ssg81
g1234
sg74
(lp1241
S'gzip,deflate,sdch'
p1242
asbasbasbag67
(g83
g69
NtRp1243
(dp1244
g72
(dp1245
sg81
g1017
sg74
(lp1246
g67
(g88
g69
NtRp1247
(dp1248
g72
(dp1249
g92
g93
ssg81
g1243
sg74
(lp1250
S'http_accept_language'
p1251
asbag67
(g88
g69
NtRp1252
(dp1253
g72
(dp1254
g99
g100
ssg81
g1243
sg74
(lp1255
S':'
asbag67
(g88
g69
NtRp1256
(dp1257
g72
(dp1258
sg81
g1243
sg74
(lp1259
g67
(g68
g69
NtRp1260
(dp1261
g72
(dp1262
g80
I4
ssg81
g1256
sg74
(lp1263
S'en-US,en;q=0.8'
p1264
asbasbasbag67
(g83
g69
NtRp1265
(dp1266
g72
(dp1267
sg81
g1017
sg74
(lp1268
g67
(g88
g69
NtRp1269
(dp1270
g72
(dp1271
g92
g93
ssg81
g1265
sg74
(lp1272
S'http_cache_control'
p1273
asbag67
(g88
g69
NtRp1274
(dp1275
g72
(dp1276
g99
g100
ssg81
g1265
sg74
(lp1277
S':'
asbag67
(g88
g69
NtRp1278
(dp1279
g72
(dp1280
sg81
g1265
sg74
(lp1281
g67
(g68
g69
NtRp1282
(dp1283
g72
(dp1284
g80
I4
ssg81
g1278
sg74
(lp1285
S'max-age=0'
p1286
asbasbasbag67
(g83
g69
NtRp1287
(dp1288
g72
(dp1289
sg81
g1017
sg74
(lp1290
g67
(g88
g69
NtRp1291
(dp1292
g72
(dp1293
g92
g93
ssg81
g1287
sg74
(lp1294
S'http_connection'
p1295
asbag67
(g88
g69
NtRp1296
(dp1297
g72
(dp1298
g99
g100
ssg81
g1287
sg74
(lp1299
S':'
asbag67
(g88
g69
NtRp1300
(dp1301
g72
(dp1302
sg81
g1287
sg74
(lp1303
g67
(g68
g69
NtRp1304
(dp1305
g72
(dp1306
g80
I4
ssg81
g1300
sg74
(lp1307
S'keep-alive'
p1308
asbasbasbag67
(g83
g69
NtRp1309
(dp1310
g72
(dp1311
sg81
g1017
sg74
(lp1312
g67
(g88
g69
NtRp1313
(dp1314
g72
(dp1315
g92
g93
ssg81
g1309
sg74
(lp1316
S'http_cookie'
p1317
asbag67
(g88
g69
NtRp1318
(dp1319
g72
(dp1320
g99
g100
ssg81
g1309
sg74
(lp1321
S':'
asbag67
(g88
g69
NtRp1322
(dp1323
g72
(dp1324
sg81
g1309
sg74
(lp1325
g67
(g68
g69
NtRp1326
(dp1327
g72
(dp1328
g80
I4
ssg81
g1322
sg74
(lp1329
S'session_id_welcome=127.0.0.1-96d72ece-52aa-4589-9852-f80d2f4ef559; session_id_milo=127.0.0.1-4a464e0e-f0b9-4de3-b8af-e6a04346340f; session_id_milo_survey=127.0.0.1-f190ac15-b815-42b0-afb8-f55de6f95998; session_id_admin=127.0.0.1-f49b6a8c-7123-4e75-a38c-23d417752286'
p1330
asbasbasbag67
(g83
g69
NtRp1331
(dp1332
g72
(dp1333
sg81
g1017
sg74
(lp1334
g67
(g88
g69
NtRp1335
(dp1336
g72
(dp1337
g92
g93
ssg81
g1331
sg74
(lp1338
S'http_host'
p1339
asbag67
(g88
g69
NtRp1340
(dp1341
g72
(dp1342
g99
g100
ssg81
g1331
sg74
(lp1343
S':'
asbag67
(g88
g69
NtRp1344
(dp1345
g72
(dp1346
sg81
g1331
sg74
(lp1347
g67
(g68
g69
NtRp1348
(dp1349
g72
(dp1350
g80
I4
ssg81
g1344
sg74
(lp1351
S'127.0.0.1:8000'
p1352
asbasbasbag67
(g83
g69
NtRp1353
(dp1354
g72
(dp1355
sg81
g1017
sg74
(lp1356
g67
(g88
g69
NtRp1357
(dp1358
g72
(dp1359
g92
g93
ssg81
g1353
sg74
(lp1360
S'http_referer'
p1361
asbag67
(g88
g69
NtRp1362
(dp1363
g72
(dp1364
g99
g100
ssg81
g1353
sg74
(lp1365
S':'
asbag67
(g88
g69
NtRp1366
(dp1367
g72
(dp1368
sg81
g1353
sg74
(lp1369
g67
(g68
g69
NtRp1370
(dp1371
g72
(dp1372
g80
I4
ssg81
g1366
sg74
(lp1373
S'http://127.0.0.1:8000/admin/default/site'
p1374
asbasbasbag67
(g83
g69
NtRp1375
(dp1376
g72
(dp1377
sg81
g1017
sg74
(lp1378
g67
(g88
g69
NtRp1379
(dp1380
g72
(dp1381
g92
g93
ssg81
g1375
sg74
(lp1382
S'http_user_agent'
p1383
asbag67
(g88
g69
NtRp1384
(dp1385
g72
(dp1386
g99
g100
ssg81
g1375
sg74
(lp1387
S':'
asbag67
(g88
g69
NtRp1388
(dp1389
g72
(dp1390
sg81
g1375
sg74
(lp1391
g67
(g68
g69
NtRp1392
(dp1393
g72
(dp1394
g80
I4
ssg81
g1388
sg74
(lp1395
S'Mozilla/5.0 (X11; Linux x86_64) AppleWebKit/535.19 (KHTML, like Gecko) Ubuntu/12.04 Chromium/18.0.1025.151 Chrome/18.0.1025.151 Safari/535.19'
p1396
asbasbasbag67
(g83
g69
NtRp1397
(dp1398
g72
(dp1399
sg81
g1017
sg74
(lp1400
g67
(g88
g69
NtRp1401
(dp1402
g72
(dp1403
g92
g93
ssg81
g1397
sg74
(lp1404
S'is_jython'
p1405
asbag67
(g88
g69
NtRp1406
(dp1407
g72
(dp1408
g99
g100
ssg81
g1397
sg74
(lp1409
S':'
asbag67
(g88
g69
NtRp1410
(dp1411
g72
(dp1412
sg81
g1397
sg74
(lp1413
g67
(g68
g69
NtRp1414
(dp1415
g72
(dp1416
g80
I4
ssg81
g1410
sg74
(lp1417
g110
asbasbasbag67
(g83
g69
NtRp1418
(dp1419
g72
(dp1420
sg81
g1017
sg74
(lp1421
g67
(g88
g69
NtRp1422
(dp1423
g72
(dp1424
g92
g93
ssg81
g1418
sg74
(lp1425
S'is_pypy'
p1426
asbag67
(g88
g69
NtRp1427
(dp1428
g72
(dp1429
g99
g100
ssg81
g1418
sg74
(lp1430
S':'
asbag67
(g88
g69
NtRp1431
(dp1432
g72
(dp1433
sg81
g1418
sg74
(lp1434
g67
(g68
g69
NtRp1435
(dp1436
g72
(dp1437
g80
I4
ssg81
g1431
sg74
(lp1438
g110
asbasbasbag67
(g83
g69
NtRp1439
(dp1440
g72
(dp1441
sg81
g1017
sg74
(lp1442
g67
(g88
g69
NtRp1443
(dp1444
g72
(dp1445
g92
g93
ssg81
g1439
sg74
(lp1446
S'path_info'
p1447
asbag67
(g88
g69
NtRp1448
(dp1449
g72
(dp1450
g99
g100
ssg81
g1439
sg74
(lp1451
S':'
asbag67
(g88
g69
NtRp1452
(dp1453
g72
(dp1454
sg81
g1439
sg74
(lp1455
g67
(g68
g69
NtRp1456
(dp1457
g72
(dp1458
g80
I4
ssg81
g1452
sg74
(lp1459
S'/milo/default/index'
p1460
asbasbasbag67
(g83
g69
NtRp1461
(dp1462
g72
(dp1463
sg81
g1017
sg74
(lp1464
g67
(g88
g69
NtRp1465
(dp1466
g72
(dp1467
g92
g93
ssg81
g1461
sg74
(lp1468
S'query_string'
p1469
asbag67
(g88
g69
NtRp1470
(dp1471
g72
(dp1472
g99
g100
ssg81
g1461
sg74
(lp1473
S':'
asbag67
(g88
g69
NtRp1474
(dp1475
g72
(dp1476
sg81
g1461
sg74
(lp1477
g67
(g68
g69
NtRp1478
(dp1479
g72
(dp1480
g80
I4
ssg81
g1474
sg74
(lp1481
S''
asbasbasbag67
(g83
g69
NtRp1482
(dp1483
g72
(dp1484
sg81
g1017
sg74
(lp1485
g67
(g88
g69
NtRp1486
(dp1487
g72
(dp1488
g92
g93
ssg81
g1482
sg74
(lp1489
S'remote_addr'
p1490
asbag67
(g88
g69
NtRp1491
(dp1492
g72
(dp1493
g99
g100
ssg81
g1482
sg74
(lp1494
S':'
asbag67
(g88
g69
NtRp1495
(dp1496
g72
(dp1497
sg81
g1482
sg74
(lp1498
g67
(g68
g69
NtRp1499
(dp1500
g72
(dp1501
g80
I4
ssg81
g1495
sg74
(lp1502
g200
asbasbasbag67
(g83
g69
NtRp1503
(dp1504
g72
(dp1505
sg81
g1017
sg74
(lp1506
g67
(g88
g69
NtRp1507
(dp1508
g72
(dp1509
g92
g93
ssg81
g1503
sg74
(lp1510
S'remote_port'
p1511
asbag67
(g88
g69
NtRp1512
(dp1513
g72
(dp1514
g99
g100
ssg81
g1503
sg74
(lp1515
S':'
asbag67
(g88
g69
NtRp1516
(dp1517
g72
(dp1518
sg81
g1503
sg74
(lp1519
g67
(g68
g69
NtRp1520
(dp1521
g72
(dp1522
g80
I4
ssg81
g1516
sg74
(lp1523
S'55607'
p1524
asbasbasbag67
(g83
g69
NtRp1525
(dp1526
g72
(dp1527
sg81
g1017
sg74
(lp1528
g67
(g88
g69
NtRp1529
(dp1530
g72
(dp1531
g92
g93
ssg81
g1525
sg74
(lp1532
S'request_method'
p1533
asbag67
(g88
g69
NtRp1534
(dp1535
g72
(dp1536
g99
g100
ssg81
g1525
sg74
(lp1537
S':'
asbag67
(g88
g69
NtRp1538
(dp1539
g72
(dp1540
sg81
g1525
sg74
(lp1541
g67
(g68
g69
NtRp1542
(dp1543
g72
(dp1544
g80
I4
ssg81
g1538
sg74
(lp1545
S'GET'
p1546
asbasbasbag67
(g83
g69
NtRp1547
(dp1548
g72
(dp1549
sg81
g1017
sg74
(lp1550
g67
(g88
g69
NtRp1551
(dp1552
g72
(dp1553
g92
g93
ssg81
g1547
sg74
(lp1554
S'request_uri'
p1555
asbag67
(g88
g69
NtRp1556
(dp1557
g72
(dp1558
g99
g100
ssg81
g1547
sg74
(lp1559
S':'
asbag67
(g88
g69
NtRp1560
(dp1561
g72
(dp1562
sg81
g1547
sg74
(lp1563
g67
(g68
g69
NtRp1564
(dp1565
g72
(dp1566
g80
I4
ssg81
g1560
sg74
(lp1567
g1460
asbasbasbag67
(g83
g69
NtRp1568
(dp1569
g72
(dp1570
sg81
g1017
sg74
(lp1571
g67
(g88
g69
NtRp1572
(dp1573
g72
(dp1574
g92
g93
ssg81
g1568
sg74
(lp1575
S'script_name'
p1576
asbag67
(g88
g69
NtRp1577
(dp1578
g72
(dp1579
g99
g100
ssg81
g1568
sg74
(lp1580
S':'
asbag67
(g88
g69
NtRp1581
(dp1582
g72
(dp1583
sg81
g1568
sg74
(lp1584
g67
(g68
g69
NtRp1585
(dp1586
g72
(dp1587
g80
I4
ssg81
g1581
sg74
(lp1588
S''
asbasbasbag67
(g83
g69
NtRp1589
(dp1590
g72
(dp1591
sg81
g1017
sg74
(lp1592
g67
(g88
g69
NtRp1593
(dp1594
g72
(dp1595
g92
g93
ssg81
g1589
sg74
(lp1596
S'server_name'
p1597
asbag67
(g88
g69
NtRp1598
(dp1599
g72
(dp1600
g99
g100
ssg81
g1589
sg74
(lp1601
S':'
asbag67
(g88
g69
NtRp1602
(dp1603
g72
(dp1604
sg81
g1589
sg74
(lp1605
g67
(g68
g69
NtRp1606
(dp1607
g72
(dp1608
g80
I4
ssg81
g1602
sg74
(lp1609
S'whisperer'
p1610
asbasbasbag67
(g83
g69
NtRp1611
(dp1612
g72
(dp1613
sg81
g1017
sg74
(lp1614
g67
(g88
g69
NtRp1615
(dp1616
g72
(dp1617
g92
g93
ssg81
g1611
sg74
(lp1618
S'server_port'
p1619
asbag67
(g88
g69
NtRp1620
(dp1621
g72
(dp1622
g99
g100
ssg81
g1611
sg74
(lp1623
S':'
asbag67
(g88
g69
NtRp1624
(dp1625
g72
(dp1626
sg81
g1611
sg74
(lp1627
g67
(g68
g69
NtRp1628
(dp1629
g72
(dp1630
g80
I4
ssg81
g1624
sg74
(lp1631
S'8000'
p1632
asbasbasbag67
(g83
g69
NtRp1633
(dp1634
g72
(dp1635
sg81
g1017
sg74
(lp1636
g67
(g88
g69
NtRp1637
(dp1638
g72
(dp1639
g92
g93
ssg81
g1633
sg74
(lp1640
S'server_protocol'
p1641
asbag67
(g88
g69
NtRp1642
(dp1643
g72
(dp1644
g99
g100
ssg81
g1633
sg74
(lp1645
S':'
asbag67
(g88
g69
NtRp1646
(dp1647
g72
(dp1648
sg81
g1633
sg74
(lp1649
g67
(g68
g69
NtRp1650
(dp1651
g72
(dp1652
g80
I4
ssg81
g1646
sg74
(lp1653
S'HTTP/1.1'
p1654
asbasbasbag67
(g83
g69
NtRp1655
(dp1656
g72
(dp1657
sg81
g1017
sg74
(lp1658
g67
(g88
g69
NtRp1659
(dp1660
g72
(dp1661
g92
g93
ssg81
g1655
sg74
(lp1662
S'server_software'
p1663
asbag67
(g88
g69
NtRp1664
(dp1665
g72
(dp1666
g99
g100
ssg81
g1655
sg74
(lp1667
S':'
asbag67
(g88
g69
NtRp1668
(dp1669
g72
(dp1670
sg81
g1655
sg74
(lp1671
g67
(g68
g69
NtRp1672
(dp1673
g72
(dp1674
g80
I4
ssg81
g1668
sg74
(lp1675
S'Rocket 1.2.4'
p1676
asbasbasbag67
(g83
g69
NtRp1677
(dp1678
g72
(dp1679
sg81
g1017
sg74
(lp1680
g67
(g88
g69
NtRp1681
(dp1682
g72
(dp1683
g92
g93
ssg81
g1677
sg74
(lp1684
S'web2py_crontype'
p1685
asbag67
(g88
g69
NtRp1686
(dp1687
g72
(dp1688
g99
g100
ssg81
g1677
sg74
(lp1689
S':'
asbag67
(g88
g69
NtRp1690
(dp1691
g72
(dp1692
sg81
g1677
sg74
(lp1693
g67
(g68
g69
NtRp1694
(dp1695
g72
(dp1696
g80
I4
ssg81
g1690
sg74
(lp1697
S'hard'
p1698
asbasbasbag67
(g83
g69
NtRp1699
(dp1700
g72
(dp1701
sg81
g1017
sg74
(lp1702
g67
(g88
g69
NtRp1703
(dp1704
g72
(dp1705
g92
g93
ssg81
g1699
sg74
(lp1706
S'web2py_original_uri'
p1707
asbag67
(g88
g69
NtRp1708
(dp1709
g72
(dp1710
g99
g100
ssg81
g1699
sg74
(lp1711
S':'
asbag67
(g88
g69
NtRp1712
(dp1713
g72
(dp1714
sg81
g1699
sg74
(lp1715
g67
(g68
g69
NtRp1716
(dp1717
g72
(dp1718
g80
I4
ssg81
g1712
sg74
(lp1719
g1460
asbasbasbag67
(g83
g69
NtRp1720
(dp1721
g72
(dp1722
sg81
g1017
sg74
(lp1723
g67
(g88
g69
NtRp1724
(dp1725
g72
(dp1726
g92
g93
ssg81
g1720
sg74
(lp1727
S'web2py_path'
p1728
asbag67
(g88
g69
NtRp1729
(dp1730
g72
(dp1731
g99
g100
ssg81
g1720
sg74
(lp1732
S':'
asbag67
(g88
g69
NtRp1733
(dp1734
g72
(dp1735
sg81
g1720
sg74
(lp1736
g67
(g68
g69
NtRp1737
(dp1738
g72
(dp1739
g80
I4
ssg81
g1733
sg74
(lp1740
g1064
asbasbasbag67
(g83
g69
NtRp1741
(dp1742
g72
(dp1743
sg81
g1017
sg74
(lp1744
g67
(g88
g69
NtRp1745
(dp1746
g72
(dp1747
g92
g93
ssg81
g1741
sg74
(lp1748
S'web2py_version'
p1749
asbag67
(g88
g69
NtRp1750
(dp1751
g72
(dp1752
g99
g100
ssg81
g1741
sg74
(lp1753
S':'
asbag67
(g88
g69
NtRp1754
(dp1755
g72
(dp1756
sg81
g1741
sg74
(lp1757
g67
(g68
g69
NtRp1758
(dp1759
g72
(dp1760
g80
I4
ssg81
g1754
sg74
(lp1761
g67
(g76
g69
NtRp1762
(dp1763
g72
(dp1764
g80
I3
ssg81
Nsg74
(lp1765
g67
(g83
g69
NtRp1766
(dp1767
g72
(dp1768
sg81
g1762
sg74
(lp1769
g67
(g88
g69
NtRp1770
(dp1771
g72
(dp1772
sg81
g1766
sg74
(lp1773
g67
(g68
g69
NtRp1774
(dp1775
g72
(dp1776
g80
I3
ssg81
g1770
sg74
(lp1777
S'1'
asbasbasbag67
(g83
g69
NtRp1778
(dp1779
g72
(dp1780
sg81
g1762
sg74
(lp1781
g67
(g88
g69
NtRp1782
(dp1783
g72
(dp1784
sg81
g1778
sg74
(lp1785
g67
(g68
g69
NtRp1786
(dp1787
g72
(dp1788
g80
I3
ssg81
g1782
sg74
(lp1789
S'99'
p1790
asbasbasbag67
(g83
g69
NtRp1791
(dp1792
g72
(dp1793
sg81
g1762
sg74
(lp1794
g67
(g88
g69
NtRp1795
(dp1796
g72
(dp1797
sg81
g1791
sg74
(lp1798
g67
(g68
g69
NtRp1799
(dp1800
g72
(dp1801
g80
I3
ssg81
g1795
sg74
(lp1802
S'7'
asbasbasbag67
(g83
g69
NtRp1803
(dp1804
g72
(dp1805
sg81
g1762
sg74
(lp1806
g67
(g88
g69
NtRp1807
(dp1808
g72
(dp1809
sg81
g1803
sg74
(lp1810
g67
(g68
g69
NtRp1811
(dp1812
g72
(dp1813
g80
I3
ssg81
g1807
sg74
(lp1814
S'datetime.datetime(2012, 3, 4, 22, 12, 8)'
p1815
asbasbasbag67
(g83
g69
NtRp1816
(dp1817
g72
(dp1818
sg81
g1762
sg74
(lp1819
g67
(g88
g69
NtRp1820
(dp1821
g72
(dp1822
sg81
g1816
sg74
(lp1823
g67
(g68
g69
NtRp1824
(dp1825
g72
(dp1826
g80
I3
ssg81
g1820
sg74
(lp1827
S'stable'
p1828
asbasbasbasbasbasbasbag67
(g83
g69
NtRp1829
(dp1830
g72
(dp1831
sg81
g1017
sg74
(lp1832
g67
(g88
g69
NtRp1833
(dp1834
g72
(dp1835
g92
g93
ssg81
g1829
sg74
(lp1836
S'wsgi_errors'
p1837
asbag67
(g88
g69
NtRp1838
(dp1839
g72
(dp1840
g99
g100
ssg81
g1829
sg74
(lp1841
S':'
asbag67
(g88
g69
NtRp1842
(dp1843
g72
(dp1844
sg81
g1829
sg74
(lp1845
g67
(g68
g69
NtRp1846
(dp1847
g72
(dp1848
g80
I4
ssg81
g1842
sg74
(lp1849
S"<open file '<stderr>', mode 'w' at 0x7fe3d5536270>"
p1850
asbasbasbag67
(g83
g69
NtRp1851
(dp1852
g72
(dp1853
sg81
g1017
sg74
(lp1854
g67
(g88
g69
NtRp1855
(dp1856
g72
(dp1857
g92
g93
ssg81
g1851
sg74
(lp1858
S'wsgi_file_wrapper'
p1859
asbag67
(g88
g69
NtRp1860
(dp1861
g72
(dp1862
g99
g100
ssg81
g1851
sg74
(lp1863
S':'
asbag67
(g88
g69
NtRp1864
(dp1865
g72
(dp1866
sg81
g1851
sg74
(lp1867
g67
(g68
g69
NtRp1868
(dp1869
g72
(dp1870
g80
I4
ssg81
g1864
sg74
(lp1871
S'<class wsgiref.util.FileWrapper at 0x222bf58>'
p1872
asbasbasbag67
(g83
g69
NtRp1873
(dp1874
g72
(dp1875
sg81
g1017
sg74
(lp1876
g67
(g88
g69
NtRp1877
(dp1878
g72
(dp1879
g92
g93
ssg81
g1873
sg74
(lp1880
S'wsgi_input'
p1881
asbag67
(g88
g69
NtRp1882
(dp1883
g72
(dp1884
g99
g100
ssg81
g1873
sg74
(lp1885
S':'
asbag67
(g88
g69
NtRp1886
(dp1887
g72
(dp1888
sg81
g1873
sg74
(lp1889
g67
(g68
g69
NtRp1890
(dp1891
g72
(dp1892
g80
I4
ssg81
g1886
sg74
(lp1893
S'<socket._fileobject object at 0x7fe3b4769150>'
p1894
asbasbasbag67
(g83
g69
NtRp1895
(dp1896
g72
(dp1897
sg81
g1017
sg74
(lp1898
g67
(g88
g69
NtRp1899
(dp1900
g72
(dp1901
g92
g93
ssg81
g1895
sg74
(lp1902
S'wsgi_multiprocess'
p1903
asbag67
(g88
g69
NtRp1904
(dp1905
g72
(dp1906
g99
g100
ssg81
g1895
sg74
(lp1907
S':'
asbag67
(g88
g69
NtRp1908
(dp1909
g72
(dp1910
sg81
g1895
sg74
(lp1911
g67
(g68
g69
NtRp1912
(dp1913
g72
(dp1914
g80
I4
ssg81
g1908
sg74
(lp1915
g110
asbasbasbag67
(g83
g69
NtRp1916
(dp1917
g72
(dp1918
sg81
g1017
sg74
(lp1919
g67
(g88
g69
NtRp1920
(dp1921
g72
(dp1922
g92
g93
ssg81
g1916
sg74
(lp1923
S'wsgi_multithread'
p1924
asbag67
(g88
g69
NtRp1925
(dp1926
g72
(dp1927
g99
g100
ssg81
g1916
sg74
(lp1928
S':'
asbag67
(g88
g69
NtRp1929
(dp1930
g72
(dp1931
sg81
g1916
sg74
(lp1932
g67
(g68
g69
NtRp1933
(dp1934
g72
(dp1935
g80
I4
ssg81
g1929
sg74
(lp1936
S'True'
p1937
asbasbasbag67
(g83
g69
NtRp1938
(dp1939
g72
(dp1940
sg81
g1017
sg74
(lp1941
g67
(g88
g69
NtRp1942
(dp1943
g72
(dp1944
g92
g93
ssg81
g1938
sg74
(lp1945
S'wsgi_run_once'
p1946
asbag67
(g88
g69
NtRp1947
(dp1948
g72
(dp1949
g99
g100
ssg81
g1938
sg74
(lp1950
S':'
asbag67
(g88
g69
NtRp1951
(dp1952
g72
(dp1953
sg81
g1938
sg74
(lp1954
g67
(g68
g69
NtRp1955
(dp1956
g72
(dp1957
g80
I4
ssg81
g1951
sg74
(lp1958
g110
asbasbasbag67
(g83
g69
NtRp1959
(dp1960
g72
(dp1961
sg81
g1017
sg74
(lp1962
g67
(g88
g69
NtRp1963
(dp1964
g72
(dp1965
g92
g93
ssg81
g1959
sg74
(lp1966
S'wsgi_url_scheme'
p1967
asbag67
(g88
g69
NtRp1968
(dp1969
g72
(dp1970
g99
g100
ssg81
g1959
sg74
(lp1971
S':'
asbag67
(g88
g69
NtRp1972
(dp1973
g72
(dp1974
sg81
g1959
sg74
(lp1975
g67
(g68
g69
NtRp1976
(dp1977
g72
(dp1978
g80
I4
ssg81
g1972
sg74
(lp1979
S'http'
p1980
asbasbasbag67
(g83
g69
NtRp1981
(dp1982
g72
(dp1983
sg81
g1017
sg74
(lp1984
g67
(g88
g69
NtRp1985
(dp1986
g72
(dp1987
g92
g93
ssg81
g1981
sg74
(lp1988
S'wsgi_version'
p1989
asbag67
(g88
g69
NtRp1990
(dp1991
g72
(dp1992
g99
g100
ssg81
g1981
sg74
(lp1993
S':'
asbag67
(g88
g69
NtRp1994
(dp1995
g72
(dp1996
sg81
g1981
sg74
(lp1997
g67
(g68
g69
NtRp1998
(dp1999
g72
(dp2000
g80
I4
ssg81
g1994
sg74
(lp2001
g67
(g76
g69
NtRp2002
(dp2003
g72
(dp2004
g80
I3
ssg81
Nsg74
(lp2005
g67
(g83
g69
NtRp2006
(dp2007
g72
(dp2008
sg81
g2002
sg74
(lp2009
g67
(g88
g69
NtRp2010
(dp2011
g72
(dp2012
sg81
g2006
sg74
(lp2013
g67
(g68
g69
NtRp2014
(dp2015
g72
(dp2016
g80
I3
ssg81
g2010
sg74
(lp2017
S'1'
asbasbasbag67
(g83
g69
NtRp2018
(dp2019
g72
(dp2020
sg81
g2002
sg74
(lp2021
g67
(g88
g69
NtRp2022
(dp2023
g72
(dp2024
sg81
g2018
sg74
(lp2025
g67
(g68
g69
NtRp2026
(dp2027
g72
(dp2028
g80
I3
ssg81
g2022
sg74
(lp2029
S'0'
asbasbasbasbasbasbasbasbasbasbasbag67
(g83
g69
NtRp2030
(dp2031
g72
(dp2032
sg81
g77
sg74
(lp2033
g67
(g88
g69
NtRp2034
(dp2035
g72
(dp2036
g92
g93
ssg81
g2030
sg74
(lp2037
S'extension'
p2038
asbag67
(g88
g69
NtRp2039
(dp2040
g72
(dp2041
g99
g100
ssg81
g2030
sg74
(lp2042
S':'
asbag67
(g88
g69
NtRp2043
(dp2044
g72
(dp2045
sg81
g2030
sg74
(lp2046
g67
(g68
g69
NtRp2047
(dp2048
g72
(dp2049
g80
I5
ssg81
g2043
sg74
(lp2050
S'html'
p2051
asbasbasbag67
(g83
g69
NtRp2052
(dp2053
g72
(dp2054
sg81
g77
sg74
(lp2055
g67
(g88
g69
NtRp2056
(dp2057
g72
(dp2058
g92
g93
ssg81
g2052
sg74
(lp2059
S'folder'
p2060
asbag67
(g88
g69
NtRp2061
(dp2062
g72
(dp2063
g99
g100
ssg81
g2052
sg74
(lp2064
S':'
asbag67
(g88
g69
NtRp2065
(dp2066
g72
(dp2067
sg81
g2052
sg74
(lp2068
g67
(g68
g69
NtRp2069
(dp2070
g72
(dp2071
g80
I5
ssg81
g2065
sg74
(lp2072
S'/home/goshawk/web2py/applications/milo/'
p2073
asbasbasbag67
(g83
g69
NtRp2074
(dp2075
g72
(dp2076
sg81
g77
sg74
(lp2077
g67
(g88
g69
NtRp2078
(dp2079
g72
(dp2080
g92
g93
ssg81
g2074
sg74
(lp2081
S'function'
p2082
asbag67
(g88
g69
NtRp2083
(dp2084
g72
(dp2085
g99
g100
ssg81
g2074
sg74
(lp2086
S':'
asbag67
(g88
g69
NtRp2087
(dp2088
g72
(dp2089
sg81
g2074
sg74
(lp2090
g67
(g68
g69
NtRp2091
(dp2092
g72
(dp2093
g80
I5
ssg81
g2087
sg74
(lp2094
S'index'
p2095
asbasbasbag67
(g83
g69
NtRp2096
(dp2097
g72
(dp2098
sg81
g77
sg74
(lp2099
g67
(g88
g69
NtRp2100
(dp2101
g72
(dp2102
g92
g93
ssg81
g2096
sg74
(lp2103
S'get_vars'
p2104
asbag67
(g88
g69
NtRp2105
(dp2106
g72
(dp2107
g99
g100
ssg81
g2096
sg74
(lp2108
S':'
asbag67
(g88
g69
NtRp2109
(dp2110
g72
(dp2111
sg81
g2096
sg74
(lp2112
g67
(g68
g69
NtRp2113
(dp2114
g72
(dp2115
g80
I5
ssg81
g2109
sg74
(lp2116
g67
(g76
g69
NtRp2117
(dp2118
g72
(dp2119
g80
I4
ssg81
Nsg74
(lp2120
sbasbasbasbag67
(g83
g69
NtRp2121
(dp2122
g72
(dp2123
sg81
g77
sg74
(lp2124
g67
(g88
g69
NtRp2125
(dp2126
g72
(dp2127
g92
g93
ssg81
g2121
sg74
(lp2128
S'global_settings'
p2129
asbag67
(g88
g69
NtRp2130
(dp2131
g72
(dp2132
g99
g100
ssg81
g2121
sg74
(lp2133
S':'
asbag67
(g88
g69
NtRp2134
(dp2135
g72
(dp2136
sg81
g2121
sg74
(lp2137
g67
(g68
g69
NtRp2138
(dp2139
g72
(dp2140
g80
I5
ssg81
g2134
sg74
(lp2141
g67
(g76
g69
NtRp2142
(dp2143
g72
(dp2144
g80
I4
ssg81
Nsg74
(lp2145
g67
(g83
g69
NtRp2146
(dp2147
g72
(dp2148
sg81
g2142
sg74
(lp2149
g67
(g88
g69
NtRp2150
(dp2151
g72
(dp2152
g92
g93
ssg81
g2146
sg74
(lp2153
g1029
asbag67
(g88
g69
NtRp2154
(dp2155
g72
(dp2156
g99
g100
ssg81
g2146
sg74
(lp2157
S':'
asbag67
(g88
g69
NtRp2158
(dp2159
g72
(dp2160
sg81
g2146
sg74
(lp2161
g67
(g68
g69
NtRp2162
(dp2163
g72
(dp2164
g80
I4
ssg81
g2158
sg74
(lp2165
S"set(['/home/goshawk/web2py/applications/milo/', '/home/goshawk/web2py/applications/admin/', '/home/goshawk/web2py/applications/welcome/', '/home/goshawk/web2py/applications/milo_survey/', '/home/goshawk/web2py/applications/examples/'])"
p2166
asbasbasbag67
(g83
g69
NtRp2167
(dp2168
g72
(dp2169
sg81
g2142
sg74
(lp2170
g67
(g88
g69
NtRp2171
(dp2172
g72
(dp2173
g92
g93
ssg81
g2167
sg74
(lp2174
g1051
asbag67
(g88
g69
NtRp2175
(dp2176
g72
(dp2177
g99
g100
ssg81
g2167
sg74
(lp2178
S':'
asbag67
(g88
g69
NtRp2179
(dp2180
g72
(dp2181
sg81
g2167
sg74
(lp2182
g67
(g68
g69
NtRp2183
(dp2184
g72
(dp2185
g80
I4
ssg81
g2179
sg74
(lp2186
g1064
asbasbasbag67
(g83
g69
NtRp2187
(dp2188
g72
(dp2189
sg81
g2142
sg74
(lp2190
g67
(g88
g69
NtRp2191
(dp2192
g72
(dp2193
g92
g93
ssg81
g2187
sg74
(lp2194
g1073
asbag67
(g88
g69
NtRp2195
(dp2196
g72
(dp2197
g99
g100
ssg81
g2187
sg74
(lp2198
S':'
asbag67
(g88
g69
NtRp2199
(dp2200
g72
(dp2201
sg81
g2187
sg74
(lp2202
g67
(g68
g69
NtRp2203
(dp2204
g72
(dp2205
g80
I4
ssg81
g2199
sg74
(lp2206
g67
(g76
g69
NtRp2207
(dp2208
g72
(dp2209
g80
I3
ssg81
Nsg74
(lp2210
sbasbasbasbag67
(g83
g69
NtRp2211
(dp2212
g72
(dp2213
sg81
g2142
sg74
(lp2214
g67
(g88
g69
NtRp2215
(dp2216
g72
(dp2217
g92
g93
ssg81
g2211
sg74
(lp2218
g1098
asbag67
(g88
g69
NtRp2219
(dp2220
g72
(dp2221
g99
g100
ssg81
g2211
sg74
(lp2222
S':'
asbag67
(g88
g69
NtRp2223
(dp2224
g72
(dp2225
sg81
g2211
sg74
(lp2226
g67
(g68
g69
NtRp2227
(dp2228
g72
(dp2229
g80
I4
ssg81
g2223
sg74
(lp2230
S"<Values at 0x22f8b48: {'verbose': False, 'ip': '127.0.0.1', 'shutdown_timeout': 5, 'taskbar': False, 'nocron': False, 'pid_filename': 'httpserver.pid', 'maxthreads': None, 'softcron': False, 'server_name': 'whisperer', 'bpython': False, 'nogui': False, 'port': 8000, 'extcron': False, 'debuglevel': 30, 'test': None, 'folder': '/home/goshawk/web2py', 'config': '', 'import_models': False, 'winservice': '', 'shell': None, 'run': '', 'log_filename': 'httpserver.log', 'args': [''], 'socket_timeout': 5, 'ssl_ca_certificate': None, 'scheduler': None, 'profiler_filename': None, 'ssl_private_key': '', 'password': 'admin', 'request_queue_size': 5, 'ssl_certificate': '', 'cronjob': False, 'numthreads': None, 'quiet': False, 'interfaces': None, 'minthreads': None, 'timeout': 10, 'plain': False, 'nobanner': False}>"
p2231
asbasbasbag67
(g83
g69
NtRp2232
(dp2233
g72
(dp2234
sg81
g2142
sg74
(lp2235
g67
(g88
g69
NtRp2236
(dp2237
g72
(dp2238
g92
g93
ssg81
g2232
sg74
(lp2239
g1120
asbag67
(g88
g69
NtRp2240
(dp2241
g72
(dp2242
g99
g100
ssg81
g2232
sg74
(lp2243
S':'
asbag67
(g88
g69
NtRp2244
(dp2245
g72
(dp2246
sg81
g2232
sg74
(lp2247
g67
(g68
g69
NtRp2248
(dp2249
g72
(dp2250
g80
I4
ssg81
g2244
sg74
(lp2251
S'set([])'
p2252
asbasbasbag67
(g83
g69
NtRp2253
(dp2254
g72
(dp2255
sg81
g2142
sg74
(lp2256
g67
(g88
g69
NtRp2257
(dp2258
g72
(dp2259
g92
g93
ssg81
g2253
sg74
(lp2260
g1142
asbag67
(g88
g69
NtRp2261
(dp2262
g72
(dp2263
g99
g100
ssg81
g2253
sg74
(lp2264
S':'
asbag67
(g88
g69
NtRp2265
(dp2266
g72
(dp2267
sg81
g2253
sg74
(lp2268
g67
(g68
g69
NtRp2269
(dp2270
g72
(dp2271
g80
I4
ssg81
g2265
sg74
(lp2272
g110
asbasbasbag67
(g83
g69
NtRp2273
(dp2274
g72
(dp2275
sg81
g2142
sg74
(lp2276
g67
(g88
g69
NtRp2277
(dp2278
g72
(dp2279
g92
g93
ssg81
g2273
sg74
(lp2280
g1163
asbag67
(g88
g69
NtRp2281
(dp2282
g72
(dp2283
g99
g100
ssg81
g2273
sg74
(lp2284
S':'
asbag67
(g88
g69
NtRp2285
(dp2286
g72
(dp2287
sg81
g2273
sg74
(lp2288
g67
(g68
g69
NtRp2289
(dp2290
g72
(dp2291
g80
I4
ssg81
g2285
sg74
(lp2292
g1176
asbasbasbag67
(g83
g69
NtRp2293
(dp2294
g72
(dp2295
sg81
g2142
sg74
(lp2296
g67
(g88
g69
NtRp2297
(dp2298
g72
(dp2299
g92
g93
ssg81
g2293
sg74
(lp2300
g1405
asbag67
(g88
g69
NtRp2301
(dp2302
g72
(dp2303
g99
g100
ssg81
g2293
sg74
(lp2304
S':'
asbag67
(g88
g69
NtRp2305
(dp2306
g72
(dp2307
sg81
g2293
sg74
(lp2308
g67
(g68
g69
NtRp2309
(dp2310
g72
(dp2311
g80
I4
ssg81
g2305
sg74
(lp2312
g110
asbasbasbag67
(g83
g69
NtRp2313
(dp2314
g72
(dp2315
sg81
g2142
sg74
(lp2316
g67
(g88
g69
NtRp2317
(dp2318
g72
(dp2319
g92
g93
ssg81
g2313
sg74
(lp2320
g1426
asbag67
(g88
g69
NtRp2321
(dp2322
g72
(dp2323
g99
g100
ssg81
g2313
sg74
(lp2324
S':'
asbag67
(g88
g69
NtRp2325
(dp2326
g72
(dp2327
sg81
g2313
sg74
(lp2328
g67
(g68
g69
NtRp2329
(dp2330
g72
(dp2331
g80
I4
ssg81
g2325
sg74
(lp2332
g110
asbasbasbag67
(g83
g69
NtRp2333
(dp2334
g72
(dp2335
sg81
g2142
sg74
(lp2336
g67
(g88
g69
NtRp2337
(dp2338
g72
(dp2339
g92
g93
ssg81
g2333
sg74
(lp2340
g1685
asbag67
(g88
g69
NtRp2341
(dp2342
g72
(dp2343
g99
g100
ssg81
g2333
sg74
(lp2344
S':'
asbag67
(g88
g69
NtRp2345
(dp2346
g72
(dp2347
sg81
g2333
sg74
(lp2348
g67
(g68
g69
NtRp2349
(dp2350
g72
(dp2351
g80
I4
ssg81
g2345
sg74
(lp2352
g1698
asbasbasbag67
(g83
g69
NtRp2353
(dp2354
g72
(dp2355
sg81
g2142
sg74
(lp2356
g67
(g88
g69
NtRp2357
(dp2358
g72
(dp2359
g92
g93
ssg81
g2353
sg74
(lp2360
g1749
asbag67
(g88
g69
NtRp2361
(dp2362
g72
(dp2363
g99
g100
ssg81
g2353
sg74
(lp2364
S':'
asbag67
(g88
g69
NtRp2365
(dp2366
g72
(dp2367
sg81
g2353
sg74
(lp2368
g67
(g68
g69
NtRp2369
(dp2370
g72
(dp2371
g80
I4
ssg81
g2365
sg74
(lp2372
g67
(g76
g69
NtRp2373
(dp2374
g72
(dp2375
g80
I3
ssg81
Nsg74
(lp2376
g67
(g83
g69
NtRp2377
(dp2378
g72
(dp2379
sg81
g2373
sg74
(lp2380
g67
(g88
g69
NtRp2381
(dp2382
g72
(dp2383
sg81
g2377
sg74
(lp2384
g67
(g68
g69
NtRp2385
(dp2386
g72
(dp2387
g80
I3
ssg81
g2381
sg74
(lp2388
S'1'
asbasbasbag67
(g83
g69
NtRp2389
(dp2390
g72
(dp2391
sg81
g2373
sg74
(lp2392
g67
(g88
g69
NtRp2393
(dp2394
g72
(dp2395
sg81
g2389
sg74
(lp2396
g67
(g68
g69
NtRp2397
(dp2398
g72
(dp2399
g80
I3
ssg81
g2393
sg74
(lp2400
S'99'
p2401
asbasbasbag67
(g83
g69
NtRp2402
(dp2403
g72
(dp2404
sg81
g2373
sg74
(lp2405
g67
(g88
g69
NtRp2406
(dp2407
g72
(dp2408
sg81
g2402
sg74
(lp2409
g67
(g68
g69
NtRp2410
(dp2411
g72
(dp2412
g80
I3
ssg81
g2406
sg74
(lp2413
S'7'
asbasbasbag67
(g83
g69
NtRp2414
(dp2415
g72
(dp2416
sg81
g2373
sg74
(lp2417
g67
(g88
g69
NtRp2418
(dp2419
g72
(dp2420
sg81
g2414
sg74
(lp2421
g67
(g68
g69
NtRp2422
(dp2423
g72
(dp2424
g80
I3
ssg81
g2418
sg74
(lp2425
S'datetime.datetime(2012, 3, 4, 22, 12, 8)'
p2426
asbasbasbag67
(g83
g69
NtRp2427
(dp2428
g72
(dp2429
sg81
g2373
sg74
(lp2430
g67
(g88
g69
NtRp2431
(dp2432
g72
(dp2433
sg81
g2427
sg74
(lp2434
g67
(g68
g69
NtRp2435
(dp2436
g72
(dp2437
g80
I3
ssg81
g2431
sg74
(lp2438
g1828
asbasbasbasbasbasbasbasbasbasbasbag67
(g83
g69
NtRp2439
(dp2440
g72
(dp2441
sg81
g77
sg74
(lp2442
g67
(g88
g69
NtRp2443
(dp2444
g72
(dp2445
g92
g93
ssg81
g2439
sg74
(lp2446
S'is_https'
p2447
asbag67
(g88
g69
NtRp2448
(dp2449
g72
(dp2450
g99
g100
ssg81
g2439
sg74
(lp2451
S':'
asbag67
(g88
g69
NtRp2452
(dp2453
g72
(dp2454
sg81
g2439
sg74
(lp2455
g67
(g68
g69
NtRp2456
(dp2457
g72
(dp2458
g80
I5
ssg81
g2452
sg74
(lp2459
g110
asbasbasbag67
(g83
g69
NtRp2460
(dp2461
g72
(dp2462
sg81
g77
sg74
(lp2463
g67
(g88
g69
NtRp2464
(dp2465
g72
(dp2466
g92
g93
ssg81
g2460
sg74
(lp2467
S'is_local'
p2468
asbag67
(g88
g69
NtRp2469
(dp2470
g72
(dp2471
g99
g100
ssg81
g2460
sg74
(lp2472
S':'
asbag67
(g88
g69
NtRp2473
(dp2474
g72
(dp2475
sg81
g2460
sg74
(lp2476
g67
(g68
g69
NtRp2477
(dp2478
g72
(dp2479
g80
I5
ssg81
g2473
sg74
(lp2480
g1937
asbasbasbag67
(g83
g69
NtRp2481
(dp2482
g72
(dp2483
sg81
g77
sg74
(lp2484
g67
(g88
g69
NtRp2485
(dp2486
g72
(dp2487
g92
g93
ssg81
g2481
sg74
(lp2488
S'is_restful'
p2489
asbag67
(g88
g69
NtRp2490
(dp2491
g72
(dp2492
g99
g100
ssg81
g2481
sg74
(lp2493
S':'
asbag67
(g88
g69
NtRp2494
(dp2495
g72
(dp2496
sg81
g2481
sg74
(lp2497
g67
(g68
g69
NtRp2498
(dp2499
g72
(dp2500
g80
I5
ssg81
g2494
sg74
(lp2501
g110
asbasbasbag67
(g83
g69
NtRp2502
(dp2503
g72
(dp2504
sg81
g77
sg74
(lp2505
g67
(g88
g69
NtRp2506
(dp2507
g72
(dp2508
g92
g93
ssg81
g2502
sg74
(lp2509
S'now'
p2510
asbag67
(g88
g69
NtRp2511
(dp2512
g72
(dp2513
g99
g100
ssg81
g2502
sg74
(lp2514
S':'
asbag67
(g88
g69
NtRp2515
(dp2516
g72
(dp2517
sg81
g2502
sg74
(lp2518
g67
(g68
g69
NtRp2519
(dp2520
g72
(dp2521
g80
I5
ssg81
g2515
sg74
(lp2522
S'datetime.datetime(2012, 6, 17, 3, 28, 53, 3059)'
p2523
asbasbasbag67
(g83
g69
NtRp2524
(dp2525
g72
(dp2526
sg81
g77
sg74
(lp2527
g67
(g88
g69
NtRp2528
(dp2529
g72
(dp2530
g92
g93
ssg81
g2524
sg74
(lp2531
S'post_vars'
p2532
asbag67
(g88
g69
NtRp2533
(dp2534
g72
(dp2535
g99
g100
ssg81
g2524
sg74
(lp2536
S':'
asbag67
(g88
g69
NtRp2537
(dp2538
g72
(dp2539
sg81
g2524
sg74
(lp2540
g67
(g68
g69
NtRp2541
(dp2542
g72
(dp2543
g80
I5
ssg81
g2537
sg74
(lp2544
g67
(g76
g69
NtRp2545
(dp2546
g72
(dp2547
g80
I4
ssg81
Nsg74
(lp2548
sbasbasbasbag67
(g83
g69
NtRp2549
(dp2550
g72
(dp2551
sg81
g77
sg74
(lp2552
g67
(g88
g69
NtRp2553
(dp2554
g72
(dp2555
g92
g93
ssg81
g2549
sg74
(lp2556
S'url'
p2557
asbag67
(g88
g69
NtRp2558
(dp2559
g72
(dp2560
g99
g100
ssg81
g2549
sg74
(lp2561
S':'
asbag67
(g88
g69
NtRp2562
(dp2563
g72
(dp2564
sg81
g2549
sg74
(lp2565
g67
(g68
g69
NtRp2566
(dp2567
g72
(dp2568
g80
I5
ssg81
g2562
sg74
(lp2569
S'/milo/default/index'
p2570
asbasbasbag67
(g83
g69
NtRp2571
(dp2572
g72
(dp2573
sg81
g77
sg74
(lp2574
g67
(g88
g69
NtRp2575
(dp2576
g72
(dp2577
g92
g93
ssg81
g2571
sg74
(lp2578
S'utcnow'
p2579
asbag67
(g88
g69
NtRp2580
(dp2581
g72
(dp2582
g99
g100
ssg81
g2571
sg74
(lp2583
S':'
asbag67
(g88
g69
NtRp2584
(dp2585
g72
(dp2586
sg81
g2571
sg74
(lp2587
g67
(g68
g69
NtRp2588
(dp2589
g72
(dp2590
g80
I5
ssg81
g2584
sg74
(lp2591
S'datetime.datetime(2012, 6, 17, 1, 28, 53, 3079)'
p2592
asbasbasbag67
(g83
g69
NtRp2593
(dp2594
g72
(dp2595
sg81
g77
sg74
(lp2596
g67
(g88
g69
NtRp2597
(dp2598
g72
(dp2599
g92
g93
ssg81
g2593
sg74
(lp2600
S'uuid'
p2601
asbag67
(g88
g69
NtRp2602
(dp2603
g72
(dp2604
g99
g100
ssg81
g2593
sg74
(lp2605
S':'
asbag67
(g88
g69
NtRp2606
(dp2607
g72
(dp2608
sg81
g2593
sg74
(lp2609
g67
(g68
g69
NtRp2610
(dp2611
g72
(dp2612
g80
I5
ssg81
g2606
sg74
(lp2613
S'milo/127.0.0.1.2012-06-17.03-28-53.64992b5a-caa5-447a-bf33-7c5fce96b007'
p2614
asbasbasbag67
(g83
g69
NtRp2615
(dp2616
g72
(dp2617
sg81
g77
sg74
(lp2618
g67
(g88
g69
NtRp2619
(dp2620
g72
(dp2621
g92
g93
ssg81
g2615
sg74
(lp2622
S'vars'
p2623
asbag67
(g88
g69
NtRp2624
(dp2625
g72
(dp2626
g99
g100
ssg81
g2615
sg74
(lp2627
S':'
asbag67
(g88
g69
NtRp2628
(dp2629
g72
(dp2630
sg81
g2615
sg74
(lp2631
g67
(g68
g69
NtRp2632
(dp2633
g72
(dp2634
g80
I5
ssg81
g2628
sg74
(lp2635
g67
(g76
g69
NtRp2636
(dp2637
g72
(dp2638
g80
I4
ssg81
Nsg74
(lp2639
sbasbasbasbag67
(g83
g69
NtRp2640
(dp2641
g72
(dp2642
sg81
g77
sg74
(lp2643
g67
(g88
g69
NtRp2644
(dp2645
g72
(dp2646
g92
g93
ssg81
g2640
sg74
(lp2647
S'wsgi'
p2648
asbag67
(g88
g69
NtRp2649
(dp2650
g72
(dp2651
g99
g100
ssg81
g2640
sg74
(lp2652
S':'
asbag67
(g88
g69
NtRp2653
(dp2654
g72
(dp2655
sg81
g2640
sg74
(lp2656
g67
(g68
g69
NtRp2657
(dp2658
g72
(dp2659
g80
I5
ssg81
g2653
sg74
(lp2660
g67
(g76
g69
NtRp2661
(dp2662
g72
(dp2663
g80
I4
ssg81
Nsg74
(lp2664
g67
(g83
g69
NtRp2665
(dp2666
g72
(dp2667
sg81
g2661
sg74
(lp2668
g67
(g88
g69
NtRp2669
(dp2670
g72
(dp2671
g92
g93
ssg81
g2665
sg74
(lp2672
S'environ'
p2673
asbag67
(g88
g69
NtRp2674
(dp2675
g72
(dp2676
g99
g100
ssg81
g2665
sg74
(lp2677
S':'
asbag67
(g88
g69
NtRp2678
(dp2679
g72
(dp2680
sg81
g2665
sg74
(lp2681
g67
(g68
g69
NtRp2682
(dp2683
g72
(dp2684
g80
I4
ssg81
g2678
sg74
(lp2685
g67
(g76
g69
NtRp2686
(dp2687
g72
(dp2688
g80
I3
ssg81
Nsg74
(lp2689
g67
(g83
g69
NtRp2690
(dp2691
g72
(dp2692
sg81
g2686
sg74
(lp2693
g67
(g88
g69
NtRp2694
(dp2695
g72
(dp2696
g92
g93
ssg81
g2690
sg74
(lp2697
S'HTTP_ACCEPT'
p2698
asbag67
(g88
g69
NtRp2699
(dp2700
g72
(dp2701
g99
g100
ssg81
g2690
sg74
(lp2702
S':'
asbag67
(g88
g69
NtRp2703
(dp2704
g72
(dp2705
sg81
g2690
sg74
(lp2706
g67
(g68
g69
NtRp2707
(dp2708
g72
(dp2709
g80
I3
ssg81
g2703
sg74
(lp2710
g1198
asbasbasbag67
(g83
g69
NtRp2711
(dp2712
g72
(dp2713
sg81
g2686
sg74
(lp2714
g67
(g88
g69
NtRp2715
(dp2716
g72
(dp2717
g92
g93
ssg81
g2711
sg74
(lp2718
S'HTTP_ACCEPT_CHARSET'
p2719
asbag67
(g88
g69
NtRp2720
(dp2721
g72
(dp2722
g99
g100
ssg81
g2711
sg74
(lp2723
S':'
asbag67
(g88
g69
NtRp2724
(dp2725
g72
(dp2726
sg81
g2711
sg74
(lp2727
g67
(g68
g69
NtRp2728
(dp2729
g72
(dp2730
g80
I3
ssg81
g2724
sg74
(lp2731
g1220
asbasbasbag67
(g83
g69
NtRp2732
(dp2733
g72
(dp2734
sg81
g2686
sg74
(lp2735
g67
(g88
g69
NtRp2736
(dp2737
g72
(dp2738
g92
g93
ssg81
g2732
sg74
(lp2739
S'HTTP_ACCEPT_ENCODING'
p2740
asbag67
(g88
g69
NtRp2741
(dp2742
g72
(dp2743
g99
g100
ssg81
g2732
sg74
(lp2744
S':'
asbag67
(g88
g69
NtRp2745
(dp2746
g72
(dp2747
sg81
g2732
sg74
(lp2748
g67
(g68
g69
NtRp2749
(dp2750
g72
(dp2751
g80
I3
ssg81
g2745
sg74
(lp2752
g1242
asbasbasbag67
(g83
g69
NtRp2753
(dp2754
g72
(dp2755
sg81
g2686
sg74
(lp2756
g67
(g88
g69
NtRp2757
(dp2758
g72
(dp2759
g92
g93
ssg81
g2753
sg74
(lp2760
S'HTTP_ACCEPT_LANGUAGE'
p2761
asbag67
(g88
g69
NtRp2762
(dp2763
g72
(dp2764
g99
g100
ssg81
g2753
sg74
(lp2765
S':'
asbag67
(g88
g69
NtRp2766
(dp2767
g72
(dp2768
sg81
g2753
sg74
(lp2769
g67
(g68
g69
NtRp2770
(dp2771
g72
(dp2772
g80
I3
ssg81
g2766
sg74
(lp2773
g1264
asbasbasbag67
(g83
g69
NtRp2774
(dp2775
g72
(dp2776
sg81
g2686
sg74
(lp2777
g67
(g88
g69
NtRp2778
(dp2779
g72
(dp2780
g92
g93
ssg81
g2774
sg74
(lp2781
S'HTTP_CACHE_CONTROL'
p2782
asbag67
(g88
g69
NtRp2783
(dp2784
g72
(dp2785
g99
g100
ssg81
g2774
sg74
(lp2786
S':'
asbag67
(g88
g69
NtRp2787
(dp2788
g72
(dp2789
sg81
g2774
sg74
(lp2790
g67
(g68
g69
NtRp2791
(dp2792
g72
(dp2793
g80
I3
ssg81
g2787
sg74
(lp2794
g1286
asbasbasbag67
(g83
g69
NtRp2795
(dp2796
g72
(dp2797
sg81
g2686
sg74
(lp2798
g67
(g88
g69
NtRp2799
(dp2800
g72
(dp2801
g92
g93
ssg81
g2795
sg74
(lp2802
S'HTTP_CONNECTION'
p2803
asbag67
(g88
g69
NtRp2804
(dp2805
g72
(dp2806
g99
g100
ssg81
g2795
sg74
(lp2807
S':'
asbag67
(g88
g69
NtRp2808
(dp2809
g72
(dp2810
sg81
g2795
sg74
(lp2811
g67
(g68
g69
NtRp2812
(dp2813
g72
(dp2814
g80
I3
ssg81
g2808
sg74
(lp2815
g1308
asbasbasbag67
(g83
g69
NtRp2816
(dp2817
g72
(dp2818
sg81
g2686
sg74
(lp2819
g67
(g88
g69
NtRp2820
(dp2821
g72
(dp2822
g92
g93
ssg81
g2816
sg74
(lp2823
S'HTTP_COOKIE'
p2824
asbag67
(g88
g69
NtRp2825
(dp2826
g72
(dp2827
g99
g100
ssg81
g2816
sg74
(lp2828
S':'
asbag67
(g88
g69
NtRp2829
(dp2830
g72
(dp2831
sg81
g2816
sg74
(lp2832
g67
(g68
g69
NtRp2833
(dp2834
g72
(dp2835
g80
I3
ssg81
g2829
sg74
(lp2836
g1330
asbasbasbag67
(g83
g69
NtRp2837
(dp2838
g72
(dp2839
sg81
g2686
sg74
(lp2840
g67
(g88
g69
NtRp2841
(dp2842
g72
(dp2843
g92
g93
ssg81
g2837
sg74
(lp2844
S'HTTP_HOST'
p2845
asbag67
(g88
g69
NtRp2846
(dp2847
g72
(dp2848
g99
g100
ssg81
g2837
sg74
(lp2849
S':'
asbag67
(g88
g69
NtRp2850
(dp2851
g72
(dp2852
sg81
g2837
sg74
(lp2853
g67
(g68
g69
NtRp2854
(dp2855
g72
(dp2856
g80
I3
ssg81
g2850
sg74
(lp2857
g1352
asbasbasbag67
(g83
g69
NtRp2858
(dp2859
g72
(dp2860
sg81
g2686
sg74
(lp2861
g67
(g88
g69
NtRp2862
(dp2863
g72
(dp2864
g92
g93
ssg81
g2858
sg74
(lp2865
S'HTTP_REFERER'
p2866
asbag67
(g88
g69
NtRp2867
(dp2868
g72
(dp2869
g99
g100
ssg81
g2858
sg74
(lp2870
S':'
asbag67
(g88
g69
NtRp2871
(dp2872
g72
(dp2873
sg81
g2858
sg74
(lp2874
g67
(g68
g69
NtRp2875
(dp2876
g72
(dp2877
g80
I3
ssg81
g2871
sg74
(lp2878
g1374
asbasbasbag67
(g83
g69
NtRp2879
(dp2880
g72
(dp2881
sg81
g2686
sg74
(lp2882
g67
(g88
g69
NtRp2883
(dp2884
g72
(dp2885
g92
g93
ssg81
g2879
sg74
(lp2886
S'HTTP_USER_AGENT'
p2887
asbag67
(g88
g69
NtRp2888
(dp2889
g72
(dp2890
g99
g100
ssg81
g2879
sg74
(lp2891
S':'
asbag67
(g88
g69
NtRp2892
(dp2893
g72
(dp2894
sg81
g2879
sg74
(lp2895
g67
(g68
g69
NtRp2896
(dp2897
g72
(dp2898
g80
I3
ssg81
g2892
sg74
(lp2899
g1396
asbasbasbag67
(g83
g69
NtRp2900
(dp2901
g72
(dp2902
sg81
g2686
sg74
(lp2903
g67
(g88
g69
NtRp2904
(dp2905
g72
(dp2906
g92
g93
ssg81
g2900
sg74
(lp2907
S'PATH_INFO'
p2908
asbag67
(g88
g69
NtRp2909
(dp2910
g72
(dp2911
g99
g100
ssg81
g2900
sg74
(lp2912
S':'
asbag67
(g88
g69
NtRp2913
(dp2914
g72
(dp2915
sg81
g2900
sg74
(lp2916
g67
(g68
g69
NtRp2917
(dp2918
g72
(dp2919
g80
I3
ssg81
g2913
sg74
(lp2920
g1460
asbasbasbag67
(g83
g69
NtRp2921
(dp2922
g72
(dp2923
sg81
g2686
sg74
(lp2924
g67
(g88
g69
NtRp2925
(dp2926
g72
(dp2927
g92
g93
ssg81
g2921
sg74
(lp2928
S'QUERY_STRING'
p2929
asbag67
(g88
g69
NtRp2930
(dp2931
g72
(dp2932
g99
g100
ssg81
g2921
sg74
(lp2933
S':'
asbag67
(g88
g69
NtRp2934
(dp2935
g72
(dp2936
sg81
g2921
sg74
(lp2937
g67
(g68
g69
NtRp2938
(dp2939
g72
(dp2940
g80
I3
ssg81
g2934
sg74
(lp2941
S''
asbasbasbag67
(g83
g69
NtRp2942
(dp2943
g72
(dp2944
sg81
g2686
sg74
(lp2945
g67
(g88
g69
NtRp2946
(dp2947
g72
(dp2948
g92
g93
ssg81
g2942
sg74
(lp2949
S'REMOTE_ADDR'
p2950
asbag67
(g88
g69
NtRp2951
(dp2952
g72
(dp2953
g99
g100
ssg81
g2942
sg74
(lp2954
S':'
asbag67
(g88
g69
NtRp2955
(dp2956
g72
(dp2957
sg81
g2942
sg74
(lp2958
g67
(g68
g69
NtRp2959
(dp2960
g72
(dp2961
g80
I3
ssg81
g2955
sg74
(lp2962
g200
asbasbasbag67
(g83
g69
NtRp2963
(dp2964
g72
(dp2965
sg81
g2686
sg74
(lp2966
g67
(g88
g69
NtRp2967
(dp2968
g72
(dp2969
g92
g93
ssg81
g2963
sg74
(lp2970
S'REMOTE_PORT'
p2971
asbag67
(g88
g69
NtRp2972
(dp2973
g72
(dp2974
g99
g100
ssg81
g2963
sg74
(lp2975
S':'
asbag67
(g88
g69
NtRp2976
(dp2977
g72
(dp2978
sg81
g2963
sg74
(lp2979
g67
(g68
g69
NtRp2980
(dp2981
g72
(dp2982
g80
I3
ssg81
g2976
sg74
(lp2983
g1524
asbasbasbag67
(g83
g69
NtRp2984
(dp2985
g72
(dp2986
sg81
g2686
sg74
(lp2987
g67
(g88
g69
NtRp2988
(dp2989
g72
(dp2990
g92
g93
ssg81
g2984
sg74
(lp2991
S'REQUEST_METHOD'
p2992
asbag67
(g88
g69
NtRp2993
(dp2994
g72
(dp2995
g99
g100
ssg81
g2984
sg74
(lp2996
S':'
asbag67
(g88
g69
NtRp2997
(dp2998
g72
(dp2999
sg81
g2984
sg74
(lp3000
g67
(g68
g69
NtRp3001
(dp3002
g72
(dp3003
g80
I3
ssg81
g2997
sg74
(lp3004
g1546
asbasbasbag67
(g83
g69
NtRp3005
(dp3006
g72
(dp3007
sg81
g2686
sg74
(lp3008
g67
(g88
g69
NtRp3009
(dp3010
g72
(dp3011
g92
g93
ssg81
g3005
sg74
(lp3012
S'REQUEST_URI'
p3013
asbag67
(g88
g69
NtRp3014
(dp3015
g72
(dp3016
g99
g100
ssg81
g3005
sg74
(lp3017
S':'
asbag67
(g88
g69
NtRp3018
(dp3019
g72
(dp3020
sg81
g3005
sg74
(lp3021
g67
(g68
g69
NtRp3022
(dp3023
g72
(dp3024
g80
I3
ssg81
g3018
sg74
(lp3025
g1460
asbasbasbag67
(g83
g69
NtRp3026
(dp3027
g72
(dp3028
sg81
g2686
sg74
(lp3029
g67
(g88
g69
NtRp3030
(dp3031
g72
(dp3032
g92
g93
ssg81
g3026
sg74
(lp3033
S'SCRIPT_NAME'
p3034
asbag67
(g88
g69
NtRp3035
(dp3036
g72
(dp3037
g99
g100
ssg81
g3026
sg74
(lp3038
S':'
asbag67
(g88
g69
NtRp3039
(dp3040
g72
(dp3041
sg81
g3026
sg74
(lp3042
g67
(g68
g69
NtRp3043
(dp3044
g72
(dp3045
g80
I3
ssg81
g3039
sg74
(lp3046
S''
asbasbasbag67
(g83
g69
NtRp3047
(dp3048
g72
(dp3049
sg81
g2686
sg74
(lp3050
g67
(g88
g69
NtRp3051
(dp3052
g72
(dp3053
g92
g93
ssg81
g3047
sg74
(lp3054
S'SERVER_NAME'
p3055
asbag67
(g88
g69
NtRp3056
(dp3057
g72
(dp3058
g99
g100
ssg81
g3047
sg74
(lp3059
S':'
asbag67
(g88
g69
NtRp3060
(dp3061
g72
(dp3062
sg81
g3047
sg74
(lp3063
g67
(g68
g69
NtRp3064
(dp3065
g72
(dp3066
g80
I3
ssg81
g3060
sg74
(lp3067
g1610
asbasbasbag67
(g83
g69
NtRp3068
(dp3069
g72
(dp3070
sg81
g2686
sg74
(lp3071
g67
(g88
g69
NtRp3072
(dp3073
g72
(dp3074
g92
g93
ssg81
g3068
sg74
(lp3075
S'SERVER_PORT'
p3076
asbag67
(g88
g69
NtRp3077
(dp3078
g72
(dp3079
g99
g100
ssg81
g3068
sg74
(lp3080
S':'
asbag67
(g88
g69
NtRp3081
(dp3082
g72
(dp3083
sg81
g3068
sg74
(lp3084
g67
(g68
g69
NtRp3085
(dp3086
g72
(dp3087
g80
I3
ssg81
g3081
sg74
(lp3088
g1632
asbasbasbag67
(g83
g69
NtRp3089
(dp3090
g72
(dp3091
sg81
g2686
sg74
(lp3092
g67
(g88
g69
NtRp3093
(dp3094
g72
(dp3095
g92
g93
ssg81
g3089
sg74
(lp3096
S'SERVER_PROTOCOL'
p3097
asbag67
(g88
g69
NtRp3098
(dp3099
g72
(dp3100
g99
g100
ssg81
g3089
sg74
(lp3101
S':'
asbag67
(g88
g69
NtRp3102
(dp3103
g72
(dp3104
sg81
g3089
sg74
(lp3105
g67
(g68
g69
NtRp3106
(dp3107
g72
(dp3108
g80
I3
ssg81
g3102
sg74
(lp3109
g1654
asbasbasbag67
(g83
g69
NtRp3110
(dp3111
g72
(dp3112
sg81
g2686
sg74
(lp3113
g67
(g88
g69
NtRp3114
(dp3115
g72
(dp3116
g92
g93
ssg81
g3110
sg74
(lp3117
S'SERVER_SOFTWARE'
p3118
asbag67
(g88
g69
NtRp3119
(dp3120
g72
(dp3121
g99
g100
ssg81
g3110
sg74
(lp3122
S':'
asbag67
(g88
g69
NtRp3123
(dp3124
g72
(dp3125
sg81
g3110
sg74
(lp3126
g67
(g68
g69
NtRp3127
(dp3128
g72
(dp3129
g80
I3
ssg81
g3123
sg74
(lp3130
g1676
asbasbasbag67
(g83
g69
NtRp3131
(dp3132
g72
(dp3133
sg81
g2686
sg74
(lp3134
g67
(g88
g69
NtRp3135
(dp3136
g72
(dp3137
g92
g93
ssg81
g3131
sg74
(lp3138
S'WEB2PY_ORIGINAL_URI'
p3139
asbag67
(g88
g69
NtRp3140
(dp3141
g72
(dp3142
g99
g100
ssg81
g3131
sg74
(lp3143
S':'
asbag67
(g88
g69
NtRp3144
(dp3145
g72
(dp3146
sg81
g3131
sg74
(lp3147
g67
(g68
g69
NtRp3148
(dp3149
g72
(dp3150
g80
I3
ssg81
g3144
sg74
(lp3151
g1460
asbasbasbag67
(g83
g69
NtRp3152
(dp3153
g72
(dp3154
sg81
g2686
sg74
(lp3155
g67
(g88
g69
NtRp3156
(dp3157
g72
(dp3158
g92
g93
ssg81
g3152
sg74
(lp3159
S'wsgi.errors'
p3160
asbag67
(g88
g69
NtRp3161
(dp3162
g72
(dp3163
g99
g100
ssg81
g3152
sg74
(lp3164
S':'
asbag67
(g88
g69
NtRp3165
(dp3166
g72
(dp3167
sg81
g3152
sg74
(lp3168
g67
(g68
g69
NtRp3169
(dp3170
g72
(dp3171
g80
I3
ssg81
g3165
sg74
(lp3172
S"<open file '<stderr>', mode 'w' at 0x7fe3d5536270>"
p3173
asbasbasbag67
(g83
g69
NtRp3174
(dp3175
g72
(dp3176
sg81
g2686
sg74
(lp3177
g67
(g88
g69
NtRp3178
(dp3179
g72
(dp3180
g92
g93
ssg81
g3174
sg74
(lp3181
S'wsgi.file_wrapper'
p3182
asbag67
(g88
g69
NtRp3183
(dp3184
g72
(dp3185
g99
g100
ssg81
g3174
sg74
(lp3186
S':'
asbag67
(g88
g69
NtRp3187
(dp3188
g72
(dp3189
sg81
g3174
sg74
(lp3190
g67
(g68
g69
NtRp3191
(dp3192
g72
(dp3193
g80
I3
ssg81
g3187
sg74
(lp3194
S'<class wsgiref.util.FileWrapper at 0x222bf58>'
p3195
asbasbasbag67
(g83
g69
NtRp3196
(dp3197
g72
(dp3198
sg81
g2686
sg74
(lp3199
g67
(g88
g69
NtRp3200
(dp3201
g72
(dp3202
g92
g93
ssg81
g3196
sg74
(lp3203
S'wsgi.input'
p3204
asbag67
(g88
g69
NtRp3205
(dp3206
g72
(dp3207
g99
g100
ssg81
g3196
sg74
(lp3208
S':'
asbag67
(g88
g69
NtRp3209
(dp3210
g72
(dp3211
sg81
g3196
sg74
(lp3212
g67
(g68
g69
NtRp3213
(dp3214
g72
(dp3215
g80
I3
ssg81
g3209
sg74
(lp3216
S'<cStringIO.StringO object at 0x7fe3b8620228>'
p3217
asbasbasbag67
(g83
g69
NtRp3218
(dp3219
g72
(dp3220
sg81
g2686
sg74
(lp3221
g67
(g88
g69
NtRp3222
(dp3223
g72
(dp3224
g92
g93
ssg81
g3218
sg74
(lp3225
S'wsgi.multiprocess'
p3226
asbag67
(g88
g69
NtRp3227
(dp3228
g72
(dp3229
g99
g100
ssg81
g3218
sg74
(lp3230
S':'
asbag67
(g88
g69
NtRp3231
(dp3232
g72
(dp3233
sg81
g3218
sg74
(lp3234
g67
(g68
g69
NtRp3235
(dp3236
g72
(dp3237
g80
I3
ssg81
g3231
sg74
(lp3238
g110
asbasbasbag67
(g83
g69
NtRp3239
(dp3240
g72
(dp3241
sg81
g2686
sg74
(lp3242
g67
(g88
g69
NtRp3243
(dp3244
g72
(dp3245
g92
g93
ssg81
g3239
sg74
(lp3246
S'wsgi.multithread'
p3247
asbag67
(g88
g69
NtRp3248
(dp3249
g72
(dp3250
g99
g100
ssg81
g3239
sg74
(lp3251
S':'
asbag67
(g88
g69
NtRp3252
(dp3253
g72
(dp3254
sg81
g3239
sg74
(lp3255
g67
(g68
g69
NtRp3256
(dp3257
g72
(dp3258
g80
I3
ssg81
g3252
sg74
(lp3259
g1937
asbasbasbag67
(g83
g69
NtRp3260
(dp3261
g72
(dp3262
sg81
g2686
sg74
(lp3263
g67
(g88
g69
NtRp3264
(dp3265
g72
(dp3266
g92
g93
ssg81
g3260
sg74
(lp3267
S'wsgi.run_once'
p3268
asbag67
(g88
g69
NtRp3269
(dp3270
g72
(dp3271
g99
g100
ssg81
g3260
sg74
(lp3272
S':'
asbag67
(g88
g69
NtRp3273
(dp3274
g72
(dp3275
sg81
g3260
sg74
(lp3276
g67
(g68
g69
NtRp3277
(dp3278
g72
(dp3279
g80
I3
ssg81
g3273
sg74
(lp3280
g110
asbasbasbag67
(g83
g69
NtRp3281
(dp3282
g72
(dp3283
sg81
g2686
sg74
(lp3284
g67
(g88
g69
NtRp3285
(dp3286
g72
(dp3287
g92
g93
ssg81
g3281
sg74
(lp3288
S'wsgi.url_scheme'
p3289
asbag67
(g88
g69
NtRp3290
(dp3291
g72
(dp3292
g99
g100
ssg81
g3281
sg74
(lp3293
S':'
asbag67
(g88
g69
NtRp3294
(dp3295
g72
(dp3296
sg81
g3281
sg74
(lp3297
g67
(g68
g69
NtRp3298
(dp3299
g72
(dp3300
g80
I3
ssg81
g3294
sg74
(lp3301
g1980
asbasbasbag67
(g83
g69
NtRp3302
(dp3303
g72
(dp3304
sg81
g2686
sg74
(lp3305
g67
(g88
g69
NtRp3306
(dp3307
g72
(dp3308
g92
g93
ssg81
g3302
sg74
(lp3309
S'wsgi.version'
p3310
asbag67
(g88
g69
NtRp3311
(dp3312
g72
(dp3313
g99
g100
ssg81
g3302
sg74
(lp3314
S':'
asbag67
(g88
g69
NtRp3315
(dp3316
g72
(dp3317
sg81
g3302
sg74
(lp3318
g67
(g68
g69
NtRp3319
(dp3320
g72
(dp3321
g80
I3
ssg81
g3315
sg74
(lp3322
S'1'
asbasbasbasbasbasbasbasbasbasbasbasbasbsS'frames'
p3323
(lp3324
(dp3325
S'file'
p3326
S'/home/goshawk/web2py/gluon/restricted.py'
p3327
sS'dump'
p3328
(dp3329
S'environment'
p3330
S"{'A': <class 'gluon.html.A'>, 'Auth': <class 'gluon.tools.Auth'>, 'B': <class 'gluon.html.B'>, 'BEAUTIFY': <class 'gluon.html.BEAUTIFY'>, 'BODY': <class 'gluon.html.BODY'>, 'BR': <class 'gluon.html.BR'>, 'BUTTON': <class 'gluon.html.BUTTON'>, 'CAT': <class 'gluon.html.CAT'>, 'CENTER': <class 'gluon.html.CENTER'>, 'CLEANUP': <class 'gluon.validators.CLEANUP'>, ...}"
p3331
sS'ccode'
p3332
S'<code object <module> at 0x7fe3b4757130, file "/.../web2py/applications/milo/models/db.py", line 12>'
p3333
ssS'lnum'
p3334
I205
sS'lines'
p3335
(dp3336
I200
S'    try:'
p3337
sI201
S'        if type(code) == types.CodeType:'
p3338
sI202
S'            ccode = code'
p3339
sI203
S'        else:'
p3340
sI204
S'            ccode = compile2(code,layer)'
p3341
sI205
S'        exec ccode in environment'
p3342
sI206
S'    except HTTP:'
p3343
sI207
S'        raise'
p3344
sI208
S'    except RestrictedError:'
p3345
sI209
S'        # do not encapsulate (obfuscate) the original RestrictedError'
p3346
ssS'call'
p3347
S'(code="# -*- coding: utf-8 -*-\\n\\n#######################...es),\\n        Field(\'rating\', \'double\')\\n        )\\n", environment={\'A\': <class \'gluon.html.A\'>, \'Auth\': <class \'gluon.tools.Auth\'>, \'B\': <class \'gluon.html.B\'>, \'BEAUTIFY\': <class \'gluon.html.BEAUTIFY\'>, \'BODY\': <class \'gluon.html.BODY\'>, \'BR\': <class \'gluon.html.BR\'>, \'BUTTON\': <class \'gluon.html.BUTTON\'>, \'CAT\': <class \'gluon.html.CAT\'>, \'CENTER\': <class \'gluon.html.CENTER\'>, \'CLEANUP\': <class \'gluon.validators.CLEANUP\'>, ...}, layer=\'/home/goshawk/web2py/applications/milo/models/db.py\')'
p3348
sS'func'
p3349
S'restricted'
p3350
sa(dp3351
g3326
S'/home/goshawk/web2py/applications/milo/models/db.py'
p3352
sg3328
(dp3353
S'Field'
p3354
S"<class 'gluon.dal.Field'>"
p3355
ssg3334
I91
sg3335
(dp3356
I86
S"im = imdb.IMDb('sql', uri=imdb_connection_str)"
p3357
sI87
S''
sI88
S"db.define_table('users',"
p3358
sI89
S"        Field('name'),"
p3359
sI90
S"        Field('email'),"
p3360
sI91
S"        Field('imdb_id', 'integer')"
p3361
sI92
S'        )'
p3362
sI93
S''
sI94
S"db.define_table('movies',"
p3363
sI95
S"        Field('imdb_id', 'integer')"
p3364
ssg3347
S'()'
p3365
sg3349
S'<module>'
p3366
sa(dp3367
g3326
S'/home/goshawk/web2py/gluon/dal.py'
p3368
sg3328
(dp3369
S'polymodel'
p3370
S'None'
p3371
ssg3334
I6320
sg3335
(dp3372
I6315
S"        if migrate or self._adapter.dbengine=='google:datastore':"
p3373
sI6316
S'            try:'
p3374
sI6317
S'                sql_locker.acquire()'
p3375
sI6318
S'                self._adapter.create_table(t,migrate=migrate,'
p3376
sI6319
S'                                           fake_migrate=fake_migrate,'
p3377
sI6320
S'                                           polymodel=polymodel)'
p3378
sI6321
S'            finally:'
p3379
sI6322
S'                sql_locker.release()'
p3380
sI6323
S'        else:'
p3381
sI6324
S'            t._dbt = None'
p3382
ssg3347
S"(self=<DAL {'auth_event': <Table {'origin': <gluon.dal...': <gluon.dal.Field object at 0x7fe3985b26d0>}>}>, tablename='users', *fields=(<gluon.dal.Field object>, <gluon.dal.Field object>, <gluon.dal.Field object>), **args={})"
p3383
sg3349
S'define_table'
p3384
sa(dp3385
g3326
S'/home/goshawk/web2py/gluon/dal.py'
p3386
sg3328
(dp3387
S'query'
p3388
S"'CREATE TABLE users(\\n    id SERIAL PRIMARY KEY,\\n ...),\\n    email VARCHAR(512),\\n    imdb_id INTEGER\\n);'"
p3389
sS'self'
p3390
S'<gluon.dal.PostgreSQLAdapter object>'
p3391
sS'table'
p3392
S"<Table {'ALL': <gluon.dal.SQLALL object at 0x7fe...id': <gluon.dal.Field object at 0x7fe3b80b3750>}>"
p3393
sS'self.create_sequence_and_triggers'
p3394
S'<bound method PostgreSQLAdapter.create_sequence_...triggers of <gluon.dal.PostgreSQLAdapter object>>'
p3395
ssg3334
I719
sg3335
(dp3396
I714
S'            if table._dbt:'
p3397
sI715
S"                logfile.write('timestamp: %s\\n'"
p3398
sI716
S'                               % datetime.datetime.today().isoformat())'
p3399
sI717
S"                logfile.write(query + '\\n')"
p3400
sI718
S'            if not fake_migrate:'
p3401
sI719
S'                self.create_sequence_and_triggers(query,table)'
p3402
sI720
S'                table._db.commit()'
p3403
sI721
S'            if table._dbt:'
p3404
sI722
S"                tfile = self.file_open(table._dbt, 'w')"
p3405
sI723
S'                cPickle.dump(sql_fields, tfile)'
p3406
ssg3347
S"(self=<gluon.dal.PostgreSQLAdapter object>, table=<Table {'ALL': <gluon.dal.SQLALL object at 0x7fe...id': <gluon.dal.Field object at 0x7fe3b80b3750>}>, migrate=True, fake_migrate=False, polymodel=None)"
p3407
sg3349
S'create_table'
p3408
sa(dp3409
g3326
S'/home/goshawk/web2py/gluon/dal.py'
p3410
sg3328
(dp3411
S'query'
p3412
S"'CREATE TABLE users(\\n    id SERIAL PRIMARY KEY,\\n ...),\\n    email VARCHAR(512),\\n    imdb_id INTEGER\\n);'"
p3413
sS'self'
p3414
S'<gluon.dal.PostgreSQLAdapter object>'
p3415
sS'self.execute'
p3416
S'<bound method PostgreSQLAdapter.execute of <gluon.dal.PostgreSQLAdapter object>>'
p3417
ssg3334
I1954
sg3335
(dp3418
I1952
S'        # self.execute("ALTER TABLE %s ALTER COLUMN %s SET DEFAULT NEXTVAL(\'%s\');" \\'
p3419
sI1953
S'        #              % (table._tablename, table._fieldname, table._sequence_name))'
p3420
sI1954
S'        self.execute(query)'
p3421
sI1955
S''
sI1956
S"    def __init__(self,db,uri,pool_size=0,folder=None,db_codec ='UTF-8',"
p3422
sI1957
S'                 credential_decoder=lambda x:x, driver_args={},'
p3423
sI1958
S'                 adapter_args={}):'
p3424
sI1949
S'    def create_sequence_and_triggers(self, query, table, **args):'
p3425
sI1950
S'        # following lines should only be executed if table._sequence_name does not exist'
p3426
sI1951
S"        # self.execute('CREATE SEQUENCE %s;' % table._sequence_name)"
p3427
ssg3347
S"(self=<gluon.dal.PostgreSQLAdapter object>, query='CREATE TABLE users(\\n    id SERIAL PRIMARY KEY,\\n ...),\\n    email VARCHAR(512),\\n    imdb_id INTEGER\\n);', table=<Table {'ALL': <gluon.dal.SQLALL object at 0x7fe...id': <gluon.dal.Field object at 0x7fe3b80b3750>}>, **args={})"
p3428
sg3349
S'create_sequence_and_triggers'
p3429
sa(dp3430
g3326
S'/home/goshawk/web2py/gluon/dal.py'
p3431
sg3328
(dp3432
S'a'
S"('CREATE TABLE users(\\n    id SERIAL PRIMARY KEY,\\n ...),\\n    email VARCHAR(512),\\n    imdb_id INTEGER\\n);',)"
p3433
sS'self'
p3434
S'<gluon.dal.PostgreSQLAdapter object>'
p3435
sS'b'
S'{}'
p3436
sS'self.log_execute'
p3437
S'<bound method PostgreSQLAdapter.log_execute of <gluon.dal.PostgreSQLAdapter object>>'
p3438
ssg3334
I1392
sg3335
(dp3439
I1387
S'        self.db._timings.append((a[0],time.time()-t0))'
p3440
sI1388
S'        del self.db._timings[:-TIMINGSSIZE]'
p3441
sI1389
S'        return ret'
p3442
sI1390
S''
sI1391
S'    def execute(self, *a, **b):'
p3443
sI1392
S'        return self.log_execute(*a, **b)'
p3444
sI1393
S''
sI1394
S'    def represent(self, obj, fieldtype):'
p3445
sI1395
S'        if isinstance(obj, CALLABLETYPES):'
p3446
sI1396
S'            obj = obj()'
p3447
ssg3347
S"(self=<gluon.dal.PostgreSQLAdapter object>, *a=('CREATE TABLE users(\\n    id SERIAL PRIMARY KEY,\\n ...),\\n    email VARCHAR(512),\\n    imdb_id INTEGER\\n);',), **b={})"
p3448
sg3349
S'execute'
p3449
sa(dp3450
g3326
S'/home/goshawk/web2py/gluon/dal.py'
p3451
sg3328
(dp3452
S'a'
S"('CREATE TABLE users(\\n    id SERIAL PRIMARY KEY,\\n ...),\\n    email VARCHAR(512),\\n    imdb_id INTEGER\\n);',)"
p3453
sS'b'
g3436
sS'self'
p3454
S'<gluon.dal.PostgreSQLAdapter object>'
p3455
sS'ret'
p3456
S'undefined'
p3457
sS'self.cursor'
p3458
S'<cursor object at 0x7fe3b80b4620; closed: 0>'
p3459
sS'self.cursor.execute'
p3460
S'<built-in method execute of psycopg2._psycopg.cursor object>'
p3461
ssg3334
I1386
sg3335
(dp3462
I1381
S'        self.execute(query)'
p3463
sI1382
S''
sI1383
S'    def log_execute(self, *a, **b):'
p3464
sI1384
S'        self.db._lastsql = a[0]'
p3465
sI1385
S'        t0 = time.time()'
p3466
sI1386
S'        ret = self.cursor.execute(*a, **b)'
p3467
sI1387
S'        self.db._timings.append((a[0],time.time()-t0))'
p3468
sI1388
S'        del self.db._timings[:-TIMINGSSIZE]'
p3469
sI1389
S'        return ret'
p3470
sI1390
S''
ssg3347
S"(self=<gluon.dal.PostgreSQLAdapter object>, *a=('CREATE TABLE users(\\n    id SERIAL PRIMARY KEY,\\n ...),\\n    email VARCHAR(512),\\n    imdb_id INTEGER\\n);',), **b={})"
p3471
sg3349
S'log_execute'
p3472
sasS'pyver'
p3473
S'Python 2.7.3: /usr/bin/python'
p3474
sS'session'
p3475
g67
(g68
g69
NtRp3476
(dp3477
g72
(dp3478
sg74
(lp3479
g67
(g76
g69
NtRp3480
(dp3481
g72
(dp3482
g80
I5
ssg81
Nsg74
(lp3483
sbasbsS'etype'
p3484
S"<class 'psycopg2.ProgrammingError'>"
p3485
sS'date'
p3486
S'Sun Jun 17 03:28:53 2012'
p3487
sS'response'
p3488
g67
(g68
g69
NtRp3489
(dp3490
g72
(dp3491
sg74
(lp3492
g67
(g76
g69
NtRp3493
(dp3494
g72
(dp3495
g80
I5
ssg81
Nsg74
(lp3496
g67
(g83
g69
NtRp3497
(dp3498
g72
(dp3499
sg81
g3493
sg74
(lp3500
g67
(g88
g69
NtRp3501
(dp3502
g72
(dp3503
g92
g93
ssg81
g3497
sg74
(lp3504
g165
asbag67
(g88
g69
NtRp3505
(dp3506
g72
(dp3507
g99
g100
ssg81
g3497
sg74
(lp3508
S':'
asbag67
(g88
g69
NtRp3509
(dp3510
g72
(dp3511
sg81
g3497
sg74
(lp3512
g67
(g68
g69
NtRp3513
(dp3514
g72
(dp3515
g80
I5
ssg81
g3509
sg74
(lp3516
S'<cStringIO.StringO object at 0x7fe3ac31e8f0>'
p3517
asbasbasbag67
(g83
g69
NtRp3518
(dp3519
g72
(dp3520
sg81
g3493
sg74
(lp3521
g67
(g88
g69
NtRp3522
(dp3523
g72
(dp3524
g92
g93
ssg81
g3518
sg74
(lp3525
g231
asbag67
(g88
g69
NtRp3526
(dp3527
g72
(dp3528
g99
g100
ssg81
g3518
sg74
(lp3529
S':'
asbag67
(g88
g69
NtRp3530
(dp3531
g72
(dp3532
sg81
g3518
sg74
(lp3533
g67
(g68
g69
NtRp3534
(dp3535
g72
(dp3536
g80
I5
ssg81
g3530
sg74
(lp3537
g67
(g76
g69
NtRp3538
(dp3539
g72
(dp3540
g80
I4
ssg81
Nsg74
(lp3541
g67
(g83
g69
NtRp3542
(dp3543
g72
(dp3544
sg81
g3538
sg74
(lp3545
g67
(g88
g69
NtRp3546
(dp3547
g72
(dp3548
g92
g93
ssg81
g3542
sg74
(lp3549
S'session_id_milo'
p3550
asbag67
(g88
g69
NtRp3551
(dp3552
g72
(dp3553
g99
g100
ssg81
g3542
sg74
(lp3554
S':'
asbag67
(g88
g69
NtRp3555
(dp3556
g72
(dp3557
sg81
g3542
sg74
(lp3558
g67
(g68
g69
NtRp3559
(dp3560
g72
(dp3561
g80
I4
ssg81
g3555
sg74
(lp3562
g67
(g76
g69
NtRp3563
(dp3564
g72
(dp3565
g80
I3
ssg81
Nsg74
(lp3566
g67
(g83
g69
NtRp3567
(dp3568
g72
(dp3569
sg81
g3563
sg74
(lp3570
g67
(g88
g69
NtRp3571
(dp3572
g72
(dp3573
g92
g93
ssg81
g3567
sg74
(lp3574
g281
asbag67
(g88
g69
NtRp3575
(dp3576
g72
(dp3577
g99
g100
ssg81
g3567
sg74
(lp3578
S':'
asbag67
(g88
g69
NtRp3579
(dp3580
g72
(dp3581
sg81
g3567
sg74
(lp3582
g67
(g68
g69
NtRp3583
(dp3584
g72
(dp3585
g80
I3
ssg81
g3579
sg74
(lp3586
S''
asbasbasbag67
(g83
g69
NtRp3587
(dp3588
g72
(dp3589
sg81
g3563
sg74
(lp3590
g67
(g88
g69
NtRp3591
(dp3592
g72
(dp3593
g92
g93
ssg81
g3587
sg74
(lp3594
g302
asbag67
(g88
g69
NtRp3595
(dp3596
g72
(dp3597
g99
g100
ssg81
g3587
sg74
(lp3598
S':'
asbag67
(g88
g69
NtRp3599
(dp3600
g72
(dp3601
sg81
g3587
sg74
(lp3602
g67
(g68
g69
NtRp3603
(dp3604
g72
(dp3605
g80
I3
ssg81
g3599
sg74
(lp3606
S''
asbasbasbag67
(g83
g69
NtRp3607
(dp3608
g72
(dp3609
sg81
g3563
sg74
(lp3610
g67
(g88
g69
NtRp3611
(dp3612
g72
(dp3613
g92
g93
ssg81
g3607
sg74
(lp3614
g323
asbag67
(g88
g69
NtRp3615
(dp3616
g72
(dp3617
g99
g100
ssg81
g3607
sg74
(lp3618
S':'
asbag67
(g88
g69
NtRp3619
(dp3620
g72
(dp3621
sg81
g3607
sg74
(lp3622
g67
(g68
g69
NtRp3623
(dp3624
g72
(dp3625
g80
I3
ssg81
g3619
sg74
(lp3626
S''
asbasbasbag67
(g83
g69
NtRp3627
(dp3628
g72
(dp3629
sg81
g3563
sg74
(lp3630
g67
(g88
g69
NtRp3631
(dp3632
g72
(dp3633
g92
g93
ssg81
g3627
sg74
(lp3634
g344
asbag67
(g88
g69
NtRp3635
(dp3636
g72
(dp3637
g99
g100
ssg81
g3627
sg74
(lp3638
S':'
asbag67
(g88
g69
NtRp3639
(dp3640
g72
(dp3641
sg81
g3627
sg74
(lp3642
g67
(g68
g69
NtRp3643
(dp3644
g72
(dp3645
g80
I3
ssg81
g3639
sg74
(lp3646
S''
asbasbasbag67
(g83
g69
NtRp3647
(dp3648
g72
(dp3649
sg81
g3563
sg74
(lp3650
g67
(g88
g69
NtRp3651
(dp3652
g72
(dp3653
g92
g93
ssg81
g3647
sg74
(lp3654
g365
asbag67
(g88
g69
NtRp3655
(dp3656
g72
(dp3657
g99
g100
ssg81
g3647
sg74
(lp3658
S':'
asbag67
(g88
g69
NtRp3659
(dp3660
g72
(dp3661
sg81
g3647
sg74
(lp3662
g67
(g68
g69
NtRp3663
(dp3664
g72
(dp3665
g80
I3
ssg81
g3659
sg74
(lp3666
S''
asbasbasbag67
(g83
g69
NtRp3667
(dp3668
g72
(dp3669
sg81
g3563
sg74
(lp3670
g67
(g88
g69
NtRp3671
(dp3672
g72
(dp3673
g92
g93
ssg81
g3667
sg74
(lp3674
g386
asbag67
(g88
g69
NtRp3675
(dp3676
g72
(dp3677
g99
g100
ssg81
g3667
sg74
(lp3678
S':'
asbag67
(g88
g69
NtRp3679
(dp3680
g72
(dp3681
sg81
g3667
sg74
(lp3682
g67
(g68
g69
NtRp3683
(dp3684
g72
(dp3685
g80
I3
ssg81
g3679
sg74
(lp3686
S'/'
asbasbasbag67
(g83
g69
NtRp3687
(dp3688
g72
(dp3689
sg81
g3563
sg74
(lp3690
g67
(g88
g69
NtRp3691
(dp3692
g72
(dp3693
g92
g93
ssg81
g3687
sg74
(lp3694
g407
asbag67
(g88
g69
NtRp3695
(dp3696
g72
(dp3697
g99
g100
ssg81
g3687
sg74
(lp3698
S':'
asbag67
(g88
g69
NtRp3699
(dp3700
g72
(dp3701
sg81
g3687
sg74
(lp3702
g67
(g68
g69
NtRp3703
(dp3704
g72
(dp3705
g80
I3
ssg81
g3699
sg74
(lp3706
S''
asbasbasbag67
(g83
g69
NtRp3707
(dp3708
g72
(dp3709
sg81
g3563
sg74
(lp3710
g67
(g88
g69
NtRp3711
(dp3712
g72
(dp3713
g92
g93
ssg81
g3707
sg74
(lp3714
g428
asbag67
(g88
g69
NtRp3715
(dp3716
g72
(dp3717
g99
g100
ssg81
g3707
sg74
(lp3718
S':'
asbag67
(g88
g69
NtRp3719
(dp3720
g72
(dp3721
sg81
g3707
sg74
(lp3722
g67
(g68
g69
NtRp3723
(dp3724
g72
(dp3725
g80
I3
ssg81
g3719
sg74
(lp3726
S''
asbasbasbasbasbasbasbasbasbasbasbag67
(g83
g69
NtRp3727
(dp3728
g72
(dp3729
sg81
g3493
sg74
(lp3730
g67
(g88
g69
NtRp3731
(dp3732
g72
(dp3733
g92
g93
ssg81
g3727
sg74
(lp3734
S'delimiters'
p3735
asbag67
(g88
g69
NtRp3736
(dp3737
g72
(dp3738
g99
g100
ssg81
g3727
sg74
(lp3739
S':'
asbag67
(g88
g69
NtRp3740
(dp3741
g72
(dp3742
sg81
g3727
sg74
(lp3743
g67
(g68
g69
NtRp3744
(dp3745
g72
(dp3746
g80
I5
ssg81
g3740
sg74
(lp3747
g67
(g76
g69
NtRp3748
(dp3749
g72
(dp3750
g80
I4
ssg81
Nsg74
(lp3751
g67
(g83
g69
NtRp3752
(dp3753
g72
(dp3754
sg81
g3748
sg74
(lp3755
g67
(g88
g69
NtRp3756
(dp3757
g72
(dp3758
sg81
g3752
sg74
(lp3759
g67
(g68
g69
NtRp3760
(dp3761
g72
(dp3762
g80
I4
ssg81
g3756
sg74
(lp3763
S'{{'
p3764
asbasbasbag67
(g83
g69
NtRp3765
(dp3766
g72
(dp3767
sg81
g3748
sg74
(lp3768
g67
(g88
g69
NtRp3769
(dp3770
g72
(dp3771
sg81
g3765
sg74
(lp3772
g67
(g68
g69
NtRp3773
(dp3774
g72
(dp3775
g80
I4
ssg81
g3769
sg74
(lp3776
S'}}'
p3777
asbasbasbasbasbasbasbag67
(g83
g69
NtRp3778
(dp3779
g72
(dp3780
sg81
g3493
sg74
(lp3781
g67
(g88
g69
NtRp3782
(dp3783
g72
(dp3784
g92
g93
ssg81
g3778
sg74
(lp3785
S'files'
p3786
asbag67
(g88
g69
NtRp3787
(dp3788
g72
(dp3789
g99
g100
ssg81
g3778
sg74
(lp3790
S':'
asbag67
(g88
g69
NtRp3791
(dp3792
g72
(dp3793
sg81
g3778
sg74
(lp3794
g67
(g68
g69
NtRp3795
(dp3796
g72
(dp3797
g80
I5
ssg81
g3791
sg74
(lp3798
g67
(g76
g69
NtRp3799
(dp3800
g72
(dp3801
g80
I4
ssg81
Nsg74
(lp3802
sbasbasbasbag67
(g83
g69
NtRp3803
(dp3804
g72
(dp3805
sg81
g3493
sg74
(lp3806
g67
(g88
g69
NtRp3807
(dp3808
g72
(dp3809
g92
g93
ssg81
g3803
sg74
(lp3810
S'flash'
p3811
asbag67
(g88
g69
NtRp3812
(dp3813
g72
(dp3814
g99
g100
ssg81
g3803
sg74
(lp3815
S':'
asbag67
(g88
g69
NtRp3816
(dp3817
g72
(dp3818
sg81
g3803
sg74
(lp3819
g67
(g68
g69
NtRp3820
(dp3821
g72
(dp3822
g80
I5
ssg81
g3816
sg74
(lp3823
S''
asbasbasbag67
(g83
g69
NtRp3824
(dp3825
g72
(dp3826
sg81
g3493
sg74
(lp3827
g67
(g88
g69
NtRp3828
(dp3829
g72
(dp3830
g92
g93
ssg81
g3824
sg74
(lp3831
S'generic_patterns'
p3832
asbag67
(g88
g69
NtRp3833
(dp3834
g72
(dp3835
g99
g100
ssg81
g3824
sg74
(lp3836
S':'
asbag67
(g88
g69
NtRp3837
(dp3838
g72
(dp3839
sg81
g3824
sg74
(lp3840
g67
(g68
g69
NtRp3841
(dp3842
g72
(dp3843
g80
I5
ssg81
g3837
sg74
(lp3844
g67
(g76
g69
NtRp3845
(dp3846
g72
(dp3847
g80
I4
ssg81
Nsg74
(lp3848
g67
(g83
g69
NtRp3849
(dp3850
g72
(dp3851
sg81
g3845
sg74
(lp3852
g67
(g88
g69
NtRp3853
(dp3854
g72
(dp3855
sg81
g3849
sg74
(lp3856
g67
(g68
g69
NtRp3857
(dp3858
g72
(dp3859
g80
I4
ssg81
g3853
sg74
(lp3860
S'*'
asbasbasbasbasbasbasbag67
(g83
g69
NtRp3861
(dp3862
g72
(dp3863
sg81
g3493
sg74
(lp3864
g67
(g88
g69
NtRp3865
(dp3866
g72
(dp3867
g92
g93
ssg81
g3861
sg74
(lp3868
S'headers'
p3869
asbag67
(g88
g69
NtRp3870
(dp3871
g72
(dp3872
g99
g100
ssg81
g3861
sg74
(lp3873
S':'
asbag67
(g88
g69
NtRp3874
(dp3875
g72
(dp3876
sg81
g3861
sg74
(lp3877
g67
(g68
g69
NtRp3878
(dp3879
g72
(dp3880
g80
I5
ssg81
g3874
sg74
(lp3881
g67
(g76
g69
NtRp3882
(dp3883
g72
(dp3884
g80
I4
ssg81
Nsg74
(lp3885
g67
(g83
g69
NtRp3886
(dp3887
g72
(dp3888
sg81
g3882
sg74
(lp3889
g67
(g88
g69
NtRp3890
(dp3891
g72
(dp3892
g92
g93
ssg81
g3886
sg74
(lp3893
S'Cache-Control'
p3894
asbag67
(g88
g69
NtRp3895
(dp3896
g72
(dp3897
g99
g100
ssg81
g3886
sg74
(lp3898
S':'
asbag67
(g88
g69
NtRp3899
(dp3900
g72
(dp3901
sg81
g3886
sg74
(lp3902
g67
(g68
g69
NtRp3903
(dp3904
g72
(dp3905
g80
I4
ssg81
g3899
sg74
(lp3906
S'no-store, no-cache, must-revalidate, post-check=0, pre-check=0'
p3907
asbasbasbag67
(g83
g69
NtRp3908
(dp3909
g72
(dp3910
sg81
g3882
sg74
(lp3911
g67
(g88
g69
NtRp3912
(dp3913
g72
(dp3914
g92
g93
ssg81
g3908
sg74
(lp3915
S'Content-Type'
p3916
asbag67
(g88
g69
NtRp3917
(dp3918
g72
(dp3919
g99
g100
ssg81
g3908
sg74
(lp3920
S':'
asbag67
(g88
g69
NtRp3921
(dp3922
g72
(dp3923
sg81
g3908
sg74
(lp3924
g67
(g68
g69
NtRp3925
(dp3926
g72
(dp3927
g80
I4
ssg81
g3921
sg74
(lp3928
S'text/html; charset=utf-8'
p3929
asbasbasbag67
(g83
g69
NtRp3930
(dp3931
g72
(dp3932
sg81
g3882
sg74
(lp3933
g67
(g88
g69
NtRp3934
(dp3935
g72
(dp3936
g92
g93
ssg81
g3930
sg74
(lp3937
S'Expires'
p3938
asbag67
(g88
g69
NtRp3939
(dp3940
g72
(dp3941
g99
g100
ssg81
g3930
sg74
(lp3942
S':'
asbag67
(g88
g69
NtRp3943
(dp3944
g72
(dp3945
sg81
g3930
sg74
(lp3946
g67
(g68
g69
NtRp3947
(dp3948
g72
(dp3949
g80
I4
ssg81
g3943
sg74
(lp3950
S'Sun, 17 Jun 2012 01:28:53 GMT'
p3951
asbasbasbag67
(g83
g69
NtRp3952
(dp3953
g72
(dp3954
sg81
g3882
sg74
(lp3955
g67
(g88
g69
NtRp3956
(dp3957
g72
(dp3958
g92
g93
ssg81
g3952
sg74
(lp3959
S'Pragma'
p3960
asbag67
(g88
g69
NtRp3961
(dp3962
g72
(dp3963
g99
g100
ssg81
g3952
sg74
(lp3964
S':'
asbag67
(g88
g69
NtRp3965
(dp3966
g72
(dp3967
sg81
g3952
sg74
(lp3968
g67
(g68
g69
NtRp3969
(dp3970
g72
(dp3971
g80
I4
ssg81
g3965
sg74
(lp3972
S'no-cache'
p3973
asbasbasbag67
(g83
g69
NtRp3974
(dp3975
g72
(dp3976
sg81
g3882
sg74
(lp3977
g67
(g88
g69
NtRp3978
(dp3979
g72
(dp3980
g92
g93
ssg81
g3974
sg74
(lp3981
S'X-Powered-By'
p3982
asbag67
(g88
g69
NtRp3983
(dp3984
g72
(dp3985
g99
g100
ssg81
g3974
sg74
(lp3986
S':'
asbag67
(g88
g69
NtRp3987
(dp3988
g72
(dp3989
sg81
g3974
sg74
(lp3990
g67
(g68
g69
NtRp3991
(dp3992
g72
(dp3993
g80
I4
ssg81
g3987
sg74
(lp3994
S'web2py'
p3995
asbasbasbasbasbasbasbag67
(g83
g69
NtRp3996
(dp3997
g72
(dp3998
sg81
g3493
sg74
(lp3999
g67
(g88
g69
NtRp4000
(dp4001
g72
(dp4002
g92
g93
ssg81
g3996
sg74
(lp4003
S'menu'
p4004
asbag67
(g88
g69
NtRp4005
(dp4006
g72
(dp4007
g99
g100
ssg81
g3996
sg74
(lp4008
S':'
asbag67
(g88
g69
NtRp4009
(dp4010
g72
(dp4011
sg81
g3996
sg74
(lp4012
g67
(g68
g69
NtRp4013
(dp4014
g72
(dp4015
g80
I5
ssg81
g4009
sg74
(lp4016
g67
(g76
g69
NtRp4017
(dp4018
g72
(dp4019
g80
I4
ssg81
Nsg74
(lp4020
sbasbasbasbag67
(g83
g69
NtRp4021
(dp4022
g72
(dp4023
sg81
g3493
sg74
(lp4024
g67
(g88
g69
NtRp4025
(dp4026
g72
(dp4027
g92
g93
ssg81
g4021
sg74
(lp4028
S'meta'
p4029
asbag67
(g88
g69
NtRp4030
(dp4031
g72
(dp4032
g99
g100
ssg81
g4021
sg74
(lp4033
S':'
asbag67
(g88
g69
NtRp4034
(dp4035
g72
(dp4036
sg81
g4021
sg74
(lp4037
g67
(g68
g69
NtRp4038
(dp4039
g72
(dp4040
g80
I5
ssg81
g4034
sg74
(lp4041
g67
(g76
g69
NtRp4042
(dp4043
g72
(dp4044
g80
I4
ssg81
Nsg74
(lp4045
sbasbasbasbag67
(g83
g69
NtRp4046
(dp4047
g72
(dp4048
sg81
g3493
sg74
(lp4049
g67
(g88
g69
NtRp4050
(dp4051
g72
(dp4052
g92
g93
ssg81
g4046
sg74
(lp4053
S'postprocessing'
p4054
asbag67
(g88
g69
NtRp4055
(dp4056
g72
(dp4057
g99
g100
ssg81
g4046
sg74
(lp4058
S':'
asbag67
(g88
g69
NtRp4059
(dp4060
g72
(dp4061
sg81
g4046
sg74
(lp4062
g67
(g68
g69
NtRp4063
(dp4064
g72
(dp4065
g80
I5
ssg81
g4059
sg74
(lp4066
g67
(g76
g69
NtRp4067
(dp4068
g72
(dp4069
g80
I4
ssg81
Nsg74
(lp4070
sbasbasbasbag67
(g83
g69
NtRp4071
(dp4072
g72
(dp4073
sg81
g3493
sg74
(lp4074
g67
(g88
g69
NtRp4075
(dp4076
g72
(dp4077
g92
g93
ssg81
g4071
sg74
(lp4078
S'session_file'
p4079
asbag67
(g88
g69
NtRp4080
(dp4081
g72
(dp4082
g99
g100
ssg81
g4071
sg74
(lp4083
S':'
asbag67
(g88
g69
NtRp4084
(dp4085
g72
(dp4086
sg81
g4071
sg74
(lp4087
g67
(g68
g69
NtRp4088
(dp4089
g72
(dp4090
g80
I5
ssg81
g4084
sg74
(lp4091
S"<open file '/home/goshawk/web2py/applications/milo/sessions/127.0.0.1-4a464e0e-f0b9-4de3-b8af-e6a04346340f', mode 'rb+' at 0x7fe3b4779810>"
p4092
asbasbasbag67
(g83
g69
NtRp4093
(dp4094
g72
(dp4095
sg81
g3493
sg74
(lp4096
g67
(g88
g69
NtRp4097
(dp4098
g72
(dp4099
g92
g93
ssg81
g4093
sg74
(lp4100
S'session_filename'
p4101
asbag67
(g88
g69
NtRp4102
(dp4103
g72
(dp4104
g99
g100
ssg81
g4093
sg74
(lp4105
S':'
asbag67
(g88
g69
NtRp4106
(dp4107
g72
(dp4108
sg81
g4093
sg74
(lp4109
g67
(g68
g69
NtRp4110
(dp4111
g72
(dp4112
g80
I5
ssg81
g4106
sg74
(lp4113
S'/home/goshawk/web2py/applications/milo/sessions/127.0.0.1-4a464e0e-f0b9-4de3-b8af-e6a04346340f'
p4114
asbasbasbag67
(g83
g69
NtRp4115
(dp4116
g72
(dp4117
sg81
g3493
sg74
(lp4118
g67
(g88
g69
NtRp4119
(dp4120
g72
(dp4121
g92
g93
ssg81
g4115
sg74
(lp4122
S'session_id'
p4123
asbag67
(g88
g69
NtRp4124
(dp4125
g72
(dp4126
g99
g100
ssg81
g4115
sg74
(lp4127
S':'
asbag67
(g88
g69
NtRp4128
(dp4129
g72
(dp4130
sg81
g4115
sg74
(lp4131
g67
(g68
g69
NtRp4132
(dp4133
g72
(dp4134
g80
I5
ssg81
g4128
sg74
(lp4135
S'127.0.0.1-4a464e0e-f0b9-4de3-b8af-e6a04346340f'
p4136
asbasbasbag67
(g83
g69
NtRp4137
(dp4138
g72
(dp4139
sg81
g3493
sg74
(lp4140
g67
(g88
g69
NtRp4141
(dp4142
g72
(dp4143
g92
g93
ssg81
g4137
sg74
(lp4144
S'session_id_name'
p4145
asbag67
(g88
g69
NtRp4146
(dp4147
g72
(dp4148
g99
g100
ssg81
g4137
sg74
(lp4149
S':'
asbag67
(g88
g69
NtRp4150
(dp4151
g72
(dp4152
sg81
g4137
sg74
(lp4153
g67
(g68
g69
NtRp4154
(dp4155
g72
(dp4156
g80
I5
ssg81
g4150
sg74
(lp4157
g3550
asbasbasbag67
(g83
g69
NtRp4158
(dp4159
g72
(dp4160
sg81
g3493
sg74
(lp4161
g67
(g88
g69
NtRp4162
(dp4163
g72
(dp4164
g92
g93
ssg81
g4158
sg74
(lp4165
S'session_locked'
p4166
asbag67
(g88
g69
NtRp4167
(dp4168
g72
(dp4169
g99
g100
ssg81
g4158
sg74
(lp4170
S':'
asbag67
(g88
g69
NtRp4171
(dp4172
g72
(dp4173
sg81
g4158
sg74
(lp4174
g67
(g68
g69
NtRp4175
(dp4176
g72
(dp4177
g80
I5
ssg81
g4171
sg74
(lp4178
g1937
asbasbasbag67
(g83
g69
NtRp4179
(dp4180
g72
(dp4181
sg81
g3493
sg74
(lp4182
g67
(g88
g69
NtRp4183
(dp4184
g72
(dp4185
g92
g93
ssg81
g4179
sg74
(lp4186
S'session_new'
p4187
asbag67
(g88
g69
NtRp4188
(dp4189
g72
(dp4190
g99
g100
ssg81
g4179
sg74
(lp4191
S':'
asbag67
(g88
g69
NtRp4192
(dp4193
g72
(dp4194
sg81
g4179
sg74
(lp4195
g67
(g68
g69
NtRp4196
(dp4197
g72
(dp4198
g80
I5
ssg81
g4192
sg74
(lp4199
g110
asbasbasbag67
(g83
g69
NtRp4200
(dp4201
g72
(dp4202
sg81
g3493
sg74
(lp4203
g67
(g88
g69
NtRp4204
(dp4205
g72
(dp4206
g92
g93
ssg81
g4200
sg74
(lp4207
S'status'
p4208
asbag67
(g88
g69
NtRp4209
(dp4210
g72
(dp4211
g99
g100
ssg81
g4200
sg74
(lp4212
S':'
asbag67
(g88
g69
NtRp4213
(dp4214
g72
(dp4215
sg81
g4200
sg74
(lp4216
g67
(g68
g69
NtRp4217
(dp4218
g72
(dp4219
g80
I5
ssg81
g4213
sg74
(lp4220
S'200'
p4221
asbasbasbag67
(g83
g69
NtRp4222
(dp4223
g72
(dp4224
sg81
g3493
sg74
(lp4225
g67
(g88
g69
NtRp4226
(dp4227
g72
(dp4228
g92
g93
ssg81
g4222
sg74
(lp4229
g2601
asbag67
(g88
g69
NtRp4230
(dp4231
g72
(dp4232
g99
g100
ssg81
g4222
sg74
(lp4233
S':'
asbag67
(g88
g69
NtRp4234
(dp4235
g72
(dp4236
sg81
g4222
sg74
(lp4237
g67
(g68
g69
NtRp4238
(dp4239
g72
(dp4240
g80
I5
ssg81
g4234
sg74
(lp4241
g2614
asbasbasbag67
(g83
g69
NtRp4242
(dp4243
g72
(dp4244
sg81
g3493
sg74
(lp4245
g67
(g88
g69
NtRp4246
(dp4247
g72
(dp4248
g92
g93
ssg81
g4242
sg74
(lp4249
S'view'
p4250
asbag67
(g88
g69
NtRp4251
(dp4252
g72
(dp4253
g99
g100
ssg81
g4242
sg74
(lp4254
S':'
asbag67
(g88
g69
NtRp4255
(dp4256
g72
(dp4257
sg81
g4242
sg74
(lp4258
g67
(g68
g69
NtRp4259
(dp4260
g72
(dp4261
g80
I5
ssg81
g4255
sg74
(lp4262
S'default/index.html'
p4263
asbasbasbasbasbsS'locals'
p4264
(dp4265
S'a'
S"('CREATE TABLE users(\\n    id SERIAL PRIMARY KEY,\\n ...),\\n    email VARCHAR(512),\\n    imdb_id INTEGER\\n);',)"
p4266
sS'self'
p4267
S'<gluon.dal.PostgreSQLAdapter object>'
p4268
sS'b'
g3436
sS't0'
p4269
S'1339896533.05408'
p4270
sssS'traceback'
p4271
S'Traceback (most recent call last):\n  File "/home/goshawk/web2py/gluon/restricted.py", line 205, in restricted\n    exec ccode in environment\n  File "/home/goshawk/web2py/applications/milo/models/db.py", line 91, in <module>\n    Field(\'imdb_id\', \'integer\')\n  File "/home/goshawk/web2py/gluon/dal.py", line 6320, in define_table\n    polymodel=polymodel)\n  File "/home/goshawk/web2py/gluon/dal.py", line 719, in create_table\n    self.create_sequence_and_triggers(query,table)\n  File "/home/goshawk/web2py/gluon/dal.py", line 1954, in create_sequence_and_triggers\n    self.execute(query)\n  File "/home/goshawk/web2py/gluon/dal.py", line 1392, in execute\n    return self.log_execute(*a, **b)\n  File "/home/goshawk/web2py/gluon/dal.py", line 1386, in log_execute\n    ret = self.cursor.execute(*a, **b)\nProgrammingError: relation "users" already exists\n\n'
p4272
s.