(dp1
S'output'
p2
S"<class 'sqlalchemy.exc.OperationalError'> (OperationalError) FATAL:  remaining connection slots are reserved for non-replication superuser connections\n None None"
p3
sS'layer'
p4
S'/home/goshawk/web2py/applications/milo/models/db.py'
p5
sS'code'
p6
S"# -*- coding: utf-8 -*-\n\n#########################################################################\n## This scaffolding model makes your app work on Google App Engine too\n## File is released under public domain and you can use without limitations\n#########################################################################\n\n## if SSL/HTTPS is properly configured and you want all HTTP requests to\n## be redirected to HTTPS, uncomment the line below:\n# request.requires_https()\n\nif not request.env.web2py_runtime_gae:\n    ## if NOT running on Google App Engine use SQLite or other DB\n    db = DAL('postgres://milo:milosecret@localhost/milo-reloaded')\nelse:\n    ## connect to Google BigTable (optional 'google:datastore://namespace')\n    db = DAL('google:datastore')\n    ## store sessions and tickets there\n    session.connect(request, response, db = db)\n    ## or store session in Memcache, Redis, etc.\n    ## from gluon.contrib.memdb import MEMDB\n    ## from google.appengine.api.memcache import Client\n    ## session.connect(request, response, db = MEMDB(Client()))\n\n## by default give a view/generic.extension to all actions from localhost\n## none otherwise. a pattern can be 'controller/function.extension'\nresponse.generic_patterns = ['*'] if request.is_local else []\n## (optional) optimize handling of static files\n# response.optimize_css = 'concat,minify,inline'\n# response.optimize_js = 'concat,minify,inline'\n\n#########################################################################\n## Here is sample code if you need for\n## - email capabilities\n## - authentication (registration, login, logout, ... )\n## - authorization (role based authorization)\n## - services (xml, csv, json, xmlrpc, jsonrpc, amf, rss)\n## - old style crud actions\n## (more options discussed in gluon/tools.py)\n#########################################################################\n\nfrom gluon.tools import Auth, Crud, Service, PluginManager, prettydate\nauth = Auth(db, hmac_key=Auth.get_or_create_key())\ncrud, service, plugins = Crud(db), Service(), PluginManager()\n\n## create all tables needed by auth if not custom tables\nauth.define_tables()\n\n## configure email\nmail=auth.settings.mailer\nmail.settings.server = 'logging' or 'smtp.gmail.com:587'\nmail.settings.sender = 'you@gmail.com'\nmail.settings.login = 'username:password'\n\n## configure auth policy\nauth.settings.registration_requires_verification = False\nauth.settings.registration_requires_approval = False\nauth.settings.reset_password_requires_verification = True\n\n## if you need to use OpenID, Facebook, MySpace, Twitter, Linkedin, etc.\n## register with janrain.com, write your domain:api_key in private/janrain.key\nfrom gluon.contrib.login_methods.rpx_account import use_janrain\nuse_janrain(auth,filename='private/janrain.key')\n\n#########################################################################\n## Define your tables below (or better in another model file) for example\n##\n## >>> db.define_table('mytable',Field('myfield','string'))\n##\n## Fields can be 'string','text','password','integer','double','boolean'\n##       'date','time','datetime','blob','upload', 'reference TABLENAME'\n## There is an implicit 'id integer autoincrement' field\n## Consult manual for more options, validators, etc.\n##\n## More API examples for controllers:\n##\n## >>> db.mytable.insert(myfield='value')\n## >>> rows=db(db.mytable.myfield=='value').select(db.mytable.ALL)\n## >>> for row in rows: print row.id, row.myfield\n#########################################################################\n\nimport imdb\n\nimdb_connection_str = 'postgres://imdb:imdbsecret@localhost/imdb'\n\nim = imdb.IMDb('sql', uri=imdb_connection_str)\n\n\ndb.define_table('users',\n        Field('name'),\n        Field('email'),\n        Field('imdb_id', 'integer')\n        )\n\ndb.define_table('movies',\n        Field('imdb_id', 'integer')\n        )\n\ndb.define_table('ratings',\n        Field('iuser', db.users),\n        Field('imovie', db.movies),\n        Field('rating', 'double')\n        )\n\ndb.define_table('features',\n        Field('name'),\n        Field('type')\n        )\n\ndb.define_table('movies_features',\n        Field('movie', db.movies),\n        Field('feature', db.features),\n        Field('times', 'integer')\n        )\n"
p7
sS'snapshot'
p8
(dp9
S'exception'
p10
(dp11
S'__module__'
p12
S"'sqlalchemy.exc'"
p13
sS'__getslice__'
p14
S"<method-wrapper '__getslice__' of OperationalError object>"
p15
sS'__str__'
p16
S"<bound method OperationalError.__str__ of Operat...d for non-replication superuser connections\\n',)>"
p17
sS'__reduce__'
p18
S'<built-in method __reduce__ of OperationalError object>'
p19
sS'__dict__'
p20
S"{'connection_invalidated': False, 'orig': OperationalError('FATAL:  remaining connection s...ed for non-replication superuser connections\\n',), 'params': None, 'statement': None}"
p21
sS'__sizeof__'
p22
S'<built-in method __sizeof__ of OperationalError object>'
p23
sS'__weakref__'
p24
S'None'
p25
sS'__init__'
p26
S"<bound method OperationalError.__init__ of Opera...d for non-replication superuser connections\\n',)>"
p27
sS'orig'
p28
S"OperationalError('FATAL:  remaining connection s...ed for non-replication superuser connections\\n',)"
p29
sS'__setattr__'
p30
S"<method-wrapper '__setattr__' of OperationalError object>"
p31
sS'__reduce_ex__'
p32
S'<built-in method __reduce_ex__ of OperationalError object>'
p33
sS'__new__'
p34
S'<built-in method __new__ of type object>'
p35
sS'__format__'
p36
S'<built-in method __format__ of OperationalError object>'
p37
sS'__class__'
p38
S"<class 'sqlalchemy.exc.OperationalError'>"
p39
sS'instance'
p40
S"<bound method type.instance of <class 'sqlalchemy.exc.OperationalError'>>"
p41
sS'params'
p42
S'None'
p43
sS'statement'
p44
S'None'
p45
sS'__doc__'
p46
S"'Wraps a DB-API OperationalError.'"
p47
sS'connection_invalidated'
p48
S'False'
p49
sS'__getitem__'
p50
S"<method-wrapper '__getitem__' of OperationalError object>"
p51
sS'__setstate__'
p52
S'<built-in method __setstate__ of OperationalError object>'
p53
sS'__getattribute__'
p54
S"<method-wrapper '__getattribute__' of OperationalError object>"
p55
sS'args'
p56
S"('(OperationalError) FATAL:  remaining connection ...served for non-replication superuser connections\\n',)"
p57
sS'__subclasshook__'
p58
S'<built-in method __subclasshook__ of type object>'
p59
sS'__unicode__'
p60
S'<built-in method __unicode__ of OperationalError object>'
p61
sS'__delattr__'
p62
S"<method-wrapper '__delattr__' of OperationalError object>"
p63
sS'__repr__'
p64
S"<method-wrapper '__repr__' of OperationalError object>"
p65
sS'__hash__'
p66
S"<method-wrapper '__hash__' of OperationalError object>"
p67
ssS'evalue'
p68
S'(OperationalError) FATAL:  remaining connection slots are reserved for non-replication superuser connections\n None None'
p69
sS'request'
p70
ccopy_reg
_reconstructor
p71
(cgluon.html
BEAUTIFY
p72
c__builtin__
object
p73
NtRp74
(dp75
S'attributes'
p76
(dp77
sS'components'
p78
(lp79
g71
(cgluon.html
TABLE
p80
g73
NtRp81
(dp82
g76
(dp83
S'level'
p84
I5
ssS'parent'
p85
Nsg78
(lp86
g71
(cgluon.html
TR
p87
g73
NtRp88
(dp89
g76
(dp90
sg85
g81
sg78
(lp91
g71
(cgluon.html
TD
p92
g73
NtRp93
(dp94
g76
(dp95
S'_style'
p96
S'font-weight:bold;vertical-align:top'
p97
ssg85
g88
sg78
(lp98
S'ajax'
p99
asbag71
(g92
g73
NtRp100
(dp101
g76
(dp102
S'_valign'
p103
S'top'
p104
ssg85
g88
sg78
(lp105
S':'
asbag71
(g92
g73
NtRp106
(dp107
g76
(dp108
sg85
g88
sg78
(lp109
g71
(g72
g73
NtRp110
(dp111
g76
(dp112
g84
I5
ssg85
g106
sg78
(lp113
g49
asbasbasbag71
(g87
g73
NtRp114
(dp115
g76
(dp116
sg85
g81
sg78
(lp117
g71
(g92
g73
NtRp118
(dp119
g76
(dp120
g96
g97
ssg85
g114
sg78
(lp121
S'application'
p122
asbag71
(g92
g73
NtRp123
(dp124
g76
(dp125
g103
g104
ssg85
g114
sg78
(lp126
S':'
asbag71
(g92
g73
NtRp127
(dp128
g76
(dp129
sg85
g114
sg78
(lp130
g71
(g72
g73
NtRp131
(dp132
g76
(dp133
g84
I5
ssg85
g127
sg78
(lp134
S'milo'
p135
asbasbasbag71
(g87
g73
NtRp136
(dp137
g76
(dp138
sg85
g81
sg78
(lp139
g71
(g92
g73
NtRp140
(dp141
g76
(dp142
g96
g97
ssg85
g136
sg78
(lp143
g56
asbag71
(g92
g73
NtRp144
(dp145
g76
(dp146
g103
g104
ssg85
g136
sg78
(lp147
S':'
asbag71
(g92
g73
NtRp148
(dp149
g76
(dp150
sg85
g136
sg78
(lp151
g71
(g72
g73
NtRp152
(dp153
g76
(dp154
g84
I5
ssg85
g148
sg78
(lp155
g71
(g80
g73
NtRp156
(dp157
g76
(dp158
g84
I4
ssg85
Nsg78
(lp159
sbasbasbasbag71
(g87
g73
NtRp160
(dp161
g76
(dp162
sg85
g81
sg78
(lp163
g71
(g92
g73
NtRp164
(dp165
g76
(dp166
g96
g97
ssg85
g160
sg78
(lp167
S'body'
p168
asbag71
(g92
g73
NtRp169
(dp170
g76
(dp171
g103
g104
ssg85
g160
sg78
(lp172
S':'
asbag71
(g92
g73
NtRp173
(dp174
g76
(dp175
sg85
g160
sg78
(lp176
g71
(g72
g73
NtRp177
(dp178
g76
(dp179
g84
I5
ssg85
g173
sg78
(lp180
S'<cStringIO.StringO object at 0x7f2dd83c02d0>'
p181
asbasbasbag71
(g87
g73
NtRp182
(dp183
g76
(dp184
sg85
g81
sg78
(lp185
g71
(g92
g73
NtRp186
(dp187
g76
(dp188
g96
g97
ssg85
g182
sg78
(lp189
S'client'
p190
asbag71
(g92
g73
NtRp191
(dp192
g76
(dp193
g103
g104
ssg85
g182
sg78
(lp194
S':'
asbag71
(g92
g73
NtRp195
(dp196
g76
(dp197
sg85
g182
sg78
(lp198
g71
(g72
g73
NtRp199
(dp200
g76
(dp201
g84
I5
ssg85
g195
sg78
(lp202
S'127.0.0.1'
p203
asbasbasbag71
(g87
g73
NtRp204
(dp205
g76
(dp206
sg85
g81
sg78
(lp207
g71
(g92
g73
NtRp208
(dp209
g76
(dp210
g96
g97
ssg85
g204
sg78
(lp211
S'controller'
p212
asbag71
(g92
g73
NtRp213
(dp214
g76
(dp215
g103
g104
ssg85
g204
sg78
(lp216
S':'
asbag71
(g92
g73
NtRp217
(dp218
g76
(dp219
sg85
g204
sg78
(lp220
g71
(g72
g73
NtRp221
(dp222
g76
(dp223
g84
I5
ssg85
g217
sg78
(lp224
S'appadmin'
p225
asbasbasbag71
(g87
g73
NtRp226
(dp227
g76
(dp228
sg85
g81
sg78
(lp229
g71
(g92
g73
NtRp230
(dp231
g76
(dp232
g96
g97
ssg85
g226
sg78
(lp233
S'cookies'
p234
asbag71
(g92
g73
NtRp235
(dp236
g76
(dp237
g103
g104
ssg85
g226
sg78
(lp238
S':'
asbag71
(g92
g73
NtRp239
(dp240
g76
(dp241
sg85
g226
sg78
(lp242
g71
(g72
g73
NtRp243
(dp244
g76
(dp245
g84
I5
ssg85
g239
sg78
(lp246
g71
(g80
g73
NtRp247
(dp248
g76
(dp249
g84
I4
ssg85
Nsg78
(lp250
g71
(g87
g73
NtRp251
(dp252
g76
(dp253
sg85
g247
sg78
(lp254
g71
(g92
g73
NtRp255
(dp256
g76
(dp257
g96
g97
ssg85
g251
sg78
(lp258
S'session_id_admin'
p259
asbag71
(g92
g73
NtRp260
(dp261
g76
(dp262
g103
g104
ssg85
g251
sg78
(lp263
S':'
asbag71
(g92
g73
NtRp264
(dp265
g76
(dp266
sg85
g251
sg78
(lp267
g71
(g72
g73
NtRp268
(dp269
g76
(dp270
g84
I4
ssg85
g264
sg78
(lp271
g71
(g80
g73
NtRp272
(dp273
g76
(dp274
g84
I3
ssg85
Nsg78
(lp275
g71
(g87
g73
NtRp276
(dp277
g76
(dp278
sg85
g272
sg78
(lp279
g71
(g92
g73
NtRp280
(dp281
g76
(dp282
g96
g97
ssg85
g276
sg78
(lp283
S'comment'
p284
asbag71
(g92
g73
NtRp285
(dp286
g76
(dp287
g103
g104
ssg85
g276
sg78
(lp288
S':'
asbag71
(g92
g73
NtRp289
(dp290
g76
(dp291
sg85
g276
sg78
(lp292
g71
(g72
g73
NtRp293
(dp294
g76
(dp295
g84
I3
ssg85
g289
sg78
(lp296
S''
asbasbasbag71
(g87
g73
NtRp297
(dp298
g76
(dp299
sg85
g272
sg78
(lp300
g71
(g92
g73
NtRp301
(dp302
g76
(dp303
g96
g97
ssg85
g297
sg78
(lp304
S'domain'
p305
asbag71
(g92
g73
NtRp306
(dp307
g76
(dp308
g103
g104
ssg85
g297
sg78
(lp309
S':'
asbag71
(g92
g73
NtRp310
(dp311
g76
(dp312
sg85
g297
sg78
(lp313
g71
(g72
g73
NtRp314
(dp315
g76
(dp316
g84
I3
ssg85
g310
sg78
(lp317
S''
asbasbasbag71
(g87
g73
NtRp318
(dp319
g76
(dp320
sg85
g272
sg78
(lp321
g71
(g92
g73
NtRp322
(dp323
g76
(dp324
g96
g97
ssg85
g318
sg78
(lp325
S'expires'
p326
asbag71
(g92
g73
NtRp327
(dp328
g76
(dp329
g103
g104
ssg85
g318
sg78
(lp330
S':'
asbag71
(g92
g73
NtRp331
(dp332
g76
(dp333
sg85
g318
sg78
(lp334
g71
(g72
g73
NtRp335
(dp336
g76
(dp337
g84
I3
ssg85
g331
sg78
(lp338
S''
asbasbasbag71
(g87
g73
NtRp339
(dp340
g76
(dp341
sg85
g272
sg78
(lp342
g71
(g92
g73
NtRp343
(dp344
g76
(dp345
g96
g97
ssg85
g339
sg78
(lp346
S'httponly'
p347
asbag71
(g92
g73
NtRp348
(dp349
g76
(dp350
g103
g104
ssg85
g339
sg78
(lp351
S':'
asbag71
(g92
g73
NtRp352
(dp353
g76
(dp354
sg85
g339
sg78
(lp355
g71
(g72
g73
NtRp356
(dp357
g76
(dp358
g84
I3
ssg85
g352
sg78
(lp359
S''
asbasbasbag71
(g87
g73
NtRp360
(dp361
g76
(dp362
sg85
g272
sg78
(lp363
g71
(g92
g73
NtRp364
(dp365
g76
(dp366
g96
g97
ssg85
g360
sg78
(lp367
S'max-age'
p368
asbag71
(g92
g73
NtRp369
(dp370
g76
(dp371
g103
g104
ssg85
g360
sg78
(lp372
S':'
asbag71
(g92
g73
NtRp373
(dp374
g76
(dp375
sg85
g360
sg78
(lp376
g71
(g72
g73
NtRp377
(dp378
g76
(dp379
g84
I3
ssg85
g373
sg78
(lp380
S''
asbasbasbag71
(g87
g73
NtRp381
(dp382
g76
(dp383
sg85
g272
sg78
(lp384
g71
(g92
g73
NtRp385
(dp386
g76
(dp387
g96
g97
ssg85
g381
sg78
(lp388
S'path'
p389
asbag71
(g92
g73
NtRp390
(dp391
g76
(dp392
g103
g104
ssg85
g381
sg78
(lp393
S':'
asbag71
(g92
g73
NtRp394
(dp395
g76
(dp396
sg85
g381
sg78
(lp397
g71
(g72
g73
NtRp398
(dp399
g76
(dp400
g84
I3
ssg85
g394
sg78
(lp401
S''
asbasbasbag71
(g87
g73
NtRp402
(dp403
g76
(dp404
sg85
g272
sg78
(lp405
g71
(g92
g73
NtRp406
(dp407
g76
(dp408
g96
g97
ssg85
g402
sg78
(lp409
S'secure'
p410
asbag71
(g92
g73
NtRp411
(dp412
g76
(dp413
g103
g104
ssg85
g402
sg78
(lp414
S':'
asbag71
(g92
g73
NtRp415
(dp416
g76
(dp417
sg85
g402
sg78
(lp418
g71
(g72
g73
NtRp419
(dp420
g76
(dp421
g84
I3
ssg85
g415
sg78
(lp422
S''
asbasbasbag71
(g87
g73
NtRp423
(dp424
g76
(dp425
sg85
g272
sg78
(lp426
g71
(g92
g73
NtRp427
(dp428
g76
(dp429
g96
g97
ssg85
g423
sg78
(lp430
S'version'
p431
asbag71
(g92
g73
NtRp432
(dp433
g76
(dp434
g103
g104
ssg85
g423
sg78
(lp435
S':'
asbag71
(g92
g73
NtRp436
(dp437
g76
(dp438
sg85
g423
sg78
(lp439
g71
(g72
g73
NtRp440
(dp441
g76
(dp442
g84
I3
ssg85
g436
sg78
(lp443
S''
asbasbasbasbasbasbasbag71
(g87
g73
NtRp444
(dp445
g76
(dp446
sg85
g247
sg78
(lp447
g71
(g92
g73
NtRp448
(dp449
g76
(dp450
g96
g97
ssg85
g444
sg78
(lp451
S'session_id_milo'
p452
asbag71
(g92
g73
NtRp453
(dp454
g76
(dp455
g103
g104
ssg85
g444
sg78
(lp456
S':'
asbag71
(g92
g73
NtRp457
(dp458
g76
(dp459
sg85
g444
sg78
(lp460
g71
(g72
g73
NtRp461
(dp462
g76
(dp463
g84
I4
ssg85
g457
sg78
(lp464
g71
(g80
g73
NtRp465
(dp466
g76
(dp467
g84
I3
ssg85
Nsg78
(lp468
g71
(g87
g73
NtRp469
(dp470
g76
(dp471
sg85
g465
sg78
(lp472
g71
(g92
g73
NtRp473
(dp474
g76
(dp475
g96
g97
ssg85
g469
sg78
(lp476
g284
asbag71
(g92
g73
NtRp477
(dp478
g76
(dp479
g103
g104
ssg85
g469
sg78
(lp480
S':'
asbag71
(g92
g73
NtRp481
(dp482
g76
(dp483
sg85
g469
sg78
(lp484
g71
(g72
g73
NtRp485
(dp486
g76
(dp487
g84
I3
ssg85
g481
sg78
(lp488
S''
asbasbasbag71
(g87
g73
NtRp489
(dp490
g76
(dp491
sg85
g465
sg78
(lp492
g71
(g92
g73
NtRp493
(dp494
g76
(dp495
g96
g97
ssg85
g489
sg78
(lp496
g305
asbag71
(g92
g73
NtRp497
(dp498
g76
(dp499
g103
g104
ssg85
g489
sg78
(lp500
S':'
asbag71
(g92
g73
NtRp501
(dp502
g76
(dp503
sg85
g489
sg78
(lp504
g71
(g72
g73
NtRp505
(dp506
g76
(dp507
g84
I3
ssg85
g501
sg78
(lp508
S''
asbasbasbag71
(g87
g73
NtRp509
(dp510
g76
(dp511
sg85
g465
sg78
(lp512
g71
(g92
g73
NtRp513
(dp514
g76
(dp515
g96
g97
ssg85
g509
sg78
(lp516
g326
asbag71
(g92
g73
NtRp517
(dp518
g76
(dp519
g103
g104
ssg85
g509
sg78
(lp520
S':'
asbag71
(g92
g73
NtRp521
(dp522
g76
(dp523
sg85
g509
sg78
(lp524
g71
(g72
g73
NtRp525
(dp526
g76
(dp527
g84
I3
ssg85
g521
sg78
(lp528
S''
asbasbasbag71
(g87
g73
NtRp529
(dp530
g76
(dp531
sg85
g465
sg78
(lp532
g71
(g92
g73
NtRp533
(dp534
g76
(dp535
g96
g97
ssg85
g529
sg78
(lp536
g347
asbag71
(g92
g73
NtRp537
(dp538
g76
(dp539
g103
g104
ssg85
g529
sg78
(lp540
S':'
asbag71
(g92
g73
NtRp541
(dp542
g76
(dp543
sg85
g529
sg78
(lp544
g71
(g72
g73
NtRp545
(dp546
g76
(dp547
g84
I3
ssg85
g541
sg78
(lp548
S''
asbasbasbag71
(g87
g73
NtRp549
(dp550
g76
(dp551
sg85
g465
sg78
(lp552
g71
(g92
g73
NtRp553
(dp554
g76
(dp555
g96
g97
ssg85
g549
sg78
(lp556
g368
asbag71
(g92
g73
NtRp557
(dp558
g76
(dp559
g103
g104
ssg85
g549
sg78
(lp560
S':'
asbag71
(g92
g73
NtRp561
(dp562
g76
(dp563
sg85
g549
sg78
(lp564
g71
(g72
g73
NtRp565
(dp566
g76
(dp567
g84
I3
ssg85
g561
sg78
(lp568
S''
asbasbasbag71
(g87
g73
NtRp569
(dp570
g76
(dp571
sg85
g465
sg78
(lp572
g71
(g92
g73
NtRp573
(dp574
g76
(dp575
g96
g97
ssg85
g569
sg78
(lp576
g389
asbag71
(g92
g73
NtRp577
(dp578
g76
(dp579
g103
g104
ssg85
g569
sg78
(lp580
S':'
asbag71
(g92
g73
NtRp581
(dp582
g76
(dp583
sg85
g569
sg78
(lp584
g71
(g72
g73
NtRp585
(dp586
g76
(dp587
g84
I3
ssg85
g581
sg78
(lp588
S''
asbasbasbag71
(g87
g73
NtRp589
(dp590
g76
(dp591
sg85
g465
sg78
(lp592
g71
(g92
g73
NtRp593
(dp594
g76
(dp595
g96
g97
ssg85
g589
sg78
(lp596
g410
asbag71
(g92
g73
NtRp597
(dp598
g76
(dp599
g103
g104
ssg85
g589
sg78
(lp600
S':'
asbag71
(g92
g73
NtRp601
(dp602
g76
(dp603
sg85
g589
sg78
(lp604
g71
(g72
g73
NtRp605
(dp606
g76
(dp607
g84
I3
ssg85
g601
sg78
(lp608
S''
asbasbasbag71
(g87
g73
NtRp609
(dp610
g76
(dp611
sg85
g465
sg78
(lp612
g71
(g92
g73
NtRp613
(dp614
g76
(dp615
g96
g97
ssg85
g609
sg78
(lp616
g431
asbag71
(g92
g73
NtRp617
(dp618
g76
(dp619
g103
g104
ssg85
g609
sg78
(lp620
S':'
asbag71
(g92
g73
NtRp621
(dp622
g76
(dp623
sg85
g609
sg78
(lp624
g71
(g72
g73
NtRp625
(dp626
g76
(dp627
g84
I3
ssg85
g621
sg78
(lp628
S''
asbasbasbasbasbasbasbasbasbasbasbag71
(g87
g73
NtRp629
(dp630
g76
(dp631
sg85
g81
sg78
(lp632
g71
(g92
g73
NtRp633
(dp634
g76
(dp635
g96
g97
ssg85
g629
sg78
(lp636
S'env'
p637
asbag71
(g92
g73
NtRp638
(dp639
g76
(dp640
g103
g104
ssg85
g629
sg78
(lp641
S':'
asbag71
(g92
g73
NtRp642
(dp643
g76
(dp644
sg85
g629
sg78
(lp645
g71
(g72
g73
NtRp646
(dp647
g76
(dp648
g84
I5
ssg85
g642
sg78
(lp649
g71
(g80
g73
NtRp650
(dp651
g76
(dp652
g84
I4
ssg85
Nsg78
(lp653
g71
(g87
g73
NtRp654
(dp655
g76
(dp656
sg85
g650
sg78
(lp657
g71
(g92
g73
NtRp658
(dp659
g76
(dp660
g96
g97
ssg85
g654
sg78
(lp661
S'app_folders'
p662
asbag71
(g92
g73
NtRp663
(dp664
g76
(dp665
g103
g104
ssg85
g654
sg78
(lp666
S':'
asbag71
(g92
g73
NtRp667
(dp668
g76
(dp669
sg85
g654
sg78
(lp670
g71
(g72
g73
NtRp671
(dp672
g76
(dp673
g84
I4
ssg85
g667
sg78
(lp674
S"set(['/home/goshawk/web2py/applications/milo/', '/home/goshawk/web2py/applications/admin/'])"
p675
asbasbasbag71
(g87
g73
NtRp676
(dp677
g76
(dp678
sg85
g650
sg78
(lp679
g71
(g92
g73
NtRp680
(dp681
g76
(dp682
g96
g97
ssg85
g676
sg78
(lp683
S'applications_parent'
p684
asbag71
(g92
g73
NtRp685
(dp686
g76
(dp687
g103
g104
ssg85
g676
sg78
(lp688
S':'
asbag71
(g92
g73
NtRp689
(dp690
g76
(dp691
sg85
g676
sg78
(lp692
g71
(g72
g73
NtRp693
(dp694
g76
(dp695
g84
I4
ssg85
g689
sg78
(lp696
S'/home/goshawk/web2py'
p697
asbasbasbag71
(g87
g73
NtRp698
(dp699
g76
(dp700
sg85
g650
sg78
(lp701
g71
(g92
g73
NtRp702
(dp703
g76
(dp704
g96
g97
ssg85
g698
sg78
(lp705
S'cmd_args'
p706
asbag71
(g92
g73
NtRp707
(dp708
g76
(dp709
g103
g104
ssg85
g698
sg78
(lp710
S':'
asbag71
(g92
g73
NtRp711
(dp712
g76
(dp713
sg85
g698
sg78
(lp714
g71
(g72
g73
NtRp715
(dp716
g76
(dp717
g84
I4
ssg85
g711
sg78
(lp718
g71
(g80
g73
NtRp719
(dp720
g76
(dp721
g84
I3
ssg85
Nsg78
(lp722
sbasbasbasbag71
(g87
g73
NtRp723
(dp724
g76
(dp725
sg85
g650
sg78
(lp726
g71
(g92
g73
NtRp727
(dp728
g76
(dp729
g96
g97
ssg85
g723
sg78
(lp730
S'cmd_options'
p731
asbag71
(g92
g73
NtRp732
(dp733
g76
(dp734
g103
g104
ssg85
g723
sg78
(lp735
S':'
asbag71
(g92
g73
NtRp736
(dp737
g76
(dp738
sg85
g723
sg78
(lp739
g71
(g72
g73
NtRp740
(dp741
g76
(dp742
g84
I4
ssg85
g736
sg78
(lp743
S"<Values at 0x1cee0e0: {'verbose': False, 'ip': '127.0.0.1', 'shutdown_timeout': 5, 'taskbar': False, 'nocron': False, 'pid_filename': 'httpserver.pid', 'maxthreads': None, 'softcron': False, 'server_name': 'whisperer', 'bpython': False, 'nogui': False, 'port': 8000, 'extcron': False, 'debuglevel': 30, 'test': None, 'folder': '/home/goshawk/web2py', 'config': '', 'import_models': False, 'winservice': '', 'shell': None, 'run': '', 'log_filename': 'httpserver.log', 'args': [''], 'socket_timeout': 5, 'ssl_ca_certificate': None, 'scheduler': None, 'profiler_filename': None, 'ssl_private_key': '', 'password': 'admin', 'request_queue_size': 5, 'ssl_certificate': '', 'cronjob': False, 'numthreads': None, 'quiet': False, 'interfaces': None, 'minthreads': None, 'timeout': 10, 'plain': False, 'nobanner': False}>"
p744
asbasbasbag71
(g87
g73
NtRp745
(dp746
g76
(dp747
sg85
g650
sg78
(lp748
g71
(g92
g73
NtRp749
(dp750
g76
(dp751
g96
g97
ssg85
g745
sg78
(lp752
S'db_sessions'
p753
asbag71
(g92
g73
NtRp754
(dp755
g76
(dp756
g103
g104
ssg85
g745
sg78
(lp757
S':'
asbag71
(g92
g73
NtRp758
(dp759
g76
(dp760
sg85
g745
sg78
(lp761
g71
(g72
g73
NtRp762
(dp763
g76
(dp764
g84
I4
ssg85
g758
sg78
(lp765
S'set([])'
p766
asbasbasbag71
(g87
g73
NtRp767
(dp768
g76
(dp769
sg85
g650
sg78
(lp770
g71
(g92
g73
NtRp771
(dp772
g76
(dp773
g96
g97
ssg85
g767
sg78
(lp774
S'debugging'
p775
asbag71
(g92
g73
NtRp776
(dp777
g76
(dp778
g103
g104
ssg85
g767
sg78
(lp779
S':'
asbag71
(g92
g73
NtRp780
(dp781
g76
(dp782
sg85
g767
sg78
(lp783
g71
(g72
g73
NtRp784
(dp785
g76
(dp786
g84
I4
ssg85
g780
sg78
(lp787
g49
asbasbasbag71
(g87
g73
NtRp788
(dp789
g76
(dp790
sg85
g650
sg78
(lp791
g71
(g92
g73
NtRp792
(dp793
g76
(dp794
g96
g97
ssg85
g788
sg78
(lp795
S'gluon_parent'
p796
asbag71
(g92
g73
NtRp797
(dp798
g76
(dp799
g103
g104
ssg85
g788
sg78
(lp800
S':'
asbag71
(g92
g73
NtRp801
(dp802
g76
(dp803
sg85
g788
sg78
(lp804
g71
(g72
g73
NtRp805
(dp806
g76
(dp807
g84
I4
ssg85
g801
sg78
(lp808
S'/home/goshawk/web2py'
p809
asbasbasbag71
(g87
g73
NtRp810
(dp811
g76
(dp812
sg85
g650
sg78
(lp813
g71
(g92
g73
NtRp814
(dp815
g76
(dp816
g96
g97
ssg85
g810
sg78
(lp817
S'http_accept'
p818
asbag71
(g92
g73
NtRp819
(dp820
g76
(dp821
g103
g104
ssg85
g810
sg78
(lp822
S':'
asbag71
(g92
g73
NtRp823
(dp824
g76
(dp825
sg85
g810
sg78
(lp826
g71
(g72
g73
NtRp827
(dp828
g76
(dp829
g84
I4
ssg85
g823
sg78
(lp830
S'text/html,application/xhtml+xml,application/xml;q=0.9,*/*;q=0.8'
p831
asbasbasbag71
(g87
g73
NtRp832
(dp833
g76
(dp834
sg85
g650
sg78
(lp835
g71
(g92
g73
NtRp836
(dp837
g76
(dp838
g96
g97
ssg85
g832
sg78
(lp839
S'http_accept_charset'
p840
asbag71
(g92
g73
NtRp841
(dp842
g76
(dp843
g103
g104
ssg85
g832
sg78
(lp844
S':'
asbag71
(g92
g73
NtRp845
(dp846
g76
(dp847
sg85
g832
sg78
(lp848
g71
(g72
g73
NtRp849
(dp850
g76
(dp851
g84
I4
ssg85
g845
sg78
(lp852
S'ISO-8859-1,utf-8;q=0.7,*;q=0.3'
p853
asbasbasbag71
(g87
g73
NtRp854
(dp855
g76
(dp856
sg85
g650
sg78
(lp857
g71
(g92
g73
NtRp858
(dp859
g76
(dp860
g96
g97
ssg85
g854
sg78
(lp861
S'http_accept_encoding'
p862
asbag71
(g92
g73
NtRp863
(dp864
g76
(dp865
g103
g104
ssg85
g854
sg78
(lp866
S':'
asbag71
(g92
g73
NtRp867
(dp868
g76
(dp869
sg85
g854
sg78
(lp870
g71
(g72
g73
NtRp871
(dp872
g76
(dp873
g84
I4
ssg85
g867
sg78
(lp874
S'gzip,deflate,sdch'
p875
asbasbasbag71
(g87
g73
NtRp876
(dp877
g76
(dp878
sg85
g650
sg78
(lp879
g71
(g92
g73
NtRp880
(dp881
g76
(dp882
g96
g97
ssg85
g876
sg78
(lp883
S'http_accept_language'
p884
asbag71
(g92
g73
NtRp885
(dp886
g76
(dp887
g103
g104
ssg85
g876
sg78
(lp888
S':'
asbag71
(g92
g73
NtRp889
(dp890
g76
(dp891
sg85
g876
sg78
(lp892
g71
(g72
g73
NtRp893
(dp894
g76
(dp895
g84
I4
ssg85
g889
sg78
(lp896
S'en-US,en;q=0.8'
p897
asbasbasbag71
(g87
g73
NtRp898
(dp899
g76
(dp900
sg85
g650
sg78
(lp901
g71
(g92
g73
NtRp902
(dp903
g76
(dp904
g96
g97
ssg85
g898
sg78
(lp905
S'http_connection'
p906
asbag71
(g92
g73
NtRp907
(dp908
g76
(dp909
g103
g104
ssg85
g898
sg78
(lp910
S':'
asbag71
(g92
g73
NtRp911
(dp912
g76
(dp913
sg85
g898
sg78
(lp914
g71
(g72
g73
NtRp915
(dp916
g76
(dp917
g84
I4
ssg85
g911
sg78
(lp918
S'keep-alive'
p919
asbasbasbag71
(g87
g73
NtRp920
(dp921
g76
(dp922
sg85
g650
sg78
(lp923
g71
(g92
g73
NtRp924
(dp925
g76
(dp926
g96
g97
ssg85
g920
sg78
(lp927
S'http_cookie'
p928
asbag71
(g92
g73
NtRp929
(dp930
g76
(dp931
g103
g104
ssg85
g920
sg78
(lp932
S':'
asbag71
(g92
g73
NtRp933
(dp934
g76
(dp935
sg85
g920
sg78
(lp936
g71
(g72
g73
NtRp937
(dp938
g76
(dp939
g84
I4
ssg85
g933
sg78
(lp940
S'session_id_admin=127.0.0.1-16b3ac27-a29f-4bb0-b9fc-8d164ae5cc4e; session_id_milo=127.0.0.1-117091b6-3e7b-471e-b9d1-d77222fd06b0'
p941
asbasbasbag71
(g87
g73
NtRp942
(dp943
g76
(dp944
sg85
g650
sg78
(lp945
g71
(g92
g73
NtRp946
(dp947
g76
(dp948
g96
g97
ssg85
g942
sg78
(lp949
S'http_host'
p950
asbag71
(g92
g73
NtRp951
(dp952
g76
(dp953
g103
g104
ssg85
g942
sg78
(lp954
S':'
asbag71
(g92
g73
NtRp955
(dp956
g76
(dp957
sg85
g942
sg78
(lp958
g71
(g72
g73
NtRp959
(dp960
g76
(dp961
g84
I4
ssg85
g955
sg78
(lp962
S'127.0.0.1:8000'
p963
asbasbasbag71
(g87
g73
NtRp964
(dp965
g76
(dp966
sg85
g650
sg78
(lp967
g71
(g92
g73
NtRp968
(dp969
g76
(dp970
g96
g97
ssg85
g964
sg78
(lp971
S'http_referer'
p972
asbag71
(g92
g73
NtRp973
(dp974
g76
(dp975
g103
g104
ssg85
g964
sg78
(lp976
S':'
asbag71
(g92
g73
NtRp977
(dp978
g76
(dp979
sg85
g964
sg78
(lp980
g71
(g72
g73
NtRp981
(dp982
g76
(dp983
g84
I4
ssg85
g977
sg78
(lp984
S'http://127.0.0.1:8000/milo/appadmin/select/db?query=db.features.id%3E0'
p985
asbasbasbag71
(g87
g73
NtRp986
(dp987
g76
(dp988
sg85
g650
sg78
(lp989
g71
(g92
g73
NtRp990
(dp991
g76
(dp992
g96
g97
ssg85
g986
sg78
(lp993
S'http_user_agent'
p994
asbag71
(g92
g73
NtRp995
(dp996
g76
(dp997
g103
g104
ssg85
g986
sg78
(lp998
S':'
asbag71
(g92
g73
NtRp999
(dp1000
g76
(dp1001
sg85
g986
sg78
(lp1002
g71
(g72
g73
NtRp1003
(dp1004
g76
(dp1005
g84
I4
ssg85
g999
sg78
(lp1006
S'Mozilla/5.0 (X11; Linux x86_64) AppleWebKit/535.19 (KHTML, like Gecko) Ubuntu/12.04 Chromium/18.0.1025.151 Chrome/18.0.1025.151 Safari/535.19'
p1007
asbasbasbag71
(g87
g73
NtRp1008
(dp1009
g76
(dp1010
sg85
g650
sg78
(lp1011
g71
(g92
g73
NtRp1012
(dp1013
g76
(dp1014
g96
g97
ssg85
g1008
sg78
(lp1015
S'is_jython'
p1016
asbag71
(g92
g73
NtRp1017
(dp1018
g76
(dp1019
g103
g104
ssg85
g1008
sg78
(lp1020
S':'
asbag71
(g92
g73
NtRp1021
(dp1022
g76
(dp1023
sg85
g1008
sg78
(lp1024
g71
(g72
g73
NtRp1025
(dp1026
g76
(dp1027
g84
I4
ssg85
g1021
sg78
(lp1028
g49
asbasbasbag71
(g87
g73
NtRp1029
(dp1030
g76
(dp1031
sg85
g650
sg78
(lp1032
g71
(g92
g73
NtRp1033
(dp1034
g76
(dp1035
g96
g97
ssg85
g1029
sg78
(lp1036
S'is_pypy'
p1037
asbag71
(g92
g73
NtRp1038
(dp1039
g76
(dp1040
g103
g104
ssg85
g1029
sg78
(lp1041
S':'
asbag71
(g92
g73
NtRp1042
(dp1043
g76
(dp1044
sg85
g1029
sg78
(lp1045
g71
(g72
g73
NtRp1046
(dp1047
g76
(dp1048
g84
I4
ssg85
g1042
sg78
(lp1049
g49
asbasbasbag71
(g87
g73
NtRp1050
(dp1051
g76
(dp1052
sg85
g650
sg78
(lp1053
g71
(g92
g73
NtRp1054
(dp1055
g76
(dp1056
g96
g97
ssg85
g1050
sg78
(lp1057
S'path_info'
p1058
asbag71
(g92
g73
NtRp1059
(dp1060
g76
(dp1061
g103
g104
ssg85
g1050
sg78
(lp1062
S':'
asbag71
(g92
g73
NtRp1063
(dp1064
g76
(dp1065
sg85
g1050
sg78
(lp1066
g71
(g72
g73
NtRp1067
(dp1068
g76
(dp1069
g84
I4
ssg85
g1063
sg78
(lp1070
S'/milo/appadmin/index'
p1071
asbasbasbag71
(g87
g73
NtRp1072
(dp1073
g76
(dp1074
sg85
g650
sg78
(lp1075
g71
(g92
g73
NtRp1076
(dp1077
g76
(dp1078
g96
g97
ssg85
g1072
sg78
(lp1079
S'query_string'
p1080
asbag71
(g92
g73
NtRp1081
(dp1082
g76
(dp1083
g103
g104
ssg85
g1072
sg78
(lp1084
S':'
asbag71
(g92
g73
NtRp1085
(dp1086
g76
(dp1087
sg85
g1072
sg78
(lp1088
g71
(g72
g73
NtRp1089
(dp1090
g76
(dp1091
g84
I4
ssg85
g1085
sg78
(lp1092
S''
asbasbasbag71
(g87
g73
NtRp1093
(dp1094
g76
(dp1095
sg85
g650
sg78
(lp1096
g71
(g92
g73
NtRp1097
(dp1098
g76
(dp1099
g96
g97
ssg85
g1093
sg78
(lp1100
S'remote_addr'
p1101
asbag71
(g92
g73
NtRp1102
(dp1103
g76
(dp1104
g103
g104
ssg85
g1093
sg78
(lp1105
S':'
asbag71
(g92
g73
NtRp1106
(dp1107
g76
(dp1108
sg85
g1093
sg78
(lp1109
g71
(g72
g73
NtRp1110
(dp1111
g76
(dp1112
g84
I4
ssg85
g1106
sg78
(lp1113
g203
asbasbasbag71
(g87
g73
NtRp1114
(dp1115
g76
(dp1116
sg85
g650
sg78
(lp1117
g71
(g92
g73
NtRp1118
(dp1119
g76
(dp1120
g96
g97
ssg85
g1114
sg78
(lp1121
S'remote_port'
p1122
asbag71
(g92
g73
NtRp1123
(dp1124
g76
(dp1125
g103
g104
ssg85
g1114
sg78
(lp1126
S':'
asbag71
(g92
g73
NtRp1127
(dp1128
g76
(dp1129
sg85
g1114
sg78
(lp1130
g71
(g72
g73
NtRp1131
(dp1132
g76
(dp1133
g84
I4
ssg85
g1127
sg78
(lp1134
S'57590'
p1135
asbasbasbag71
(g87
g73
NtRp1136
(dp1137
g76
(dp1138
sg85
g650
sg78
(lp1139
g71
(g92
g73
NtRp1140
(dp1141
g76
(dp1142
g96
g97
ssg85
g1136
sg78
(lp1143
S'request_method'
p1144
asbag71
(g92
g73
NtRp1145
(dp1146
g76
(dp1147
g103
g104
ssg85
g1136
sg78
(lp1148
S':'
asbag71
(g92
g73
NtRp1149
(dp1150
g76
(dp1151
sg85
g1136
sg78
(lp1152
g71
(g72
g73
NtRp1153
(dp1154
g76
(dp1155
g84
I4
ssg85
g1149
sg78
(lp1156
S'GET'
p1157
asbasbasbag71
(g87
g73
NtRp1158
(dp1159
g76
(dp1160
sg85
g650
sg78
(lp1161
g71
(g92
g73
NtRp1162
(dp1163
g76
(dp1164
g96
g97
ssg85
g1158
sg78
(lp1165
S'request_uri'
p1166
asbag71
(g92
g73
NtRp1167
(dp1168
g76
(dp1169
g103
g104
ssg85
g1158
sg78
(lp1170
S':'
asbag71
(g92
g73
NtRp1171
(dp1172
g76
(dp1173
sg85
g1158
sg78
(lp1174
g71
(g72
g73
NtRp1175
(dp1176
g76
(dp1177
g84
I4
ssg85
g1171
sg78
(lp1178
g1071
asbasbasbag71
(g87
g73
NtRp1179
(dp1180
g76
(dp1181
sg85
g650
sg78
(lp1182
g71
(g92
g73
NtRp1183
(dp1184
g76
(dp1185
g96
g97
ssg85
g1179
sg78
(lp1186
S'script_name'
p1187
asbag71
(g92
g73
NtRp1188
(dp1189
g76
(dp1190
g103
g104
ssg85
g1179
sg78
(lp1191
S':'
asbag71
(g92
g73
NtRp1192
(dp1193
g76
(dp1194
sg85
g1179
sg78
(lp1195
g71
(g72
g73
NtRp1196
(dp1197
g76
(dp1198
g84
I4
ssg85
g1192
sg78
(lp1199
S''
asbasbasbag71
(g87
g73
NtRp1200
(dp1201
g76
(dp1202
sg85
g650
sg78
(lp1203
g71
(g92
g73
NtRp1204
(dp1205
g76
(dp1206
g96
g97
ssg85
g1200
sg78
(lp1207
S'server_name'
p1208
asbag71
(g92
g73
NtRp1209
(dp1210
g76
(dp1211
g103
g104
ssg85
g1200
sg78
(lp1212
S':'
asbag71
(g92
g73
NtRp1213
(dp1214
g76
(dp1215
sg85
g1200
sg78
(lp1216
g71
(g72
g73
NtRp1217
(dp1218
g76
(dp1219
g84
I4
ssg85
g1213
sg78
(lp1220
S'whisperer'
p1221
asbasbasbag71
(g87
g73
NtRp1222
(dp1223
g76
(dp1224
sg85
g650
sg78
(lp1225
g71
(g92
g73
NtRp1226
(dp1227
g76
(dp1228
g96
g97
ssg85
g1222
sg78
(lp1229
S'server_port'
p1230
asbag71
(g92
g73
NtRp1231
(dp1232
g76
(dp1233
g103
g104
ssg85
g1222
sg78
(lp1234
S':'
asbag71
(g92
g73
NtRp1235
(dp1236
g76
(dp1237
sg85
g1222
sg78
(lp1238
g71
(g72
g73
NtRp1239
(dp1240
g76
(dp1241
g84
I4
ssg85
g1235
sg78
(lp1242
S'8000'
p1243
asbasbasbag71
(g87
g73
NtRp1244
(dp1245
g76
(dp1246
sg85
g650
sg78
(lp1247
g71
(g92
g73
NtRp1248
(dp1249
g76
(dp1250
g96
g97
ssg85
g1244
sg78
(lp1251
S'server_protocol'
p1252
asbag71
(g92
g73
NtRp1253
(dp1254
g76
(dp1255
g103
g104
ssg85
g1244
sg78
(lp1256
S':'
asbag71
(g92
g73
NtRp1257
(dp1258
g76
(dp1259
sg85
g1244
sg78
(lp1260
g71
(g72
g73
NtRp1261
(dp1262
g76
(dp1263
g84
I4
ssg85
g1257
sg78
(lp1264
S'HTTP/1.1'
p1265
asbasbasbag71
(g87
g73
NtRp1266
(dp1267
g76
(dp1268
sg85
g650
sg78
(lp1269
g71
(g92
g73
NtRp1270
(dp1271
g76
(dp1272
g96
g97
ssg85
g1266
sg78
(lp1273
S'server_software'
p1274
asbag71
(g92
g73
NtRp1275
(dp1276
g76
(dp1277
g103
g104
ssg85
g1266
sg78
(lp1278
S':'
asbag71
(g92
g73
NtRp1279
(dp1280
g76
(dp1281
sg85
g1266
sg78
(lp1282
g71
(g72
g73
NtRp1283
(dp1284
g76
(dp1285
g84
I4
ssg85
g1279
sg78
(lp1286
S'Rocket 1.2.4'
p1287
asbasbasbag71
(g87
g73
NtRp1288
(dp1289
g76
(dp1290
sg85
g650
sg78
(lp1291
g71
(g92
g73
NtRp1292
(dp1293
g76
(dp1294
g96
g97
ssg85
g1288
sg78
(lp1295
S'web2py_crontype'
p1296
asbag71
(g92
g73
NtRp1297
(dp1298
g76
(dp1299
g103
g104
ssg85
g1288
sg78
(lp1300
S':'
asbag71
(g92
g73
NtRp1301
(dp1302
g76
(dp1303
sg85
g1288
sg78
(lp1304
g71
(g72
g73
NtRp1305
(dp1306
g76
(dp1307
g84
I4
ssg85
g1301
sg78
(lp1308
S'hard'
p1309
asbasbasbag71
(g87
g73
NtRp1310
(dp1311
g76
(dp1312
sg85
g650
sg78
(lp1313
g71
(g92
g73
NtRp1314
(dp1315
g76
(dp1316
g96
g97
ssg85
g1310
sg78
(lp1317
S'web2py_original_uri'
p1318
asbag71
(g92
g73
NtRp1319
(dp1320
g76
(dp1321
g103
g104
ssg85
g1310
sg78
(lp1322
S':'
asbag71
(g92
g73
NtRp1323
(dp1324
g76
(dp1325
sg85
g1310
sg78
(lp1326
g71
(g72
g73
NtRp1327
(dp1328
g76
(dp1329
g84
I4
ssg85
g1323
sg78
(lp1330
g1071
asbasbasbag71
(g87
g73
NtRp1331
(dp1332
g76
(dp1333
sg85
g650
sg78
(lp1334
g71
(g92
g73
NtRp1335
(dp1336
g76
(dp1337
g96
g97
ssg85
g1331
sg78
(lp1338
S'web2py_path'
p1339
asbag71
(g92
g73
NtRp1340
(dp1341
g76
(dp1342
g103
g104
ssg85
g1331
sg78
(lp1343
S':'
asbag71
(g92
g73
NtRp1344
(dp1345
g76
(dp1346
sg85
g1331
sg78
(lp1347
g71
(g72
g73
NtRp1348
(dp1349
g76
(dp1350
g84
I4
ssg85
g1344
sg78
(lp1351
g697
asbasbasbag71
(g87
g73
NtRp1352
(dp1353
g76
(dp1354
sg85
g650
sg78
(lp1355
g71
(g92
g73
NtRp1356
(dp1357
g76
(dp1358
g96
g97
ssg85
g1352
sg78
(lp1359
S'web2py_version'
p1360
asbag71
(g92
g73
NtRp1361
(dp1362
g76
(dp1363
g103
g104
ssg85
g1352
sg78
(lp1364
S':'
asbag71
(g92
g73
NtRp1365
(dp1366
g76
(dp1367
sg85
g1352
sg78
(lp1368
g71
(g72
g73
NtRp1369
(dp1370
g76
(dp1371
g84
I4
ssg85
g1365
sg78
(lp1372
g71
(g80
g73
NtRp1373
(dp1374
g76
(dp1375
g84
I3
ssg85
Nsg78
(lp1376
g71
(g87
g73
NtRp1377
(dp1378
g76
(dp1379
sg85
g1373
sg78
(lp1380
g71
(g92
g73
NtRp1381
(dp1382
g76
(dp1383
sg85
g1377
sg78
(lp1384
g71
(g72
g73
NtRp1385
(dp1386
g76
(dp1387
g84
I3
ssg85
g1381
sg78
(lp1388
S'1'
asbasbasbag71
(g87
g73
NtRp1389
(dp1390
g76
(dp1391
sg85
g1373
sg78
(lp1392
g71
(g92
g73
NtRp1393
(dp1394
g76
(dp1395
sg85
g1389
sg78
(lp1396
g71
(g72
g73
NtRp1397
(dp1398
g76
(dp1399
g84
I3
ssg85
g1393
sg78
(lp1400
S'99'
p1401
asbasbasbag71
(g87
g73
NtRp1402
(dp1403
g76
(dp1404
sg85
g1373
sg78
(lp1405
g71
(g92
g73
NtRp1406
(dp1407
g76
(dp1408
sg85
g1402
sg78
(lp1409
g71
(g72
g73
NtRp1410
(dp1411
g76
(dp1412
g84
I3
ssg85
g1406
sg78
(lp1413
S'7'
asbasbasbag71
(g87
g73
NtRp1414
(dp1415
g76
(dp1416
sg85
g1373
sg78
(lp1417
g71
(g92
g73
NtRp1418
(dp1419
g76
(dp1420
sg85
g1414
sg78
(lp1421
g71
(g72
g73
NtRp1422
(dp1423
g76
(dp1424
g84
I3
ssg85
g1418
sg78
(lp1425
S'datetime.datetime(2012, 3, 4, 22, 12, 8)'
p1426
asbasbasbag71
(g87
g73
NtRp1427
(dp1428
g76
(dp1429
sg85
g1373
sg78
(lp1430
g71
(g92
g73
NtRp1431
(dp1432
g76
(dp1433
sg85
g1427
sg78
(lp1434
g71
(g72
g73
NtRp1435
(dp1436
g76
(dp1437
g84
I3
ssg85
g1431
sg78
(lp1438
S'stable'
p1439
asbasbasbasbasbasbasbag71
(g87
g73
NtRp1440
(dp1441
g76
(dp1442
sg85
g650
sg78
(lp1443
g71
(g92
g73
NtRp1444
(dp1445
g76
(dp1446
g96
g97
ssg85
g1440
sg78
(lp1447
S'wsgi_errors'
p1448
asbag71
(g92
g73
NtRp1449
(dp1450
g76
(dp1451
g103
g104
ssg85
g1440
sg78
(lp1452
S':'
asbag71
(g92
g73
NtRp1453
(dp1454
g76
(dp1455
sg85
g1440
sg78
(lp1456
g71
(g72
g73
NtRp1457
(dp1458
g76
(dp1459
g84
I4
ssg85
g1453
sg78
(lp1460
S"<open file '<stderr>', mode 'w' at 0x7f2e01109270>"
p1461
asbasbasbag71
(g87
g73
NtRp1462
(dp1463
g76
(dp1464
sg85
g650
sg78
(lp1465
g71
(g92
g73
NtRp1466
(dp1467
g76
(dp1468
g96
g97
ssg85
g1462
sg78
(lp1469
S'wsgi_file_wrapper'
p1470
asbag71
(g92
g73
NtRp1471
(dp1472
g76
(dp1473
g103
g104
ssg85
g1462
sg78
(lp1474
S':'
asbag71
(g92
g73
NtRp1475
(dp1476
g76
(dp1477
sg85
g1462
sg78
(lp1478
g71
(g72
g73
NtRp1479
(dp1480
g76
(dp1481
g84
I4
ssg85
g1475
sg78
(lp1482
S'<class wsgiref.util.FileWrapper at 0x1c1af58>'
p1483
asbasbasbag71
(g87
g73
NtRp1484
(dp1485
g76
(dp1486
sg85
g650
sg78
(lp1487
g71
(g92
g73
NtRp1488
(dp1489
g76
(dp1490
g96
g97
ssg85
g1484
sg78
(lp1491
S'wsgi_input'
p1492
asbag71
(g92
g73
NtRp1493
(dp1494
g76
(dp1495
g103
g104
ssg85
g1484
sg78
(lp1496
S':'
asbag71
(g92
g73
NtRp1497
(dp1498
g76
(dp1499
sg85
g1484
sg78
(lp1500
g71
(g72
g73
NtRp1501
(dp1502
g76
(dp1503
g84
I4
ssg85
g1497
sg78
(lp1504
S'<socket._fileobject object at 0x7f2de065c350>'
p1505
asbasbasbag71
(g87
g73
NtRp1506
(dp1507
g76
(dp1508
sg85
g650
sg78
(lp1509
g71
(g92
g73
NtRp1510
(dp1511
g76
(dp1512
g96
g97
ssg85
g1506
sg78
(lp1513
S'wsgi_multiprocess'
p1514
asbag71
(g92
g73
NtRp1515
(dp1516
g76
(dp1517
g103
g104
ssg85
g1506
sg78
(lp1518
S':'
asbag71
(g92
g73
NtRp1519
(dp1520
g76
(dp1521
sg85
g1506
sg78
(lp1522
g71
(g72
g73
NtRp1523
(dp1524
g76
(dp1525
g84
I4
ssg85
g1519
sg78
(lp1526
g49
asbasbasbag71
(g87
g73
NtRp1527
(dp1528
g76
(dp1529
sg85
g650
sg78
(lp1530
g71
(g92
g73
NtRp1531
(dp1532
g76
(dp1533
g96
g97
ssg85
g1527
sg78
(lp1534
S'wsgi_multithread'
p1535
asbag71
(g92
g73
NtRp1536
(dp1537
g76
(dp1538
g103
g104
ssg85
g1527
sg78
(lp1539
S':'
asbag71
(g92
g73
NtRp1540
(dp1541
g76
(dp1542
sg85
g1527
sg78
(lp1543
g71
(g72
g73
NtRp1544
(dp1545
g76
(dp1546
g84
I4
ssg85
g1540
sg78
(lp1547
S'True'
p1548
asbasbasbag71
(g87
g73
NtRp1549
(dp1550
g76
(dp1551
sg85
g650
sg78
(lp1552
g71
(g92
g73
NtRp1553
(dp1554
g76
(dp1555
g96
g97
ssg85
g1549
sg78
(lp1556
S'wsgi_run_once'
p1557
asbag71
(g92
g73
NtRp1558
(dp1559
g76
(dp1560
g103
g104
ssg85
g1549
sg78
(lp1561
S':'
asbag71
(g92
g73
NtRp1562
(dp1563
g76
(dp1564
sg85
g1549
sg78
(lp1565
g71
(g72
g73
NtRp1566
(dp1567
g76
(dp1568
g84
I4
ssg85
g1562
sg78
(lp1569
g49
asbasbasbag71
(g87
g73
NtRp1570
(dp1571
g76
(dp1572
sg85
g650
sg78
(lp1573
g71
(g92
g73
NtRp1574
(dp1575
g76
(dp1576
g96
g97
ssg85
g1570
sg78
(lp1577
S'wsgi_url_scheme'
p1578
asbag71
(g92
g73
NtRp1579
(dp1580
g76
(dp1581
g103
g104
ssg85
g1570
sg78
(lp1582
S':'
asbag71
(g92
g73
NtRp1583
(dp1584
g76
(dp1585
sg85
g1570
sg78
(lp1586
g71
(g72
g73
NtRp1587
(dp1588
g76
(dp1589
g84
I4
ssg85
g1583
sg78
(lp1590
S'http'
p1591
asbasbasbag71
(g87
g73
NtRp1592
(dp1593
g76
(dp1594
sg85
g650
sg78
(lp1595
g71
(g92
g73
NtRp1596
(dp1597
g76
(dp1598
g96
g97
ssg85
g1592
sg78
(lp1599
S'wsgi_version'
p1600
asbag71
(g92
g73
NtRp1601
(dp1602
g76
(dp1603
g103
g104
ssg85
g1592
sg78
(lp1604
S':'
asbag71
(g92
g73
NtRp1605
(dp1606
g76
(dp1607
sg85
g1592
sg78
(lp1608
g71
(g72
g73
NtRp1609
(dp1610
g76
(dp1611
g84
I4
ssg85
g1605
sg78
(lp1612
g71
(g80
g73
NtRp1613
(dp1614
g76
(dp1615
g84
I3
ssg85
Nsg78
(lp1616
g71
(g87
g73
NtRp1617
(dp1618
g76
(dp1619
sg85
g1613
sg78
(lp1620
g71
(g92
g73
NtRp1621
(dp1622
g76
(dp1623
sg85
g1617
sg78
(lp1624
g71
(g72
g73
NtRp1625
(dp1626
g76
(dp1627
g84
I3
ssg85
g1621
sg78
(lp1628
S'1'
asbasbasbag71
(g87
g73
NtRp1629
(dp1630
g76
(dp1631
sg85
g1613
sg78
(lp1632
g71
(g92
g73
NtRp1633
(dp1634
g76
(dp1635
sg85
g1629
sg78
(lp1636
g71
(g72
g73
NtRp1637
(dp1638
g76
(dp1639
g84
I3
ssg85
g1633
sg78
(lp1640
S'0'
asbasbasbasbasbasbasbasbasbasbasbag71
(g87
g73
NtRp1641
(dp1642
g76
(dp1643
sg85
g81
sg78
(lp1644
g71
(g92
g73
NtRp1645
(dp1646
g76
(dp1647
g96
g97
ssg85
g1641
sg78
(lp1648
S'extension'
p1649
asbag71
(g92
g73
NtRp1650
(dp1651
g76
(dp1652
g103
g104
ssg85
g1641
sg78
(lp1653
S':'
asbag71
(g92
g73
NtRp1654
(dp1655
g76
(dp1656
sg85
g1641
sg78
(lp1657
g71
(g72
g73
NtRp1658
(dp1659
g76
(dp1660
g84
I5
ssg85
g1654
sg78
(lp1661
S'html'
p1662
asbasbasbag71
(g87
g73
NtRp1663
(dp1664
g76
(dp1665
sg85
g81
sg78
(lp1666
g71
(g92
g73
NtRp1667
(dp1668
g76
(dp1669
g96
g97
ssg85
g1663
sg78
(lp1670
S'folder'
p1671
asbag71
(g92
g73
NtRp1672
(dp1673
g76
(dp1674
g103
g104
ssg85
g1663
sg78
(lp1675
S':'
asbag71
(g92
g73
NtRp1676
(dp1677
g76
(dp1678
sg85
g1663
sg78
(lp1679
g71
(g72
g73
NtRp1680
(dp1681
g76
(dp1682
g84
I5
ssg85
g1676
sg78
(lp1683
S'/home/goshawk/web2py/applications/milo/'
p1684
asbasbasbag71
(g87
g73
NtRp1685
(dp1686
g76
(dp1687
sg85
g81
sg78
(lp1688
g71
(g92
g73
NtRp1689
(dp1690
g76
(dp1691
g96
g97
ssg85
g1685
sg78
(lp1692
S'function'
p1693
asbag71
(g92
g73
NtRp1694
(dp1695
g76
(dp1696
g103
g104
ssg85
g1685
sg78
(lp1697
S':'
asbag71
(g92
g73
NtRp1698
(dp1699
g76
(dp1700
sg85
g1685
sg78
(lp1701
g71
(g72
g73
NtRp1702
(dp1703
g76
(dp1704
g84
I5
ssg85
g1698
sg78
(lp1705
S'index'
p1706
asbasbasbag71
(g87
g73
NtRp1707
(dp1708
g76
(dp1709
sg85
g81
sg78
(lp1710
g71
(g92
g73
NtRp1711
(dp1712
g76
(dp1713
g96
g97
ssg85
g1707
sg78
(lp1714
S'get_vars'
p1715
asbag71
(g92
g73
NtRp1716
(dp1717
g76
(dp1718
g103
g104
ssg85
g1707
sg78
(lp1719
S':'
asbag71
(g92
g73
NtRp1720
(dp1721
g76
(dp1722
sg85
g1707
sg78
(lp1723
g71
(g72
g73
NtRp1724
(dp1725
g76
(dp1726
g84
I5
ssg85
g1720
sg78
(lp1727
g71
(g80
g73
NtRp1728
(dp1729
g76
(dp1730
g84
I4
ssg85
Nsg78
(lp1731
sbasbasbasbag71
(g87
g73
NtRp1732
(dp1733
g76
(dp1734
sg85
g81
sg78
(lp1735
g71
(g92
g73
NtRp1736
(dp1737
g76
(dp1738
g96
g97
ssg85
g1732
sg78
(lp1739
S'global_settings'
p1740
asbag71
(g92
g73
NtRp1741
(dp1742
g76
(dp1743
g103
g104
ssg85
g1732
sg78
(lp1744
S':'
asbag71
(g92
g73
NtRp1745
(dp1746
g76
(dp1747
sg85
g1732
sg78
(lp1748
g71
(g72
g73
NtRp1749
(dp1750
g76
(dp1751
g84
I5
ssg85
g1745
sg78
(lp1752
g71
(g80
g73
NtRp1753
(dp1754
g76
(dp1755
g84
I4
ssg85
Nsg78
(lp1756
g71
(g87
g73
NtRp1757
(dp1758
g76
(dp1759
sg85
g1753
sg78
(lp1760
g71
(g92
g73
NtRp1761
(dp1762
g76
(dp1763
g96
g97
ssg85
g1757
sg78
(lp1764
g662
asbag71
(g92
g73
NtRp1765
(dp1766
g76
(dp1767
g103
g104
ssg85
g1757
sg78
(lp1768
S':'
asbag71
(g92
g73
NtRp1769
(dp1770
g76
(dp1771
sg85
g1757
sg78
(lp1772
g71
(g72
g73
NtRp1773
(dp1774
g76
(dp1775
g84
I4
ssg85
g1769
sg78
(lp1776
S"set(['/home/goshawk/web2py/applications/milo/', '/home/goshawk/web2py/applications/admin/'])"
p1777
asbasbasbag71
(g87
g73
NtRp1778
(dp1779
g76
(dp1780
sg85
g1753
sg78
(lp1781
g71
(g92
g73
NtRp1782
(dp1783
g76
(dp1784
g96
g97
ssg85
g1778
sg78
(lp1785
g684
asbag71
(g92
g73
NtRp1786
(dp1787
g76
(dp1788
g103
g104
ssg85
g1778
sg78
(lp1789
S':'
asbag71
(g92
g73
NtRp1790
(dp1791
g76
(dp1792
sg85
g1778
sg78
(lp1793
g71
(g72
g73
NtRp1794
(dp1795
g76
(dp1796
g84
I4
ssg85
g1790
sg78
(lp1797
g697
asbasbasbag71
(g87
g73
NtRp1798
(dp1799
g76
(dp1800
sg85
g1753
sg78
(lp1801
g71
(g92
g73
NtRp1802
(dp1803
g76
(dp1804
g96
g97
ssg85
g1798
sg78
(lp1805
g706
asbag71
(g92
g73
NtRp1806
(dp1807
g76
(dp1808
g103
g104
ssg85
g1798
sg78
(lp1809
S':'
asbag71
(g92
g73
NtRp1810
(dp1811
g76
(dp1812
sg85
g1798
sg78
(lp1813
g71
(g72
g73
NtRp1814
(dp1815
g76
(dp1816
g84
I4
ssg85
g1810
sg78
(lp1817
g71
(g80
g73
NtRp1818
(dp1819
g76
(dp1820
g84
I3
ssg85
Nsg78
(lp1821
sbasbasbasbag71
(g87
g73
NtRp1822
(dp1823
g76
(dp1824
sg85
g1753
sg78
(lp1825
g71
(g92
g73
NtRp1826
(dp1827
g76
(dp1828
g96
g97
ssg85
g1822
sg78
(lp1829
g731
asbag71
(g92
g73
NtRp1830
(dp1831
g76
(dp1832
g103
g104
ssg85
g1822
sg78
(lp1833
S':'
asbag71
(g92
g73
NtRp1834
(dp1835
g76
(dp1836
sg85
g1822
sg78
(lp1837
g71
(g72
g73
NtRp1838
(dp1839
g76
(dp1840
g84
I4
ssg85
g1834
sg78
(lp1841
S"<Values at 0x1cee0e0: {'verbose': False, 'ip': '127.0.0.1', 'shutdown_timeout': 5, 'taskbar': False, 'nocron': False, 'pid_filename': 'httpserver.pid', 'maxthreads': None, 'softcron': False, 'server_name': 'whisperer', 'bpython': False, 'nogui': False, 'port': 8000, 'extcron': False, 'debuglevel': 30, 'test': None, 'folder': '/home/goshawk/web2py', 'config': '', 'import_models': False, 'winservice': '', 'shell': None, 'run': '', 'log_filename': 'httpserver.log', 'args': [''], 'socket_timeout': 5, 'ssl_ca_certificate': None, 'scheduler': None, 'profiler_filename': None, 'ssl_private_key': '', 'password': 'admin', 'request_queue_size': 5, 'ssl_certificate': '', 'cronjob': False, 'numthreads': None, 'quiet': False, 'interfaces': None, 'minthreads': None, 'timeout': 10, 'plain': False, 'nobanner': False}>"
p1842
asbasbasbag71
(g87
g73
NtRp1843
(dp1844
g76
(dp1845
sg85
g1753
sg78
(lp1846
g71
(g92
g73
NtRp1847
(dp1848
g76
(dp1849
g96
g97
ssg85
g1843
sg78
(lp1850
g753
asbag71
(g92
g73
NtRp1851
(dp1852
g76
(dp1853
g103
g104
ssg85
g1843
sg78
(lp1854
S':'
asbag71
(g92
g73
NtRp1855
(dp1856
g76
(dp1857
sg85
g1843
sg78
(lp1858
g71
(g72
g73
NtRp1859
(dp1860
g76
(dp1861
g84
I4
ssg85
g1855
sg78
(lp1862
S'set([])'
p1863
asbasbasbag71
(g87
g73
NtRp1864
(dp1865
g76
(dp1866
sg85
g1753
sg78
(lp1867
g71
(g92
g73
NtRp1868
(dp1869
g76
(dp1870
g96
g97
ssg85
g1864
sg78
(lp1871
g775
asbag71
(g92
g73
NtRp1872
(dp1873
g76
(dp1874
g103
g104
ssg85
g1864
sg78
(lp1875
S':'
asbag71
(g92
g73
NtRp1876
(dp1877
g76
(dp1878
sg85
g1864
sg78
(lp1879
g71
(g72
g73
NtRp1880
(dp1881
g76
(dp1882
g84
I4
ssg85
g1876
sg78
(lp1883
g49
asbasbasbag71
(g87
g73
NtRp1884
(dp1885
g76
(dp1886
sg85
g1753
sg78
(lp1887
g71
(g92
g73
NtRp1888
(dp1889
g76
(dp1890
g96
g97
ssg85
g1884
sg78
(lp1891
g796
asbag71
(g92
g73
NtRp1892
(dp1893
g76
(dp1894
g103
g104
ssg85
g1884
sg78
(lp1895
S':'
asbag71
(g92
g73
NtRp1896
(dp1897
g76
(dp1898
sg85
g1884
sg78
(lp1899
g71
(g72
g73
NtRp1900
(dp1901
g76
(dp1902
g84
I4
ssg85
g1896
sg78
(lp1903
g809
asbasbasbag71
(g87
g73
NtRp1904
(dp1905
g76
(dp1906
sg85
g1753
sg78
(lp1907
g71
(g92
g73
NtRp1908
(dp1909
g76
(dp1910
g96
g97
ssg85
g1904
sg78
(lp1911
g1016
asbag71
(g92
g73
NtRp1912
(dp1913
g76
(dp1914
g103
g104
ssg85
g1904
sg78
(lp1915
S':'
asbag71
(g92
g73
NtRp1916
(dp1917
g76
(dp1918
sg85
g1904
sg78
(lp1919
g71
(g72
g73
NtRp1920
(dp1921
g76
(dp1922
g84
I4
ssg85
g1916
sg78
(lp1923
g49
asbasbasbag71
(g87
g73
NtRp1924
(dp1925
g76
(dp1926
sg85
g1753
sg78
(lp1927
g71
(g92
g73
NtRp1928
(dp1929
g76
(dp1930
g96
g97
ssg85
g1924
sg78
(lp1931
g1037
asbag71
(g92
g73
NtRp1932
(dp1933
g76
(dp1934
g103
g104
ssg85
g1924
sg78
(lp1935
S':'
asbag71
(g92
g73
NtRp1936
(dp1937
g76
(dp1938
sg85
g1924
sg78
(lp1939
g71
(g72
g73
NtRp1940
(dp1941
g76
(dp1942
g84
I4
ssg85
g1936
sg78
(lp1943
g49
asbasbasbag71
(g87
g73
NtRp1944
(dp1945
g76
(dp1946
sg85
g1753
sg78
(lp1947
g71
(g92
g73
NtRp1948
(dp1949
g76
(dp1950
g96
g97
ssg85
g1944
sg78
(lp1951
g1296
asbag71
(g92
g73
NtRp1952
(dp1953
g76
(dp1954
g103
g104
ssg85
g1944
sg78
(lp1955
S':'
asbag71
(g92
g73
NtRp1956
(dp1957
g76
(dp1958
sg85
g1944
sg78
(lp1959
g71
(g72
g73
NtRp1960
(dp1961
g76
(dp1962
g84
I4
ssg85
g1956
sg78
(lp1963
g1309
asbasbasbag71
(g87
g73
NtRp1964
(dp1965
g76
(dp1966
sg85
g1753
sg78
(lp1967
g71
(g92
g73
NtRp1968
(dp1969
g76
(dp1970
g96
g97
ssg85
g1964
sg78
(lp1971
g1360
asbag71
(g92
g73
NtRp1972
(dp1973
g76
(dp1974
g103
g104
ssg85
g1964
sg78
(lp1975
S':'
asbag71
(g92
g73
NtRp1976
(dp1977
g76
(dp1978
sg85
g1964
sg78
(lp1979
g71
(g72
g73
NtRp1980
(dp1981
g76
(dp1982
g84
I4
ssg85
g1976
sg78
(lp1983
g71
(g80
g73
NtRp1984
(dp1985
g76
(dp1986
g84
I3
ssg85
Nsg78
(lp1987
g71
(g87
g73
NtRp1988
(dp1989
g76
(dp1990
sg85
g1984
sg78
(lp1991
g71
(g92
g73
NtRp1992
(dp1993
g76
(dp1994
sg85
g1988
sg78
(lp1995
g71
(g72
g73
NtRp1996
(dp1997
g76
(dp1998
g84
I3
ssg85
g1992
sg78
(lp1999
S'1'
asbasbasbag71
(g87
g73
NtRp2000
(dp2001
g76
(dp2002
sg85
g1984
sg78
(lp2003
g71
(g92
g73
NtRp2004
(dp2005
g76
(dp2006
sg85
g2000
sg78
(lp2007
g71
(g72
g73
NtRp2008
(dp2009
g76
(dp2010
g84
I3
ssg85
g2004
sg78
(lp2011
S'99'
p2012
asbasbasbag71
(g87
g73
NtRp2013
(dp2014
g76
(dp2015
sg85
g1984
sg78
(lp2016
g71
(g92
g73
NtRp2017
(dp2018
g76
(dp2019
sg85
g2013
sg78
(lp2020
g71
(g72
g73
NtRp2021
(dp2022
g76
(dp2023
g84
I3
ssg85
g2017
sg78
(lp2024
S'7'
asbasbasbag71
(g87
g73
NtRp2025
(dp2026
g76
(dp2027
sg85
g1984
sg78
(lp2028
g71
(g92
g73
NtRp2029
(dp2030
g76
(dp2031
sg85
g2025
sg78
(lp2032
g71
(g72
g73
NtRp2033
(dp2034
g76
(dp2035
g84
I3
ssg85
g2029
sg78
(lp2036
S'datetime.datetime(2012, 3, 4, 22, 12, 8)'
p2037
asbasbasbag71
(g87
g73
NtRp2038
(dp2039
g76
(dp2040
sg85
g1984
sg78
(lp2041
g71
(g92
g73
NtRp2042
(dp2043
g76
(dp2044
sg85
g2038
sg78
(lp2045
g71
(g72
g73
NtRp2046
(dp2047
g76
(dp2048
g84
I3
ssg85
g2042
sg78
(lp2049
g1439
asbasbasbasbasbasbasbasbasbasbasbag71
(g87
g73
NtRp2050
(dp2051
g76
(dp2052
sg85
g81
sg78
(lp2053
g71
(g92
g73
NtRp2054
(dp2055
g76
(dp2056
g96
g97
ssg85
g2050
sg78
(lp2057
S'is_https'
p2058
asbag71
(g92
g73
NtRp2059
(dp2060
g76
(dp2061
g103
g104
ssg85
g2050
sg78
(lp2062
S':'
asbag71
(g92
g73
NtRp2063
(dp2064
g76
(dp2065
sg85
g2050
sg78
(lp2066
g71
(g72
g73
NtRp2067
(dp2068
g76
(dp2069
g84
I5
ssg85
g2063
sg78
(lp2070
g49
asbasbasbag71
(g87
g73
NtRp2071
(dp2072
g76
(dp2073
sg85
g81
sg78
(lp2074
g71
(g92
g73
NtRp2075
(dp2076
g76
(dp2077
g96
g97
ssg85
g2071
sg78
(lp2078
S'is_local'
p2079
asbag71
(g92
g73
NtRp2080
(dp2081
g76
(dp2082
g103
g104
ssg85
g2071
sg78
(lp2083
S':'
asbag71
(g92
g73
NtRp2084
(dp2085
g76
(dp2086
sg85
g2071
sg78
(lp2087
g71
(g72
g73
NtRp2088
(dp2089
g76
(dp2090
g84
I5
ssg85
g2084
sg78
(lp2091
g1548
asbasbasbag71
(g87
g73
NtRp2092
(dp2093
g76
(dp2094
sg85
g81
sg78
(lp2095
g71
(g92
g73
NtRp2096
(dp2097
g76
(dp2098
g96
g97
ssg85
g2092
sg78
(lp2099
S'is_restful'
p2100
asbag71
(g92
g73
NtRp2101
(dp2102
g76
(dp2103
g103
g104
ssg85
g2092
sg78
(lp2104
S':'
asbag71
(g92
g73
NtRp2105
(dp2106
g76
(dp2107
sg85
g2092
sg78
(lp2108
g71
(g72
g73
NtRp2109
(dp2110
g76
(dp2111
g84
I5
ssg85
g2105
sg78
(lp2112
g49
asbasbasbag71
(g87
g73
NtRp2113
(dp2114
g76
(dp2115
sg85
g81
sg78
(lp2116
g71
(g92
g73
NtRp2117
(dp2118
g76
(dp2119
g96
g97
ssg85
g2113
sg78
(lp2120
S'now'
p2121
asbag71
(g92
g73
NtRp2122
(dp2123
g76
(dp2124
g103
g104
ssg85
g2113
sg78
(lp2125
S':'
asbag71
(g92
g73
NtRp2126
(dp2127
g76
(dp2128
sg85
g2113
sg78
(lp2129
g71
(g72
g73
NtRp2130
(dp2131
g76
(dp2132
g84
I5
ssg85
g2126
sg78
(lp2133
S'datetime.datetime(2012, 6, 24, 5, 43, 0, 867500)'
p2134
asbasbasbag71
(g87
g73
NtRp2135
(dp2136
g76
(dp2137
sg85
g81
sg78
(lp2138
g71
(g92
g73
NtRp2139
(dp2140
g76
(dp2141
g96
g97
ssg85
g2135
sg78
(lp2142
S'post_vars'
p2143
asbag71
(g92
g73
NtRp2144
(dp2145
g76
(dp2146
g103
g104
ssg85
g2135
sg78
(lp2147
S':'
asbag71
(g92
g73
NtRp2148
(dp2149
g76
(dp2150
sg85
g2135
sg78
(lp2151
g71
(g72
g73
NtRp2152
(dp2153
g76
(dp2154
g84
I5
ssg85
g2148
sg78
(lp2155
g71
(g80
g73
NtRp2156
(dp2157
g76
(dp2158
g84
I4
ssg85
Nsg78
(lp2159
sbasbasbasbag71
(g87
g73
NtRp2160
(dp2161
g76
(dp2162
sg85
g81
sg78
(lp2163
g71
(g92
g73
NtRp2164
(dp2165
g76
(dp2166
g96
g97
ssg85
g2160
sg78
(lp2167
S'url'
p2168
asbag71
(g92
g73
NtRp2169
(dp2170
g76
(dp2171
g103
g104
ssg85
g2160
sg78
(lp2172
S':'
asbag71
(g92
g73
NtRp2173
(dp2174
g76
(dp2175
sg85
g2160
sg78
(lp2176
g71
(g72
g73
NtRp2177
(dp2178
g76
(dp2179
g84
I5
ssg85
g2173
sg78
(lp2180
S'/milo/appadmin/index'
p2181
asbasbasbag71
(g87
g73
NtRp2182
(dp2183
g76
(dp2184
sg85
g81
sg78
(lp2185
g71
(g92
g73
NtRp2186
(dp2187
g76
(dp2188
g96
g97
ssg85
g2182
sg78
(lp2189
S'utcnow'
p2190
asbag71
(g92
g73
NtRp2191
(dp2192
g76
(dp2193
g103
g104
ssg85
g2182
sg78
(lp2194
S':'
asbag71
(g92
g73
NtRp2195
(dp2196
g76
(dp2197
sg85
g2182
sg78
(lp2198
g71
(g72
g73
NtRp2199
(dp2200
g76
(dp2201
g84
I5
ssg85
g2195
sg78
(lp2202
S'datetime.datetime(2012, 6, 24, 3, 43, 0, 867520)'
p2203
asbasbasbag71
(g87
g73
NtRp2204
(dp2205
g76
(dp2206
sg85
g81
sg78
(lp2207
g71
(g92
g73
NtRp2208
(dp2209
g76
(dp2210
g96
g97
ssg85
g2204
sg78
(lp2211
S'uuid'
p2212
asbag71
(g92
g73
NtRp2213
(dp2214
g76
(dp2215
g103
g104
ssg85
g2204
sg78
(lp2216
S':'
asbag71
(g92
g73
NtRp2217
(dp2218
g76
(dp2219
sg85
g2204
sg78
(lp2220
g71
(g72
g73
NtRp2221
(dp2222
g76
(dp2223
g84
I5
ssg85
g2217
sg78
(lp2224
S'milo/127.0.0.1.2012-06-24.05-43-00.2898608e-cb77-4e67-9416-4fb05720cfba'
p2225
asbasbasbag71
(g87
g73
NtRp2226
(dp2227
g76
(dp2228
sg85
g81
sg78
(lp2229
g71
(g92
g73
NtRp2230
(dp2231
g76
(dp2232
g96
g97
ssg85
g2226
sg78
(lp2233
S'vars'
p2234
asbag71
(g92
g73
NtRp2235
(dp2236
g76
(dp2237
g103
g104
ssg85
g2226
sg78
(lp2238
S':'
asbag71
(g92
g73
NtRp2239
(dp2240
g76
(dp2241
sg85
g2226
sg78
(lp2242
g71
(g72
g73
NtRp2243
(dp2244
g76
(dp2245
g84
I5
ssg85
g2239
sg78
(lp2246
g71
(g80
g73
NtRp2247
(dp2248
g76
(dp2249
g84
I4
ssg85
Nsg78
(lp2250
sbasbasbasbag71
(g87
g73
NtRp2251
(dp2252
g76
(dp2253
sg85
g81
sg78
(lp2254
g71
(g92
g73
NtRp2255
(dp2256
g76
(dp2257
g96
g97
ssg85
g2251
sg78
(lp2258
S'wsgi'
p2259
asbag71
(g92
g73
NtRp2260
(dp2261
g76
(dp2262
g103
g104
ssg85
g2251
sg78
(lp2263
S':'
asbag71
(g92
g73
NtRp2264
(dp2265
g76
(dp2266
sg85
g2251
sg78
(lp2267
g71
(g72
g73
NtRp2268
(dp2269
g76
(dp2270
g84
I5
ssg85
g2264
sg78
(lp2271
g71
(g80
g73
NtRp2272
(dp2273
g76
(dp2274
g84
I4
ssg85
Nsg78
(lp2275
g71
(g87
g73
NtRp2276
(dp2277
g76
(dp2278
sg85
g2272
sg78
(lp2279
g71
(g92
g73
NtRp2280
(dp2281
g76
(dp2282
g96
g97
ssg85
g2276
sg78
(lp2283
S'environ'
p2284
asbag71
(g92
g73
NtRp2285
(dp2286
g76
(dp2287
g103
g104
ssg85
g2276
sg78
(lp2288
S':'
asbag71
(g92
g73
NtRp2289
(dp2290
g76
(dp2291
sg85
g2276
sg78
(lp2292
g71
(g72
g73
NtRp2293
(dp2294
g76
(dp2295
g84
I4
ssg85
g2289
sg78
(lp2296
g71
(g80
g73
NtRp2297
(dp2298
g76
(dp2299
g84
I3
ssg85
Nsg78
(lp2300
g71
(g87
g73
NtRp2301
(dp2302
g76
(dp2303
sg85
g2297
sg78
(lp2304
g71
(g92
g73
NtRp2305
(dp2306
g76
(dp2307
g96
g97
ssg85
g2301
sg78
(lp2308
S'HTTP_ACCEPT'
p2309
asbag71
(g92
g73
NtRp2310
(dp2311
g76
(dp2312
g103
g104
ssg85
g2301
sg78
(lp2313
S':'
asbag71
(g92
g73
NtRp2314
(dp2315
g76
(dp2316
sg85
g2301
sg78
(lp2317
g71
(g72
g73
NtRp2318
(dp2319
g76
(dp2320
g84
I3
ssg85
g2314
sg78
(lp2321
g831
asbasbasbag71
(g87
g73
NtRp2322
(dp2323
g76
(dp2324
sg85
g2297
sg78
(lp2325
g71
(g92
g73
NtRp2326
(dp2327
g76
(dp2328
g96
g97
ssg85
g2322
sg78
(lp2329
S'HTTP_ACCEPT_CHARSET'
p2330
asbag71
(g92
g73
NtRp2331
(dp2332
g76
(dp2333
g103
g104
ssg85
g2322
sg78
(lp2334
S':'
asbag71
(g92
g73
NtRp2335
(dp2336
g76
(dp2337
sg85
g2322
sg78
(lp2338
g71
(g72
g73
NtRp2339
(dp2340
g76
(dp2341
g84
I3
ssg85
g2335
sg78
(lp2342
g853
asbasbasbag71
(g87
g73
NtRp2343
(dp2344
g76
(dp2345
sg85
g2297
sg78
(lp2346
g71
(g92
g73
NtRp2347
(dp2348
g76
(dp2349
g96
g97
ssg85
g2343
sg78
(lp2350
S'HTTP_ACCEPT_ENCODING'
p2351
asbag71
(g92
g73
NtRp2352
(dp2353
g76
(dp2354
g103
g104
ssg85
g2343
sg78
(lp2355
S':'
asbag71
(g92
g73
NtRp2356
(dp2357
g76
(dp2358
sg85
g2343
sg78
(lp2359
g71
(g72
g73
NtRp2360
(dp2361
g76
(dp2362
g84
I3
ssg85
g2356
sg78
(lp2363
g875
asbasbasbag71
(g87
g73
NtRp2364
(dp2365
g76
(dp2366
sg85
g2297
sg78
(lp2367
g71
(g92
g73
NtRp2368
(dp2369
g76
(dp2370
g96
g97
ssg85
g2364
sg78
(lp2371
S'HTTP_ACCEPT_LANGUAGE'
p2372
asbag71
(g92
g73
NtRp2373
(dp2374
g76
(dp2375
g103
g104
ssg85
g2364
sg78
(lp2376
S':'
asbag71
(g92
g73
NtRp2377
(dp2378
g76
(dp2379
sg85
g2364
sg78
(lp2380
g71
(g72
g73
NtRp2381
(dp2382
g76
(dp2383
g84
I3
ssg85
g2377
sg78
(lp2384
g897
asbasbasbag71
(g87
g73
NtRp2385
(dp2386
g76
(dp2387
sg85
g2297
sg78
(lp2388
g71
(g92
g73
NtRp2389
(dp2390
g76
(dp2391
g96
g97
ssg85
g2385
sg78
(lp2392
S'HTTP_CONNECTION'
p2393
asbag71
(g92
g73
NtRp2394
(dp2395
g76
(dp2396
g103
g104
ssg85
g2385
sg78
(lp2397
S':'
asbag71
(g92
g73
NtRp2398
(dp2399
g76
(dp2400
sg85
g2385
sg78
(lp2401
g71
(g72
g73
NtRp2402
(dp2403
g76
(dp2404
g84
I3
ssg85
g2398
sg78
(lp2405
g919
asbasbasbag71
(g87
g73
NtRp2406
(dp2407
g76
(dp2408
sg85
g2297
sg78
(lp2409
g71
(g92
g73
NtRp2410
(dp2411
g76
(dp2412
g96
g97
ssg85
g2406
sg78
(lp2413
S'HTTP_COOKIE'
p2414
asbag71
(g92
g73
NtRp2415
(dp2416
g76
(dp2417
g103
g104
ssg85
g2406
sg78
(lp2418
S':'
asbag71
(g92
g73
NtRp2419
(dp2420
g76
(dp2421
sg85
g2406
sg78
(lp2422
g71
(g72
g73
NtRp2423
(dp2424
g76
(dp2425
g84
I3
ssg85
g2419
sg78
(lp2426
g941
asbasbasbag71
(g87
g73
NtRp2427
(dp2428
g76
(dp2429
sg85
g2297
sg78
(lp2430
g71
(g92
g73
NtRp2431
(dp2432
g76
(dp2433
g96
g97
ssg85
g2427
sg78
(lp2434
S'HTTP_HOST'
p2435
asbag71
(g92
g73
NtRp2436
(dp2437
g76
(dp2438
g103
g104
ssg85
g2427
sg78
(lp2439
S':'
asbag71
(g92
g73
NtRp2440
(dp2441
g76
(dp2442
sg85
g2427
sg78
(lp2443
g71
(g72
g73
NtRp2444
(dp2445
g76
(dp2446
g84
I3
ssg85
g2440
sg78
(lp2447
g963
asbasbasbag71
(g87
g73
NtRp2448
(dp2449
g76
(dp2450
sg85
g2297
sg78
(lp2451
g71
(g92
g73
NtRp2452
(dp2453
g76
(dp2454
g96
g97
ssg85
g2448
sg78
(lp2455
S'HTTP_REFERER'
p2456
asbag71
(g92
g73
NtRp2457
(dp2458
g76
(dp2459
g103
g104
ssg85
g2448
sg78
(lp2460
S':'
asbag71
(g92
g73
NtRp2461
(dp2462
g76
(dp2463
sg85
g2448
sg78
(lp2464
g71
(g72
g73
NtRp2465
(dp2466
g76
(dp2467
g84
I3
ssg85
g2461
sg78
(lp2468
g985
asbasbasbag71
(g87
g73
NtRp2469
(dp2470
g76
(dp2471
sg85
g2297
sg78
(lp2472
g71
(g92
g73
NtRp2473
(dp2474
g76
(dp2475
g96
g97
ssg85
g2469
sg78
(lp2476
S'HTTP_USER_AGENT'
p2477
asbag71
(g92
g73
NtRp2478
(dp2479
g76
(dp2480
g103
g104
ssg85
g2469
sg78
(lp2481
S':'
asbag71
(g92
g73
NtRp2482
(dp2483
g76
(dp2484
sg85
g2469
sg78
(lp2485
g71
(g72
g73
NtRp2486
(dp2487
g76
(dp2488
g84
I3
ssg85
g2482
sg78
(lp2489
g1007
asbasbasbag71
(g87
g73
NtRp2490
(dp2491
g76
(dp2492
sg85
g2297
sg78
(lp2493
g71
(g92
g73
NtRp2494
(dp2495
g76
(dp2496
g96
g97
ssg85
g2490
sg78
(lp2497
S'PATH_INFO'
p2498
asbag71
(g92
g73
NtRp2499
(dp2500
g76
(dp2501
g103
g104
ssg85
g2490
sg78
(lp2502
S':'
asbag71
(g92
g73
NtRp2503
(dp2504
g76
(dp2505
sg85
g2490
sg78
(lp2506
g71
(g72
g73
NtRp2507
(dp2508
g76
(dp2509
g84
I3
ssg85
g2503
sg78
(lp2510
g1071
asbasbasbag71
(g87
g73
NtRp2511
(dp2512
g76
(dp2513
sg85
g2297
sg78
(lp2514
g71
(g92
g73
NtRp2515
(dp2516
g76
(dp2517
g96
g97
ssg85
g2511
sg78
(lp2518
S'QUERY_STRING'
p2519
asbag71
(g92
g73
NtRp2520
(dp2521
g76
(dp2522
g103
g104
ssg85
g2511
sg78
(lp2523
S':'
asbag71
(g92
g73
NtRp2524
(dp2525
g76
(dp2526
sg85
g2511
sg78
(lp2527
g71
(g72
g73
NtRp2528
(dp2529
g76
(dp2530
g84
I3
ssg85
g2524
sg78
(lp2531
S''
asbasbasbag71
(g87
g73
NtRp2532
(dp2533
g76
(dp2534
sg85
g2297
sg78
(lp2535
g71
(g92
g73
NtRp2536
(dp2537
g76
(dp2538
g96
g97
ssg85
g2532
sg78
(lp2539
S'REMOTE_ADDR'
p2540
asbag71
(g92
g73
NtRp2541
(dp2542
g76
(dp2543
g103
g104
ssg85
g2532
sg78
(lp2544
S':'
asbag71
(g92
g73
NtRp2545
(dp2546
g76
(dp2547
sg85
g2532
sg78
(lp2548
g71
(g72
g73
NtRp2549
(dp2550
g76
(dp2551
g84
I3
ssg85
g2545
sg78
(lp2552
g203
asbasbasbag71
(g87
g73
NtRp2553
(dp2554
g76
(dp2555
sg85
g2297
sg78
(lp2556
g71
(g92
g73
NtRp2557
(dp2558
g76
(dp2559
g96
g97
ssg85
g2553
sg78
(lp2560
S'REMOTE_PORT'
p2561
asbag71
(g92
g73
NtRp2562
(dp2563
g76
(dp2564
g103
g104
ssg85
g2553
sg78
(lp2565
S':'
asbag71
(g92
g73
NtRp2566
(dp2567
g76
(dp2568
sg85
g2553
sg78
(lp2569
g71
(g72
g73
NtRp2570
(dp2571
g76
(dp2572
g84
I3
ssg85
g2566
sg78
(lp2573
g1135
asbasbasbag71
(g87
g73
NtRp2574
(dp2575
g76
(dp2576
sg85
g2297
sg78
(lp2577
g71
(g92
g73
NtRp2578
(dp2579
g76
(dp2580
g96
g97
ssg85
g2574
sg78
(lp2581
S'REQUEST_METHOD'
p2582
asbag71
(g92
g73
NtRp2583
(dp2584
g76
(dp2585
g103
g104
ssg85
g2574
sg78
(lp2586
S':'
asbag71
(g92
g73
NtRp2587
(dp2588
g76
(dp2589
sg85
g2574
sg78
(lp2590
g71
(g72
g73
NtRp2591
(dp2592
g76
(dp2593
g84
I3
ssg85
g2587
sg78
(lp2594
g1157
asbasbasbag71
(g87
g73
NtRp2595
(dp2596
g76
(dp2597
sg85
g2297
sg78
(lp2598
g71
(g92
g73
NtRp2599
(dp2600
g76
(dp2601
g96
g97
ssg85
g2595
sg78
(lp2602
S'REQUEST_URI'
p2603
asbag71
(g92
g73
NtRp2604
(dp2605
g76
(dp2606
g103
g104
ssg85
g2595
sg78
(lp2607
S':'
asbag71
(g92
g73
NtRp2608
(dp2609
g76
(dp2610
sg85
g2595
sg78
(lp2611
g71
(g72
g73
NtRp2612
(dp2613
g76
(dp2614
g84
I3
ssg85
g2608
sg78
(lp2615
g1071
asbasbasbag71
(g87
g73
NtRp2616
(dp2617
g76
(dp2618
sg85
g2297
sg78
(lp2619
g71
(g92
g73
NtRp2620
(dp2621
g76
(dp2622
g96
g97
ssg85
g2616
sg78
(lp2623
S'SCRIPT_NAME'
p2624
asbag71
(g92
g73
NtRp2625
(dp2626
g76
(dp2627
g103
g104
ssg85
g2616
sg78
(lp2628
S':'
asbag71
(g92
g73
NtRp2629
(dp2630
g76
(dp2631
sg85
g2616
sg78
(lp2632
g71
(g72
g73
NtRp2633
(dp2634
g76
(dp2635
g84
I3
ssg85
g2629
sg78
(lp2636
S''
asbasbasbag71
(g87
g73
NtRp2637
(dp2638
g76
(dp2639
sg85
g2297
sg78
(lp2640
g71
(g92
g73
NtRp2641
(dp2642
g76
(dp2643
g96
g97
ssg85
g2637
sg78
(lp2644
S'SERVER_NAME'
p2645
asbag71
(g92
g73
NtRp2646
(dp2647
g76
(dp2648
g103
g104
ssg85
g2637
sg78
(lp2649
S':'
asbag71
(g92
g73
NtRp2650
(dp2651
g76
(dp2652
sg85
g2637
sg78
(lp2653
g71
(g72
g73
NtRp2654
(dp2655
g76
(dp2656
g84
I3
ssg85
g2650
sg78
(lp2657
g1221
asbasbasbag71
(g87
g73
NtRp2658
(dp2659
g76
(dp2660
sg85
g2297
sg78
(lp2661
g71
(g92
g73
NtRp2662
(dp2663
g76
(dp2664
g96
g97
ssg85
g2658
sg78
(lp2665
S'SERVER_PORT'
p2666
asbag71
(g92
g73
NtRp2667
(dp2668
g76
(dp2669
g103
g104
ssg85
g2658
sg78
(lp2670
S':'
asbag71
(g92
g73
NtRp2671
(dp2672
g76
(dp2673
sg85
g2658
sg78
(lp2674
g71
(g72
g73
NtRp2675
(dp2676
g76
(dp2677
g84
I3
ssg85
g2671
sg78
(lp2678
g1243
asbasbasbag71
(g87
g73
NtRp2679
(dp2680
g76
(dp2681
sg85
g2297
sg78
(lp2682
g71
(g92
g73
NtRp2683
(dp2684
g76
(dp2685
g96
g97
ssg85
g2679
sg78
(lp2686
S'SERVER_PROTOCOL'
p2687
asbag71
(g92
g73
NtRp2688
(dp2689
g76
(dp2690
g103
g104
ssg85
g2679
sg78
(lp2691
S':'
asbag71
(g92
g73
NtRp2692
(dp2693
g76
(dp2694
sg85
g2679
sg78
(lp2695
g71
(g72
g73
NtRp2696
(dp2697
g76
(dp2698
g84
I3
ssg85
g2692
sg78
(lp2699
g1265
asbasbasbag71
(g87
g73
NtRp2700
(dp2701
g76
(dp2702
sg85
g2297
sg78
(lp2703
g71
(g92
g73
NtRp2704
(dp2705
g76
(dp2706
g96
g97
ssg85
g2700
sg78
(lp2707
S'SERVER_SOFTWARE'
p2708
asbag71
(g92
g73
NtRp2709
(dp2710
g76
(dp2711
g103
g104
ssg85
g2700
sg78
(lp2712
S':'
asbag71
(g92
g73
NtRp2713
(dp2714
g76
(dp2715
sg85
g2700
sg78
(lp2716
g71
(g72
g73
NtRp2717
(dp2718
g76
(dp2719
g84
I3
ssg85
g2713
sg78
(lp2720
g1287
asbasbasbag71
(g87
g73
NtRp2721
(dp2722
g76
(dp2723
sg85
g2297
sg78
(lp2724
g71
(g92
g73
NtRp2725
(dp2726
g76
(dp2727
g96
g97
ssg85
g2721
sg78
(lp2728
S'WEB2PY_ORIGINAL_URI'
p2729
asbag71
(g92
g73
NtRp2730
(dp2731
g76
(dp2732
g103
g104
ssg85
g2721
sg78
(lp2733
S':'
asbag71
(g92
g73
NtRp2734
(dp2735
g76
(dp2736
sg85
g2721
sg78
(lp2737
g71
(g72
g73
NtRp2738
(dp2739
g76
(dp2740
g84
I3
ssg85
g2734
sg78
(lp2741
g1071
asbasbasbag71
(g87
g73
NtRp2742
(dp2743
g76
(dp2744
sg85
g2297
sg78
(lp2745
g71
(g92
g73
NtRp2746
(dp2747
g76
(dp2748
g96
g97
ssg85
g2742
sg78
(lp2749
S'wsgi.errors'
p2750
asbag71
(g92
g73
NtRp2751
(dp2752
g76
(dp2753
g103
g104
ssg85
g2742
sg78
(lp2754
S':'
asbag71
(g92
g73
NtRp2755
(dp2756
g76
(dp2757
sg85
g2742
sg78
(lp2758
g71
(g72
g73
NtRp2759
(dp2760
g76
(dp2761
g84
I3
ssg85
g2755
sg78
(lp2762
S"<open file '<stderr>', mode 'w' at 0x7f2e01109270>"
p2763
asbasbasbag71
(g87
g73
NtRp2764
(dp2765
g76
(dp2766
sg85
g2297
sg78
(lp2767
g71
(g92
g73
NtRp2768
(dp2769
g76
(dp2770
g96
g97
ssg85
g2764
sg78
(lp2771
S'wsgi.file_wrapper'
p2772
asbag71
(g92
g73
NtRp2773
(dp2774
g76
(dp2775
g103
g104
ssg85
g2764
sg78
(lp2776
S':'
asbag71
(g92
g73
NtRp2777
(dp2778
g76
(dp2779
sg85
g2764
sg78
(lp2780
g71
(g72
g73
NtRp2781
(dp2782
g76
(dp2783
g84
I3
ssg85
g2777
sg78
(lp2784
S'<class wsgiref.util.FileWrapper at 0x1c1af58>'
p2785
asbasbasbag71
(g87
g73
NtRp2786
(dp2787
g76
(dp2788
sg85
g2297
sg78
(lp2789
g71
(g92
g73
NtRp2790
(dp2791
g76
(dp2792
g96
g97
ssg85
g2786
sg78
(lp2793
S'wsgi.input'
p2794
asbag71
(g92
g73
NtRp2795
(dp2796
g76
(dp2797
g103
g104
ssg85
g2786
sg78
(lp2798
S':'
asbag71
(g92
g73
NtRp2799
(dp2800
g76
(dp2801
sg85
g2786
sg78
(lp2802
g71
(g72
g73
NtRp2803
(dp2804
g76
(dp2805
g84
I3
ssg85
g2799
sg78
(lp2806
S'<cStringIO.StringO object at 0x7f2dd83c02d0>'
p2807
asbasbasbag71
(g87
g73
NtRp2808
(dp2809
g76
(dp2810
sg85
g2297
sg78
(lp2811
g71
(g92
g73
NtRp2812
(dp2813
g76
(dp2814
g96
g97
ssg85
g2808
sg78
(lp2815
S'wsgi.multiprocess'
p2816
asbag71
(g92
g73
NtRp2817
(dp2818
g76
(dp2819
g103
g104
ssg85
g2808
sg78
(lp2820
S':'
asbag71
(g92
g73
NtRp2821
(dp2822
g76
(dp2823
sg85
g2808
sg78
(lp2824
g71
(g72
g73
NtRp2825
(dp2826
g76
(dp2827
g84
I3
ssg85
g2821
sg78
(lp2828
g49
asbasbasbag71
(g87
g73
NtRp2829
(dp2830
g76
(dp2831
sg85
g2297
sg78
(lp2832
g71
(g92
g73
NtRp2833
(dp2834
g76
(dp2835
g96
g97
ssg85
g2829
sg78
(lp2836
S'wsgi.multithread'
p2837
asbag71
(g92
g73
NtRp2838
(dp2839
g76
(dp2840
g103
g104
ssg85
g2829
sg78
(lp2841
S':'
asbag71
(g92
g73
NtRp2842
(dp2843
g76
(dp2844
sg85
g2829
sg78
(lp2845
g71
(g72
g73
NtRp2846
(dp2847
g76
(dp2848
g84
I3
ssg85
g2842
sg78
(lp2849
g1548
asbasbasbag71
(g87
g73
NtRp2850
(dp2851
g76
(dp2852
sg85
g2297
sg78
(lp2853
g71
(g92
g73
NtRp2854
(dp2855
g76
(dp2856
g96
g97
ssg85
g2850
sg78
(lp2857
S'wsgi.run_once'
p2858
asbag71
(g92
g73
NtRp2859
(dp2860
g76
(dp2861
g103
g104
ssg85
g2850
sg78
(lp2862
S':'
asbag71
(g92
g73
NtRp2863
(dp2864
g76
(dp2865
sg85
g2850
sg78
(lp2866
g71
(g72
g73
NtRp2867
(dp2868
g76
(dp2869
g84
I3
ssg85
g2863
sg78
(lp2870
g49
asbasbasbag71
(g87
g73
NtRp2871
(dp2872
g76
(dp2873
sg85
g2297
sg78
(lp2874
g71
(g92
g73
NtRp2875
(dp2876
g76
(dp2877
g96
g97
ssg85
g2871
sg78
(lp2878
S'wsgi.url_scheme'
p2879
asbag71
(g92
g73
NtRp2880
(dp2881
g76
(dp2882
g103
g104
ssg85
g2871
sg78
(lp2883
S':'
asbag71
(g92
g73
NtRp2884
(dp2885
g76
(dp2886
sg85
g2871
sg78
(lp2887
g71
(g72
g73
NtRp2888
(dp2889
g76
(dp2890
g84
I3
ssg85
g2884
sg78
(lp2891
g1591
asbasbasbag71
(g87
g73
NtRp2892
(dp2893
g76
(dp2894
sg85
g2297
sg78
(lp2895
g71
(g92
g73
NtRp2896
(dp2897
g76
(dp2898
g96
g97
ssg85
g2892
sg78
(lp2899
S'wsgi.version'
p2900
asbag71
(g92
g73
NtRp2901
(dp2902
g76
(dp2903
g103
g104
ssg85
g2892
sg78
(lp2904
S':'
asbag71
(g92
g73
NtRp2905
(dp2906
g76
(dp2907
sg85
g2892
sg78
(lp2908
g71
(g72
g73
NtRp2909
(dp2910
g76
(dp2911
g84
I3
ssg85
g2905
sg78
(lp2912
S'1'
asbasbasbasbasbasbasbasbasbasbasbasbasbsS'frames'
p2913
(lp2914
(dp2915
S'file'
p2916
S'/home/goshawk/web2py/gluon/restricted.py'
p2917
sS'dump'
p2918
(dp2919
S'environment'
p2920
S"{'A': <class 'gluon.html.A'>, 'Auth': <class 'gluon.tools.Auth'>, 'B': <class 'gluon.html.B'>, 'BEAUTIFY': <class 'gluon.html.BEAUTIFY'>, 'BODY': <class 'gluon.html.BODY'>, 'BR': <class 'gluon.html.BR'>, 'BUTTON': <class 'gluon.html.BUTTON'>, 'CAT': <class 'gluon.html.CAT'>, 'CENTER': <class 'gluon.html.CENTER'>, 'CLEANUP': <class 'gluon.validators.CLEANUP'>, ...}"
p2921
sS'ccode'
p2922
S'<code object <module> at 0x7f2ddca42db0, file "/.../web2py/applications/milo/models/db.py", line 12>'
p2923
ssS'lnum'
p2924
I205
sS'lines'
p2925
(dp2926
I200
S'    try:'
p2927
sI201
S'        if type(code) == types.CodeType:'
p2928
sI202
S'            ccode = code'
p2929
sI203
S'        else:'
p2930
sI204
S'            ccode = compile2(code,layer)'
p2931
sI205
S'        exec ccode in environment'
p2932
sI206
S'    except HTTP:'
p2933
sI207
S'        raise'
p2934
sI208
S'    except RestrictedError:'
p2935
sI209
S'        # do not encapsulate (obfuscate) the original RestrictedError'
p2936
ssS'call'
p2937
S'(code="# -*- coding: utf-8 -*-\\n\\n#######################...es),\\n        Field(\'times\', \'integer\')\\n        )\\n", environment={\'A\': <class \'gluon.html.A\'>, \'Auth\': <class \'gluon.tools.Auth\'>, \'B\': <class \'gluon.html.B\'>, \'BEAUTIFY\': <class \'gluon.html.BEAUTIFY\'>, \'BODY\': <class \'gluon.html.BODY\'>, \'BR\': <class \'gluon.html.BR\'>, \'BUTTON\': <class \'gluon.html.BUTTON\'>, \'CAT\': <class \'gluon.html.CAT\'>, \'CENTER\': <class \'gluon.html.CENTER\'>, \'CLEANUP\': <class \'gluon.validators.CLEANUP\'>, ...}, layer=\'/home/goshawk/web2py/applications/milo/models/db.py\')'
p2938
sS'func'
p2939
S'restricted'
p2940
sa(dp2941
g2916
S'/home/goshawk/web2py/applications/milo/models/db.py'
p2942
sg2918
(dp2943
S'imdb'
p2944
S"<module 'imdb' from '/usr/local/lib/python2.7/dist-packages/imdb/__init__.pyc'>"
p2945
sS'imdb_connection_str'
p2946
S"'postgres://imdb:imdbsecret@localhost/imdb'"
p2947
sS'imdb.IMDb'
p2948
S'<function IMDb>'
p2949
sS'im'
p2950
S'undefined'
p2951
sS'uri'
p2952
g2951
ssg2924
I86
sg2925
(dp2953
I81
S''
sI82
S'import imdb'
p2954
sI83
S''
sI84
S"imdb_connection_str = 'postgres://imdb:imdbsecret@localhost/imdb'"
p2955
sI85
S''
sI86
S"im = imdb.IMDb('sql', uri=imdb_connection_str)"
p2956
sI87
S''
sI88
S''
sI89
S"db.define_table('users',"
p2957
sI90
S"        Field('name'),"
p2958
ssg2937
S'()'
p2959
sg2939
S'<module>'
p2960
sa(dp2961
g2916
S'/usr/local/lib/python2.7/dist-packages/imdb/__init__.py'
p2962
sg2918
(dp2963
S'keywords'
p2964
S"{'uri': 'postgres://imdb:imdbsecret@localhost/imdb'}"
p2965
sS'arguments'
p2966
S'()'
p2967
sS'IMDbSqlAccessSystem'
p2968
S'<class imdb.parser.sql.IMDbSqlAccessSystem>'
p2969
ssg2924
I199
sg2925
(dp2970
I194
S"    elif accessSystem in ('sql', 'db', 'database'):"
p2971
sI195
S'        try:'
p2972
sI196
S'            from parser.sql import IMDbSqlAccessSystem'
p2973
sI197
S'        except ImportError:'
p2974
sI198
S"            raise IMDbError('the sql access system is not installed')"
p2975
sI199
S'        return IMDbSqlAccessSystem(*arguments, **keywords)'
p2976
sI200
S'    else:'
p2977
sI201
S'        raise IMDbError(\'unknown kind of data access system: "%s"\' \\'
p2978
sI202
S'                            % accessSystem)'
p2979
sI203
S''
ssg2937
S"(accessSystem='sql', *arguments=(), **keywords={'uri': 'postgres://imdb:imdbsecret@localhost/imdb'})"
p2980
sg2939
S'IMDb'
p2981
sa(dp2982
g2916
S'/usr/local/lib/python2.7/dist-packages/imdb/parser/sql/__init__.py'
p2983
sg2918
(dp2984
S'self'
p2985
S'<imdb.parser.sql.IMDbSqlAccessSystem instance>'
p2986
sS'uri'
p2987
S"'postgres://imdb:imdbsecret@localhost/imdb'"
p2988
sS'setConnection'
p2989
S'<function setConnection>'
p2990
sS'DB_TABLES'
p2991
S"[<TableAdapter(table=Table('name', MetaData(Engin...able=<name>), schema=None)) [id=139835284593232]>, <TableAdapter(table=Table('char_name', MetaData(...<char_name>), schema=None)) [id=139835284613136]>, <TableAdapter(table=Table('company_name', MetaDa...mpany_name>), schema=None)) [id=139835284624528]>, <TableAdapter(table=Table('kind_type', MetaData(...<kind_type>), schema=None)) [id=139835285164304]>, <TableAdapter(table=Table('title', MetaData(Engi...ble=<title>), schema=None)) [id=139835285165840]>, <TableAdapter(table=Table('company_type', MetaDa...mpany_type>), schema=None)) [id=139835285187024]>, <TableAdapter(table=Table('aka_name', MetaData(E...=<aka_name>), schema=None)) [id=139835285188560]>, <TableAdapter(table=Table('aka_title', MetaData(...<aka_title>), schema=None)) [id=139835285208464]>, <TableAdapter(table=Table('role_type', MetaData(...lable=False), schema=None)) [id=139835285242000]>, <TableAdapter(table=Table('cast_info', MetaData(...lable=False), schema=None)) [id=139835285243536]>, <TableAdapter(table=Table('comp_cast_type', Meta...lable=False), schema=None)) [id=139835285259024]>, <TableAdapter(table=Table('complete_cast', MetaD...lable=False), schema=None)) [id=139835285260560]>, <TableAdapter(table=Table('info_type', MetaData(...lable=False), schema=None)) [id=139835285275088]>, <TableAdapter(table=Table('link_type', MetaData(...lable=False), schema=None)) [id=139835285276624]>, <TableAdapter(table=Table('keyword', MetaData(En...e=<keyword>), schema=None)) [id=139835285278160]>, <TableAdapter(table=Table('movie_keyword', MetaD...lable=False), schema=None)) [id=139835285292368]>, <TableAdapter(table=Table('movie_link', MetaData...lable=False), schema=None)) [id=139835285294224]>, <TableAdapter(table=Table('movie_info', MetaData...movie_info>), schema=None)) [id=139835285312848]>, <TableAdapter(table=Table('movie_info_idx', Meta...e_info_idx>), schema=None)) [id=139835285315344]>, <TableAdapter(table=Table('movie_companies', Met..._companies>), schema=None)) [id=139835285330192]>, ...]"
p2992
sS'self._connection'
p2993
g2951
ssg2924
I595
sg2925
(dp2994
I590
S'        else:'
p2995
sI591
S"            raise IMDbError('unable to use any ORM in %s' % str(useORM))"
p2996
sI592
S'        # Set the connection to the database.'
p2997
sI593
S"        self._sql_logger.debug('connecting to %s', uri)"
p2998
sI594
S'        try:'
p2999
sI595
S'            self._connection = setConnection(uri, DB_TABLES)'
p3000
sI596
S'        except AssertionError, e:'
p3001
sI597
S'            raise IMDbDataAccessError( \\'
p3002
sI598
S"                    'unable to connect to the database server; ' + \\"
p3003
sI599
S'                    \'complete message: "%s"\' % str(e))'
p3004
ssg2937
S"(self=<imdb.parser.sql.IMDbSqlAccessSystem instance>, uri='postgres://imdb:imdbsecret@localhost/imdb', adultSearch=1, useORM=('sqlobject', 'sqlalchemy'), *arguments=(), **keywords={})"
p3005
sg2939
g26
sa(dp3006
g2916
S'/usr/local/lib/python2.7/dist-packages/imdb/parser/sql/alchemyadapter.py'
p3007
sg2918
(dp3008
S'engine'
p3009
S'Engine(postgres://imdb:imdbsecret@localhost/imdb)'
p3010
sS'eng_conn'
p3011
g2951
sS'engine.connect'
p3012
S'<bound method Engine.connect of Engine(postgres://imdb:imdbsecret@localhost/imdb)>'
p3013
ssg2924
I486
sg2925
(dp3014
I481
S'        # Try to work-around a possible bug of the ibm_db DB2 driver.'
p3015
sI482
S"        params['convert_unicode'] = True"
p3016
sI483
S'    # XXX: is this the best way to connect?'
p3017
sI484
S'    engine = create_engine(uri, **params)'
p3018
sI485
S'    metadata.bind = engine'
p3019
sI486
S'    eng_conn = engine.connect()'
p3020
sI487
S"    if uri.startswith('sqlite'):"
p3021
sI488
S'        major = sys.version_info[0]'
p3022
sI489
S'        minor = sys.version_info[1]'
p3023
sI490
S'        if major > 2 or (major == 2 and minor > 5):'
p3024
ssg2937
S"(uri='postgres://imdb:imdbsecret@localhost/imdb', tables=[<TableAdapter(table=Table('name', MetaData(Engin...able=<name>), schema=None)) [id=139835284593232]>, <TableAdapter(table=Table('char_name', MetaData(...<char_name>), schema=None)) [id=139835284613136]>, <TableAdapter(table=Table('company_name', MetaDa...mpany_name>), schema=None)) [id=139835284624528]>, <TableAdapter(table=Table('kind_type', MetaData(...<kind_type>), schema=None)) [id=139835285164304]>, <TableAdapter(table=Table('title', MetaData(Engi...ble=<title>), schema=None)) [id=139835285165840]>, <TableAdapter(table=Table('company_type', MetaDa...mpany_type>), schema=None)) [id=139835285187024]>, <TableAdapter(table=Table('aka_name', MetaData(E...=<aka_name>), schema=None)) [id=139835285188560]>, <TableAdapter(table=Table('aka_title', MetaData(...<aka_title>), schema=None)) [id=139835285208464]>, <TableAdapter(table=Table('role_type', MetaData(...lable=False), schema=None)) [id=139835285242000]>, <TableAdapter(table=Table('cast_info', MetaData(...lable=False), schema=None)) [id=139835285243536]>, <TableAdapter(table=Table('comp_cast_type', Meta...lable=False), schema=None)) [id=139835285259024]>, <TableAdapter(table=Table('complete_cast', MetaD...lable=False), schema=None)) [id=139835285260560]>, <TableAdapter(table=Table('info_type', MetaData(...lable=False), schema=None)) [id=139835285275088]>, <TableAdapter(table=Table('link_type', MetaData(...lable=False), schema=None)) [id=139835285276624]>, <TableAdapter(table=Table('keyword', MetaData(En...e=<keyword>), schema=None)) [id=139835285278160]>, <TableAdapter(table=Table('movie_keyword', MetaD...lable=False), schema=None)) [id=139835285292368]>, <TableAdapter(table=Table('movie_link', MetaData...lable=False), schema=None)) [id=139835285294224]>, <TableAdapter(table=Table('movie_info', MetaData...movie_info>), schema=None)) [id=139835285312848]>, <TableAdapter(table=Table('movie_info_idx', Meta...e_info_idx>), schema=None)) [id=139835285315344]>, <TableAdapter(table=Table('movie_companies', Met..._companies>), schema=None)) [id=139835285330192]>, ...], encoding='utf8', debug=False)"
p3025
sg2939
S'setConnection'
p3026
sa(dp3027
g2916
S'/usr/local/lib/python2.7/dist-packages/SQLAlchemy-0.7.0-py2.7-linux-x86_64.egg/sqlalchemy/engine/base.py'
p3028
sg2918
(dp3029
S'self'
p3030
S'Engine(postgres://imdb:imdbsecret@localhost/imdb)'
p3031
sS'self._connection_cls'
p3032
S"<class 'sqlalchemy.engine.base.Connection'>"
p3033
sS'kwargs'
p3034
S'{}'
p3035
ssg2924
I2080
sg2925
(dp3036
I2080
S'        return self._connection_cls(self, **kwargs)'
p3037
sI2081
S''
sI2082
S'    def contextual_connect(self, close_with_result=False, **kwargs):'
p3038
sI2083
S'        """Return a :class:`.Connection` object which may be part of some ongoing context.'
p3039
sI2084
S''
sI2075
S'        returning it back to the :class:`.Pool` after the :meth:`.Connection.close`'
p3040
sI2076
S'        method is called.'
p3041
sI2077
S''
sI2078
S'        """'
p3042
sI2079
S''
ssg2937
S'(self=Engine(postgres://imdb:imdbsecret@localhost/imdb), **kwargs={})'
p3043
sg2939
S'connect'
p3044
sa(dp3045
g2916
S'/usr/local/lib/python2.7/dist-packages/SQLAlchemy-0.7.0-py2.7-linux-x86_64.egg/sqlalchemy/engine/base.py'
p3046
sg2918
(dp3047
S'engine'
p3048
S'Engine(postgres://imdb:imdbsecret@localhost/imdb)'
p3049
sS'engine.raw_connection'
p3050
S'<bound method Engine.raw_connection of Engine(postgres://imdb:imdbsecret@localhost/imdb)>'
p3051
sS'self'
p3052
S'<sqlalchemy.engine.base.Connection object>'
p3053
sS'self.__connection'
p3054
g2951
sS'connection'
p3055
S'None'
p3056
ssg2924
I844
sg2925
(dp3057
I839
S'        :meth:`.Engine.contextual_connect` methods.'
p3058
sI840
S''
sI841
S'        """'
p3059
sI842
S'        self.engine = engine'
p3060
sI843
S'        self.dialect = engine.dialect'
p3061
sI844
S'        self.__connection = connection or engine.raw_connection()'
p3062
sI845
S'        self.__transaction = None'
p3063
sI846
S'        self.should_close_with_result = close_with_result'
p3064
sI847
S'        self.__savepoint_seq = 0'
p3065
sI848
S'        self.__branch = _branch'
p3066
ssg2937
S'(self=<sqlalchemy.engine.base.Connection object>, engine=Engine(postgres://imdb:imdbsecret@localhost/imdb), connection=None, close_with_result=False, _branch=False, _execution_options=None)'
p3067
sg2939
g26
sa(dp3068
g2916
S'/usr/local/lib/python2.7/dist-packages/SQLAlchemy-0.7.0-py2.7-linux-x86_64.egg/sqlalchemy/engine/base.py'
p3069
sg2918
(dp3070
S'self'
p3071
S'Engine(postgres://imdb:imdbsecret@localhost/imdb)'
p3072
sS'self.pool.unique_connection'
p3073
S'<bound method QueuePool.unique_connection of <sqlalchemy.pool.QueuePool object>>'
p3074
sS'self.pool'
p3075
S'<sqlalchemy.pool.QueuePool object>'
p3076
ssg2924
I2143
sg2925
(dp3077
I2144
S''
sI2145
S''
sI2146
S'# This reconstructor is necessary so that pickles with the C extension or'
p3078
sI2147
S'# without use the same Binary format.'
p3079
sI2138
S'        return self.run_callable(self.dialect.has_table, table_name, schema)'
p3080
sI2139
S''
sI2140
S'    def raw_connection(self):'
p3081
sI2141
S'        """Return a DB-API connection."""'
p3082
sI2142
S''
sI2143
S'        return self.pool.unique_connection()'
p3083
ssg2937
S'(self=Engine(postgres://imdb:imdbsecret@localhost/imdb))'
p3084
sg2939
S'raw_connection'
p3085
sa(dp3086
g2916
S'/usr/local/lib/python2.7/dist-packages/SQLAlchemy-0.7.0-py2.7-linux-x86_64.egg/sqlalchemy/pool.py'
p3087
sg2918
(dp3088
S'self'
p3089
S'<sqlalchemy.pool.QueuePool object>'
p3090
sS').checkout'
p3091
g2951
sS'global _ConnectionFairy'
p3092
S"<class 'sqlalchemy.pool._ConnectionFairy'>"
p3093
ssg2924
I169
sg2925
(dp3094
I164
S'        This method is different from :meth:`.Pool.connect` only if the'
p3095
sI165
S'        ``use_threadlocal`` flag has been set to ``True``.'
p3096
sI166
S''
sI167
S'        """'
p3097
sI168
S''
sI169
S'        return _ConnectionFairy(self).checkout()'
p3098
sI170
S''
sI171
S'    def _create_connection(self):'
p3099
sI172
S'        """Called by subclasses to create a new ConnectionRecord."""'
p3100
sI173
S''
ssg2937
S'(self=<sqlalchemy.pool.QueuePool object>)'
p3101
sg2939
S'unique_connection'
p3102
sa(dp3103
g2916
S'/usr/local/lib/python2.7/dist-packages/SQLAlchemy-0.7.0-py2.7-linux-x86_64.egg/sqlalchemy/pool.py'
p3104
sg2918
(dp3105
S'rec'
p3106
g2951
sS'self'
p3107
S'<sqlalchemy.pool._ConnectionFairy object>'
p3108
sS'pool'
p3109
S'<sqlalchemy.pool.QueuePool object>'
p3110
sS'self._connection_record'
p3111
S'None'
p3112
sS'pool._do_get'
p3113
S'<bound method QueuePool._do_get of <sqlalchemy.pool.QueuePool object>>'
p3114
ssg2924
I370
sg2925
(dp3115
I365
S'    def __init__(self, pool):'
p3116
sI366
S'        self._pool = pool'
p3117
sI367
S'        self.__counter = 0'
p3118
sI368
S'        self._echo = _echo = pool._should_log_debug()'
p3119
sI369
S'        try:'
p3120
sI370
S'            rec = self._connection_record = pool._do_get()'
p3121
sI371
S'            conn = self.connection = self._connection_record.get_connection()'
p3122
sI372
S'            rec.fairy = weakref.ref('
p3123
sI373
S'                            self,'
p3124
sI374
S'                            lambda ref:_finalize_fairy(conn, rec, pool, ref, _echo)'
p3125
ssg2937
S'(self=<sqlalchemy.pool._ConnectionFairy object>, pool=<sqlalchemy.pool.QueuePool object>)'
p3126
sg2939
g26
sa(dp3127
g2916
S'/usr/local/lib/python2.7/dist-packages/SQLAlchemy-0.7.0-py2.7-linux-x86_64.egg/sqlalchemy/pool.py'
p3128
sg2918
(dp3129
S'self'
p3130
S'<sqlalchemy.pool.QueuePool object>'
p3131
sS'self._create_connection'
p3132
S'<bound method QueuePool._create_connection of <sqlalchemy.pool.QueuePool object>>'
p3133
sS'con'
p3134
g2951
ssg2924
I696
sg2925
(dp3135
I691
S'                if self._overflow_lock is not None:'
p3136
sI692
S'                    self._overflow_lock.release()'
p3137
sI693
S'                return self._do_get()'
p3138
sI694
S''
sI695
S'            try:'
p3139
sI696
S'                con = self._create_connection()'
p3140
sI697
S'                self._overflow += 1'
p3141
sI698
S'            finally:'
p3142
sI699
S'                if self._overflow_lock is not None:'
p3143
sI700
S'                    self._overflow_lock.release()'
p3144
ssg2937
S'(self=<sqlalchemy.pool.QueuePool object>)'
p3145
sg2939
S'_do_get'
p3146
sa(dp3147
g2916
S'/usr/local/lib/python2.7/dist-packages/SQLAlchemy-0.7.0-py2.7-linux-x86_64.egg/sqlalchemy/pool.py'
p3148
sg2918
(dp3149
S'self'
p3150
S'<sqlalchemy.pool.QueuePool object>'
p3151
sS'global _ConnectionRecord'
p3152
S"<class 'sqlalchemy.pool._ConnectionRecord'>"
p3153
ssg2924
I174
sg2925
(dp3154
I169
S'        return _ConnectionFairy(self).checkout()'
p3155
sI170
S''
sI171
S'    def _create_connection(self):'
p3156
sI172
S'        """Called by subclasses to create a new ConnectionRecord."""'
p3157
sI173
S''
sI174
S'        return _ConnectionRecord(self)'
p3158
sI175
S''
sI176
S'    def recreate(self):'
p3159
sI177
S'        """Return a new :class:`.Pool`, of the same class as this one'
p3160
sI178
S'        and configured with identical creation arguments.'
p3161
ssg2937
S'(self=<sqlalchemy.pool.QueuePool object>)'
p3162
sg2939
S'_create_connection'
p3163
sa(dp3164
g2916
S'/usr/local/lib/python2.7/dist-packages/SQLAlchemy-0.7.0-py2.7-linux-x86_64.egg/sqlalchemy/pool.py'
p3165
sg2918
(dp3166
S'self'
p3167
S'<sqlalchemy.pool._ConnectionRecord object>'
p3168
sS'self.connection'
p3169
g2951
sS'self.__connect'
p3170
g2951
ssg2924
I255
sg2925
(dp3171
I256
S'        self.info = {}'
p3172
sI257
S''
sI258
S'        pool.dispatch.first_connect.exec_once(self.connection, self)'
p3173
sI259
S'        pool.dispatch.connect(self.connection, self)'
p3174
sI250
S'class _ConnectionRecord(object):'
p3175
sI251
S'    finalize_callback = None'
p3176
sI252
S''
sI253
S'    def __init__(self, pool):'
p3177
sI254
S'        self.__pool = pool'
p3178
sI255
S'        self.connection = self.__connect()'
p3179
ssg2937
S'(self=<sqlalchemy.pool._ConnectionRecord object>, pool=<sqlalchemy.pool.QueuePool object>)'
p3180
sg2939
g26
sa(dp3181
g2916
S'/usr/local/lib/python2.7/dist-packages/SQLAlchemy-0.7.0-py2.7-linux-x86_64.egg/sqlalchemy/pool.py'
p3182
sg2918
(dp3183
S'connection'
p3184
g2951
sS'self.__pool'
p3185
g2951
sS'self'
p3186
S'<sqlalchemy.pool._ConnectionRecord object>'
p3187
ssg2924
I315
sg2925
(dp3188
I310
S'                        self.connection, e)'
p3189
sI311
S''
sI312
S'    def __connect(self):'
p3190
sI313
S'        try:'
p3191
sI314
S'            self.starttime = time.time()'
p3192
sI315
S'            connection = self.__pool._creator()'
p3193
sI316
S'            self.__pool.logger.debug("Created new connection %r", connection)'
p3194
sI317
S'            return connection'
p3195
sI318
S'        except Exception, e:'
p3196
sI319
S'            self.__pool.logger.debug("Error on connect(): %s", e)'
p3197
ssg2937
S'(self=<sqlalchemy.pool._ConnectionRecord object>)'
p3198
sg2939
S'__connect'
p3199
sa(dp3200
g2916
S'/usr/local/lib/python2.7/dist-packages/SQLAlchemy-0.7.0-py2.7-linux-x86_64.egg/sqlalchemy/engine/strategies.py'
p3201
sg2918
(dp3202
S'dialect'
p3203
S'<sqlalchemy.dialects.postgresql.psycopg2.PGDialect_psycopg2 object>'
p3204
sS'cparams'
p3205
S"{'database': 'imdb', 'host': 'localhost', 'password': 'imdbsecret', 'user': 'imdb'}"
p3206
sS'cargs'
p3207
S'[]'
p3208
sS'dialect.connect'
p3209
S'<bound method PGDialect_psycopg2.connect of <sql...s.postgresql.psycopg2.PGDialect_psycopg2 object>>'
p3210
ssg2924
I80
sg2925
(dp3211
I75
S'        # look for existing pool or create'
p3212
sI76
S"        pool = kwargs.pop('pool', None)"
p3213
sI77
S'        if pool is None:'
p3214
sI78
S'            def connect():'
p3215
sI79
S'                try:'
p3216
sI80
S'                    return dialect.connect(*cargs, **cparams)'
p3217
sI81
S'                except Exception, e:'
p3218
sI82
S'                    # Py3K'
p3219
sI83
S'                    #raise exc.DBAPIError.instance(None, None,'
p3220
sI84
S'                    #                   e, dialect.dbapi.Error) from e'
p3221
ssg2937
S'()'
p3222
sg2939
g3044
sa(dp3223
g2916
S'/usr/local/lib/python2.7/dist-packages/SQLAlchemy-0.7.0-py2.7-linux-x86_64.egg/sqlalchemy/engine/default.py'
p3224
sg2918
(dp3225
S'self.dbapi.connect'
p3226
S'<function connect>'
p3227
sS'self'
p3228
S'<sqlalchemy.dialects.postgresql.psycopg2.PGDialect_psycopg2 object>'
p3229
sS'cparams'
p3230
S"{'database': 'imdb', 'host': 'localhost', 'password': 'imdbsecret', 'user': 'imdb'}"
p3231
sS'self.dbapi'
p3232
S"<module 'psycopg2' from '/usr/lib/python2.7/dist-packages/psycopg2/__init__.pyc'>"
p3233
sS'cargs'
p3234
S'()'
p3235
ssg2924
I275
sg2925
(dp3236
I270
S'                "Identifier \'%s\' exceeds maximum length of %d characters" %'
p3237
sI271
S'                (ident, self.max_identifier_length)'
p3238
sI272
S'            )'
p3239
sI273
S''
sI274
S'    def connect(self, *cargs, **cparams):'
p3240
sI275
S'        return self.dbapi.connect(*cargs, **cparams)'
p3241
sI276
S''
sI277
S'    def create_connect_args(self, url):'
p3242
sI278
S'        opts = url.translate_connect_args()'
p3243
sI279
S'        opts.update(url.query)'
p3244
ssg2937
S"(self=<sqlalchemy.dialects.postgresql.psycopg2.PGDialect_psycopg2 object>, *cargs=(), **cparams={'database': 'imdb', 'host': 'localhost', 'password': 'imdbsecret', 'user': 'imdb'})"
p3245
sg2939
g3044
sa(dp3246
g2916
S'/usr/lib/python2.7/dist-packages/psycopg2/__init__.py'
p3247
sg2918
(dp3248
S'async'
p3249
g49
sS'connection_factory'
p3250
S'None'
p3251
ssg2924
I179
sg2925
(dp3252
I174
S''
sI175
S'        if not dsn:'
p3253
sI176
S"            raise InterfaceError('missing dsn and no parameters')"
p3254
sI177
S''
sI178
S'    return _connect(dsn,'
p3255
sI179
S'        connection_factory=connection_factory, async=async)'
p3256
sI180
S''
sI181
S''
sI182
S"__all__ = filter(lambda k: not k.startswith('_'), locals().keys())"
p3257
sI183
S''
ssg2937
S"(dsn='dbname=imdb user=imdb password=imdbsecret host=localhost', database='imdb', user='imdb', password='imdbsecret', host='localhost', port=None, connection_factory=None, async=False, **kwargs={})"
p3258
sg2939
g3044
sasS'pyver'
p3259
S'Python 2.7.3: /usr/bin/python'
p3260
sS'session'
p3261
g71
(g72
g73
NtRp3262
(dp3263
g76
(dp3264
sg78
(lp3265
g71
(g80
g73
NtRp3266
(dp3267
g76
(dp3268
g84
I5
ssg85
Nsg78
(lp3269
g71
(g87
g73
NtRp3270
(dp3271
g76
(dp3272
sg85
g3266
sg78
(lp3273
g71
(g92
g73
NtRp3274
(dp3275
g76
(dp3276
g96
g97
ssg85
g3270
sg78
(lp3277
S'last_query'
p3278
asbag71
(g92
g73
NtRp3279
(dp3280
g76
(dp3281
g103
g104
ssg85
g3270
sg78
(lp3282
S':'
asbag71
(g92
g73
NtRp3283
(dp3284
g76
(dp3285
sg85
g3270
sg78
(lp3286
g71
(g72
g73
NtRp3287
(dp3288
g76
(dp3289
g84
I5
ssg85
g3283
sg78
(lp3290
S'db.features.id>0'
p3291
asbasbasbasbasbsS'etype'
p3292
S"<class 'sqlalchemy.exc.OperationalError'>"
p3293
sS'date'
p3294
S'Sun Jun 24 05:43:01 2012'
p3295
sS'response'
p3296
g71
(g72
g73
NtRp3297
(dp3298
g76
(dp3299
sg78
(lp3300
g71
(g80
g73
NtRp3301
(dp3302
g76
(dp3303
g84
I5
ssg85
Nsg78
(lp3304
g71
(g87
g73
NtRp3305
(dp3306
g76
(dp3307
sg85
g3301
sg78
(lp3308
g71
(g92
g73
NtRp3309
(dp3310
g76
(dp3311
g96
g97
ssg85
g3305
sg78
(lp3312
g168
asbag71
(g92
g73
NtRp3313
(dp3314
g76
(dp3315
g103
g104
ssg85
g3305
sg78
(lp3316
S':'
asbag71
(g92
g73
NtRp3317
(dp3318
g76
(dp3319
sg85
g3305
sg78
(lp3320
g71
(g72
g73
NtRp3321
(dp3322
g76
(dp3323
g84
I5
ssg85
g3317
sg78
(lp3324
S'<cStringIO.StringO object at 0x7f2dd83c0068>'
p3325
asbasbasbag71
(g87
g73
NtRp3326
(dp3327
g76
(dp3328
sg85
g3301
sg78
(lp3329
g71
(g92
g73
NtRp3330
(dp3331
g76
(dp3332
g96
g97
ssg85
g3326
sg78
(lp3333
g234
asbag71
(g92
g73
NtRp3334
(dp3335
g76
(dp3336
g103
g104
ssg85
g3326
sg78
(lp3337
S':'
asbag71
(g92
g73
NtRp3338
(dp3339
g76
(dp3340
sg85
g3326
sg78
(lp3341
g71
(g72
g73
NtRp3342
(dp3343
g76
(dp3344
g84
I5
ssg85
g3338
sg78
(lp3345
g71
(g80
g73
NtRp3346
(dp3347
g76
(dp3348
g84
I4
ssg85
Nsg78
(lp3349
g71
(g87
g73
NtRp3350
(dp3351
g76
(dp3352
sg85
g3346
sg78
(lp3353
g71
(g92
g73
NtRp3354
(dp3355
g76
(dp3356
g96
g97
ssg85
g3350
sg78
(lp3357
S'session_id_milo'
p3358
asbag71
(g92
g73
NtRp3359
(dp3360
g76
(dp3361
g103
g104
ssg85
g3350
sg78
(lp3362
S':'
asbag71
(g92
g73
NtRp3363
(dp3364
g76
(dp3365
sg85
g3350
sg78
(lp3366
g71
(g72
g73
NtRp3367
(dp3368
g76
(dp3369
g84
I4
ssg85
g3363
sg78
(lp3370
g71
(g80
g73
NtRp3371
(dp3372
g76
(dp3373
g84
I3
ssg85
Nsg78
(lp3374
g71
(g87
g73
NtRp3375
(dp3376
g76
(dp3377
sg85
g3371
sg78
(lp3378
g71
(g92
g73
NtRp3379
(dp3380
g76
(dp3381
g96
g97
ssg85
g3375
sg78
(lp3382
g284
asbag71
(g92
g73
NtRp3383
(dp3384
g76
(dp3385
g103
g104
ssg85
g3375
sg78
(lp3386
S':'
asbag71
(g92
g73
NtRp3387
(dp3388
g76
(dp3389
sg85
g3375
sg78
(lp3390
g71
(g72
g73
NtRp3391
(dp3392
g76
(dp3393
g84
I3
ssg85
g3387
sg78
(lp3394
S''
asbasbasbag71
(g87
g73
NtRp3395
(dp3396
g76
(dp3397
sg85
g3371
sg78
(lp3398
g71
(g92
g73
NtRp3399
(dp3400
g76
(dp3401
g96
g97
ssg85
g3395
sg78
(lp3402
g305
asbag71
(g92
g73
NtRp3403
(dp3404
g76
(dp3405
g103
g104
ssg85
g3395
sg78
(lp3406
S':'
asbag71
(g92
g73
NtRp3407
(dp3408
g76
(dp3409
sg85
g3395
sg78
(lp3410
g71
(g72
g73
NtRp3411
(dp3412
g76
(dp3413
g84
I3
ssg85
g3407
sg78
(lp3414
S''
asbasbasbag71
(g87
g73
NtRp3415
(dp3416
g76
(dp3417
sg85
g3371
sg78
(lp3418
g71
(g92
g73
NtRp3419
(dp3420
g76
(dp3421
g96
g97
ssg85
g3415
sg78
(lp3422
g326
asbag71
(g92
g73
NtRp3423
(dp3424
g76
(dp3425
g103
g104
ssg85
g3415
sg78
(lp3426
S':'
asbag71
(g92
g73
NtRp3427
(dp3428
g76
(dp3429
sg85
g3415
sg78
(lp3430
g71
(g72
g73
NtRp3431
(dp3432
g76
(dp3433
g84
I3
ssg85
g3427
sg78
(lp3434
S''
asbasbasbag71
(g87
g73
NtRp3435
(dp3436
g76
(dp3437
sg85
g3371
sg78
(lp3438
g71
(g92
g73
NtRp3439
(dp3440
g76
(dp3441
g96
g97
ssg85
g3435
sg78
(lp3442
g347
asbag71
(g92
g73
NtRp3443
(dp3444
g76
(dp3445
g103
g104
ssg85
g3435
sg78
(lp3446
S':'
asbag71
(g92
g73
NtRp3447
(dp3448
g76
(dp3449
sg85
g3435
sg78
(lp3450
g71
(g72
g73
NtRp3451
(dp3452
g76
(dp3453
g84
I3
ssg85
g3447
sg78
(lp3454
S''
asbasbasbag71
(g87
g73
NtRp3455
(dp3456
g76
(dp3457
sg85
g3371
sg78
(lp3458
g71
(g92
g73
NtRp3459
(dp3460
g76
(dp3461
g96
g97
ssg85
g3455
sg78
(lp3462
g368
asbag71
(g92
g73
NtRp3463
(dp3464
g76
(dp3465
g103
g104
ssg85
g3455
sg78
(lp3466
S':'
asbag71
(g92
g73
NtRp3467
(dp3468
g76
(dp3469
sg85
g3455
sg78
(lp3470
g71
(g72
g73
NtRp3471
(dp3472
g76
(dp3473
g84
I3
ssg85
g3467
sg78
(lp3474
S''
asbasbasbag71
(g87
g73
NtRp3475
(dp3476
g76
(dp3477
sg85
g3371
sg78
(lp3478
g71
(g92
g73
NtRp3479
(dp3480
g76
(dp3481
g96
g97
ssg85
g3475
sg78
(lp3482
g389
asbag71
(g92
g73
NtRp3483
(dp3484
g76
(dp3485
g103
g104
ssg85
g3475
sg78
(lp3486
S':'
asbag71
(g92
g73
NtRp3487
(dp3488
g76
(dp3489
sg85
g3475
sg78
(lp3490
g71
(g72
g73
NtRp3491
(dp3492
g76
(dp3493
g84
I3
ssg85
g3487
sg78
(lp3494
S'/'
asbasbasbag71
(g87
g73
NtRp3495
(dp3496
g76
(dp3497
sg85
g3371
sg78
(lp3498
g71
(g92
g73
NtRp3499
(dp3500
g76
(dp3501
g96
g97
ssg85
g3495
sg78
(lp3502
g410
asbag71
(g92
g73
NtRp3503
(dp3504
g76
(dp3505
g103
g104
ssg85
g3495
sg78
(lp3506
S':'
asbag71
(g92
g73
NtRp3507
(dp3508
g76
(dp3509
sg85
g3495
sg78
(lp3510
g71
(g72
g73
NtRp3511
(dp3512
g76
(dp3513
g84
I3
ssg85
g3507
sg78
(lp3514
S''
asbasbasbag71
(g87
g73
NtRp3515
(dp3516
g76
(dp3517
sg85
g3371
sg78
(lp3518
g71
(g92
g73
NtRp3519
(dp3520
g76
(dp3521
g96
g97
ssg85
g3515
sg78
(lp3522
g431
asbag71
(g92
g73
NtRp3523
(dp3524
g76
(dp3525
g103
g104
ssg85
g3515
sg78
(lp3526
S':'
asbag71
(g92
g73
NtRp3527
(dp3528
g76
(dp3529
sg85
g3515
sg78
(lp3530
g71
(g72
g73
NtRp3531
(dp3532
g76
(dp3533
g84
I3
ssg85
g3527
sg78
(lp3534
S''
asbasbasbasbasbasbasbasbasbasbasbag71
(g87
g73
NtRp3535
(dp3536
g76
(dp3537
sg85
g3301
sg78
(lp3538
g71
(g92
g73
NtRp3539
(dp3540
g76
(dp3541
g96
g97
ssg85
g3535
sg78
(lp3542
S'delimiters'
p3543
asbag71
(g92
g73
NtRp3544
(dp3545
g76
(dp3546
g103
g104
ssg85
g3535
sg78
(lp3547
S':'
asbag71
(g92
g73
NtRp3548
(dp3549
g76
(dp3550
sg85
g3535
sg78
(lp3551
g71
(g72
g73
NtRp3552
(dp3553
g76
(dp3554
g84
I5
ssg85
g3548
sg78
(lp3555
g71
(g80
g73
NtRp3556
(dp3557
g76
(dp3558
g84
I4
ssg85
Nsg78
(lp3559
g71
(g87
g73
NtRp3560
(dp3561
g76
(dp3562
sg85
g3556
sg78
(lp3563
g71
(g92
g73
NtRp3564
(dp3565
g76
(dp3566
sg85
g3560
sg78
(lp3567
g71
(g72
g73
NtRp3568
(dp3569
g76
(dp3570
g84
I4
ssg85
g3564
sg78
(lp3571
S'{{'
p3572
asbasbasbag71
(g87
g73
NtRp3573
(dp3574
g76
(dp3575
sg85
g3556
sg78
(lp3576
g71
(g92
g73
NtRp3577
(dp3578
g76
(dp3579
sg85
g3573
sg78
(lp3580
g71
(g72
g73
NtRp3581
(dp3582
g76
(dp3583
g84
I4
ssg85
g3577
sg78
(lp3584
S'}}'
p3585
asbasbasbasbasbasbasbag71
(g87
g73
NtRp3586
(dp3587
g76
(dp3588
sg85
g3301
sg78
(lp3589
g71
(g92
g73
NtRp3590
(dp3591
g76
(dp3592
g96
g97
ssg85
g3586
sg78
(lp3593
S'files'
p3594
asbag71
(g92
g73
NtRp3595
(dp3596
g76
(dp3597
g103
g104
ssg85
g3586
sg78
(lp3598
S':'
asbag71
(g92
g73
NtRp3599
(dp3600
g76
(dp3601
sg85
g3586
sg78
(lp3602
g71
(g72
g73
NtRp3603
(dp3604
g76
(dp3605
g84
I5
ssg85
g3599
sg78
(lp3606
g71
(g80
g73
NtRp3607
(dp3608
g76
(dp3609
g84
I4
ssg85
Nsg78
(lp3610
sbasbasbasbag71
(g87
g73
NtRp3611
(dp3612
g76
(dp3613
sg85
g3301
sg78
(lp3614
g71
(g92
g73
NtRp3615
(dp3616
g76
(dp3617
g96
g97
ssg85
g3611
sg78
(lp3618
S'flash'
p3619
asbag71
(g92
g73
NtRp3620
(dp3621
g76
(dp3622
g103
g104
ssg85
g3611
sg78
(lp3623
S':'
asbag71
(g92
g73
NtRp3624
(dp3625
g76
(dp3626
sg85
g3611
sg78
(lp3627
g71
(g72
g73
NtRp3628
(dp3629
g76
(dp3630
g84
I5
ssg85
g3624
sg78
(lp3631
S''
asbasbasbag71
(g87
g73
NtRp3632
(dp3633
g76
(dp3634
sg85
g3301
sg78
(lp3635
g71
(g92
g73
NtRp3636
(dp3637
g76
(dp3638
g96
g97
ssg85
g3632
sg78
(lp3639
S'generic_patterns'
p3640
asbag71
(g92
g73
NtRp3641
(dp3642
g76
(dp3643
g103
g104
ssg85
g3632
sg78
(lp3644
S':'
asbag71
(g92
g73
NtRp3645
(dp3646
g76
(dp3647
sg85
g3632
sg78
(lp3648
g71
(g72
g73
NtRp3649
(dp3650
g76
(dp3651
g84
I5
ssg85
g3645
sg78
(lp3652
g71
(g80
g73
NtRp3653
(dp3654
g76
(dp3655
g84
I4
ssg85
Nsg78
(lp3656
g71
(g87
g73
NtRp3657
(dp3658
g76
(dp3659
sg85
g3653
sg78
(lp3660
g71
(g92
g73
NtRp3661
(dp3662
g76
(dp3663
sg85
g3657
sg78
(lp3664
g71
(g72
g73
NtRp3665
(dp3666
g76
(dp3667
g84
I4
ssg85
g3661
sg78
(lp3668
S'*'
asbasbasbasbasbasbasbag71
(g87
g73
NtRp3669
(dp3670
g76
(dp3671
sg85
g3301
sg78
(lp3672
g71
(g92
g73
NtRp3673
(dp3674
g76
(dp3675
g96
g97
ssg85
g3669
sg78
(lp3676
S'headers'
p3677
asbag71
(g92
g73
NtRp3678
(dp3679
g76
(dp3680
g103
g104
ssg85
g3669
sg78
(lp3681
S':'
asbag71
(g92
g73
NtRp3682
(dp3683
g76
(dp3684
sg85
g3669
sg78
(lp3685
g71
(g72
g73
NtRp3686
(dp3687
g76
(dp3688
g84
I5
ssg85
g3682
sg78
(lp3689
g71
(g80
g73
NtRp3690
(dp3691
g76
(dp3692
g84
I4
ssg85
Nsg78
(lp3693
g71
(g87
g73
NtRp3694
(dp3695
g76
(dp3696
sg85
g3690
sg78
(lp3697
g71
(g92
g73
NtRp3698
(dp3699
g76
(dp3700
g96
g97
ssg85
g3694
sg78
(lp3701
S'Cache-Control'
p3702
asbag71
(g92
g73
NtRp3703
(dp3704
g76
(dp3705
g103
g104
ssg85
g3694
sg78
(lp3706
S':'
asbag71
(g92
g73
NtRp3707
(dp3708
g76
(dp3709
sg85
g3694
sg78
(lp3710
g71
(g72
g73
NtRp3711
(dp3712
g76
(dp3713
g84
I4
ssg85
g3707
sg78
(lp3714
S'no-store, no-cache, must-revalidate, post-check=0, pre-check=0'
p3715
asbasbasbag71
(g87
g73
NtRp3716
(dp3717
g76
(dp3718
sg85
g3690
sg78
(lp3719
g71
(g92
g73
NtRp3720
(dp3721
g76
(dp3722
g96
g97
ssg85
g3716
sg78
(lp3723
S'Content-Type'
p3724
asbag71
(g92
g73
NtRp3725
(dp3726
g76
(dp3727
g103
g104
ssg85
g3716
sg78
(lp3728
S':'
asbag71
(g92
g73
NtRp3729
(dp3730
g76
(dp3731
sg85
g3716
sg78
(lp3732
g71
(g72
g73
NtRp3733
(dp3734
g76
(dp3735
g84
I4
ssg85
g3729
sg78
(lp3736
S'text/html; charset=utf-8'
p3737
asbasbasbag71
(g87
g73
NtRp3738
(dp3739
g76
(dp3740
sg85
g3690
sg78
(lp3741
g71
(g92
g73
NtRp3742
(dp3743
g76
(dp3744
g96
g97
ssg85
g3738
sg78
(lp3745
S'Expires'
p3746
asbag71
(g92
g73
NtRp3747
(dp3748
g76
(dp3749
g103
g104
ssg85
g3738
sg78
(lp3750
S':'
asbag71
(g92
g73
NtRp3751
(dp3752
g76
(dp3753
sg85
g3738
sg78
(lp3754
g71
(g72
g73
NtRp3755
(dp3756
g76
(dp3757
g84
I4
ssg85
g3751
sg78
(lp3758
S'Sun, 24 Jun 2012 03:43:01 GMT'
p3759
asbasbasbag71
(g87
g73
NtRp3760
(dp3761
g76
(dp3762
sg85
g3690
sg78
(lp3763
g71
(g92
g73
NtRp3764
(dp3765
g76
(dp3766
g96
g97
ssg85
g3760
sg78
(lp3767
S'Pragma'
p3768
asbag71
(g92
g73
NtRp3769
(dp3770
g76
(dp3771
g103
g104
ssg85
g3760
sg78
(lp3772
S':'
asbag71
(g92
g73
NtRp3773
(dp3774
g76
(dp3775
sg85
g3760
sg78
(lp3776
g71
(g72
g73
NtRp3777
(dp3778
g76
(dp3779
g84
I4
ssg85
g3773
sg78
(lp3780
S'no-cache'
p3781
asbasbasbag71
(g87
g73
NtRp3782
(dp3783
g76
(dp3784
sg85
g3690
sg78
(lp3785
g71
(g92
g73
NtRp3786
(dp3787
g76
(dp3788
g96
g97
ssg85
g3782
sg78
(lp3789
S'X-Powered-By'
p3790
asbag71
(g92
g73
NtRp3791
(dp3792
g76
(dp3793
g103
g104
ssg85
g3782
sg78
(lp3794
S':'
asbag71
(g92
g73
NtRp3795
(dp3796
g76
(dp3797
sg85
g3782
sg78
(lp3798
g71
(g72
g73
NtRp3799
(dp3800
g76
(dp3801
g84
I4
ssg85
g3795
sg78
(lp3802
S'web2py'
p3803
asbasbasbasbasbasbasbag71
(g87
g73
NtRp3804
(dp3805
g76
(dp3806
sg85
g3301
sg78
(lp3807
g71
(g92
g73
NtRp3808
(dp3809
g76
(dp3810
g96
g97
ssg85
g3804
sg78
(lp3811
S'menu'
p3812
asbag71
(g92
g73
NtRp3813
(dp3814
g76
(dp3815
g103
g104
ssg85
g3804
sg78
(lp3816
S':'
asbag71
(g92
g73
NtRp3817
(dp3818
g76
(dp3819
sg85
g3804
sg78
(lp3820
g71
(g72
g73
NtRp3821
(dp3822
g76
(dp3823
g84
I5
ssg85
g3817
sg78
(lp3824
g71
(g80
g73
NtRp3825
(dp3826
g76
(dp3827
g84
I4
ssg85
Nsg78
(lp3828
sbasbasbasbag71
(g87
g73
NtRp3829
(dp3830
g76
(dp3831
sg85
g3301
sg78
(lp3832
g71
(g92
g73
NtRp3833
(dp3834
g76
(dp3835
g96
g97
ssg85
g3829
sg78
(lp3836
S'meta'
p3837
asbag71
(g92
g73
NtRp3838
(dp3839
g76
(dp3840
g103
g104
ssg85
g3829
sg78
(lp3841
S':'
asbag71
(g92
g73
NtRp3842
(dp3843
g76
(dp3844
sg85
g3829
sg78
(lp3845
g71
(g72
g73
NtRp3846
(dp3847
g76
(dp3848
g84
I5
ssg85
g3842
sg78
(lp3849
g71
(g80
g73
NtRp3850
(dp3851
g76
(dp3852
g84
I4
ssg85
Nsg78
(lp3853
sbasbasbasbag71
(g87
g73
NtRp3854
(dp3855
g76
(dp3856
sg85
g3301
sg78
(lp3857
g71
(g92
g73
NtRp3858
(dp3859
g76
(dp3860
g96
g97
ssg85
g3854
sg78
(lp3861
S'postprocessing'
p3862
asbag71
(g92
g73
NtRp3863
(dp3864
g76
(dp3865
g103
g104
ssg85
g3854
sg78
(lp3866
S':'
asbag71
(g92
g73
NtRp3867
(dp3868
g76
(dp3869
sg85
g3854
sg78
(lp3870
g71
(g72
g73
NtRp3871
(dp3872
g76
(dp3873
g84
I5
ssg85
g3867
sg78
(lp3874
g71
(g80
g73
NtRp3875
(dp3876
g76
(dp3877
g84
I4
ssg85
Nsg78
(lp3878
sbasbasbasbag71
(g87
g73
NtRp3879
(dp3880
g76
(dp3881
sg85
g3301
sg78
(lp3882
g71
(g92
g73
NtRp3883
(dp3884
g76
(dp3885
g96
g97
ssg85
g3879
sg78
(lp3886
S'session_file'
p3887
asbag71
(g92
g73
NtRp3888
(dp3889
g76
(dp3890
g103
g104
ssg85
g3879
sg78
(lp3891
S':'
asbag71
(g92
g73
NtRp3892
(dp3893
g76
(dp3894
sg85
g3879
sg78
(lp3895
g71
(g72
g73
NtRp3896
(dp3897
g76
(dp3898
g84
I5
ssg85
g3892
sg78
(lp3899
S"<open file '/home/goshawk/web2py/applications/milo/sessions/127.0.0.1-117091b6-3e7b-471e-b9d1-d77222fd06b0', mode 'rb+' at 0x7f2dc4569f60>"
p3900
asbasbasbag71
(g87
g73
NtRp3901
(dp3902
g76
(dp3903
sg85
g3301
sg78
(lp3904
g71
(g92
g73
NtRp3905
(dp3906
g76
(dp3907
g96
g97
ssg85
g3901
sg78
(lp3908
S'session_filename'
p3909
asbag71
(g92
g73
NtRp3910
(dp3911
g76
(dp3912
g103
g104
ssg85
g3901
sg78
(lp3913
S':'
asbag71
(g92
g73
NtRp3914
(dp3915
g76
(dp3916
sg85
g3901
sg78
(lp3917
g71
(g72
g73
NtRp3918
(dp3919
g76
(dp3920
g84
I5
ssg85
g3914
sg78
(lp3921
S'/home/goshawk/web2py/applications/milo/sessions/127.0.0.1-117091b6-3e7b-471e-b9d1-d77222fd06b0'
p3922
asbasbasbag71
(g87
g73
NtRp3923
(dp3924
g76
(dp3925
sg85
g3301
sg78
(lp3926
g71
(g92
g73
NtRp3927
(dp3928
g76
(dp3929
g96
g97
ssg85
g3923
sg78
(lp3930
S'session_id'
p3931
asbag71
(g92
g73
NtRp3932
(dp3933
g76
(dp3934
g103
g104
ssg85
g3923
sg78
(lp3935
S':'
asbag71
(g92
g73
NtRp3936
(dp3937
g76
(dp3938
sg85
g3923
sg78
(lp3939
g71
(g72
g73
NtRp3940
(dp3941
g76
(dp3942
g84
I5
ssg85
g3936
sg78
(lp3943
S'127.0.0.1-117091b6-3e7b-471e-b9d1-d77222fd06b0'
p3944
asbasbasbag71
(g87
g73
NtRp3945
(dp3946
g76
(dp3947
sg85
g3301
sg78
(lp3948
g71
(g92
g73
NtRp3949
(dp3950
g76
(dp3951
g96
g97
ssg85
g3945
sg78
(lp3952
S'session_id_name'
p3953
asbag71
(g92
g73
NtRp3954
(dp3955
g76
(dp3956
g103
g104
ssg85
g3945
sg78
(lp3957
S':'
asbag71
(g92
g73
NtRp3958
(dp3959
g76
(dp3960
sg85
g3945
sg78
(lp3961
g71
(g72
g73
NtRp3962
(dp3963
g76
(dp3964
g84
I5
ssg85
g3958
sg78
(lp3965
g3358
asbasbasbag71
(g87
g73
NtRp3966
(dp3967
g76
(dp3968
sg85
g3301
sg78
(lp3969
g71
(g92
g73
NtRp3970
(dp3971
g76
(dp3972
g96
g97
ssg85
g3966
sg78
(lp3973
S'session_locked'
p3974
asbag71
(g92
g73
NtRp3975
(dp3976
g76
(dp3977
g103
g104
ssg85
g3966
sg78
(lp3978
S':'
asbag71
(g92
g73
NtRp3979
(dp3980
g76
(dp3981
sg85
g3966
sg78
(lp3982
g71
(g72
g73
NtRp3983
(dp3984
g76
(dp3985
g84
I5
ssg85
g3979
sg78
(lp3986
g1548
asbasbasbag71
(g87
g73
NtRp3987
(dp3988
g76
(dp3989
sg85
g3301
sg78
(lp3990
g71
(g92
g73
NtRp3991
(dp3992
g76
(dp3993
g96
g97
ssg85
g3987
sg78
(lp3994
S'session_new'
p3995
asbag71
(g92
g73
NtRp3996
(dp3997
g76
(dp3998
g103
g104
ssg85
g3987
sg78
(lp3999
S':'
asbag71
(g92
g73
NtRp4000
(dp4001
g76
(dp4002
sg85
g3987
sg78
(lp4003
g71
(g72
g73
NtRp4004
(dp4005
g76
(dp4006
g84
I5
ssg85
g4000
sg78
(lp4007
g49
asbasbasbag71
(g87
g73
NtRp4008
(dp4009
g76
(dp4010
sg85
g3301
sg78
(lp4011
g71
(g92
g73
NtRp4012
(dp4013
g76
(dp4014
g96
g97
ssg85
g4008
sg78
(lp4015
S'status'
p4016
asbag71
(g92
g73
NtRp4017
(dp4018
g76
(dp4019
g103
g104
ssg85
g4008
sg78
(lp4020
S':'
asbag71
(g92
g73
NtRp4021
(dp4022
g76
(dp4023
sg85
g4008
sg78
(lp4024
g71
(g72
g73
NtRp4025
(dp4026
g76
(dp4027
g84
I5
ssg85
g4021
sg78
(lp4028
S'200'
p4029
asbasbasbag71
(g87
g73
NtRp4030
(dp4031
g76
(dp4032
sg85
g3301
sg78
(lp4033
g71
(g92
g73
NtRp4034
(dp4035
g76
(dp4036
g96
g97
ssg85
g4030
sg78
(lp4037
g2212
asbag71
(g92
g73
NtRp4038
(dp4039
g76
(dp4040
g103
g104
ssg85
g4030
sg78
(lp4041
S':'
asbag71
(g92
g73
NtRp4042
(dp4043
g76
(dp4044
sg85
g4030
sg78
(lp4045
g71
(g72
g73
NtRp4046
(dp4047
g76
(dp4048
g84
I5
ssg85
g4042
sg78
(lp4049
g2225
asbasbasbag71
(g87
g73
NtRp4050
(dp4051
g76
(dp4052
sg85
g3301
sg78
(lp4053
g71
(g92
g73
NtRp4054
(dp4055
g76
(dp4056
g96
g97
ssg85
g4050
sg78
(lp4057
S'view'
p4058
asbag71
(g92
g73
NtRp4059
(dp4060
g76
(dp4061
g103
g104
ssg85
g4050
sg78
(lp4062
S':'
asbag71
(g92
g73
NtRp4063
(dp4064
g76
(dp4065
sg85
g4050
sg78
(lp4066
g71
(g72
g73
NtRp4067
(dp4068
g76
(dp4069
g84
I5
ssg85
g4063
sg78
(lp4070
S'appadmin/index.html'
p4071
asbasbasbasbasbsS'locals'
p4072
(dp4073
S'database'
p4074
S"'imdb'"
p4075
sS'items'
p4076
S"[('dbname', 'imdb'), ('user', 'imdb'), ('password', 'imdbsecret'), ('host', 'localhost')]"
p4077
sS'k'
S"'host'"
p4078
sS'kwargs'
p4079
g3035
sS'connection_factory'
p4080
S'None'
p4081
sS'dsn'
p4082
S"'dbname=imdb user=imdb password=imdbsecret host=localhost'"
p4083
sS'host'
p4084
S"'localhost'"
p4085
sS'user'
p4086
S"'imdb'"
p4087
sS'v'
S"'localhost'"
p4088
sS'async'
p4089
g49
sS'password'
p4090
S"'imdbsecret'"
p4091
sS'port'
p4092
S'None'
p4093
sssS'traceback'
p4094
S'Traceback (most recent call last):\n  File "/home/goshawk/web2py/gluon/restricted.py", line 205, in restricted\n    exec ccode in environment\n  File "/home/goshawk/web2py/applications/milo/models/db.py", line 86, in <module>\n    im = imdb.IMDb(\'sql\', uri=imdb_connection_str)\n  File "/usr/local/lib/python2.7/dist-packages/imdb/__init__.py", line 199, in IMDb\n    return IMDbSqlAccessSystem(*arguments, **keywords)\n  File "/usr/local/lib/python2.7/dist-packages/imdb/parser/sql/__init__.py", line 595, in __init__\n    self._connection = setConnection(uri, DB_TABLES)\n  File "/usr/local/lib/python2.7/dist-packages/imdb/parser/sql/alchemyadapter.py", line 486, in setConnection\n    eng_conn = engine.connect()\n  File "/usr/local/lib/python2.7/dist-packages/SQLAlchemy-0.7.0-py2.7-linux-x86_64.egg/sqlalchemy/engine/base.py", line 2080, in connect\n    return self._connection_cls(self, **kwargs)\n  File "/usr/local/lib/python2.7/dist-packages/SQLAlchemy-0.7.0-py2.7-linux-x86_64.egg/sqlalchemy/engine/base.py", line 844, in __init__\n    self.__connection = connection or engine.raw_connection()\n  File "/usr/local/lib/python2.7/dist-packages/SQLAlchemy-0.7.0-py2.7-linux-x86_64.egg/sqlalchemy/engine/base.py", line 2143, in raw_connection\n    return self.pool.unique_connection()\n  File "/usr/local/lib/python2.7/dist-packages/SQLAlchemy-0.7.0-py2.7-linux-x86_64.egg/sqlalchemy/pool.py", line 169, in unique_connection\n    return _ConnectionFairy(self).checkout()\n  File "/usr/local/lib/python2.7/dist-packages/SQLAlchemy-0.7.0-py2.7-linux-x86_64.egg/sqlalchemy/pool.py", line 370, in __init__\n    rec = self._connection_record = pool._do_get()\n  File "/usr/local/lib/python2.7/dist-packages/SQLAlchemy-0.7.0-py2.7-linux-x86_64.egg/sqlalchemy/pool.py", line 696, in _do_get\n    con = self._create_connection()\n  File "/usr/local/lib/python2.7/dist-packages/SQLAlchemy-0.7.0-py2.7-linux-x86_64.egg/sqlalchemy/pool.py", line 174, in _create_connection\n    return _ConnectionRecord(self)\n  File "/usr/local/lib/python2.7/dist-packages/SQLAlchemy-0.7.0-py2.7-linux-x86_64.egg/sqlalchemy/pool.py", line 255, in __init__\n    self.connection = self.__connect()\n  File "/usr/local/lib/python2.7/dist-packages/SQLAlchemy-0.7.0-py2.7-linux-x86_64.egg/sqlalchemy/pool.py", line 315, in __connect\n    connection = self.__pool._creator()\n  File "/usr/local/lib/python2.7/dist-packages/SQLAlchemy-0.7.0-py2.7-linux-x86_64.egg/sqlalchemy/engine/strategies.py", line 80, in connect\n    return dialect.connect(*cargs, **cparams)\n  File "/usr/local/lib/python2.7/dist-packages/SQLAlchemy-0.7.0-py2.7-linux-x86_64.egg/sqlalchemy/engine/default.py", line 275, in connect\n    return self.dbapi.connect(*cargs, **cparams)\n  File "/usr/lib/python2.7/dist-packages/psycopg2/__init__.py", line 179, in connect\n    connection_factory=connection_factory, async=async)\nOperationalError: (OperationalError) FATAL:  remaining connection slots are reserved for non-replication superuser connections\n None None\n'
p4095
s.