(dp1
S'output'
p2
S"<class 'sqlalchemy.exc.OperationalError'> (OperationalError) FATAL:  remaining connection slots are reserved for non-replication superuser connections\n None None"
p3
sS'layer'
p4
S'/home/goshawk/web2py/applications/milo/models/db.py'
p5
sS'code'
p6
S"# -*- coding: utf-8 -*-\n\n#########################################################################\n## This scaffolding model makes your app work on Google App Engine too\n## File is released under public domain and you can use without limitations\n#########################################################################\n\n## if SSL/HTTPS is properly configured and you want all HTTP requests to\n## be redirected to HTTPS, uncomment the line below:\n# request.requires_https()\n\nif not request.env.web2py_runtime_gae:\n    ## if NOT running on Google App Engine use SQLite or other DB\n    db = DAL('postgres://milo:milosecret@localhost/milo-reloaded')\nelse:\n    ## connect to Google BigTable (optional 'google:datastore://namespace')\n    db = DAL('google:datastore')\n    ## store sessions and tickets there\n    session.connect(request, response, db = db)\n    ## or store session in Memcache, Redis, etc.\n    ## from gluon.contrib.memdb import MEMDB\n    ## from google.appengine.api.memcache import Client\n    ## session.connect(request, response, db = MEMDB(Client()))\n\n## by default give a view/generic.extension to all actions from localhost\n## none otherwise. a pattern can be 'controller/function.extension'\nresponse.generic_patterns = ['*'] if request.is_local else []\n## (optional) optimize handling of static files\n# response.optimize_css = 'concat,minify,inline'\n# response.optimize_js = 'concat,minify,inline'\n\n#########################################################################\n## Here is sample code if you need for\n## - email capabilities\n## - authentication (registration, login, logout, ... )\n## - authorization (role based authorization)\n## - services (xml, csv, json, xmlrpc, jsonrpc, amf, rss)\n## - old style crud actions\n## (more options discussed in gluon/tools.py)\n#########################################################################\n\nfrom gluon.tools import Auth, Crud, Service, PluginManager, prettydate\nauth = Auth(db, hmac_key=Auth.get_or_create_key())\ncrud, service, plugins = Crud(db), Service(), PluginManager()\n\n## create all tables needed by auth if not custom tables\nauth.define_tables()\n\n## configure email\nmail=auth.settings.mailer\nmail.settings.server = 'logging' or 'smtp.gmail.com:587'\nmail.settings.sender = 'you@gmail.com'\nmail.settings.login = 'username:password'\n\n## configure auth policy\nauth.settings.registration_requires_verification = False\nauth.settings.registration_requires_approval = False\nauth.settings.reset_password_requires_verification = True\n\n## if you need to use OpenID, Facebook, MySpace, Twitter, Linkedin, etc.\n## register with janrain.com, write your domain:api_key in private/janrain.key\nfrom gluon.contrib.login_methods.rpx_account import use_janrain\nuse_janrain(auth,filename='private/janrain.key')\n\n#########################################################################\n## Define your tables below (or better in another model file) for example\n##\n## >>> db.define_table('mytable',Field('myfield','string'))\n##\n## Fields can be 'string','text','password','integer','double','boolean'\n##       'date','time','datetime','blob','upload', 'reference TABLENAME'\n## There is an implicit 'id integer autoincrement' field\n## Consult manual for more options, validators, etc.\n##\n## More API examples for controllers:\n##\n## >>> db.mytable.insert(myfield='value')\n## >>> rows=db(db.mytable.myfield=='value').select(db.mytable.ALL)\n## >>> for row in rows: print row.id, row.myfield\n#########################################################################\n\nimport imdb\n\nimdb_connection_str = 'postgres://imdb:imdbsecret@localhost/imdb'\n\nim = imdb.IMDb('sql', uri=imdb_connection_str)\n\n\ndb.define_table('users',\n        Field('name'),\n        Field('email'),\n        Field('imdb_id', 'integer')\n        )\n\ndb.define_table('movies',\n        Field('imdb_id', 'integer')\n        )\n\ndb.define_table('ratings',\n        Field('iuser', db.users),\n        Field('imovie', db.movies),\n        Field('rating', 'double')\n        )\n\ndb.define_table('features',\n        Field('name'),\n        Field('type')\n        )\n\ndb.define_table('movies_features',\n        Field('movie', db.movies),\n        Field('feature', db.features),\n        Field('times', 'integer')\n        )\n"
p7
sS'snapshot'
p8
(dp9
S'exception'
p10
(dp11
S'__module__'
p12
S"'sqlalchemy.exc'"
p13
sS'__getslice__'
p14
S"<method-wrapper '__getslice__' of OperationalError object>"
p15
sS'__str__'
p16
S"<bound method OperationalError.__str__ of Operat...d for non-replication superuser connections\\n',)>"
p17
sS'__reduce__'
p18
S'<built-in method __reduce__ of OperationalError object>'
p19
sS'__dict__'
p20
S"{'connection_invalidated': False, 'orig': OperationalError('FATAL:  remaining connection s...ed for non-replication superuser connections\\n',), 'params': None, 'statement': None}"
p21
sS'__sizeof__'
p22
S'<built-in method __sizeof__ of OperationalError object>'
p23
sS'__weakref__'
p24
S'None'
p25
sS'__init__'
p26
S"<bound method OperationalError.__init__ of Opera...d for non-replication superuser connections\\n',)>"
p27
sS'orig'
p28
S"OperationalError('FATAL:  remaining connection s...ed for non-replication superuser connections\\n',)"
p29
sS'__setattr__'
p30
S"<method-wrapper '__setattr__' of OperationalError object>"
p31
sS'__reduce_ex__'
p32
S'<built-in method __reduce_ex__ of OperationalError object>'
p33
sS'__new__'
p34
S'<built-in method __new__ of type object>'
p35
sS'__format__'
p36
S'<built-in method __format__ of OperationalError object>'
p37
sS'__class__'
p38
S"<class 'sqlalchemy.exc.OperationalError'>"
p39
sS'instance'
p40
S"<bound method type.instance of <class 'sqlalchemy.exc.OperationalError'>>"
p41
sS'params'
p42
S'None'
p43
sS'statement'
p44
S'None'
p45
sS'__doc__'
p46
S"'Wraps a DB-API OperationalError.'"
p47
sS'connection_invalidated'
p48
S'False'
p49
sS'__getitem__'
p50
S"<method-wrapper '__getitem__' of OperationalError object>"
p51
sS'__setstate__'
p52
S'<built-in method __setstate__ of OperationalError object>'
p53
sS'__getattribute__'
p54
S"<method-wrapper '__getattribute__' of OperationalError object>"
p55
sS'args'
p56
S"('(OperationalError) FATAL:  remaining connection ...served for non-replication superuser connections\\n',)"
p57
sS'__subclasshook__'
p58
S'<built-in method __subclasshook__ of type object>'
p59
sS'__unicode__'
p60
S'<built-in method __unicode__ of OperationalError object>'
p61
sS'__delattr__'
p62
S"<method-wrapper '__delattr__' of OperationalError object>"
p63
sS'__repr__'
p64
S"<method-wrapper '__repr__' of OperationalError object>"
p65
sS'__hash__'
p66
S"<method-wrapper '__hash__' of OperationalError object>"
p67
ssS'evalue'
p68
S'(OperationalError) FATAL:  remaining connection slots are reserved for non-replication superuser connections\n None None'
p69
sS'request'
p70
ccopy_reg
_reconstructor
p71
(cgluon.html
BEAUTIFY
p72
c__builtin__
object
p73
NtRp74
(dp75
S'attributes'
p76
(dp77
sS'components'
p78
(lp79
g71
(cgluon.html
TABLE
p80
g73
NtRp81
(dp82
g76
(dp83
S'level'
p84
I5
ssS'parent'
p85
Nsg78
(lp86
g71
(cgluon.html
TR
p87
g73
NtRp88
(dp89
g76
(dp90
sg85
g81
sg78
(lp91
g71
(cgluon.html
TD
p92
g73
NtRp93
(dp94
g76
(dp95
S'_style'
p96
S'font-weight:bold;vertical-align:top'
p97
ssg85
g88
sg78
(lp98
S'ajax'
p99
asbag71
(g92
g73
NtRp100
(dp101
g76
(dp102
S'_valign'
p103
S'top'
p104
ssg85
g88
sg78
(lp105
S':'
asbag71
(g92
g73
NtRp106
(dp107
g76
(dp108
sg85
g88
sg78
(lp109
g71
(g72
g73
NtRp110
(dp111
g76
(dp112
g84
I5
ssg85
g106
sg78
(lp113
g49
asbasbasbag71
(g87
g73
NtRp114
(dp115
g76
(dp116
sg85
g81
sg78
(lp117
g71
(g92
g73
NtRp118
(dp119
g76
(dp120
g96
g97
ssg85
g114
sg78
(lp121
S'application'
p122
asbag71
(g92
g73
NtRp123
(dp124
g76
(dp125
g103
g104
ssg85
g114
sg78
(lp126
S':'
asbag71
(g92
g73
NtRp127
(dp128
g76
(dp129
sg85
g114
sg78
(lp130
g71
(g72
g73
NtRp131
(dp132
g76
(dp133
g84
I5
ssg85
g127
sg78
(lp134
S'milo'
p135
asbasbasbag71
(g87
g73
NtRp136
(dp137
g76
(dp138
sg85
g81
sg78
(lp139
g71
(g92
g73
NtRp140
(dp141
g76
(dp142
g96
g97
ssg85
g136
sg78
(lp143
g56
asbag71
(g92
g73
NtRp144
(dp145
g76
(dp146
g103
g104
ssg85
g136
sg78
(lp147
S':'
asbag71
(g92
g73
NtRp148
(dp149
g76
(dp150
sg85
g136
sg78
(lp151
g71
(g72
g73
NtRp152
(dp153
g76
(dp154
g84
I5
ssg85
g148
sg78
(lp155
g71
(g80
g73
NtRp156
(dp157
g76
(dp158
g84
I4
ssg85
Nsg78
(lp159
g71
(g87
g73
NtRp160
(dp161
g76
(dp162
sg85
g156
sg78
(lp163
g71
(g92
g73
NtRp164
(dp165
g76
(dp166
sg85
g160
sg78
(lp167
g71
(g72
g73
NtRp168
(dp169
g76
(dp170
g84
I4
ssg85
g164
sg78
(lp171
S'db'
p172
asbasbasbasbasbasbasbag71
(g87
g73
NtRp173
(dp174
g76
(dp175
sg85
g81
sg78
(lp176
g71
(g92
g73
NtRp177
(dp178
g76
(dp179
g96
g97
ssg85
g173
sg78
(lp180
S'body'
p181
asbag71
(g92
g73
NtRp182
(dp183
g76
(dp184
g103
g104
ssg85
g173
sg78
(lp185
S':'
asbag71
(g92
g73
NtRp186
(dp187
g76
(dp188
sg85
g173
sg78
(lp189
g71
(g72
g73
NtRp190
(dp191
g76
(dp192
g84
I5
ssg85
g186
sg78
(lp193
S'<cStringIO.StringO object at 0x7f2de03eec00>'
p194
asbasbasbag71
(g87
g73
NtRp195
(dp196
g76
(dp197
sg85
g81
sg78
(lp198
g71
(g92
g73
NtRp199
(dp200
g76
(dp201
g96
g97
ssg85
g195
sg78
(lp202
S'client'
p203
asbag71
(g92
g73
NtRp204
(dp205
g76
(dp206
g103
g104
ssg85
g195
sg78
(lp207
S':'
asbag71
(g92
g73
NtRp208
(dp209
g76
(dp210
sg85
g195
sg78
(lp211
g71
(g72
g73
NtRp212
(dp213
g76
(dp214
g84
I5
ssg85
g208
sg78
(lp215
S'127.0.0.1'
p216
asbasbasbag71
(g87
g73
NtRp217
(dp218
g76
(dp219
sg85
g81
sg78
(lp220
g71
(g92
g73
NtRp221
(dp222
g76
(dp223
g96
g97
ssg85
g217
sg78
(lp224
S'controller'
p225
asbag71
(g92
g73
NtRp226
(dp227
g76
(dp228
g103
g104
ssg85
g217
sg78
(lp229
S':'
asbag71
(g92
g73
NtRp230
(dp231
g76
(dp232
sg85
g217
sg78
(lp233
g71
(g72
g73
NtRp234
(dp235
g76
(dp236
g84
I5
ssg85
g230
sg78
(lp237
S'appadmin'
p238
asbasbasbag71
(g87
g73
NtRp239
(dp240
g76
(dp241
sg85
g81
sg78
(lp242
g71
(g92
g73
NtRp243
(dp244
g76
(dp245
g96
g97
ssg85
g239
sg78
(lp246
S'cookies'
p247
asbag71
(g92
g73
NtRp248
(dp249
g76
(dp250
g103
g104
ssg85
g239
sg78
(lp251
S':'
asbag71
(g92
g73
NtRp252
(dp253
g76
(dp254
sg85
g239
sg78
(lp255
g71
(g72
g73
NtRp256
(dp257
g76
(dp258
g84
I5
ssg85
g252
sg78
(lp259
g71
(g80
g73
NtRp260
(dp261
g76
(dp262
g84
I4
ssg85
Nsg78
(lp263
g71
(g87
g73
NtRp264
(dp265
g76
(dp266
sg85
g260
sg78
(lp267
g71
(g92
g73
NtRp268
(dp269
g76
(dp270
g96
g97
ssg85
g264
sg78
(lp271
S'session_id_admin'
p272
asbag71
(g92
g73
NtRp273
(dp274
g76
(dp275
g103
g104
ssg85
g264
sg78
(lp276
S':'
asbag71
(g92
g73
NtRp277
(dp278
g76
(dp279
sg85
g264
sg78
(lp280
g71
(g72
g73
NtRp281
(dp282
g76
(dp283
g84
I4
ssg85
g277
sg78
(lp284
g71
(g80
g73
NtRp285
(dp286
g76
(dp287
g84
I3
ssg85
Nsg78
(lp288
g71
(g87
g73
NtRp289
(dp290
g76
(dp291
sg85
g285
sg78
(lp292
g71
(g92
g73
NtRp293
(dp294
g76
(dp295
g96
g97
ssg85
g289
sg78
(lp296
S'comment'
p297
asbag71
(g92
g73
NtRp298
(dp299
g76
(dp300
g103
g104
ssg85
g289
sg78
(lp301
S':'
asbag71
(g92
g73
NtRp302
(dp303
g76
(dp304
sg85
g289
sg78
(lp305
g71
(g72
g73
NtRp306
(dp307
g76
(dp308
g84
I3
ssg85
g302
sg78
(lp309
S''
asbasbasbag71
(g87
g73
NtRp310
(dp311
g76
(dp312
sg85
g285
sg78
(lp313
g71
(g92
g73
NtRp314
(dp315
g76
(dp316
g96
g97
ssg85
g310
sg78
(lp317
S'domain'
p318
asbag71
(g92
g73
NtRp319
(dp320
g76
(dp321
g103
g104
ssg85
g310
sg78
(lp322
S':'
asbag71
(g92
g73
NtRp323
(dp324
g76
(dp325
sg85
g310
sg78
(lp326
g71
(g72
g73
NtRp327
(dp328
g76
(dp329
g84
I3
ssg85
g323
sg78
(lp330
S''
asbasbasbag71
(g87
g73
NtRp331
(dp332
g76
(dp333
sg85
g285
sg78
(lp334
g71
(g92
g73
NtRp335
(dp336
g76
(dp337
g96
g97
ssg85
g331
sg78
(lp338
S'expires'
p339
asbag71
(g92
g73
NtRp340
(dp341
g76
(dp342
g103
g104
ssg85
g331
sg78
(lp343
S':'
asbag71
(g92
g73
NtRp344
(dp345
g76
(dp346
sg85
g331
sg78
(lp347
g71
(g72
g73
NtRp348
(dp349
g76
(dp350
g84
I3
ssg85
g344
sg78
(lp351
S''
asbasbasbag71
(g87
g73
NtRp352
(dp353
g76
(dp354
sg85
g285
sg78
(lp355
g71
(g92
g73
NtRp356
(dp357
g76
(dp358
g96
g97
ssg85
g352
sg78
(lp359
S'httponly'
p360
asbag71
(g92
g73
NtRp361
(dp362
g76
(dp363
g103
g104
ssg85
g352
sg78
(lp364
S':'
asbag71
(g92
g73
NtRp365
(dp366
g76
(dp367
sg85
g352
sg78
(lp368
g71
(g72
g73
NtRp369
(dp370
g76
(dp371
g84
I3
ssg85
g365
sg78
(lp372
S''
asbasbasbag71
(g87
g73
NtRp373
(dp374
g76
(dp375
sg85
g285
sg78
(lp376
g71
(g92
g73
NtRp377
(dp378
g76
(dp379
g96
g97
ssg85
g373
sg78
(lp380
S'max-age'
p381
asbag71
(g92
g73
NtRp382
(dp383
g76
(dp384
g103
g104
ssg85
g373
sg78
(lp385
S':'
asbag71
(g92
g73
NtRp386
(dp387
g76
(dp388
sg85
g373
sg78
(lp389
g71
(g72
g73
NtRp390
(dp391
g76
(dp392
g84
I3
ssg85
g386
sg78
(lp393
S''
asbasbasbag71
(g87
g73
NtRp394
(dp395
g76
(dp396
sg85
g285
sg78
(lp397
g71
(g92
g73
NtRp398
(dp399
g76
(dp400
g96
g97
ssg85
g394
sg78
(lp401
S'path'
p402
asbag71
(g92
g73
NtRp403
(dp404
g76
(dp405
g103
g104
ssg85
g394
sg78
(lp406
S':'
asbag71
(g92
g73
NtRp407
(dp408
g76
(dp409
sg85
g394
sg78
(lp410
g71
(g72
g73
NtRp411
(dp412
g76
(dp413
g84
I3
ssg85
g407
sg78
(lp414
S''
asbasbasbag71
(g87
g73
NtRp415
(dp416
g76
(dp417
sg85
g285
sg78
(lp418
g71
(g92
g73
NtRp419
(dp420
g76
(dp421
g96
g97
ssg85
g415
sg78
(lp422
S'secure'
p423
asbag71
(g92
g73
NtRp424
(dp425
g76
(dp426
g103
g104
ssg85
g415
sg78
(lp427
S':'
asbag71
(g92
g73
NtRp428
(dp429
g76
(dp430
sg85
g415
sg78
(lp431
g71
(g72
g73
NtRp432
(dp433
g76
(dp434
g84
I3
ssg85
g428
sg78
(lp435
S''
asbasbasbag71
(g87
g73
NtRp436
(dp437
g76
(dp438
sg85
g285
sg78
(lp439
g71
(g92
g73
NtRp440
(dp441
g76
(dp442
g96
g97
ssg85
g436
sg78
(lp443
S'version'
p444
asbag71
(g92
g73
NtRp445
(dp446
g76
(dp447
g103
g104
ssg85
g436
sg78
(lp448
S':'
asbag71
(g92
g73
NtRp449
(dp450
g76
(dp451
sg85
g436
sg78
(lp452
g71
(g72
g73
NtRp453
(dp454
g76
(dp455
g84
I3
ssg85
g449
sg78
(lp456
S''
asbasbasbasbasbasbasbag71
(g87
g73
NtRp457
(dp458
g76
(dp459
sg85
g260
sg78
(lp460
g71
(g92
g73
NtRp461
(dp462
g76
(dp463
g96
g97
ssg85
g457
sg78
(lp464
S'session_id_milo'
p465
asbag71
(g92
g73
NtRp466
(dp467
g76
(dp468
g103
g104
ssg85
g457
sg78
(lp469
S':'
asbag71
(g92
g73
NtRp470
(dp471
g76
(dp472
sg85
g457
sg78
(lp473
g71
(g72
g73
NtRp474
(dp475
g76
(dp476
g84
I4
ssg85
g470
sg78
(lp477
g71
(g80
g73
NtRp478
(dp479
g76
(dp480
g84
I3
ssg85
Nsg78
(lp481
g71
(g87
g73
NtRp482
(dp483
g76
(dp484
sg85
g478
sg78
(lp485
g71
(g92
g73
NtRp486
(dp487
g76
(dp488
g96
g97
ssg85
g482
sg78
(lp489
g297
asbag71
(g92
g73
NtRp490
(dp491
g76
(dp492
g103
g104
ssg85
g482
sg78
(lp493
S':'
asbag71
(g92
g73
NtRp494
(dp495
g76
(dp496
sg85
g482
sg78
(lp497
g71
(g72
g73
NtRp498
(dp499
g76
(dp500
g84
I3
ssg85
g494
sg78
(lp501
S''
asbasbasbag71
(g87
g73
NtRp502
(dp503
g76
(dp504
sg85
g478
sg78
(lp505
g71
(g92
g73
NtRp506
(dp507
g76
(dp508
g96
g97
ssg85
g502
sg78
(lp509
g318
asbag71
(g92
g73
NtRp510
(dp511
g76
(dp512
g103
g104
ssg85
g502
sg78
(lp513
S':'
asbag71
(g92
g73
NtRp514
(dp515
g76
(dp516
sg85
g502
sg78
(lp517
g71
(g72
g73
NtRp518
(dp519
g76
(dp520
g84
I3
ssg85
g514
sg78
(lp521
S''
asbasbasbag71
(g87
g73
NtRp522
(dp523
g76
(dp524
sg85
g478
sg78
(lp525
g71
(g92
g73
NtRp526
(dp527
g76
(dp528
g96
g97
ssg85
g522
sg78
(lp529
g339
asbag71
(g92
g73
NtRp530
(dp531
g76
(dp532
g103
g104
ssg85
g522
sg78
(lp533
S':'
asbag71
(g92
g73
NtRp534
(dp535
g76
(dp536
sg85
g522
sg78
(lp537
g71
(g72
g73
NtRp538
(dp539
g76
(dp540
g84
I3
ssg85
g534
sg78
(lp541
S''
asbasbasbag71
(g87
g73
NtRp542
(dp543
g76
(dp544
sg85
g478
sg78
(lp545
g71
(g92
g73
NtRp546
(dp547
g76
(dp548
g96
g97
ssg85
g542
sg78
(lp549
g360
asbag71
(g92
g73
NtRp550
(dp551
g76
(dp552
g103
g104
ssg85
g542
sg78
(lp553
S':'
asbag71
(g92
g73
NtRp554
(dp555
g76
(dp556
sg85
g542
sg78
(lp557
g71
(g72
g73
NtRp558
(dp559
g76
(dp560
g84
I3
ssg85
g554
sg78
(lp561
S''
asbasbasbag71
(g87
g73
NtRp562
(dp563
g76
(dp564
sg85
g478
sg78
(lp565
g71
(g92
g73
NtRp566
(dp567
g76
(dp568
g96
g97
ssg85
g562
sg78
(lp569
g381
asbag71
(g92
g73
NtRp570
(dp571
g76
(dp572
g103
g104
ssg85
g562
sg78
(lp573
S':'
asbag71
(g92
g73
NtRp574
(dp575
g76
(dp576
sg85
g562
sg78
(lp577
g71
(g72
g73
NtRp578
(dp579
g76
(dp580
g84
I3
ssg85
g574
sg78
(lp581
S''
asbasbasbag71
(g87
g73
NtRp582
(dp583
g76
(dp584
sg85
g478
sg78
(lp585
g71
(g92
g73
NtRp586
(dp587
g76
(dp588
g96
g97
ssg85
g582
sg78
(lp589
g402
asbag71
(g92
g73
NtRp590
(dp591
g76
(dp592
g103
g104
ssg85
g582
sg78
(lp593
S':'
asbag71
(g92
g73
NtRp594
(dp595
g76
(dp596
sg85
g582
sg78
(lp597
g71
(g72
g73
NtRp598
(dp599
g76
(dp600
g84
I3
ssg85
g594
sg78
(lp601
S''
asbasbasbag71
(g87
g73
NtRp602
(dp603
g76
(dp604
sg85
g478
sg78
(lp605
g71
(g92
g73
NtRp606
(dp607
g76
(dp608
g96
g97
ssg85
g602
sg78
(lp609
g423
asbag71
(g92
g73
NtRp610
(dp611
g76
(dp612
g103
g104
ssg85
g602
sg78
(lp613
S':'
asbag71
(g92
g73
NtRp614
(dp615
g76
(dp616
sg85
g602
sg78
(lp617
g71
(g72
g73
NtRp618
(dp619
g76
(dp620
g84
I3
ssg85
g614
sg78
(lp621
S''
asbasbasbag71
(g87
g73
NtRp622
(dp623
g76
(dp624
sg85
g478
sg78
(lp625
g71
(g92
g73
NtRp626
(dp627
g76
(dp628
g96
g97
ssg85
g622
sg78
(lp629
g444
asbag71
(g92
g73
NtRp630
(dp631
g76
(dp632
g103
g104
ssg85
g622
sg78
(lp633
S':'
asbag71
(g92
g73
NtRp634
(dp635
g76
(dp636
sg85
g622
sg78
(lp637
g71
(g72
g73
NtRp638
(dp639
g76
(dp640
g84
I3
ssg85
g634
sg78
(lp641
S''
asbasbasbasbasbasbasbasbasbasbasbag71
(g87
g73
NtRp642
(dp643
g76
(dp644
sg85
g81
sg78
(lp645
g71
(g92
g73
NtRp646
(dp647
g76
(dp648
g96
g97
ssg85
g642
sg78
(lp649
S'env'
p650
asbag71
(g92
g73
NtRp651
(dp652
g76
(dp653
g103
g104
ssg85
g642
sg78
(lp654
S':'
asbag71
(g92
g73
NtRp655
(dp656
g76
(dp657
sg85
g642
sg78
(lp658
g71
(g72
g73
NtRp659
(dp660
g76
(dp661
g84
I5
ssg85
g655
sg78
(lp662
g71
(g80
g73
NtRp663
(dp664
g76
(dp665
g84
I4
ssg85
Nsg78
(lp666
g71
(g87
g73
NtRp667
(dp668
g76
(dp669
sg85
g663
sg78
(lp670
g71
(g92
g73
NtRp671
(dp672
g76
(dp673
g96
g97
ssg85
g667
sg78
(lp674
S'app_folders'
p675
asbag71
(g92
g73
NtRp676
(dp677
g76
(dp678
g103
g104
ssg85
g667
sg78
(lp679
S':'
asbag71
(g92
g73
NtRp680
(dp681
g76
(dp682
sg85
g667
sg78
(lp683
g71
(g72
g73
NtRp684
(dp685
g76
(dp686
g84
I4
ssg85
g680
sg78
(lp687
S"set(['/home/goshawk/web2py/applications/milo/', '/home/goshawk/web2py/applications/admin/'])"
p688
asbasbasbag71
(g87
g73
NtRp689
(dp690
g76
(dp691
sg85
g663
sg78
(lp692
g71
(g92
g73
NtRp693
(dp694
g76
(dp695
g96
g97
ssg85
g689
sg78
(lp696
S'applications_parent'
p697
asbag71
(g92
g73
NtRp698
(dp699
g76
(dp700
g103
g104
ssg85
g689
sg78
(lp701
S':'
asbag71
(g92
g73
NtRp702
(dp703
g76
(dp704
sg85
g689
sg78
(lp705
g71
(g72
g73
NtRp706
(dp707
g76
(dp708
g84
I4
ssg85
g702
sg78
(lp709
S'/home/goshawk/web2py'
p710
asbasbasbag71
(g87
g73
NtRp711
(dp712
g76
(dp713
sg85
g663
sg78
(lp714
g71
(g92
g73
NtRp715
(dp716
g76
(dp717
g96
g97
ssg85
g711
sg78
(lp718
S'cmd_args'
p719
asbag71
(g92
g73
NtRp720
(dp721
g76
(dp722
g103
g104
ssg85
g711
sg78
(lp723
S':'
asbag71
(g92
g73
NtRp724
(dp725
g76
(dp726
sg85
g711
sg78
(lp727
g71
(g72
g73
NtRp728
(dp729
g76
(dp730
g84
I4
ssg85
g724
sg78
(lp731
g71
(g80
g73
NtRp732
(dp733
g76
(dp734
g84
I3
ssg85
Nsg78
(lp735
sbasbasbasbag71
(g87
g73
NtRp736
(dp737
g76
(dp738
sg85
g663
sg78
(lp739
g71
(g92
g73
NtRp740
(dp741
g76
(dp742
g96
g97
ssg85
g736
sg78
(lp743
S'cmd_options'
p744
asbag71
(g92
g73
NtRp745
(dp746
g76
(dp747
g103
g104
ssg85
g736
sg78
(lp748
S':'
asbag71
(g92
g73
NtRp749
(dp750
g76
(dp751
sg85
g736
sg78
(lp752
g71
(g72
g73
NtRp753
(dp754
g76
(dp755
g84
I4
ssg85
g749
sg78
(lp756
S"<Values at 0x1cee0e0: {'verbose': False, 'ip': '127.0.0.1', 'shutdown_timeout': 5, 'taskbar': False, 'nocron': False, 'pid_filename': 'httpserver.pid', 'maxthreads': None, 'softcron': False, 'server_name': 'whisperer', 'bpython': False, 'nogui': False, 'port': 8000, 'extcron': False, 'debuglevel': 30, 'test': None, 'folder': '/home/goshawk/web2py', 'config': '', 'import_models': False, 'winservice': '', 'shell': None, 'run': '', 'log_filename': 'httpserver.log', 'args': [''], 'socket_timeout': 5, 'ssl_ca_certificate': None, 'scheduler': None, 'profiler_filename': None, 'ssl_private_key': '', 'password': 'admin', 'request_queue_size': 5, 'ssl_certificate': '', 'cronjob': False, 'numthreads': None, 'quiet': False, 'interfaces': None, 'minthreads': None, 'timeout': 10, 'plain': False, 'nobanner': False}>"
p757
asbasbasbag71
(g87
g73
NtRp758
(dp759
g76
(dp760
sg85
g663
sg78
(lp761
g71
(g92
g73
NtRp762
(dp763
g76
(dp764
g96
g97
ssg85
g758
sg78
(lp765
S'db_sessions'
p766
asbag71
(g92
g73
NtRp767
(dp768
g76
(dp769
g103
g104
ssg85
g758
sg78
(lp770
S':'
asbag71
(g92
g73
NtRp771
(dp772
g76
(dp773
sg85
g758
sg78
(lp774
g71
(g72
g73
NtRp775
(dp776
g76
(dp777
g84
I4
ssg85
g771
sg78
(lp778
S'set([])'
p779
asbasbasbag71
(g87
g73
NtRp780
(dp781
g76
(dp782
sg85
g663
sg78
(lp783
g71
(g92
g73
NtRp784
(dp785
g76
(dp786
g96
g97
ssg85
g780
sg78
(lp787
S'debugging'
p788
asbag71
(g92
g73
NtRp789
(dp790
g76
(dp791
g103
g104
ssg85
g780
sg78
(lp792
S':'
asbag71
(g92
g73
NtRp793
(dp794
g76
(dp795
sg85
g780
sg78
(lp796
g71
(g72
g73
NtRp797
(dp798
g76
(dp799
g84
I4
ssg85
g793
sg78
(lp800
g49
asbasbasbag71
(g87
g73
NtRp801
(dp802
g76
(dp803
sg85
g663
sg78
(lp804
g71
(g92
g73
NtRp805
(dp806
g76
(dp807
g96
g97
ssg85
g801
sg78
(lp808
S'gluon_parent'
p809
asbag71
(g92
g73
NtRp810
(dp811
g76
(dp812
g103
g104
ssg85
g801
sg78
(lp813
S':'
asbag71
(g92
g73
NtRp814
(dp815
g76
(dp816
sg85
g801
sg78
(lp817
g71
(g72
g73
NtRp818
(dp819
g76
(dp820
g84
I4
ssg85
g814
sg78
(lp821
S'/home/goshawk/web2py'
p822
asbasbasbag71
(g87
g73
NtRp823
(dp824
g76
(dp825
sg85
g663
sg78
(lp826
g71
(g92
g73
NtRp827
(dp828
g76
(dp829
g96
g97
ssg85
g823
sg78
(lp830
S'http_accept'
p831
asbag71
(g92
g73
NtRp832
(dp833
g76
(dp834
g103
g104
ssg85
g823
sg78
(lp835
S':'
asbag71
(g92
g73
NtRp836
(dp837
g76
(dp838
sg85
g823
sg78
(lp839
g71
(g72
g73
NtRp840
(dp841
g76
(dp842
g84
I4
ssg85
g836
sg78
(lp843
S'text/html,application/xhtml+xml,application/xml;q=0.9,*/*;q=0.8'
p844
asbasbasbag71
(g87
g73
NtRp845
(dp846
g76
(dp847
sg85
g663
sg78
(lp848
g71
(g92
g73
NtRp849
(dp850
g76
(dp851
g96
g97
ssg85
g845
sg78
(lp852
S'http_accept_charset'
p853
asbag71
(g92
g73
NtRp854
(dp855
g76
(dp856
g103
g104
ssg85
g845
sg78
(lp857
S':'
asbag71
(g92
g73
NtRp858
(dp859
g76
(dp860
sg85
g845
sg78
(lp861
g71
(g72
g73
NtRp862
(dp863
g76
(dp864
g84
I4
ssg85
g858
sg78
(lp865
S'ISO-8859-1,utf-8;q=0.7,*;q=0.3'
p866
asbasbasbag71
(g87
g73
NtRp867
(dp868
g76
(dp869
sg85
g663
sg78
(lp870
g71
(g92
g73
NtRp871
(dp872
g76
(dp873
g96
g97
ssg85
g867
sg78
(lp874
S'http_accept_encoding'
p875
asbag71
(g92
g73
NtRp876
(dp877
g76
(dp878
g103
g104
ssg85
g867
sg78
(lp879
S':'
asbag71
(g92
g73
NtRp880
(dp881
g76
(dp882
sg85
g867
sg78
(lp883
g71
(g72
g73
NtRp884
(dp885
g76
(dp886
g84
I4
ssg85
g880
sg78
(lp887
S'gzip,deflate,sdch'
p888
asbasbasbag71
(g87
g73
NtRp889
(dp890
g76
(dp891
sg85
g663
sg78
(lp892
g71
(g92
g73
NtRp893
(dp894
g76
(dp895
g96
g97
ssg85
g889
sg78
(lp896
S'http_accept_language'
p897
asbag71
(g92
g73
NtRp898
(dp899
g76
(dp900
g103
g104
ssg85
g889
sg78
(lp901
S':'
asbag71
(g92
g73
NtRp902
(dp903
g76
(dp904
sg85
g889
sg78
(lp905
g71
(g72
g73
NtRp906
(dp907
g76
(dp908
g84
I4
ssg85
g902
sg78
(lp909
S'en-US,en;q=0.8'
p910
asbasbasbag71
(g87
g73
NtRp911
(dp912
g76
(dp913
sg85
g663
sg78
(lp914
g71
(g92
g73
NtRp915
(dp916
g76
(dp917
g96
g97
ssg85
g911
sg78
(lp918
S'http_connection'
p919
asbag71
(g92
g73
NtRp920
(dp921
g76
(dp922
g103
g104
ssg85
g911
sg78
(lp923
S':'
asbag71
(g92
g73
NtRp924
(dp925
g76
(dp926
sg85
g911
sg78
(lp927
g71
(g72
g73
NtRp928
(dp929
g76
(dp930
g84
I4
ssg85
g924
sg78
(lp931
S'keep-alive'
p932
asbasbasbag71
(g87
g73
NtRp933
(dp934
g76
(dp935
sg85
g663
sg78
(lp936
g71
(g92
g73
NtRp937
(dp938
g76
(dp939
g96
g97
ssg85
g933
sg78
(lp940
S'http_cookie'
p941
asbag71
(g92
g73
NtRp942
(dp943
g76
(dp944
g103
g104
ssg85
g933
sg78
(lp945
S':'
asbag71
(g92
g73
NtRp946
(dp947
g76
(dp948
sg85
g933
sg78
(lp949
g71
(g72
g73
NtRp950
(dp951
g76
(dp952
g84
I4
ssg85
g946
sg78
(lp953
S'session_id_admin=127.0.0.1-16b3ac27-a29f-4bb0-b9fc-8d164ae5cc4e; session_id_milo=127.0.0.1-117091b6-3e7b-471e-b9d1-d77222fd06b0'
p954
asbasbasbag71
(g87
g73
NtRp955
(dp956
g76
(dp957
sg85
g663
sg78
(lp958
g71
(g92
g73
NtRp959
(dp960
g76
(dp961
g96
g97
ssg85
g955
sg78
(lp962
S'http_host'
p963
asbag71
(g92
g73
NtRp964
(dp965
g76
(dp966
g103
g104
ssg85
g955
sg78
(lp967
S':'
asbag71
(g92
g73
NtRp968
(dp969
g76
(dp970
sg85
g955
sg78
(lp971
g71
(g72
g73
NtRp972
(dp973
g76
(dp974
g84
I4
ssg85
g968
sg78
(lp975
S'127.0.0.1:8000'
p976
asbasbasbag71
(g87
g73
NtRp977
(dp978
g76
(dp979
sg85
g663
sg78
(lp980
g71
(g92
g73
NtRp981
(dp982
g76
(dp983
g96
g97
ssg85
g977
sg78
(lp984
S'http_referer'
p985
asbag71
(g92
g73
NtRp986
(dp987
g76
(dp988
g103
g104
ssg85
g977
sg78
(lp989
S':'
asbag71
(g92
g73
NtRp990
(dp991
g76
(dp992
sg85
g977
sg78
(lp993
g71
(g72
g73
NtRp994
(dp995
g76
(dp996
g84
I4
ssg85
g990
sg78
(lp997
S'http://127.0.0.1:8000/milo/appadmin/index'
p998
asbasbasbag71
(g87
g73
NtRp999
(dp1000
g76
(dp1001
sg85
g663
sg78
(lp1002
g71
(g92
g73
NtRp1003
(dp1004
g76
(dp1005
g96
g97
ssg85
g999
sg78
(lp1006
S'http_user_agent'
p1007
asbag71
(g92
g73
NtRp1008
(dp1009
g76
(dp1010
g103
g104
ssg85
g999
sg78
(lp1011
S':'
asbag71
(g92
g73
NtRp1012
(dp1013
g76
(dp1014
sg85
g999
sg78
(lp1015
g71
(g72
g73
NtRp1016
(dp1017
g76
(dp1018
g84
I4
ssg85
g1012
sg78
(lp1019
S'Mozilla/5.0 (X11; Linux x86_64) AppleWebKit/535.19 (KHTML, like Gecko) Ubuntu/12.04 Chromium/18.0.1025.151 Chrome/18.0.1025.151 Safari/535.19'
p1020
asbasbasbag71
(g87
g73
NtRp1021
(dp1022
g76
(dp1023
sg85
g663
sg78
(lp1024
g71
(g92
g73
NtRp1025
(dp1026
g76
(dp1027
g96
g97
ssg85
g1021
sg78
(lp1028
S'is_jython'
p1029
asbag71
(g92
g73
NtRp1030
(dp1031
g76
(dp1032
g103
g104
ssg85
g1021
sg78
(lp1033
S':'
asbag71
(g92
g73
NtRp1034
(dp1035
g76
(dp1036
sg85
g1021
sg78
(lp1037
g71
(g72
g73
NtRp1038
(dp1039
g76
(dp1040
g84
I4
ssg85
g1034
sg78
(lp1041
g49
asbasbasbag71
(g87
g73
NtRp1042
(dp1043
g76
(dp1044
sg85
g663
sg78
(lp1045
g71
(g92
g73
NtRp1046
(dp1047
g76
(dp1048
g96
g97
ssg85
g1042
sg78
(lp1049
S'is_pypy'
p1050
asbag71
(g92
g73
NtRp1051
(dp1052
g76
(dp1053
g103
g104
ssg85
g1042
sg78
(lp1054
S':'
asbag71
(g92
g73
NtRp1055
(dp1056
g76
(dp1057
sg85
g1042
sg78
(lp1058
g71
(g72
g73
NtRp1059
(dp1060
g76
(dp1061
g84
I4
ssg85
g1055
sg78
(lp1062
g49
asbasbasbag71
(g87
g73
NtRp1063
(dp1064
g76
(dp1065
sg85
g663
sg78
(lp1066
g71
(g92
g73
NtRp1067
(dp1068
g76
(dp1069
g96
g97
ssg85
g1063
sg78
(lp1070
S'path_info'
p1071
asbag71
(g92
g73
NtRp1072
(dp1073
g76
(dp1074
g103
g104
ssg85
g1063
sg78
(lp1075
S':'
asbag71
(g92
g73
NtRp1076
(dp1077
g76
(dp1078
sg85
g1063
sg78
(lp1079
g71
(g72
g73
NtRp1080
(dp1081
g76
(dp1082
g84
I4
ssg85
g1076
sg78
(lp1083
S'/milo/appadmin/select/db'
p1084
asbasbasbag71
(g87
g73
NtRp1085
(dp1086
g76
(dp1087
sg85
g663
sg78
(lp1088
g71
(g92
g73
NtRp1089
(dp1090
g76
(dp1091
g96
g97
ssg85
g1085
sg78
(lp1092
S'query_string'
p1093
asbag71
(g92
g73
NtRp1094
(dp1095
g76
(dp1096
g103
g104
ssg85
g1085
sg78
(lp1097
S':'
asbag71
(g92
g73
NtRp1098
(dp1099
g76
(dp1100
sg85
g1085
sg78
(lp1101
g71
(g72
g73
NtRp1102
(dp1103
g76
(dp1104
g84
I4
ssg85
g1098
sg78
(lp1105
S'query=db.features.id%3E0'
p1106
asbasbasbag71
(g87
g73
NtRp1107
(dp1108
g76
(dp1109
sg85
g663
sg78
(lp1110
g71
(g92
g73
NtRp1111
(dp1112
g76
(dp1113
g96
g97
ssg85
g1107
sg78
(lp1114
S'remote_addr'
p1115
asbag71
(g92
g73
NtRp1116
(dp1117
g76
(dp1118
g103
g104
ssg85
g1107
sg78
(lp1119
S':'
asbag71
(g92
g73
NtRp1120
(dp1121
g76
(dp1122
sg85
g1107
sg78
(lp1123
g71
(g72
g73
NtRp1124
(dp1125
g76
(dp1126
g84
I4
ssg85
g1120
sg78
(lp1127
g216
asbasbasbag71
(g87
g73
NtRp1128
(dp1129
g76
(dp1130
sg85
g663
sg78
(lp1131
g71
(g92
g73
NtRp1132
(dp1133
g76
(dp1134
g96
g97
ssg85
g1128
sg78
(lp1135
S'remote_port'
p1136
asbag71
(g92
g73
NtRp1137
(dp1138
g76
(dp1139
g103
g104
ssg85
g1128
sg78
(lp1140
S':'
asbag71
(g92
g73
NtRp1141
(dp1142
g76
(dp1143
sg85
g1128
sg78
(lp1144
g71
(g72
g73
NtRp1145
(dp1146
g76
(dp1147
g84
I4
ssg85
g1141
sg78
(lp1148
S'57593'
p1149
asbasbasbag71
(g87
g73
NtRp1150
(dp1151
g76
(dp1152
sg85
g663
sg78
(lp1153
g71
(g92
g73
NtRp1154
(dp1155
g76
(dp1156
g96
g97
ssg85
g1150
sg78
(lp1157
S'request_method'
p1158
asbag71
(g92
g73
NtRp1159
(dp1160
g76
(dp1161
g103
g104
ssg85
g1150
sg78
(lp1162
S':'
asbag71
(g92
g73
NtRp1163
(dp1164
g76
(dp1165
sg85
g1150
sg78
(lp1166
g71
(g72
g73
NtRp1167
(dp1168
g76
(dp1169
g84
I4
ssg85
g1163
sg78
(lp1170
S'GET'
p1171
asbasbasbag71
(g87
g73
NtRp1172
(dp1173
g76
(dp1174
sg85
g663
sg78
(lp1175
g71
(g92
g73
NtRp1176
(dp1177
g76
(dp1178
g96
g97
ssg85
g1172
sg78
(lp1179
S'request_uri'
p1180
asbag71
(g92
g73
NtRp1181
(dp1182
g76
(dp1183
g103
g104
ssg85
g1172
sg78
(lp1184
S':'
asbag71
(g92
g73
NtRp1185
(dp1186
g76
(dp1187
sg85
g1172
sg78
(lp1188
g71
(g72
g73
NtRp1189
(dp1190
g76
(dp1191
g84
I4
ssg85
g1185
sg78
(lp1192
S'/milo/appadmin/select/db?query=db.features.id%3E0'
p1193
asbasbasbag71
(g87
g73
NtRp1194
(dp1195
g76
(dp1196
sg85
g663
sg78
(lp1197
g71
(g92
g73
NtRp1198
(dp1199
g76
(dp1200
g96
g97
ssg85
g1194
sg78
(lp1201
S'script_name'
p1202
asbag71
(g92
g73
NtRp1203
(dp1204
g76
(dp1205
g103
g104
ssg85
g1194
sg78
(lp1206
S':'
asbag71
(g92
g73
NtRp1207
(dp1208
g76
(dp1209
sg85
g1194
sg78
(lp1210
g71
(g72
g73
NtRp1211
(dp1212
g76
(dp1213
g84
I4
ssg85
g1207
sg78
(lp1214
S''
asbasbasbag71
(g87
g73
NtRp1215
(dp1216
g76
(dp1217
sg85
g663
sg78
(lp1218
g71
(g92
g73
NtRp1219
(dp1220
g76
(dp1221
g96
g97
ssg85
g1215
sg78
(lp1222
S'server_name'
p1223
asbag71
(g92
g73
NtRp1224
(dp1225
g76
(dp1226
g103
g104
ssg85
g1215
sg78
(lp1227
S':'
asbag71
(g92
g73
NtRp1228
(dp1229
g76
(dp1230
sg85
g1215
sg78
(lp1231
g71
(g72
g73
NtRp1232
(dp1233
g76
(dp1234
g84
I4
ssg85
g1228
sg78
(lp1235
S'whisperer'
p1236
asbasbasbag71
(g87
g73
NtRp1237
(dp1238
g76
(dp1239
sg85
g663
sg78
(lp1240
g71
(g92
g73
NtRp1241
(dp1242
g76
(dp1243
g96
g97
ssg85
g1237
sg78
(lp1244
S'server_port'
p1245
asbag71
(g92
g73
NtRp1246
(dp1247
g76
(dp1248
g103
g104
ssg85
g1237
sg78
(lp1249
S':'
asbag71
(g92
g73
NtRp1250
(dp1251
g76
(dp1252
sg85
g1237
sg78
(lp1253
g71
(g72
g73
NtRp1254
(dp1255
g76
(dp1256
g84
I4
ssg85
g1250
sg78
(lp1257
S'8000'
p1258
asbasbasbag71
(g87
g73
NtRp1259
(dp1260
g76
(dp1261
sg85
g663
sg78
(lp1262
g71
(g92
g73
NtRp1263
(dp1264
g76
(dp1265
g96
g97
ssg85
g1259
sg78
(lp1266
S'server_protocol'
p1267
asbag71
(g92
g73
NtRp1268
(dp1269
g76
(dp1270
g103
g104
ssg85
g1259
sg78
(lp1271
S':'
asbag71
(g92
g73
NtRp1272
(dp1273
g76
(dp1274
sg85
g1259
sg78
(lp1275
g71
(g72
g73
NtRp1276
(dp1277
g76
(dp1278
g84
I4
ssg85
g1272
sg78
(lp1279
S'HTTP/1.1'
p1280
asbasbasbag71
(g87
g73
NtRp1281
(dp1282
g76
(dp1283
sg85
g663
sg78
(lp1284
g71
(g92
g73
NtRp1285
(dp1286
g76
(dp1287
g96
g97
ssg85
g1281
sg78
(lp1288
S'server_software'
p1289
asbag71
(g92
g73
NtRp1290
(dp1291
g76
(dp1292
g103
g104
ssg85
g1281
sg78
(lp1293
S':'
asbag71
(g92
g73
NtRp1294
(dp1295
g76
(dp1296
sg85
g1281
sg78
(lp1297
g71
(g72
g73
NtRp1298
(dp1299
g76
(dp1300
g84
I4
ssg85
g1294
sg78
(lp1301
S'Rocket 1.2.4'
p1302
asbasbasbag71
(g87
g73
NtRp1303
(dp1304
g76
(dp1305
sg85
g663
sg78
(lp1306
g71
(g92
g73
NtRp1307
(dp1308
g76
(dp1309
g96
g97
ssg85
g1303
sg78
(lp1310
S'web2py_crontype'
p1311
asbag71
(g92
g73
NtRp1312
(dp1313
g76
(dp1314
g103
g104
ssg85
g1303
sg78
(lp1315
S':'
asbag71
(g92
g73
NtRp1316
(dp1317
g76
(dp1318
sg85
g1303
sg78
(lp1319
g71
(g72
g73
NtRp1320
(dp1321
g76
(dp1322
g84
I4
ssg85
g1316
sg78
(lp1323
S'hard'
p1324
asbasbasbag71
(g87
g73
NtRp1325
(dp1326
g76
(dp1327
sg85
g663
sg78
(lp1328
g71
(g92
g73
NtRp1329
(dp1330
g76
(dp1331
g96
g97
ssg85
g1325
sg78
(lp1332
S'web2py_original_uri'
p1333
asbag71
(g92
g73
NtRp1334
(dp1335
g76
(dp1336
g103
g104
ssg85
g1325
sg78
(lp1337
S':'
asbag71
(g92
g73
NtRp1338
(dp1339
g76
(dp1340
sg85
g1325
sg78
(lp1341
g71
(g72
g73
NtRp1342
(dp1343
g76
(dp1344
g84
I4
ssg85
g1338
sg78
(lp1345
S'/milo/appadmin/select/db?query=db.features.id%3E0'
p1346
asbasbasbag71
(g87
g73
NtRp1347
(dp1348
g76
(dp1349
sg85
g663
sg78
(lp1350
g71
(g92
g73
NtRp1351
(dp1352
g76
(dp1353
g96
g97
ssg85
g1347
sg78
(lp1354
S'web2py_path'
p1355
asbag71
(g92
g73
NtRp1356
(dp1357
g76
(dp1358
g103
g104
ssg85
g1347
sg78
(lp1359
S':'
asbag71
(g92
g73
NtRp1360
(dp1361
g76
(dp1362
sg85
g1347
sg78
(lp1363
g71
(g72
g73
NtRp1364
(dp1365
g76
(dp1366
g84
I4
ssg85
g1360
sg78
(lp1367
g710
asbasbasbag71
(g87
g73
NtRp1368
(dp1369
g76
(dp1370
sg85
g663
sg78
(lp1371
g71
(g92
g73
NtRp1372
(dp1373
g76
(dp1374
g96
g97
ssg85
g1368
sg78
(lp1375
S'web2py_version'
p1376
asbag71
(g92
g73
NtRp1377
(dp1378
g76
(dp1379
g103
g104
ssg85
g1368
sg78
(lp1380
S':'
asbag71
(g92
g73
NtRp1381
(dp1382
g76
(dp1383
sg85
g1368
sg78
(lp1384
g71
(g72
g73
NtRp1385
(dp1386
g76
(dp1387
g84
I4
ssg85
g1381
sg78
(lp1388
g71
(g80
g73
NtRp1389
(dp1390
g76
(dp1391
g84
I3
ssg85
Nsg78
(lp1392
g71
(g87
g73
NtRp1393
(dp1394
g76
(dp1395
sg85
g1389
sg78
(lp1396
g71
(g92
g73
NtRp1397
(dp1398
g76
(dp1399
sg85
g1393
sg78
(lp1400
g71
(g72
g73
NtRp1401
(dp1402
g76
(dp1403
g84
I3
ssg85
g1397
sg78
(lp1404
S'1'
asbasbasbag71
(g87
g73
NtRp1405
(dp1406
g76
(dp1407
sg85
g1389
sg78
(lp1408
g71
(g92
g73
NtRp1409
(dp1410
g76
(dp1411
sg85
g1405
sg78
(lp1412
g71
(g72
g73
NtRp1413
(dp1414
g76
(dp1415
g84
I3
ssg85
g1409
sg78
(lp1416
S'99'
p1417
asbasbasbag71
(g87
g73
NtRp1418
(dp1419
g76
(dp1420
sg85
g1389
sg78
(lp1421
g71
(g92
g73
NtRp1422
(dp1423
g76
(dp1424
sg85
g1418
sg78
(lp1425
g71
(g72
g73
NtRp1426
(dp1427
g76
(dp1428
g84
I3
ssg85
g1422
sg78
(lp1429
S'7'
asbasbasbag71
(g87
g73
NtRp1430
(dp1431
g76
(dp1432
sg85
g1389
sg78
(lp1433
g71
(g92
g73
NtRp1434
(dp1435
g76
(dp1436
sg85
g1430
sg78
(lp1437
g71
(g72
g73
NtRp1438
(dp1439
g76
(dp1440
g84
I3
ssg85
g1434
sg78
(lp1441
S'datetime.datetime(2012, 3, 4, 22, 12, 8)'
p1442
asbasbasbag71
(g87
g73
NtRp1443
(dp1444
g76
(dp1445
sg85
g1389
sg78
(lp1446
g71
(g92
g73
NtRp1447
(dp1448
g76
(dp1449
sg85
g1443
sg78
(lp1450
g71
(g72
g73
NtRp1451
(dp1452
g76
(dp1453
g84
I3
ssg85
g1447
sg78
(lp1454
S'stable'
p1455
asbasbasbasbasbasbasbag71
(g87
g73
NtRp1456
(dp1457
g76
(dp1458
sg85
g663
sg78
(lp1459
g71
(g92
g73
NtRp1460
(dp1461
g76
(dp1462
g96
g97
ssg85
g1456
sg78
(lp1463
S'wsgi_errors'
p1464
asbag71
(g92
g73
NtRp1465
(dp1466
g76
(dp1467
g103
g104
ssg85
g1456
sg78
(lp1468
S':'
asbag71
(g92
g73
NtRp1469
(dp1470
g76
(dp1471
sg85
g1456
sg78
(lp1472
g71
(g72
g73
NtRp1473
(dp1474
g76
(dp1475
g84
I4
ssg85
g1469
sg78
(lp1476
S"<open file '<stderr>', mode 'w' at 0x7f2e01109270>"
p1477
asbasbasbag71
(g87
g73
NtRp1478
(dp1479
g76
(dp1480
sg85
g663
sg78
(lp1481
g71
(g92
g73
NtRp1482
(dp1483
g76
(dp1484
g96
g97
ssg85
g1478
sg78
(lp1485
S'wsgi_file_wrapper'
p1486
asbag71
(g92
g73
NtRp1487
(dp1488
g76
(dp1489
g103
g104
ssg85
g1478
sg78
(lp1490
S':'
asbag71
(g92
g73
NtRp1491
(dp1492
g76
(dp1493
sg85
g1478
sg78
(lp1494
g71
(g72
g73
NtRp1495
(dp1496
g76
(dp1497
g84
I4
ssg85
g1491
sg78
(lp1498
S'<class wsgiref.util.FileWrapper at 0x1c1af58>'
p1499
asbasbasbag71
(g87
g73
NtRp1500
(dp1501
g76
(dp1502
sg85
g663
sg78
(lp1503
g71
(g92
g73
NtRp1504
(dp1505
g76
(dp1506
g96
g97
ssg85
g1500
sg78
(lp1507
S'wsgi_input'
p1508
asbag71
(g92
g73
NtRp1509
(dp1510
g76
(dp1511
g103
g104
ssg85
g1500
sg78
(lp1512
S':'
asbag71
(g92
g73
NtRp1513
(dp1514
g76
(dp1515
sg85
g1500
sg78
(lp1516
g71
(g72
g73
NtRp1517
(dp1518
g76
(dp1519
g84
I4
ssg85
g1513
sg78
(lp1520
S'<socket._fileobject object at 0x7f2df13f99d0>'
p1521
asbasbasbag71
(g87
g73
NtRp1522
(dp1523
g76
(dp1524
sg85
g663
sg78
(lp1525
g71
(g92
g73
NtRp1526
(dp1527
g76
(dp1528
g96
g97
ssg85
g1522
sg78
(lp1529
S'wsgi_multiprocess'
p1530
asbag71
(g92
g73
NtRp1531
(dp1532
g76
(dp1533
g103
g104
ssg85
g1522
sg78
(lp1534
S':'
asbag71
(g92
g73
NtRp1535
(dp1536
g76
(dp1537
sg85
g1522
sg78
(lp1538
g71
(g72
g73
NtRp1539
(dp1540
g76
(dp1541
g84
I4
ssg85
g1535
sg78
(lp1542
g49
asbasbasbag71
(g87
g73
NtRp1543
(dp1544
g76
(dp1545
sg85
g663
sg78
(lp1546
g71
(g92
g73
NtRp1547
(dp1548
g76
(dp1549
g96
g97
ssg85
g1543
sg78
(lp1550
S'wsgi_multithread'
p1551
asbag71
(g92
g73
NtRp1552
(dp1553
g76
(dp1554
g103
g104
ssg85
g1543
sg78
(lp1555
S':'
asbag71
(g92
g73
NtRp1556
(dp1557
g76
(dp1558
sg85
g1543
sg78
(lp1559
g71
(g72
g73
NtRp1560
(dp1561
g76
(dp1562
g84
I4
ssg85
g1556
sg78
(lp1563
S'True'
p1564
asbasbasbag71
(g87
g73
NtRp1565
(dp1566
g76
(dp1567
sg85
g663
sg78
(lp1568
g71
(g92
g73
NtRp1569
(dp1570
g76
(dp1571
g96
g97
ssg85
g1565
sg78
(lp1572
S'wsgi_run_once'
p1573
asbag71
(g92
g73
NtRp1574
(dp1575
g76
(dp1576
g103
g104
ssg85
g1565
sg78
(lp1577
S':'
asbag71
(g92
g73
NtRp1578
(dp1579
g76
(dp1580
sg85
g1565
sg78
(lp1581
g71
(g72
g73
NtRp1582
(dp1583
g76
(dp1584
g84
I4
ssg85
g1578
sg78
(lp1585
g49
asbasbasbag71
(g87
g73
NtRp1586
(dp1587
g76
(dp1588
sg85
g663
sg78
(lp1589
g71
(g92
g73
NtRp1590
(dp1591
g76
(dp1592
g96
g97
ssg85
g1586
sg78
(lp1593
S'wsgi_url_scheme'
p1594
asbag71
(g92
g73
NtRp1595
(dp1596
g76
(dp1597
g103
g104
ssg85
g1586
sg78
(lp1598
S':'
asbag71
(g92
g73
NtRp1599
(dp1600
g76
(dp1601
sg85
g1586
sg78
(lp1602
g71
(g72
g73
NtRp1603
(dp1604
g76
(dp1605
g84
I4
ssg85
g1599
sg78
(lp1606
S'http'
p1607
asbasbasbag71
(g87
g73
NtRp1608
(dp1609
g76
(dp1610
sg85
g663
sg78
(lp1611
g71
(g92
g73
NtRp1612
(dp1613
g76
(dp1614
g96
g97
ssg85
g1608
sg78
(lp1615
S'wsgi_version'
p1616
asbag71
(g92
g73
NtRp1617
(dp1618
g76
(dp1619
g103
g104
ssg85
g1608
sg78
(lp1620
S':'
asbag71
(g92
g73
NtRp1621
(dp1622
g76
(dp1623
sg85
g1608
sg78
(lp1624
g71
(g72
g73
NtRp1625
(dp1626
g76
(dp1627
g84
I4
ssg85
g1621
sg78
(lp1628
g71
(g80
g73
NtRp1629
(dp1630
g76
(dp1631
g84
I3
ssg85
Nsg78
(lp1632
g71
(g87
g73
NtRp1633
(dp1634
g76
(dp1635
sg85
g1629
sg78
(lp1636
g71
(g92
g73
NtRp1637
(dp1638
g76
(dp1639
sg85
g1633
sg78
(lp1640
g71
(g72
g73
NtRp1641
(dp1642
g76
(dp1643
g84
I3
ssg85
g1637
sg78
(lp1644
S'1'
asbasbasbag71
(g87
g73
NtRp1645
(dp1646
g76
(dp1647
sg85
g1629
sg78
(lp1648
g71
(g92
g73
NtRp1649
(dp1650
g76
(dp1651
sg85
g1645
sg78
(lp1652
g71
(g72
g73
NtRp1653
(dp1654
g76
(dp1655
g84
I3
ssg85
g1649
sg78
(lp1656
S'0'
asbasbasbasbasbasbasbasbasbasbasbag71
(g87
g73
NtRp1657
(dp1658
g76
(dp1659
sg85
g81
sg78
(lp1660
g71
(g92
g73
NtRp1661
(dp1662
g76
(dp1663
g96
g97
ssg85
g1657
sg78
(lp1664
S'extension'
p1665
asbag71
(g92
g73
NtRp1666
(dp1667
g76
(dp1668
g103
g104
ssg85
g1657
sg78
(lp1669
S':'
asbag71
(g92
g73
NtRp1670
(dp1671
g76
(dp1672
sg85
g1657
sg78
(lp1673
g71
(g72
g73
NtRp1674
(dp1675
g76
(dp1676
g84
I5
ssg85
g1670
sg78
(lp1677
S'html'
p1678
asbasbasbag71
(g87
g73
NtRp1679
(dp1680
g76
(dp1681
sg85
g81
sg78
(lp1682
g71
(g92
g73
NtRp1683
(dp1684
g76
(dp1685
g96
g97
ssg85
g1679
sg78
(lp1686
S'folder'
p1687
asbag71
(g92
g73
NtRp1688
(dp1689
g76
(dp1690
g103
g104
ssg85
g1679
sg78
(lp1691
S':'
asbag71
(g92
g73
NtRp1692
(dp1693
g76
(dp1694
sg85
g1679
sg78
(lp1695
g71
(g72
g73
NtRp1696
(dp1697
g76
(dp1698
g84
I5
ssg85
g1692
sg78
(lp1699
S'/home/goshawk/web2py/applications/milo/'
p1700
asbasbasbag71
(g87
g73
NtRp1701
(dp1702
g76
(dp1703
sg85
g81
sg78
(lp1704
g71
(g92
g73
NtRp1705
(dp1706
g76
(dp1707
g96
g97
ssg85
g1701
sg78
(lp1708
S'function'
p1709
asbag71
(g92
g73
NtRp1710
(dp1711
g76
(dp1712
g103
g104
ssg85
g1701
sg78
(lp1713
S':'
asbag71
(g92
g73
NtRp1714
(dp1715
g76
(dp1716
sg85
g1701
sg78
(lp1717
g71
(g72
g73
NtRp1718
(dp1719
g76
(dp1720
g84
I5
ssg85
g1714
sg78
(lp1721
S'select'
p1722
asbasbasbag71
(g87
g73
NtRp1723
(dp1724
g76
(dp1725
sg85
g81
sg78
(lp1726
g71
(g92
g73
NtRp1727
(dp1728
g76
(dp1729
g96
g97
ssg85
g1723
sg78
(lp1730
S'get_vars'
p1731
asbag71
(g92
g73
NtRp1732
(dp1733
g76
(dp1734
g103
g104
ssg85
g1723
sg78
(lp1735
S':'
asbag71
(g92
g73
NtRp1736
(dp1737
g76
(dp1738
sg85
g1723
sg78
(lp1739
g71
(g72
g73
NtRp1740
(dp1741
g76
(dp1742
g84
I5
ssg85
g1736
sg78
(lp1743
g71
(g80
g73
NtRp1744
(dp1745
g76
(dp1746
g84
I4
ssg85
Nsg78
(lp1747
g71
(g87
g73
NtRp1748
(dp1749
g76
(dp1750
sg85
g1744
sg78
(lp1751
g71
(g92
g73
NtRp1752
(dp1753
g76
(dp1754
g96
g97
ssg85
g1748
sg78
(lp1755
S'query'
p1756
asbag71
(g92
g73
NtRp1757
(dp1758
g76
(dp1759
g103
g104
ssg85
g1748
sg78
(lp1760
S':'
asbag71
(g92
g73
NtRp1761
(dp1762
g76
(dp1763
sg85
g1748
sg78
(lp1764
g71
(g72
g73
NtRp1765
(dp1766
g76
(dp1767
g84
I4
ssg85
g1761
sg78
(lp1768
S'db.features.id>0'
p1769
asbasbasbasbasbasbasbag71
(g87
g73
NtRp1770
(dp1771
g76
(dp1772
sg85
g81
sg78
(lp1773
g71
(g92
g73
NtRp1774
(dp1775
g76
(dp1776
g96
g97
ssg85
g1770
sg78
(lp1777
S'global_settings'
p1778
asbag71
(g92
g73
NtRp1779
(dp1780
g76
(dp1781
g103
g104
ssg85
g1770
sg78
(lp1782
S':'
asbag71
(g92
g73
NtRp1783
(dp1784
g76
(dp1785
sg85
g1770
sg78
(lp1786
g71
(g72
g73
NtRp1787
(dp1788
g76
(dp1789
g84
I5
ssg85
g1783
sg78
(lp1790
g71
(g80
g73
NtRp1791
(dp1792
g76
(dp1793
g84
I4
ssg85
Nsg78
(lp1794
g71
(g87
g73
NtRp1795
(dp1796
g76
(dp1797
sg85
g1791
sg78
(lp1798
g71
(g92
g73
NtRp1799
(dp1800
g76
(dp1801
g96
g97
ssg85
g1795
sg78
(lp1802
g675
asbag71
(g92
g73
NtRp1803
(dp1804
g76
(dp1805
g103
g104
ssg85
g1795
sg78
(lp1806
S':'
asbag71
(g92
g73
NtRp1807
(dp1808
g76
(dp1809
sg85
g1795
sg78
(lp1810
g71
(g72
g73
NtRp1811
(dp1812
g76
(dp1813
g84
I4
ssg85
g1807
sg78
(lp1814
S"set(['/home/goshawk/web2py/applications/milo/', '/home/goshawk/web2py/applications/admin/'])"
p1815
asbasbasbag71
(g87
g73
NtRp1816
(dp1817
g76
(dp1818
sg85
g1791
sg78
(lp1819
g71
(g92
g73
NtRp1820
(dp1821
g76
(dp1822
g96
g97
ssg85
g1816
sg78
(lp1823
g697
asbag71
(g92
g73
NtRp1824
(dp1825
g76
(dp1826
g103
g104
ssg85
g1816
sg78
(lp1827
S':'
asbag71
(g92
g73
NtRp1828
(dp1829
g76
(dp1830
sg85
g1816
sg78
(lp1831
g71
(g72
g73
NtRp1832
(dp1833
g76
(dp1834
g84
I4
ssg85
g1828
sg78
(lp1835
g710
asbasbasbag71
(g87
g73
NtRp1836
(dp1837
g76
(dp1838
sg85
g1791
sg78
(lp1839
g71
(g92
g73
NtRp1840
(dp1841
g76
(dp1842
g96
g97
ssg85
g1836
sg78
(lp1843
g719
asbag71
(g92
g73
NtRp1844
(dp1845
g76
(dp1846
g103
g104
ssg85
g1836
sg78
(lp1847
S':'
asbag71
(g92
g73
NtRp1848
(dp1849
g76
(dp1850
sg85
g1836
sg78
(lp1851
g71
(g72
g73
NtRp1852
(dp1853
g76
(dp1854
g84
I4
ssg85
g1848
sg78
(lp1855
g71
(g80
g73
NtRp1856
(dp1857
g76
(dp1858
g84
I3
ssg85
Nsg78
(lp1859
sbasbasbasbag71
(g87
g73
NtRp1860
(dp1861
g76
(dp1862
sg85
g1791
sg78
(lp1863
g71
(g92
g73
NtRp1864
(dp1865
g76
(dp1866
g96
g97
ssg85
g1860
sg78
(lp1867
g744
asbag71
(g92
g73
NtRp1868
(dp1869
g76
(dp1870
g103
g104
ssg85
g1860
sg78
(lp1871
S':'
asbag71
(g92
g73
NtRp1872
(dp1873
g76
(dp1874
sg85
g1860
sg78
(lp1875
g71
(g72
g73
NtRp1876
(dp1877
g76
(dp1878
g84
I4
ssg85
g1872
sg78
(lp1879
S"<Values at 0x1cee0e0: {'verbose': False, 'ip': '127.0.0.1', 'shutdown_timeout': 5, 'taskbar': False, 'nocron': False, 'pid_filename': 'httpserver.pid', 'maxthreads': None, 'softcron': False, 'server_name': 'whisperer', 'bpython': False, 'nogui': False, 'port': 8000, 'extcron': False, 'debuglevel': 30, 'test': None, 'folder': '/home/goshawk/web2py', 'config': '', 'import_models': False, 'winservice': '', 'shell': None, 'run': '', 'log_filename': 'httpserver.log', 'args': [''], 'socket_timeout': 5, 'ssl_ca_certificate': None, 'scheduler': None, 'profiler_filename': None, 'ssl_private_key': '', 'password': 'admin', 'request_queue_size': 5, 'ssl_certificate': '', 'cronjob': False, 'numthreads': None, 'quiet': False, 'interfaces': None, 'minthreads': None, 'timeout': 10, 'plain': False, 'nobanner': False}>"
p1880
asbasbasbag71
(g87
g73
NtRp1881
(dp1882
g76
(dp1883
sg85
g1791
sg78
(lp1884
g71
(g92
g73
NtRp1885
(dp1886
g76
(dp1887
g96
g97
ssg85
g1881
sg78
(lp1888
g766
asbag71
(g92
g73
NtRp1889
(dp1890
g76
(dp1891
g103
g104
ssg85
g1881
sg78
(lp1892
S':'
asbag71
(g92
g73
NtRp1893
(dp1894
g76
(dp1895
sg85
g1881
sg78
(lp1896
g71
(g72
g73
NtRp1897
(dp1898
g76
(dp1899
g84
I4
ssg85
g1893
sg78
(lp1900
S'set([])'
p1901
asbasbasbag71
(g87
g73
NtRp1902
(dp1903
g76
(dp1904
sg85
g1791
sg78
(lp1905
g71
(g92
g73
NtRp1906
(dp1907
g76
(dp1908
g96
g97
ssg85
g1902
sg78
(lp1909
g788
asbag71
(g92
g73
NtRp1910
(dp1911
g76
(dp1912
g103
g104
ssg85
g1902
sg78
(lp1913
S':'
asbag71
(g92
g73
NtRp1914
(dp1915
g76
(dp1916
sg85
g1902
sg78
(lp1917
g71
(g72
g73
NtRp1918
(dp1919
g76
(dp1920
g84
I4
ssg85
g1914
sg78
(lp1921
g49
asbasbasbag71
(g87
g73
NtRp1922
(dp1923
g76
(dp1924
sg85
g1791
sg78
(lp1925
g71
(g92
g73
NtRp1926
(dp1927
g76
(dp1928
g96
g97
ssg85
g1922
sg78
(lp1929
g809
asbag71
(g92
g73
NtRp1930
(dp1931
g76
(dp1932
g103
g104
ssg85
g1922
sg78
(lp1933
S':'
asbag71
(g92
g73
NtRp1934
(dp1935
g76
(dp1936
sg85
g1922
sg78
(lp1937
g71
(g72
g73
NtRp1938
(dp1939
g76
(dp1940
g84
I4
ssg85
g1934
sg78
(lp1941
g822
asbasbasbag71
(g87
g73
NtRp1942
(dp1943
g76
(dp1944
sg85
g1791
sg78
(lp1945
g71
(g92
g73
NtRp1946
(dp1947
g76
(dp1948
g96
g97
ssg85
g1942
sg78
(lp1949
g1029
asbag71
(g92
g73
NtRp1950
(dp1951
g76
(dp1952
g103
g104
ssg85
g1942
sg78
(lp1953
S':'
asbag71
(g92
g73
NtRp1954
(dp1955
g76
(dp1956
sg85
g1942
sg78
(lp1957
g71
(g72
g73
NtRp1958
(dp1959
g76
(dp1960
g84
I4
ssg85
g1954
sg78
(lp1961
g49
asbasbasbag71
(g87
g73
NtRp1962
(dp1963
g76
(dp1964
sg85
g1791
sg78
(lp1965
g71
(g92
g73
NtRp1966
(dp1967
g76
(dp1968
g96
g97
ssg85
g1962
sg78
(lp1969
g1050
asbag71
(g92
g73
NtRp1970
(dp1971
g76
(dp1972
g103
g104
ssg85
g1962
sg78
(lp1973
S':'
asbag71
(g92
g73
NtRp1974
(dp1975
g76
(dp1976
sg85
g1962
sg78
(lp1977
g71
(g72
g73
NtRp1978
(dp1979
g76
(dp1980
g84
I4
ssg85
g1974
sg78
(lp1981
g49
asbasbasbag71
(g87
g73
NtRp1982
(dp1983
g76
(dp1984
sg85
g1791
sg78
(lp1985
g71
(g92
g73
NtRp1986
(dp1987
g76
(dp1988
g96
g97
ssg85
g1982
sg78
(lp1989
g1311
asbag71
(g92
g73
NtRp1990
(dp1991
g76
(dp1992
g103
g104
ssg85
g1982
sg78
(lp1993
S':'
asbag71
(g92
g73
NtRp1994
(dp1995
g76
(dp1996
sg85
g1982
sg78
(lp1997
g71
(g72
g73
NtRp1998
(dp1999
g76
(dp2000
g84
I4
ssg85
g1994
sg78
(lp2001
g1324
asbasbasbag71
(g87
g73
NtRp2002
(dp2003
g76
(dp2004
sg85
g1791
sg78
(lp2005
g71
(g92
g73
NtRp2006
(dp2007
g76
(dp2008
g96
g97
ssg85
g2002
sg78
(lp2009
g1376
asbag71
(g92
g73
NtRp2010
(dp2011
g76
(dp2012
g103
g104
ssg85
g2002
sg78
(lp2013
S':'
asbag71
(g92
g73
NtRp2014
(dp2015
g76
(dp2016
sg85
g2002
sg78
(lp2017
g71
(g72
g73
NtRp2018
(dp2019
g76
(dp2020
g84
I4
ssg85
g2014
sg78
(lp2021
g71
(g80
g73
NtRp2022
(dp2023
g76
(dp2024
g84
I3
ssg85
Nsg78
(lp2025
g71
(g87
g73
NtRp2026
(dp2027
g76
(dp2028
sg85
g2022
sg78
(lp2029
g71
(g92
g73
NtRp2030
(dp2031
g76
(dp2032
sg85
g2026
sg78
(lp2033
g71
(g72
g73
NtRp2034
(dp2035
g76
(dp2036
g84
I3
ssg85
g2030
sg78
(lp2037
S'1'
asbasbasbag71
(g87
g73
NtRp2038
(dp2039
g76
(dp2040
sg85
g2022
sg78
(lp2041
g71
(g92
g73
NtRp2042
(dp2043
g76
(dp2044
sg85
g2038
sg78
(lp2045
g71
(g72
g73
NtRp2046
(dp2047
g76
(dp2048
g84
I3
ssg85
g2042
sg78
(lp2049
S'99'
p2050
asbasbasbag71
(g87
g73
NtRp2051
(dp2052
g76
(dp2053
sg85
g2022
sg78
(lp2054
g71
(g92
g73
NtRp2055
(dp2056
g76
(dp2057
sg85
g2051
sg78
(lp2058
g71
(g72
g73
NtRp2059
(dp2060
g76
(dp2061
g84
I3
ssg85
g2055
sg78
(lp2062
S'7'
asbasbasbag71
(g87
g73
NtRp2063
(dp2064
g76
(dp2065
sg85
g2022
sg78
(lp2066
g71
(g92
g73
NtRp2067
(dp2068
g76
(dp2069
sg85
g2063
sg78
(lp2070
g71
(g72
g73
NtRp2071
(dp2072
g76
(dp2073
g84
I3
ssg85
g2067
sg78
(lp2074
S'datetime.datetime(2012, 3, 4, 22, 12, 8)'
p2075
asbasbasbag71
(g87
g73
NtRp2076
(dp2077
g76
(dp2078
sg85
g2022
sg78
(lp2079
g71
(g92
g73
NtRp2080
(dp2081
g76
(dp2082
sg85
g2076
sg78
(lp2083
g71
(g72
g73
NtRp2084
(dp2085
g76
(dp2086
g84
I3
ssg85
g2080
sg78
(lp2087
g1455
asbasbasbasbasbasbasbasbasbasbasbag71
(g87
g73
NtRp2088
(dp2089
g76
(dp2090
sg85
g81
sg78
(lp2091
g71
(g92
g73
NtRp2092
(dp2093
g76
(dp2094
g96
g97
ssg85
g2088
sg78
(lp2095
S'is_https'
p2096
asbag71
(g92
g73
NtRp2097
(dp2098
g76
(dp2099
g103
g104
ssg85
g2088
sg78
(lp2100
S':'
asbag71
(g92
g73
NtRp2101
(dp2102
g76
(dp2103
sg85
g2088
sg78
(lp2104
g71
(g72
g73
NtRp2105
(dp2106
g76
(dp2107
g84
I5
ssg85
g2101
sg78
(lp2108
g49
asbasbasbag71
(g87
g73
NtRp2109
(dp2110
g76
(dp2111
sg85
g81
sg78
(lp2112
g71
(g92
g73
NtRp2113
(dp2114
g76
(dp2115
g96
g97
ssg85
g2109
sg78
(lp2116
S'is_local'
p2117
asbag71
(g92
g73
NtRp2118
(dp2119
g76
(dp2120
g103
g104
ssg85
g2109
sg78
(lp2121
S':'
asbag71
(g92
g73
NtRp2122
(dp2123
g76
(dp2124
sg85
g2109
sg78
(lp2125
g71
(g72
g73
NtRp2126
(dp2127
g76
(dp2128
g84
I5
ssg85
g2122
sg78
(lp2129
g1564
asbasbasbag71
(g87
g73
NtRp2130
(dp2131
g76
(dp2132
sg85
g81
sg78
(lp2133
g71
(g92
g73
NtRp2134
(dp2135
g76
(dp2136
g96
g97
ssg85
g2130
sg78
(lp2137
S'is_restful'
p2138
asbag71
(g92
g73
NtRp2139
(dp2140
g76
(dp2141
g103
g104
ssg85
g2130
sg78
(lp2142
S':'
asbag71
(g92
g73
NtRp2143
(dp2144
g76
(dp2145
sg85
g2130
sg78
(lp2146
g71
(g72
g73
NtRp2147
(dp2148
g76
(dp2149
g84
I5
ssg85
g2143
sg78
(lp2150
g49
asbasbasbag71
(g87
g73
NtRp2151
(dp2152
g76
(dp2153
sg85
g81
sg78
(lp2154
g71
(g92
g73
NtRp2155
(dp2156
g76
(dp2157
g96
g97
ssg85
g2151
sg78
(lp2158
S'now'
p2159
asbag71
(g92
g73
NtRp2160
(dp2161
g76
(dp2162
g103
g104
ssg85
g2151
sg78
(lp2163
S':'
asbag71
(g92
g73
NtRp2164
(dp2165
g76
(dp2166
sg85
g2151
sg78
(lp2167
g71
(g72
g73
NtRp2168
(dp2169
g76
(dp2170
g84
I5
ssg85
g2164
sg78
(lp2171
S'datetime.datetime(2012, 6, 24, 5, 43, 4, 691877)'
p2172
asbasbasbag71
(g87
g73
NtRp2173
(dp2174
g76
(dp2175
sg85
g81
sg78
(lp2176
g71
(g92
g73
NtRp2177
(dp2178
g76
(dp2179
g96
g97
ssg85
g2173
sg78
(lp2180
S'post_vars'
p2181
asbag71
(g92
g73
NtRp2182
(dp2183
g76
(dp2184
g103
g104
ssg85
g2173
sg78
(lp2185
S':'
asbag71
(g92
g73
NtRp2186
(dp2187
g76
(dp2188
sg85
g2173
sg78
(lp2189
g71
(g72
g73
NtRp2190
(dp2191
g76
(dp2192
g84
I5
ssg85
g2186
sg78
(lp2193
g71
(g80
g73
NtRp2194
(dp2195
g76
(dp2196
g84
I4
ssg85
Nsg78
(lp2197
sbasbasbasbag71
(g87
g73
NtRp2198
(dp2199
g76
(dp2200
sg85
g81
sg78
(lp2201
g71
(g92
g73
NtRp2202
(dp2203
g76
(dp2204
g96
g97
ssg85
g2198
sg78
(lp2205
S'raw_args'
p2206
asbag71
(g92
g73
NtRp2207
(dp2208
g76
(dp2209
g103
g104
ssg85
g2198
sg78
(lp2210
S':'
asbag71
(g92
g73
NtRp2211
(dp2212
g76
(dp2213
sg85
g2198
sg78
(lp2214
g71
(g72
g73
NtRp2215
(dp2216
g76
(dp2217
g84
I5
ssg85
g2211
sg78
(lp2218
g172
asbasbasbag71
(g87
g73
NtRp2219
(dp2220
g76
(dp2221
sg85
g81
sg78
(lp2222
g71
(g92
g73
NtRp2223
(dp2224
g76
(dp2225
g96
g97
ssg85
g2219
sg78
(lp2226
S'url'
p2227
asbag71
(g92
g73
NtRp2228
(dp2229
g76
(dp2230
g103
g104
ssg85
g2219
sg78
(lp2231
S':'
asbag71
(g92
g73
NtRp2232
(dp2233
g76
(dp2234
sg85
g2219
sg78
(lp2235
g71
(g72
g73
NtRp2236
(dp2237
g76
(dp2238
g84
I5
ssg85
g2232
sg78
(lp2239
S'/milo/appadmin/select/db'
p2240
asbasbasbag71
(g87
g73
NtRp2241
(dp2242
g76
(dp2243
sg85
g81
sg78
(lp2244
g71
(g92
g73
NtRp2245
(dp2246
g76
(dp2247
g96
g97
ssg85
g2241
sg78
(lp2248
S'utcnow'
p2249
asbag71
(g92
g73
NtRp2250
(dp2251
g76
(dp2252
g103
g104
ssg85
g2241
sg78
(lp2253
S':'
asbag71
(g92
g73
NtRp2254
(dp2255
g76
(dp2256
sg85
g2241
sg78
(lp2257
g71
(g72
g73
NtRp2258
(dp2259
g76
(dp2260
g84
I5
ssg85
g2254
sg78
(lp2261
S'datetime.datetime(2012, 6, 24, 3, 43, 4, 691901)'
p2262
asbasbasbag71
(g87
g73
NtRp2263
(dp2264
g76
(dp2265
sg85
g81
sg78
(lp2266
g71
(g92
g73
NtRp2267
(dp2268
g76
(dp2269
g96
g97
ssg85
g2263
sg78
(lp2270
S'uuid'
p2271
asbag71
(g92
g73
NtRp2272
(dp2273
g76
(dp2274
g103
g104
ssg85
g2263
sg78
(lp2275
S':'
asbag71
(g92
g73
NtRp2276
(dp2277
g76
(dp2278
sg85
g2263
sg78
(lp2279
g71
(g72
g73
NtRp2280
(dp2281
g76
(dp2282
g84
I5
ssg85
g2276
sg78
(lp2283
S'milo/127.0.0.1.2012-06-24.05-43-04.fc9203e4-91a6-43c4-bfee-b0518cf0f3f0'
p2284
asbasbasbag71
(g87
g73
NtRp2285
(dp2286
g76
(dp2287
sg85
g81
sg78
(lp2288
g71
(g92
g73
NtRp2289
(dp2290
g76
(dp2291
g96
g97
ssg85
g2285
sg78
(lp2292
S'vars'
p2293
asbag71
(g92
g73
NtRp2294
(dp2295
g76
(dp2296
g103
g104
ssg85
g2285
sg78
(lp2297
S':'
asbag71
(g92
g73
NtRp2298
(dp2299
g76
(dp2300
sg85
g2285
sg78
(lp2301
g71
(g72
g73
NtRp2302
(dp2303
g76
(dp2304
g84
I5
ssg85
g2298
sg78
(lp2305
g71
(g80
g73
NtRp2306
(dp2307
g76
(dp2308
g84
I4
ssg85
Nsg78
(lp2309
g71
(g87
g73
NtRp2310
(dp2311
g76
(dp2312
sg85
g2306
sg78
(lp2313
g71
(g92
g73
NtRp2314
(dp2315
g76
(dp2316
g96
g97
ssg85
g2310
sg78
(lp2317
g1756
asbag71
(g92
g73
NtRp2318
(dp2319
g76
(dp2320
g103
g104
ssg85
g2310
sg78
(lp2321
S':'
asbag71
(g92
g73
NtRp2322
(dp2323
g76
(dp2324
sg85
g2310
sg78
(lp2325
g71
(g72
g73
NtRp2326
(dp2327
g76
(dp2328
g84
I4
ssg85
g2322
sg78
(lp2329
g1769
asbasbasbasbasbasbasbag71
(g87
g73
NtRp2330
(dp2331
g76
(dp2332
sg85
g81
sg78
(lp2333
g71
(g92
g73
NtRp2334
(dp2335
g76
(dp2336
g96
g97
ssg85
g2330
sg78
(lp2337
S'wsgi'
p2338
asbag71
(g92
g73
NtRp2339
(dp2340
g76
(dp2341
g103
g104
ssg85
g2330
sg78
(lp2342
S':'
asbag71
(g92
g73
NtRp2343
(dp2344
g76
(dp2345
sg85
g2330
sg78
(lp2346
g71
(g72
g73
NtRp2347
(dp2348
g76
(dp2349
g84
I5
ssg85
g2343
sg78
(lp2350
g71
(g80
g73
NtRp2351
(dp2352
g76
(dp2353
g84
I4
ssg85
Nsg78
(lp2354
g71
(g87
g73
NtRp2355
(dp2356
g76
(dp2357
sg85
g2351
sg78
(lp2358
g71
(g92
g73
NtRp2359
(dp2360
g76
(dp2361
g96
g97
ssg85
g2355
sg78
(lp2362
S'environ'
p2363
asbag71
(g92
g73
NtRp2364
(dp2365
g76
(dp2366
g103
g104
ssg85
g2355
sg78
(lp2367
S':'
asbag71
(g92
g73
NtRp2368
(dp2369
g76
(dp2370
sg85
g2355
sg78
(lp2371
g71
(g72
g73
NtRp2372
(dp2373
g76
(dp2374
g84
I4
ssg85
g2368
sg78
(lp2375
g71
(g80
g73
NtRp2376
(dp2377
g76
(dp2378
g84
I3
ssg85
Nsg78
(lp2379
g71
(g87
g73
NtRp2380
(dp2381
g76
(dp2382
sg85
g2376
sg78
(lp2383
g71
(g92
g73
NtRp2384
(dp2385
g76
(dp2386
g96
g97
ssg85
g2380
sg78
(lp2387
S'HTTP_ACCEPT'
p2388
asbag71
(g92
g73
NtRp2389
(dp2390
g76
(dp2391
g103
g104
ssg85
g2380
sg78
(lp2392
S':'
asbag71
(g92
g73
NtRp2393
(dp2394
g76
(dp2395
sg85
g2380
sg78
(lp2396
g71
(g72
g73
NtRp2397
(dp2398
g76
(dp2399
g84
I3
ssg85
g2393
sg78
(lp2400
g844
asbasbasbag71
(g87
g73
NtRp2401
(dp2402
g76
(dp2403
sg85
g2376
sg78
(lp2404
g71
(g92
g73
NtRp2405
(dp2406
g76
(dp2407
g96
g97
ssg85
g2401
sg78
(lp2408
S'HTTP_ACCEPT_CHARSET'
p2409
asbag71
(g92
g73
NtRp2410
(dp2411
g76
(dp2412
g103
g104
ssg85
g2401
sg78
(lp2413
S':'
asbag71
(g92
g73
NtRp2414
(dp2415
g76
(dp2416
sg85
g2401
sg78
(lp2417
g71
(g72
g73
NtRp2418
(dp2419
g76
(dp2420
g84
I3
ssg85
g2414
sg78
(lp2421
g866
asbasbasbag71
(g87
g73
NtRp2422
(dp2423
g76
(dp2424
sg85
g2376
sg78
(lp2425
g71
(g92
g73
NtRp2426
(dp2427
g76
(dp2428
g96
g97
ssg85
g2422
sg78
(lp2429
S'HTTP_ACCEPT_ENCODING'
p2430
asbag71
(g92
g73
NtRp2431
(dp2432
g76
(dp2433
g103
g104
ssg85
g2422
sg78
(lp2434
S':'
asbag71
(g92
g73
NtRp2435
(dp2436
g76
(dp2437
sg85
g2422
sg78
(lp2438
g71
(g72
g73
NtRp2439
(dp2440
g76
(dp2441
g84
I3
ssg85
g2435
sg78
(lp2442
g888
asbasbasbag71
(g87
g73
NtRp2443
(dp2444
g76
(dp2445
sg85
g2376
sg78
(lp2446
g71
(g92
g73
NtRp2447
(dp2448
g76
(dp2449
g96
g97
ssg85
g2443
sg78
(lp2450
S'HTTP_ACCEPT_LANGUAGE'
p2451
asbag71
(g92
g73
NtRp2452
(dp2453
g76
(dp2454
g103
g104
ssg85
g2443
sg78
(lp2455
S':'
asbag71
(g92
g73
NtRp2456
(dp2457
g76
(dp2458
sg85
g2443
sg78
(lp2459
g71
(g72
g73
NtRp2460
(dp2461
g76
(dp2462
g84
I3
ssg85
g2456
sg78
(lp2463
g910
asbasbasbag71
(g87
g73
NtRp2464
(dp2465
g76
(dp2466
sg85
g2376
sg78
(lp2467
g71
(g92
g73
NtRp2468
(dp2469
g76
(dp2470
g96
g97
ssg85
g2464
sg78
(lp2471
S'HTTP_CONNECTION'
p2472
asbag71
(g92
g73
NtRp2473
(dp2474
g76
(dp2475
g103
g104
ssg85
g2464
sg78
(lp2476
S':'
asbag71
(g92
g73
NtRp2477
(dp2478
g76
(dp2479
sg85
g2464
sg78
(lp2480
g71
(g72
g73
NtRp2481
(dp2482
g76
(dp2483
g84
I3
ssg85
g2477
sg78
(lp2484
g932
asbasbasbag71
(g87
g73
NtRp2485
(dp2486
g76
(dp2487
sg85
g2376
sg78
(lp2488
g71
(g92
g73
NtRp2489
(dp2490
g76
(dp2491
g96
g97
ssg85
g2485
sg78
(lp2492
S'HTTP_COOKIE'
p2493
asbag71
(g92
g73
NtRp2494
(dp2495
g76
(dp2496
g103
g104
ssg85
g2485
sg78
(lp2497
S':'
asbag71
(g92
g73
NtRp2498
(dp2499
g76
(dp2500
sg85
g2485
sg78
(lp2501
g71
(g72
g73
NtRp2502
(dp2503
g76
(dp2504
g84
I3
ssg85
g2498
sg78
(lp2505
g954
asbasbasbag71
(g87
g73
NtRp2506
(dp2507
g76
(dp2508
sg85
g2376
sg78
(lp2509
g71
(g92
g73
NtRp2510
(dp2511
g76
(dp2512
g96
g97
ssg85
g2506
sg78
(lp2513
S'HTTP_HOST'
p2514
asbag71
(g92
g73
NtRp2515
(dp2516
g76
(dp2517
g103
g104
ssg85
g2506
sg78
(lp2518
S':'
asbag71
(g92
g73
NtRp2519
(dp2520
g76
(dp2521
sg85
g2506
sg78
(lp2522
g71
(g72
g73
NtRp2523
(dp2524
g76
(dp2525
g84
I3
ssg85
g2519
sg78
(lp2526
g976
asbasbasbag71
(g87
g73
NtRp2527
(dp2528
g76
(dp2529
sg85
g2376
sg78
(lp2530
g71
(g92
g73
NtRp2531
(dp2532
g76
(dp2533
g96
g97
ssg85
g2527
sg78
(lp2534
S'HTTP_REFERER'
p2535
asbag71
(g92
g73
NtRp2536
(dp2537
g76
(dp2538
g103
g104
ssg85
g2527
sg78
(lp2539
S':'
asbag71
(g92
g73
NtRp2540
(dp2541
g76
(dp2542
sg85
g2527
sg78
(lp2543
g71
(g72
g73
NtRp2544
(dp2545
g76
(dp2546
g84
I3
ssg85
g2540
sg78
(lp2547
g998
asbasbasbag71
(g87
g73
NtRp2548
(dp2549
g76
(dp2550
sg85
g2376
sg78
(lp2551
g71
(g92
g73
NtRp2552
(dp2553
g76
(dp2554
g96
g97
ssg85
g2548
sg78
(lp2555
S'HTTP_USER_AGENT'
p2556
asbag71
(g92
g73
NtRp2557
(dp2558
g76
(dp2559
g103
g104
ssg85
g2548
sg78
(lp2560
S':'
asbag71
(g92
g73
NtRp2561
(dp2562
g76
(dp2563
sg85
g2548
sg78
(lp2564
g71
(g72
g73
NtRp2565
(dp2566
g76
(dp2567
g84
I3
ssg85
g2561
sg78
(lp2568
g1020
asbasbasbag71
(g87
g73
NtRp2569
(dp2570
g76
(dp2571
sg85
g2376
sg78
(lp2572
g71
(g92
g73
NtRp2573
(dp2574
g76
(dp2575
g96
g97
ssg85
g2569
sg78
(lp2576
S'PATH_INFO'
p2577
asbag71
(g92
g73
NtRp2578
(dp2579
g76
(dp2580
g103
g104
ssg85
g2569
sg78
(lp2581
S':'
asbag71
(g92
g73
NtRp2582
(dp2583
g76
(dp2584
sg85
g2569
sg78
(lp2585
g71
(g72
g73
NtRp2586
(dp2587
g76
(dp2588
g84
I3
ssg85
g2582
sg78
(lp2589
g1084
asbasbasbag71
(g87
g73
NtRp2590
(dp2591
g76
(dp2592
sg85
g2376
sg78
(lp2593
g71
(g92
g73
NtRp2594
(dp2595
g76
(dp2596
g96
g97
ssg85
g2590
sg78
(lp2597
S'QUERY_STRING'
p2598
asbag71
(g92
g73
NtRp2599
(dp2600
g76
(dp2601
g103
g104
ssg85
g2590
sg78
(lp2602
S':'
asbag71
(g92
g73
NtRp2603
(dp2604
g76
(dp2605
sg85
g2590
sg78
(lp2606
g71
(g72
g73
NtRp2607
(dp2608
g76
(dp2609
g84
I3
ssg85
g2603
sg78
(lp2610
g1106
asbasbasbag71
(g87
g73
NtRp2611
(dp2612
g76
(dp2613
sg85
g2376
sg78
(lp2614
g71
(g92
g73
NtRp2615
(dp2616
g76
(dp2617
g96
g97
ssg85
g2611
sg78
(lp2618
S'REMOTE_ADDR'
p2619
asbag71
(g92
g73
NtRp2620
(dp2621
g76
(dp2622
g103
g104
ssg85
g2611
sg78
(lp2623
S':'
asbag71
(g92
g73
NtRp2624
(dp2625
g76
(dp2626
sg85
g2611
sg78
(lp2627
g71
(g72
g73
NtRp2628
(dp2629
g76
(dp2630
g84
I3
ssg85
g2624
sg78
(lp2631
g216
asbasbasbag71
(g87
g73
NtRp2632
(dp2633
g76
(dp2634
sg85
g2376
sg78
(lp2635
g71
(g92
g73
NtRp2636
(dp2637
g76
(dp2638
g96
g97
ssg85
g2632
sg78
(lp2639
S'REMOTE_PORT'
p2640
asbag71
(g92
g73
NtRp2641
(dp2642
g76
(dp2643
g103
g104
ssg85
g2632
sg78
(lp2644
S':'
asbag71
(g92
g73
NtRp2645
(dp2646
g76
(dp2647
sg85
g2632
sg78
(lp2648
g71
(g72
g73
NtRp2649
(dp2650
g76
(dp2651
g84
I3
ssg85
g2645
sg78
(lp2652
g1149
asbasbasbag71
(g87
g73
NtRp2653
(dp2654
g76
(dp2655
sg85
g2376
sg78
(lp2656
g71
(g92
g73
NtRp2657
(dp2658
g76
(dp2659
g96
g97
ssg85
g2653
sg78
(lp2660
S'REQUEST_METHOD'
p2661
asbag71
(g92
g73
NtRp2662
(dp2663
g76
(dp2664
g103
g104
ssg85
g2653
sg78
(lp2665
S':'
asbag71
(g92
g73
NtRp2666
(dp2667
g76
(dp2668
sg85
g2653
sg78
(lp2669
g71
(g72
g73
NtRp2670
(dp2671
g76
(dp2672
g84
I3
ssg85
g2666
sg78
(lp2673
g1171
asbasbasbag71
(g87
g73
NtRp2674
(dp2675
g76
(dp2676
sg85
g2376
sg78
(lp2677
g71
(g92
g73
NtRp2678
(dp2679
g76
(dp2680
g96
g97
ssg85
g2674
sg78
(lp2681
S'REQUEST_URI'
p2682
asbag71
(g92
g73
NtRp2683
(dp2684
g76
(dp2685
g103
g104
ssg85
g2674
sg78
(lp2686
S':'
asbag71
(g92
g73
NtRp2687
(dp2688
g76
(dp2689
sg85
g2674
sg78
(lp2690
g71
(g72
g73
NtRp2691
(dp2692
g76
(dp2693
g84
I3
ssg85
g2687
sg78
(lp2694
g1193
asbasbasbag71
(g87
g73
NtRp2695
(dp2696
g76
(dp2697
sg85
g2376
sg78
(lp2698
g71
(g92
g73
NtRp2699
(dp2700
g76
(dp2701
g96
g97
ssg85
g2695
sg78
(lp2702
S'SCRIPT_NAME'
p2703
asbag71
(g92
g73
NtRp2704
(dp2705
g76
(dp2706
g103
g104
ssg85
g2695
sg78
(lp2707
S':'
asbag71
(g92
g73
NtRp2708
(dp2709
g76
(dp2710
sg85
g2695
sg78
(lp2711
g71
(g72
g73
NtRp2712
(dp2713
g76
(dp2714
g84
I3
ssg85
g2708
sg78
(lp2715
S''
asbasbasbag71
(g87
g73
NtRp2716
(dp2717
g76
(dp2718
sg85
g2376
sg78
(lp2719
g71
(g92
g73
NtRp2720
(dp2721
g76
(dp2722
g96
g97
ssg85
g2716
sg78
(lp2723
S'SERVER_NAME'
p2724
asbag71
(g92
g73
NtRp2725
(dp2726
g76
(dp2727
g103
g104
ssg85
g2716
sg78
(lp2728
S':'
asbag71
(g92
g73
NtRp2729
(dp2730
g76
(dp2731
sg85
g2716
sg78
(lp2732
g71
(g72
g73
NtRp2733
(dp2734
g76
(dp2735
g84
I3
ssg85
g2729
sg78
(lp2736
g1236
asbasbasbag71
(g87
g73
NtRp2737
(dp2738
g76
(dp2739
sg85
g2376
sg78
(lp2740
g71
(g92
g73
NtRp2741
(dp2742
g76
(dp2743
g96
g97
ssg85
g2737
sg78
(lp2744
S'SERVER_PORT'
p2745
asbag71
(g92
g73
NtRp2746
(dp2747
g76
(dp2748
g103
g104
ssg85
g2737
sg78
(lp2749
S':'
asbag71
(g92
g73
NtRp2750
(dp2751
g76
(dp2752
sg85
g2737
sg78
(lp2753
g71
(g72
g73
NtRp2754
(dp2755
g76
(dp2756
g84
I3
ssg85
g2750
sg78
(lp2757
g1258
asbasbasbag71
(g87
g73
NtRp2758
(dp2759
g76
(dp2760
sg85
g2376
sg78
(lp2761
g71
(g92
g73
NtRp2762
(dp2763
g76
(dp2764
g96
g97
ssg85
g2758
sg78
(lp2765
S'SERVER_PROTOCOL'
p2766
asbag71
(g92
g73
NtRp2767
(dp2768
g76
(dp2769
g103
g104
ssg85
g2758
sg78
(lp2770
S':'
asbag71
(g92
g73
NtRp2771
(dp2772
g76
(dp2773
sg85
g2758
sg78
(lp2774
g71
(g72
g73
NtRp2775
(dp2776
g76
(dp2777
g84
I3
ssg85
g2771
sg78
(lp2778
g1280
asbasbasbag71
(g87
g73
NtRp2779
(dp2780
g76
(dp2781
sg85
g2376
sg78
(lp2782
g71
(g92
g73
NtRp2783
(dp2784
g76
(dp2785
g96
g97
ssg85
g2779
sg78
(lp2786
S'SERVER_SOFTWARE'
p2787
asbag71
(g92
g73
NtRp2788
(dp2789
g76
(dp2790
g103
g104
ssg85
g2779
sg78
(lp2791
S':'
asbag71
(g92
g73
NtRp2792
(dp2793
g76
(dp2794
sg85
g2779
sg78
(lp2795
g71
(g72
g73
NtRp2796
(dp2797
g76
(dp2798
g84
I3
ssg85
g2792
sg78
(lp2799
g1302
asbasbasbag71
(g87
g73
NtRp2800
(dp2801
g76
(dp2802
sg85
g2376
sg78
(lp2803
g71
(g92
g73
NtRp2804
(dp2805
g76
(dp2806
g96
g97
ssg85
g2800
sg78
(lp2807
S'WEB2PY_ORIGINAL_URI'
p2808
asbag71
(g92
g73
NtRp2809
(dp2810
g76
(dp2811
g103
g104
ssg85
g2800
sg78
(lp2812
S':'
asbag71
(g92
g73
NtRp2813
(dp2814
g76
(dp2815
sg85
g2800
sg78
(lp2816
g71
(g72
g73
NtRp2817
(dp2818
g76
(dp2819
g84
I3
ssg85
g2813
sg78
(lp2820
g1346
asbasbasbag71
(g87
g73
NtRp2821
(dp2822
g76
(dp2823
sg85
g2376
sg78
(lp2824
g71
(g92
g73
NtRp2825
(dp2826
g76
(dp2827
g96
g97
ssg85
g2821
sg78
(lp2828
S'wsgi.errors'
p2829
asbag71
(g92
g73
NtRp2830
(dp2831
g76
(dp2832
g103
g104
ssg85
g2821
sg78
(lp2833
S':'
asbag71
(g92
g73
NtRp2834
(dp2835
g76
(dp2836
sg85
g2821
sg78
(lp2837
g71
(g72
g73
NtRp2838
(dp2839
g76
(dp2840
g84
I3
ssg85
g2834
sg78
(lp2841
S"<open file '<stderr>', mode 'w' at 0x7f2e01109270>"
p2842
asbasbasbag71
(g87
g73
NtRp2843
(dp2844
g76
(dp2845
sg85
g2376
sg78
(lp2846
g71
(g92
g73
NtRp2847
(dp2848
g76
(dp2849
g96
g97
ssg85
g2843
sg78
(lp2850
S'wsgi.file_wrapper'
p2851
asbag71
(g92
g73
NtRp2852
(dp2853
g76
(dp2854
g103
g104
ssg85
g2843
sg78
(lp2855
S':'
asbag71
(g92
g73
NtRp2856
(dp2857
g76
(dp2858
sg85
g2843
sg78
(lp2859
g71
(g72
g73
NtRp2860
(dp2861
g76
(dp2862
g84
I3
ssg85
g2856
sg78
(lp2863
S'<class wsgiref.util.FileWrapper at 0x1c1af58>'
p2864
asbasbasbag71
(g87
g73
NtRp2865
(dp2866
g76
(dp2867
sg85
g2376
sg78
(lp2868
g71
(g92
g73
NtRp2869
(dp2870
g76
(dp2871
g96
g97
ssg85
g2865
sg78
(lp2872
S'wsgi.input'
p2873
asbag71
(g92
g73
NtRp2874
(dp2875
g76
(dp2876
g103
g104
ssg85
g2865
sg78
(lp2877
S':'
asbag71
(g92
g73
NtRp2878
(dp2879
g76
(dp2880
sg85
g2865
sg78
(lp2881
g71
(g72
g73
NtRp2882
(dp2883
g76
(dp2884
g84
I3
ssg85
g2878
sg78
(lp2885
S'<cStringIO.StringO object at 0x7f2de03eec00>'
p2886
asbasbasbag71
(g87
g73
NtRp2887
(dp2888
g76
(dp2889
sg85
g2376
sg78
(lp2890
g71
(g92
g73
NtRp2891
(dp2892
g76
(dp2893
g96
g97
ssg85
g2887
sg78
(lp2894
S'wsgi.multiprocess'
p2895
asbag71
(g92
g73
NtRp2896
(dp2897
g76
(dp2898
g103
g104
ssg85
g2887
sg78
(lp2899
S':'
asbag71
(g92
g73
NtRp2900
(dp2901
g76
(dp2902
sg85
g2887
sg78
(lp2903
g71
(g72
g73
NtRp2904
(dp2905
g76
(dp2906
g84
I3
ssg85
g2900
sg78
(lp2907
g49
asbasbasbag71
(g87
g73
NtRp2908
(dp2909
g76
(dp2910
sg85
g2376
sg78
(lp2911
g71
(g92
g73
NtRp2912
(dp2913
g76
(dp2914
g96
g97
ssg85
g2908
sg78
(lp2915
S'wsgi.multithread'
p2916
asbag71
(g92
g73
NtRp2917
(dp2918
g76
(dp2919
g103
g104
ssg85
g2908
sg78
(lp2920
S':'
asbag71
(g92
g73
NtRp2921
(dp2922
g76
(dp2923
sg85
g2908
sg78
(lp2924
g71
(g72
g73
NtRp2925
(dp2926
g76
(dp2927
g84
I3
ssg85
g2921
sg78
(lp2928
g1564
asbasbasbag71
(g87
g73
NtRp2929
(dp2930
g76
(dp2931
sg85
g2376
sg78
(lp2932
g71
(g92
g73
NtRp2933
(dp2934
g76
(dp2935
g96
g97
ssg85
g2929
sg78
(lp2936
S'wsgi.run_once'
p2937
asbag71
(g92
g73
NtRp2938
(dp2939
g76
(dp2940
g103
g104
ssg85
g2929
sg78
(lp2941
S':'
asbag71
(g92
g73
NtRp2942
(dp2943
g76
(dp2944
sg85
g2929
sg78
(lp2945
g71
(g72
g73
NtRp2946
(dp2947
g76
(dp2948
g84
I3
ssg85
g2942
sg78
(lp2949
g49
asbasbasbag71
(g87
g73
NtRp2950
(dp2951
g76
(dp2952
sg85
g2376
sg78
(lp2953
g71
(g92
g73
NtRp2954
(dp2955
g76
(dp2956
g96
g97
ssg85
g2950
sg78
(lp2957
S'wsgi.url_scheme'
p2958
asbag71
(g92
g73
NtRp2959
(dp2960
g76
(dp2961
g103
g104
ssg85
g2950
sg78
(lp2962
S':'
asbag71
(g92
g73
NtRp2963
(dp2964
g76
(dp2965
sg85
g2950
sg78
(lp2966
g71
(g72
g73
NtRp2967
(dp2968
g76
(dp2969
g84
I3
ssg85
g2963
sg78
(lp2970
g1607
asbasbasbag71
(g87
g73
NtRp2971
(dp2972
g76
(dp2973
sg85
g2376
sg78
(lp2974
g71
(g92
g73
NtRp2975
(dp2976
g76
(dp2977
g96
g97
ssg85
g2971
sg78
(lp2978
S'wsgi.version'
p2979
asbag71
(g92
g73
NtRp2980
(dp2981
g76
(dp2982
g103
g104
ssg85
g2971
sg78
(lp2983
S':'
asbag71
(g92
g73
NtRp2984
(dp2985
g76
(dp2986
sg85
g2971
sg78
(lp2987
g71
(g72
g73
NtRp2988
(dp2989
g76
(dp2990
g84
I3
ssg85
g2984
sg78
(lp2991
S'1'
asbasbasbasbasbasbasbasbasbasbasbasbasbsS'frames'
p2992
(lp2993
(dp2994
S'file'
p2995
S'/home/goshawk/web2py/gluon/restricted.py'
p2996
sS'dump'
p2997
(dp2998
S'environment'
p2999
S"{'A': <class 'gluon.html.A'>, 'Auth': <class 'gluon.tools.Auth'>, 'B': <class 'gluon.html.B'>, 'BEAUTIFY': <class 'gluon.html.BEAUTIFY'>, 'BODY': <class 'gluon.html.BODY'>, 'BR': <class 'gluon.html.BR'>, 'BUTTON': <class 'gluon.html.BUTTON'>, 'CAT': <class 'gluon.html.CAT'>, 'CENTER': <class 'gluon.html.CENTER'>, 'CLEANUP': <class 'gluon.validators.CLEANUP'>, ...}"
p3000
sS'ccode'
p3001
S'<code object <module> at 0x7f2df13f9630, file "/.../web2py/applications/milo/models/db.py", line 12>'
p3002
ssS'lnum'
p3003
I205
sS'lines'
p3004
(dp3005
I200
S'    try:'
p3006
sI201
S'        if type(code) == types.CodeType:'
p3007
sI202
S'            ccode = code'
p3008
sI203
S'        else:'
p3009
sI204
S'            ccode = compile2(code,layer)'
p3010
sI205
S'        exec ccode in environment'
p3011
sI206
S'    except HTTP:'
p3012
sI207
S'        raise'
p3013
sI208
S'    except RestrictedError:'
p3014
sI209
S'        # do not encapsulate (obfuscate) the original RestrictedError'
p3015
ssS'call'
p3016
S'(code="# -*- coding: utf-8 -*-\\n\\n#######################...es),\\n        Field(\'times\', \'integer\')\\n        )\\n", environment={\'A\': <class \'gluon.html.A\'>, \'Auth\': <class \'gluon.tools.Auth\'>, \'B\': <class \'gluon.html.B\'>, \'BEAUTIFY\': <class \'gluon.html.BEAUTIFY\'>, \'BODY\': <class \'gluon.html.BODY\'>, \'BR\': <class \'gluon.html.BR\'>, \'BUTTON\': <class \'gluon.html.BUTTON\'>, \'CAT\': <class \'gluon.html.CAT\'>, \'CENTER\': <class \'gluon.html.CENTER\'>, \'CLEANUP\': <class \'gluon.validators.CLEANUP\'>, ...}, layer=\'/home/goshawk/web2py/applications/milo/models/db.py\')'
p3017
sS'func'
p3018
S'restricted'
p3019
sa(dp3020
g2995
S'/home/goshawk/web2py/applications/milo/models/db.py'
p3021
sg2997
(dp3022
S'imdb'
p3023
S"<module 'imdb' from '/usr/local/lib/python2.7/dist-packages/imdb/__init__.pyc'>"
p3024
sS'imdb_connection_str'
p3025
S"'postgres://imdb:imdbsecret@localhost/imdb'"
p3026
sS'imdb.IMDb'
p3027
S'<function IMDb>'
p3028
sS'im'
p3029
S'undefined'
p3030
sS'uri'
p3031
g3030
ssg3003
I86
sg3004
(dp3032
I81
S''
sI82
S'import imdb'
p3033
sI83
S''
sI84
S"imdb_connection_str = 'postgres://imdb:imdbsecret@localhost/imdb'"
p3034
sI85
S''
sI86
S"im = imdb.IMDb('sql', uri=imdb_connection_str)"
p3035
sI87
S''
sI88
S''
sI89
S"db.define_table('users',"
p3036
sI90
S"        Field('name'),"
p3037
ssg3016
S'()'
p3038
sg3018
S'<module>'
p3039
sa(dp3040
g2995
S'/usr/local/lib/python2.7/dist-packages/imdb/__init__.py'
p3041
sg2997
(dp3042
S'keywords'
p3043
S"{'uri': 'postgres://imdb:imdbsecret@localhost/imdb'}"
p3044
sS'arguments'
p3045
S'()'
p3046
sS'IMDbSqlAccessSystem'
p3047
S'<class imdb.parser.sql.IMDbSqlAccessSystem>'
p3048
ssg3003
I199
sg3004
(dp3049
I194
S"    elif accessSystem in ('sql', 'db', 'database'):"
p3050
sI195
S'        try:'
p3051
sI196
S'            from parser.sql import IMDbSqlAccessSystem'
p3052
sI197
S'        except ImportError:'
p3053
sI198
S"            raise IMDbError('the sql access system is not installed')"
p3054
sI199
S'        return IMDbSqlAccessSystem(*arguments, **keywords)'
p3055
sI200
S'    else:'
p3056
sI201
S'        raise IMDbError(\'unknown kind of data access system: "%s"\' \\'
p3057
sI202
S'                            % accessSystem)'
p3058
sI203
S''
ssg3016
S"(accessSystem='sql', *arguments=(), **keywords={'uri': 'postgres://imdb:imdbsecret@localhost/imdb'})"
p3059
sg3018
S'IMDb'
p3060
sa(dp3061
g2995
S'/usr/local/lib/python2.7/dist-packages/imdb/parser/sql/__init__.py'
p3062
sg2997
(dp3063
S'self'
p3064
S'<imdb.parser.sql.IMDbSqlAccessSystem instance>'
p3065
sS'uri'
p3066
S"'postgres://imdb:imdbsecret@localhost/imdb'"
p3067
sS'setConnection'
p3068
S'<function setConnection>'
p3069
sS'DB_TABLES'
p3070
S"[<TableAdapter(table=Table('name', MetaData(Engin...able=<name>), schema=None)) [id=139835284593232]>, <TableAdapter(table=Table('char_name', MetaData(...<char_name>), schema=None)) [id=139835284613136]>, <TableAdapter(table=Table('company_name', MetaDa...mpany_name>), schema=None)) [id=139835284624528]>, <TableAdapter(table=Table('kind_type', MetaData(...<kind_type>), schema=None)) [id=139835285164304]>, <TableAdapter(table=Table('title', MetaData(Engi...ble=<title>), schema=None)) [id=139835285165840]>, <TableAdapter(table=Table('company_type', MetaDa...mpany_type>), schema=None)) [id=139835285187024]>, <TableAdapter(table=Table('aka_name', MetaData(E...=<aka_name>), schema=None)) [id=139835285188560]>, <TableAdapter(table=Table('aka_title', MetaData(...<aka_title>), schema=None)) [id=139835285208464]>, <TableAdapter(table=Table('role_type', MetaData(...lable=False), schema=None)) [id=139835285242000]>, <TableAdapter(table=Table('cast_info', MetaData(...lable=False), schema=None)) [id=139835285243536]>, <TableAdapter(table=Table('comp_cast_type', Meta...lable=False), schema=None)) [id=139835285259024]>, <TableAdapter(table=Table('complete_cast', MetaD...lable=False), schema=None)) [id=139835285260560]>, <TableAdapter(table=Table('info_type', MetaData(...lable=False), schema=None)) [id=139835285275088]>, <TableAdapter(table=Table('link_type', MetaData(...lable=False), schema=None)) [id=139835285276624]>, <TableAdapter(table=Table('keyword', MetaData(En...e=<keyword>), schema=None)) [id=139835285278160]>, <TableAdapter(table=Table('movie_keyword', MetaD...lable=False), schema=None)) [id=139835285292368]>, <TableAdapter(table=Table('movie_link', MetaData...lable=False), schema=None)) [id=139835285294224]>, <TableAdapter(table=Table('movie_info', MetaData...movie_info>), schema=None)) [id=139835285312848]>, <TableAdapter(table=Table('movie_info_idx', Meta...e_info_idx>), schema=None)) [id=139835285315344]>, <TableAdapter(table=Table('movie_companies', Met..._companies>), schema=None)) [id=139835285330192]>, ...]"
p3071
sS'self._connection'
p3072
g3030
ssg3003
I595
sg3004
(dp3073
I590
S'        else:'
p3074
sI591
S"            raise IMDbError('unable to use any ORM in %s' % str(useORM))"
p3075
sI592
S'        # Set the connection to the database.'
p3076
sI593
S"        self._sql_logger.debug('connecting to %s', uri)"
p3077
sI594
S'        try:'
p3078
sI595
S'            self._connection = setConnection(uri, DB_TABLES)'
p3079
sI596
S'        except AssertionError, e:'
p3080
sI597
S'            raise IMDbDataAccessError( \\'
p3081
sI598
S"                    'unable to connect to the database server; ' + \\"
p3082
sI599
S'                    \'complete message: "%s"\' % str(e))'
p3083
ssg3016
S"(self=<imdb.parser.sql.IMDbSqlAccessSystem instance>, uri='postgres://imdb:imdbsecret@localhost/imdb', adultSearch=1, useORM=('sqlobject', 'sqlalchemy'), *arguments=(), **keywords={})"
p3084
sg3018
g26
sa(dp3085
g2995
S'/usr/local/lib/python2.7/dist-packages/imdb/parser/sql/alchemyadapter.py'
p3086
sg2997
(dp3087
S'engine'
p3088
S'Engine(postgres://imdb:imdbsecret@localhost/imdb)'
p3089
sS'eng_conn'
p3090
g3030
sS'engine.connect'
p3091
S'<bound method Engine.connect of Engine(postgres://imdb:imdbsecret@localhost/imdb)>'
p3092
ssg3003
I486
sg3004
(dp3093
I481
S'        # Try to work-around a possible bug of the ibm_db DB2 driver.'
p3094
sI482
S"        params['convert_unicode'] = True"
p3095
sI483
S'    # XXX: is this the best way to connect?'
p3096
sI484
S'    engine = create_engine(uri, **params)'
p3097
sI485
S'    metadata.bind = engine'
p3098
sI486
S'    eng_conn = engine.connect()'
p3099
sI487
S"    if uri.startswith('sqlite'):"
p3100
sI488
S'        major = sys.version_info[0]'
p3101
sI489
S'        minor = sys.version_info[1]'
p3102
sI490
S'        if major > 2 or (major == 2 and minor > 5):'
p3103
ssg3016
S"(uri='postgres://imdb:imdbsecret@localhost/imdb', tables=[<TableAdapter(table=Table('name', MetaData(Engin...able=<name>), schema=None)) [id=139835284593232]>, <TableAdapter(table=Table('char_name', MetaData(...<char_name>), schema=None)) [id=139835284613136]>, <TableAdapter(table=Table('company_name', MetaDa...mpany_name>), schema=None)) [id=139835284624528]>, <TableAdapter(table=Table('kind_type', MetaData(...<kind_type>), schema=None)) [id=139835285164304]>, <TableAdapter(table=Table('title', MetaData(Engi...ble=<title>), schema=None)) [id=139835285165840]>, <TableAdapter(table=Table('company_type', MetaDa...mpany_type>), schema=None)) [id=139835285187024]>, <TableAdapter(table=Table('aka_name', MetaData(E...=<aka_name>), schema=None)) [id=139835285188560]>, <TableAdapter(table=Table('aka_title', MetaData(...<aka_title>), schema=None)) [id=139835285208464]>, <TableAdapter(table=Table('role_type', MetaData(...lable=False), schema=None)) [id=139835285242000]>, <TableAdapter(table=Table('cast_info', MetaData(...lable=False), schema=None)) [id=139835285243536]>, <TableAdapter(table=Table('comp_cast_type', Meta...lable=False), schema=None)) [id=139835285259024]>, <TableAdapter(table=Table('complete_cast', MetaD...lable=False), schema=None)) [id=139835285260560]>, <TableAdapter(table=Table('info_type', MetaData(...lable=False), schema=None)) [id=139835285275088]>, <TableAdapter(table=Table('link_type', MetaData(...lable=False), schema=None)) [id=139835285276624]>, <TableAdapter(table=Table('keyword', MetaData(En...e=<keyword>), schema=None)) [id=139835285278160]>, <TableAdapter(table=Table('movie_keyword', MetaD...lable=False), schema=None)) [id=139835285292368]>, <TableAdapter(table=Table('movie_link', MetaData...lable=False), schema=None)) [id=139835285294224]>, <TableAdapter(table=Table('movie_info', MetaData...movie_info>), schema=None)) [id=139835285312848]>, <TableAdapter(table=Table('movie_info_idx', Meta...e_info_idx>), schema=None)) [id=139835285315344]>, <TableAdapter(table=Table('movie_companies', Met..._companies>), schema=None)) [id=139835285330192]>, ...], encoding='utf8', debug=False)"
p3104
sg3018
S'setConnection'
p3105
sa(dp3106
g2995
S'/usr/local/lib/python2.7/dist-packages/SQLAlchemy-0.7.0-py2.7-linux-x86_64.egg/sqlalchemy/engine/base.py'
p3107
sg2997
(dp3108
S'self'
p3109
S'Engine(postgres://imdb:imdbsecret@localhost/imdb)'
p3110
sS'self._connection_cls'
p3111
S"<class 'sqlalchemy.engine.base.Connection'>"
p3112
sS'kwargs'
p3113
S'{}'
p3114
ssg3003
I2080
sg3004
(dp3115
I2080
S'        return self._connection_cls(self, **kwargs)'
p3116
sI2081
S''
sI2082
S'    def contextual_connect(self, close_with_result=False, **kwargs):'
p3117
sI2083
S'        """Return a :class:`.Connection` object which may be part of some ongoing context.'
p3118
sI2084
S''
sI2075
S'        returning it back to the :class:`.Pool` after the :meth:`.Connection.close`'
p3119
sI2076
S'        method is called.'
p3120
sI2077
S''
sI2078
S'        """'
p3121
sI2079
S''
ssg3016
S'(self=Engine(postgres://imdb:imdbsecret@localhost/imdb), **kwargs={})'
p3122
sg3018
S'connect'
p3123
sa(dp3124
g2995
S'/usr/local/lib/python2.7/dist-packages/SQLAlchemy-0.7.0-py2.7-linux-x86_64.egg/sqlalchemy/engine/base.py'
p3125
sg2997
(dp3126
S'engine'
p3127
S'Engine(postgres://imdb:imdbsecret@localhost/imdb)'
p3128
sS'engine.raw_connection'
p3129
S'<bound method Engine.raw_connection of Engine(postgres://imdb:imdbsecret@localhost/imdb)>'
p3130
sS'self'
p3131
S'<sqlalchemy.engine.base.Connection object>'
p3132
sS'self.__connection'
p3133
g3030
sS'connection'
p3134
S'None'
p3135
ssg3003
I844
sg3004
(dp3136
I839
S'        :meth:`.Engine.contextual_connect` methods.'
p3137
sI840
S''
sI841
S'        """'
p3138
sI842
S'        self.engine = engine'
p3139
sI843
S'        self.dialect = engine.dialect'
p3140
sI844
S'        self.__connection = connection or engine.raw_connection()'
p3141
sI845
S'        self.__transaction = None'
p3142
sI846
S'        self.should_close_with_result = close_with_result'
p3143
sI847
S'        self.__savepoint_seq = 0'
p3144
sI848
S'        self.__branch = _branch'
p3145
ssg3016
S'(self=<sqlalchemy.engine.base.Connection object>, engine=Engine(postgres://imdb:imdbsecret@localhost/imdb), connection=None, close_with_result=False, _branch=False, _execution_options=None)'
p3146
sg3018
g26
sa(dp3147
g2995
S'/usr/local/lib/python2.7/dist-packages/SQLAlchemy-0.7.0-py2.7-linux-x86_64.egg/sqlalchemy/engine/base.py'
p3148
sg2997
(dp3149
S'self'
p3150
S'Engine(postgres://imdb:imdbsecret@localhost/imdb)'
p3151
sS'self.pool.unique_connection'
p3152
S'<bound method QueuePool.unique_connection of <sqlalchemy.pool.QueuePool object>>'
p3153
sS'self.pool'
p3154
S'<sqlalchemy.pool.QueuePool object>'
p3155
ssg3003
I2143
sg3004
(dp3156
I2144
S''
sI2145
S''
sI2146
S'# This reconstructor is necessary so that pickles with the C extension or'
p3157
sI2147
S'# without use the same Binary format.'
p3158
sI2138
S'        return self.run_callable(self.dialect.has_table, table_name, schema)'
p3159
sI2139
S''
sI2140
S'    def raw_connection(self):'
p3160
sI2141
S'        """Return a DB-API connection."""'
p3161
sI2142
S''
sI2143
S'        return self.pool.unique_connection()'
p3162
ssg3016
S'(self=Engine(postgres://imdb:imdbsecret@localhost/imdb))'
p3163
sg3018
S'raw_connection'
p3164
sa(dp3165
g2995
S'/usr/local/lib/python2.7/dist-packages/SQLAlchemy-0.7.0-py2.7-linux-x86_64.egg/sqlalchemy/pool.py'
p3166
sg2997
(dp3167
S'self'
p3168
S'<sqlalchemy.pool.QueuePool object>'
p3169
sS').checkout'
p3170
g3030
sS'global _ConnectionFairy'
p3171
S"<class 'sqlalchemy.pool._ConnectionFairy'>"
p3172
ssg3003
I169
sg3004
(dp3173
I164
S'        This method is different from :meth:`.Pool.connect` only if the'
p3174
sI165
S'        ``use_threadlocal`` flag has been set to ``True``.'
p3175
sI166
S''
sI167
S'        """'
p3176
sI168
S''
sI169
S'        return _ConnectionFairy(self).checkout()'
p3177
sI170
S''
sI171
S'    def _create_connection(self):'
p3178
sI172
S'        """Called by subclasses to create a new ConnectionRecord."""'
p3179
sI173
S''
ssg3016
S'(self=<sqlalchemy.pool.QueuePool object>)'
p3180
sg3018
S'unique_connection'
p3181
sa(dp3182
g2995
S'/usr/local/lib/python2.7/dist-packages/SQLAlchemy-0.7.0-py2.7-linux-x86_64.egg/sqlalchemy/pool.py'
p3183
sg2997
(dp3184
S'rec'
p3185
g3030
sS'self'
p3186
S'<sqlalchemy.pool._ConnectionFairy object>'
p3187
sS'pool'
p3188
S'<sqlalchemy.pool.QueuePool object>'
p3189
sS'self._connection_record'
p3190
S'None'
p3191
sS'pool._do_get'
p3192
S'<bound method QueuePool._do_get of <sqlalchemy.pool.QueuePool object>>'
p3193
ssg3003
I370
sg3004
(dp3194
I365
S'    def __init__(self, pool):'
p3195
sI366
S'        self._pool = pool'
p3196
sI367
S'        self.__counter = 0'
p3197
sI368
S'        self._echo = _echo = pool._should_log_debug()'
p3198
sI369
S'        try:'
p3199
sI370
S'            rec = self._connection_record = pool._do_get()'
p3200
sI371
S'            conn = self.connection = self._connection_record.get_connection()'
p3201
sI372
S'            rec.fairy = weakref.ref('
p3202
sI373
S'                            self,'
p3203
sI374
S'                            lambda ref:_finalize_fairy(conn, rec, pool, ref, _echo)'
p3204
ssg3016
S'(self=<sqlalchemy.pool._ConnectionFairy object>, pool=<sqlalchemy.pool.QueuePool object>)'
p3205
sg3018
g26
sa(dp3206
g2995
S'/usr/local/lib/python2.7/dist-packages/SQLAlchemy-0.7.0-py2.7-linux-x86_64.egg/sqlalchemy/pool.py'
p3207
sg2997
(dp3208
S'self'
p3209
S'<sqlalchemy.pool.QueuePool object>'
p3210
sS'self._create_connection'
p3211
S'<bound method QueuePool._create_connection of <sqlalchemy.pool.QueuePool object>>'
p3212
sS'con'
p3213
g3030
ssg3003
I696
sg3004
(dp3214
I691
S'                if self._overflow_lock is not None:'
p3215
sI692
S'                    self._overflow_lock.release()'
p3216
sI693
S'                return self._do_get()'
p3217
sI694
S''
sI695
S'            try:'
p3218
sI696
S'                con = self._create_connection()'
p3219
sI697
S'                self._overflow += 1'
p3220
sI698
S'            finally:'
p3221
sI699
S'                if self._overflow_lock is not None:'
p3222
sI700
S'                    self._overflow_lock.release()'
p3223
ssg3016
S'(self=<sqlalchemy.pool.QueuePool object>)'
p3224
sg3018
S'_do_get'
p3225
sa(dp3226
g2995
S'/usr/local/lib/python2.7/dist-packages/SQLAlchemy-0.7.0-py2.7-linux-x86_64.egg/sqlalchemy/pool.py'
p3227
sg2997
(dp3228
S'self'
p3229
S'<sqlalchemy.pool.QueuePool object>'
p3230
sS'global _ConnectionRecord'
p3231
S"<class 'sqlalchemy.pool._ConnectionRecord'>"
p3232
ssg3003
I174
sg3004
(dp3233
I169
S'        return _ConnectionFairy(self).checkout()'
p3234
sI170
S''
sI171
S'    def _create_connection(self):'
p3235
sI172
S'        """Called by subclasses to create a new ConnectionRecord."""'
p3236
sI173
S''
sI174
S'        return _ConnectionRecord(self)'
p3237
sI175
S''
sI176
S'    def recreate(self):'
p3238
sI177
S'        """Return a new :class:`.Pool`, of the same class as this one'
p3239
sI178
S'        and configured with identical creation arguments.'
p3240
ssg3016
S'(self=<sqlalchemy.pool.QueuePool object>)'
p3241
sg3018
S'_create_connection'
p3242
sa(dp3243
g2995
S'/usr/local/lib/python2.7/dist-packages/SQLAlchemy-0.7.0-py2.7-linux-x86_64.egg/sqlalchemy/pool.py'
p3244
sg2997
(dp3245
S'self'
p3246
S'<sqlalchemy.pool._ConnectionRecord object>'
p3247
sS'self.connection'
p3248
g3030
sS'self.__connect'
p3249
g3030
ssg3003
I255
sg3004
(dp3250
I256
S'        self.info = {}'
p3251
sI257
S''
sI258
S'        pool.dispatch.first_connect.exec_once(self.connection, self)'
p3252
sI259
S'        pool.dispatch.connect(self.connection, self)'
p3253
sI250
S'class _ConnectionRecord(object):'
p3254
sI251
S'    finalize_callback = None'
p3255
sI252
S''
sI253
S'    def __init__(self, pool):'
p3256
sI254
S'        self.__pool = pool'
p3257
sI255
S'        self.connection = self.__connect()'
p3258
ssg3016
S'(self=<sqlalchemy.pool._ConnectionRecord object>, pool=<sqlalchemy.pool.QueuePool object>)'
p3259
sg3018
g26
sa(dp3260
g2995
S'/usr/local/lib/python2.7/dist-packages/SQLAlchemy-0.7.0-py2.7-linux-x86_64.egg/sqlalchemy/pool.py'
p3261
sg2997
(dp3262
S'connection'
p3263
g3030
sS'self.__pool'
p3264
g3030
sS'self'
p3265
S'<sqlalchemy.pool._ConnectionRecord object>'
p3266
ssg3003
I315
sg3004
(dp3267
I310
S'                        self.connection, e)'
p3268
sI311
S''
sI312
S'    def __connect(self):'
p3269
sI313
S'        try:'
p3270
sI314
S'            self.starttime = time.time()'
p3271
sI315
S'            connection = self.__pool._creator()'
p3272
sI316
S'            self.__pool.logger.debug("Created new connection %r", connection)'
p3273
sI317
S'            return connection'
p3274
sI318
S'        except Exception, e:'
p3275
sI319
S'            self.__pool.logger.debug("Error on connect(): %s", e)'
p3276
ssg3016
S'(self=<sqlalchemy.pool._ConnectionRecord object>)'
p3277
sg3018
S'__connect'
p3278
sa(dp3279
g2995
S'/usr/local/lib/python2.7/dist-packages/SQLAlchemy-0.7.0-py2.7-linux-x86_64.egg/sqlalchemy/engine/strategies.py'
p3280
sg2997
(dp3281
S'dialect'
p3282
S'<sqlalchemy.dialects.postgresql.psycopg2.PGDialect_psycopg2 object>'
p3283
sS'cparams'
p3284
S"{'database': 'imdb', 'host': 'localhost', 'password': 'imdbsecret', 'user': 'imdb'}"
p3285
sS'cargs'
p3286
S'[]'
p3287
sS'dialect.connect'
p3288
S'<bound method PGDialect_psycopg2.connect of <sql...s.postgresql.psycopg2.PGDialect_psycopg2 object>>'
p3289
ssg3003
I80
sg3004
(dp3290
I75
S'        # look for existing pool or create'
p3291
sI76
S"        pool = kwargs.pop('pool', None)"
p3292
sI77
S'        if pool is None:'
p3293
sI78
S'            def connect():'
p3294
sI79
S'                try:'
p3295
sI80
S'                    return dialect.connect(*cargs, **cparams)'
p3296
sI81
S'                except Exception, e:'
p3297
sI82
S'                    # Py3K'
p3298
sI83
S'                    #raise exc.DBAPIError.instance(None, None,'
p3299
sI84
S'                    #                   e, dialect.dbapi.Error) from e'
p3300
ssg3016
S'()'
p3301
sg3018
g3123
sa(dp3302
g2995
S'/usr/local/lib/python2.7/dist-packages/SQLAlchemy-0.7.0-py2.7-linux-x86_64.egg/sqlalchemy/engine/default.py'
p3303
sg2997
(dp3304
S'self.dbapi.connect'
p3305
S'<function connect>'
p3306
sS'self'
p3307
S'<sqlalchemy.dialects.postgresql.psycopg2.PGDialect_psycopg2 object>'
p3308
sS'cparams'
p3309
S"{'database': 'imdb', 'host': 'localhost', 'password': 'imdbsecret', 'user': 'imdb'}"
p3310
sS'self.dbapi'
p3311
S"<module 'psycopg2' from '/usr/lib/python2.7/dist-packages/psycopg2/__init__.pyc'>"
p3312
sS'cargs'
p3313
S'()'
p3314
ssg3003
I275
sg3004
(dp3315
I270
S'                "Identifier \'%s\' exceeds maximum length of %d characters" %'
p3316
sI271
S'                (ident, self.max_identifier_length)'
p3317
sI272
S'            )'
p3318
sI273
S''
sI274
S'    def connect(self, *cargs, **cparams):'
p3319
sI275
S'        return self.dbapi.connect(*cargs, **cparams)'
p3320
sI276
S''
sI277
S'    def create_connect_args(self, url):'
p3321
sI278
S'        opts = url.translate_connect_args()'
p3322
sI279
S'        opts.update(url.query)'
p3323
ssg3016
S"(self=<sqlalchemy.dialects.postgresql.psycopg2.PGDialect_psycopg2 object>, *cargs=(), **cparams={'database': 'imdb', 'host': 'localhost', 'password': 'imdbsecret', 'user': 'imdb'})"
p3324
sg3018
g3123
sa(dp3325
g2995
S'/usr/lib/python2.7/dist-packages/psycopg2/__init__.py'
p3326
sg2997
(dp3327
S'async'
p3328
g49
sS'connection_factory'
p3329
S'None'
p3330
ssg3003
I179
sg3004
(dp3331
I174
S''
sI175
S'        if not dsn:'
p3332
sI176
S"            raise InterfaceError('missing dsn and no parameters')"
p3333
sI177
S''
sI178
S'    return _connect(dsn,'
p3334
sI179
S'        connection_factory=connection_factory, async=async)'
p3335
sI180
S''
sI181
S''
sI182
S"__all__ = filter(lambda k: not k.startswith('_'), locals().keys())"
p3336
sI183
S''
ssg3016
S"(dsn='dbname=imdb user=imdb password=imdbsecret host=localhost', database='imdb', user='imdb', password='imdbsecret', host='localhost', port=None, connection_factory=None, async=False, **kwargs={})"
p3337
sg3018
g3123
sasS'pyver'
p3338
S'Python 2.7.3: /usr/bin/python'
p3339
sS'session'
p3340
g71
(g72
g73
NtRp3341
(dp3342
g76
(dp3343
sg78
(lp3344
g71
(g80
g73
NtRp3345
(dp3346
g76
(dp3347
g84
I5
ssg85
Nsg78
(lp3348
g71
(g87
g73
NtRp3349
(dp3350
g76
(dp3351
sg85
g3345
sg78
(lp3352
g71
(g92
g73
NtRp3353
(dp3354
g76
(dp3355
g96
g97
ssg85
g3349
sg78
(lp3356
S'last_query'
p3357
asbag71
(g92
g73
NtRp3358
(dp3359
g76
(dp3360
g103
g104
ssg85
g3349
sg78
(lp3361
S':'
asbag71
(g92
g73
NtRp3362
(dp3363
g76
(dp3364
sg85
g3349
sg78
(lp3365
g71
(g72
g73
NtRp3366
(dp3367
g76
(dp3368
g84
I5
ssg85
g3362
sg78
(lp3369
S'db.features.id>0'
p3370
asbasbasbasbasbsS'etype'
p3371
S"<class 'sqlalchemy.exc.OperationalError'>"
p3372
sS'date'
p3373
S'Sun Jun 24 05:43:04 2012'
p3374
sS'response'
p3375
g71
(g72
g73
NtRp3376
(dp3377
g76
(dp3378
sg78
(lp3379
g71
(g80
g73
NtRp3380
(dp3381
g76
(dp3382
g84
I5
ssg85
Nsg78
(lp3383
g71
(g87
g73
NtRp3384
(dp3385
g76
(dp3386
sg85
g3380
sg78
(lp3387
g71
(g92
g73
NtRp3388
(dp3389
g76
(dp3390
g96
g97
ssg85
g3384
sg78
(lp3391
g181
asbag71
(g92
g73
NtRp3392
(dp3393
g76
(dp3394
g103
g104
ssg85
g3384
sg78
(lp3395
S':'
asbag71
(g92
g73
NtRp3396
(dp3397
g76
(dp3398
sg85
g3384
sg78
(lp3399
g71
(g72
g73
NtRp3400
(dp3401
g76
(dp3402
g84
I5
ssg85
g3396
sg78
(lp3403
S'<cStringIO.StringO object at 0x7f2de03eef10>'
p3404
asbasbasbag71
(g87
g73
NtRp3405
(dp3406
g76
(dp3407
sg85
g3380
sg78
(lp3408
g71
(g92
g73
NtRp3409
(dp3410
g76
(dp3411
g96
g97
ssg85
g3405
sg78
(lp3412
g247
asbag71
(g92
g73
NtRp3413
(dp3414
g76
(dp3415
g103
g104
ssg85
g3405
sg78
(lp3416
S':'
asbag71
(g92
g73
NtRp3417
(dp3418
g76
(dp3419
sg85
g3405
sg78
(lp3420
g71
(g72
g73
NtRp3421
(dp3422
g76
(dp3423
g84
I5
ssg85
g3417
sg78
(lp3424
g71
(g80
g73
NtRp3425
(dp3426
g76
(dp3427
g84
I4
ssg85
Nsg78
(lp3428
g71
(g87
g73
NtRp3429
(dp3430
g76
(dp3431
sg85
g3425
sg78
(lp3432
g71
(g92
g73
NtRp3433
(dp3434
g76
(dp3435
g96
g97
ssg85
g3429
sg78
(lp3436
S'session_id_milo'
p3437
asbag71
(g92
g73
NtRp3438
(dp3439
g76
(dp3440
g103
g104
ssg85
g3429
sg78
(lp3441
S':'
asbag71
(g92
g73
NtRp3442
(dp3443
g76
(dp3444
sg85
g3429
sg78
(lp3445
g71
(g72
g73
NtRp3446
(dp3447
g76
(dp3448
g84
I4
ssg85
g3442
sg78
(lp3449
g71
(g80
g73
NtRp3450
(dp3451
g76
(dp3452
g84
I3
ssg85
Nsg78
(lp3453
g71
(g87
g73
NtRp3454
(dp3455
g76
(dp3456
sg85
g3450
sg78
(lp3457
g71
(g92
g73
NtRp3458
(dp3459
g76
(dp3460
g96
g97
ssg85
g3454
sg78
(lp3461
g297
asbag71
(g92
g73
NtRp3462
(dp3463
g76
(dp3464
g103
g104
ssg85
g3454
sg78
(lp3465
S':'
asbag71
(g92
g73
NtRp3466
(dp3467
g76
(dp3468
sg85
g3454
sg78
(lp3469
g71
(g72
g73
NtRp3470
(dp3471
g76
(dp3472
g84
I3
ssg85
g3466
sg78
(lp3473
S''
asbasbasbag71
(g87
g73
NtRp3474
(dp3475
g76
(dp3476
sg85
g3450
sg78
(lp3477
g71
(g92
g73
NtRp3478
(dp3479
g76
(dp3480
g96
g97
ssg85
g3474
sg78
(lp3481
g318
asbag71
(g92
g73
NtRp3482
(dp3483
g76
(dp3484
g103
g104
ssg85
g3474
sg78
(lp3485
S':'
asbag71
(g92
g73
NtRp3486
(dp3487
g76
(dp3488
sg85
g3474
sg78
(lp3489
g71
(g72
g73
NtRp3490
(dp3491
g76
(dp3492
g84
I3
ssg85
g3486
sg78
(lp3493
S''
asbasbasbag71
(g87
g73
NtRp3494
(dp3495
g76
(dp3496
sg85
g3450
sg78
(lp3497
g71
(g92
g73
NtRp3498
(dp3499
g76
(dp3500
g96
g97
ssg85
g3494
sg78
(lp3501
g339
asbag71
(g92
g73
NtRp3502
(dp3503
g76
(dp3504
g103
g104
ssg85
g3494
sg78
(lp3505
S':'
asbag71
(g92
g73
NtRp3506
(dp3507
g76
(dp3508
sg85
g3494
sg78
(lp3509
g71
(g72
g73
NtRp3510
(dp3511
g76
(dp3512
g84
I3
ssg85
g3506
sg78
(lp3513
S''
asbasbasbag71
(g87
g73
NtRp3514
(dp3515
g76
(dp3516
sg85
g3450
sg78
(lp3517
g71
(g92
g73
NtRp3518
(dp3519
g76
(dp3520
g96
g97
ssg85
g3514
sg78
(lp3521
g360
asbag71
(g92
g73
NtRp3522
(dp3523
g76
(dp3524
g103
g104
ssg85
g3514
sg78
(lp3525
S':'
asbag71
(g92
g73
NtRp3526
(dp3527
g76
(dp3528
sg85
g3514
sg78
(lp3529
g71
(g72
g73
NtRp3530
(dp3531
g76
(dp3532
g84
I3
ssg85
g3526
sg78
(lp3533
S''
asbasbasbag71
(g87
g73
NtRp3534
(dp3535
g76
(dp3536
sg85
g3450
sg78
(lp3537
g71
(g92
g73
NtRp3538
(dp3539
g76
(dp3540
g96
g97
ssg85
g3534
sg78
(lp3541
g381
asbag71
(g92
g73
NtRp3542
(dp3543
g76
(dp3544
g103
g104
ssg85
g3534
sg78
(lp3545
S':'
asbag71
(g92
g73
NtRp3546
(dp3547
g76
(dp3548
sg85
g3534
sg78
(lp3549
g71
(g72
g73
NtRp3550
(dp3551
g76
(dp3552
g84
I3
ssg85
g3546
sg78
(lp3553
S''
asbasbasbag71
(g87
g73
NtRp3554
(dp3555
g76
(dp3556
sg85
g3450
sg78
(lp3557
g71
(g92
g73
NtRp3558
(dp3559
g76
(dp3560
g96
g97
ssg85
g3554
sg78
(lp3561
g402
asbag71
(g92
g73
NtRp3562
(dp3563
g76
(dp3564
g103
g104
ssg85
g3554
sg78
(lp3565
S':'
asbag71
(g92
g73
NtRp3566
(dp3567
g76
(dp3568
sg85
g3554
sg78
(lp3569
g71
(g72
g73
NtRp3570
(dp3571
g76
(dp3572
g84
I3
ssg85
g3566
sg78
(lp3573
S'/'
asbasbasbag71
(g87
g73
NtRp3574
(dp3575
g76
(dp3576
sg85
g3450
sg78
(lp3577
g71
(g92
g73
NtRp3578
(dp3579
g76
(dp3580
g96
g97
ssg85
g3574
sg78
(lp3581
g423
asbag71
(g92
g73
NtRp3582
(dp3583
g76
(dp3584
g103
g104
ssg85
g3574
sg78
(lp3585
S':'
asbag71
(g92
g73
NtRp3586
(dp3587
g76
(dp3588
sg85
g3574
sg78
(lp3589
g71
(g72
g73
NtRp3590
(dp3591
g76
(dp3592
g84
I3
ssg85
g3586
sg78
(lp3593
S''
asbasbasbag71
(g87
g73
NtRp3594
(dp3595
g76
(dp3596
sg85
g3450
sg78
(lp3597
g71
(g92
g73
NtRp3598
(dp3599
g76
(dp3600
g96
g97
ssg85
g3594
sg78
(lp3601
g444
asbag71
(g92
g73
NtRp3602
(dp3603
g76
(dp3604
g103
g104
ssg85
g3594
sg78
(lp3605
S':'
asbag71
(g92
g73
NtRp3606
(dp3607
g76
(dp3608
sg85
g3594
sg78
(lp3609
g71
(g72
g73
NtRp3610
(dp3611
g76
(dp3612
g84
I3
ssg85
g3606
sg78
(lp3613
S''
asbasbasbasbasbasbasbasbasbasbasbag71
(g87
g73
NtRp3614
(dp3615
g76
(dp3616
sg85
g3380
sg78
(lp3617
g71
(g92
g73
NtRp3618
(dp3619
g76
(dp3620
g96
g97
ssg85
g3614
sg78
(lp3621
S'delimiters'
p3622
asbag71
(g92
g73
NtRp3623
(dp3624
g76
(dp3625
g103
g104
ssg85
g3614
sg78
(lp3626
S':'
asbag71
(g92
g73
NtRp3627
(dp3628
g76
(dp3629
sg85
g3614
sg78
(lp3630
g71
(g72
g73
NtRp3631
(dp3632
g76
(dp3633
g84
I5
ssg85
g3627
sg78
(lp3634
g71
(g80
g73
NtRp3635
(dp3636
g76
(dp3637
g84
I4
ssg85
Nsg78
(lp3638
g71
(g87
g73
NtRp3639
(dp3640
g76
(dp3641
sg85
g3635
sg78
(lp3642
g71
(g92
g73
NtRp3643
(dp3644
g76
(dp3645
sg85
g3639
sg78
(lp3646
g71
(g72
g73
NtRp3647
(dp3648
g76
(dp3649
g84
I4
ssg85
g3643
sg78
(lp3650
S'{{'
p3651
asbasbasbag71
(g87
g73
NtRp3652
(dp3653
g76
(dp3654
sg85
g3635
sg78
(lp3655
g71
(g92
g73
NtRp3656
(dp3657
g76
(dp3658
sg85
g3652
sg78
(lp3659
g71
(g72
g73
NtRp3660
(dp3661
g76
(dp3662
g84
I4
ssg85
g3656
sg78
(lp3663
S'}}'
p3664
asbasbasbasbasbasbasbag71
(g87
g73
NtRp3665
(dp3666
g76
(dp3667
sg85
g3380
sg78
(lp3668
g71
(g92
g73
NtRp3669
(dp3670
g76
(dp3671
g96
g97
ssg85
g3665
sg78
(lp3672
S'files'
p3673
asbag71
(g92
g73
NtRp3674
(dp3675
g76
(dp3676
g103
g104
ssg85
g3665
sg78
(lp3677
S':'
asbag71
(g92
g73
NtRp3678
(dp3679
g76
(dp3680
sg85
g3665
sg78
(lp3681
g71
(g72
g73
NtRp3682
(dp3683
g76
(dp3684
g84
I5
ssg85
g3678
sg78
(lp3685
g71
(g80
g73
NtRp3686
(dp3687
g76
(dp3688
g84
I4
ssg85
Nsg78
(lp3689
sbasbasbasbag71
(g87
g73
NtRp3690
(dp3691
g76
(dp3692
sg85
g3380
sg78
(lp3693
g71
(g92
g73
NtRp3694
(dp3695
g76
(dp3696
g96
g97
ssg85
g3690
sg78
(lp3697
S'flash'
p3698
asbag71
(g92
g73
NtRp3699
(dp3700
g76
(dp3701
g103
g104
ssg85
g3690
sg78
(lp3702
S':'
asbag71
(g92
g73
NtRp3703
(dp3704
g76
(dp3705
sg85
g3690
sg78
(lp3706
g71
(g72
g73
NtRp3707
(dp3708
g76
(dp3709
g84
I5
ssg85
g3703
sg78
(lp3710
S''
asbasbasbag71
(g87
g73
NtRp3711
(dp3712
g76
(dp3713
sg85
g3380
sg78
(lp3714
g71
(g92
g73
NtRp3715
(dp3716
g76
(dp3717
g96
g97
ssg85
g3711
sg78
(lp3718
S'generic_patterns'
p3719
asbag71
(g92
g73
NtRp3720
(dp3721
g76
(dp3722
g103
g104
ssg85
g3711
sg78
(lp3723
S':'
asbag71
(g92
g73
NtRp3724
(dp3725
g76
(dp3726
sg85
g3711
sg78
(lp3727
g71
(g72
g73
NtRp3728
(dp3729
g76
(dp3730
g84
I5
ssg85
g3724
sg78
(lp3731
g71
(g80
g73
NtRp3732
(dp3733
g76
(dp3734
g84
I4
ssg85
Nsg78
(lp3735
g71
(g87
g73
NtRp3736
(dp3737
g76
(dp3738
sg85
g3732
sg78
(lp3739
g71
(g92
g73
NtRp3740
(dp3741
g76
(dp3742
sg85
g3736
sg78
(lp3743
g71
(g72
g73
NtRp3744
(dp3745
g76
(dp3746
g84
I4
ssg85
g3740
sg78
(lp3747
S'*'
asbasbasbasbasbasbasbag71
(g87
g73
NtRp3748
(dp3749
g76
(dp3750
sg85
g3380
sg78
(lp3751
g71
(g92
g73
NtRp3752
(dp3753
g76
(dp3754
g96
g97
ssg85
g3748
sg78
(lp3755
S'headers'
p3756
asbag71
(g92
g73
NtRp3757
(dp3758
g76
(dp3759
g103
g104
ssg85
g3748
sg78
(lp3760
S':'
asbag71
(g92
g73
NtRp3761
(dp3762
g76
(dp3763
sg85
g3748
sg78
(lp3764
g71
(g72
g73
NtRp3765
(dp3766
g76
(dp3767
g84
I5
ssg85
g3761
sg78
(lp3768
g71
(g80
g73
NtRp3769
(dp3770
g76
(dp3771
g84
I4
ssg85
Nsg78
(lp3772
g71
(g87
g73
NtRp3773
(dp3774
g76
(dp3775
sg85
g3769
sg78
(lp3776
g71
(g92
g73
NtRp3777
(dp3778
g76
(dp3779
g96
g97
ssg85
g3773
sg78
(lp3780
S'Cache-Control'
p3781
asbag71
(g92
g73
NtRp3782
(dp3783
g76
(dp3784
g103
g104
ssg85
g3773
sg78
(lp3785
S':'
asbag71
(g92
g73
NtRp3786
(dp3787
g76
(dp3788
sg85
g3773
sg78
(lp3789
g71
(g72
g73
NtRp3790
(dp3791
g76
(dp3792
g84
I4
ssg85
g3786
sg78
(lp3793
S'no-store, no-cache, must-revalidate, post-check=0, pre-check=0'
p3794
asbasbasbag71
(g87
g73
NtRp3795
(dp3796
g76
(dp3797
sg85
g3769
sg78
(lp3798
g71
(g92
g73
NtRp3799
(dp3800
g76
(dp3801
g96
g97
ssg85
g3795
sg78
(lp3802
S'Content-Type'
p3803
asbag71
(g92
g73
NtRp3804
(dp3805
g76
(dp3806
g103
g104
ssg85
g3795
sg78
(lp3807
S':'
asbag71
(g92
g73
NtRp3808
(dp3809
g76
(dp3810
sg85
g3795
sg78
(lp3811
g71
(g72
g73
NtRp3812
(dp3813
g76
(dp3814
g84
I4
ssg85
g3808
sg78
(lp3815
S'text/html; charset=utf-8'
p3816
asbasbasbag71
(g87
g73
NtRp3817
(dp3818
g76
(dp3819
sg85
g3769
sg78
(lp3820
g71
(g92
g73
NtRp3821
(dp3822
g76
(dp3823
g96
g97
ssg85
g3817
sg78
(lp3824
S'Expires'
p3825
asbag71
(g92
g73
NtRp3826
(dp3827
g76
(dp3828
g103
g104
ssg85
g3817
sg78
(lp3829
S':'
asbag71
(g92
g73
NtRp3830
(dp3831
g76
(dp3832
sg85
g3817
sg78
(lp3833
g71
(g72
g73
NtRp3834
(dp3835
g76
(dp3836
g84
I4
ssg85
g3830
sg78
(lp3837
S'Sun, 24 Jun 2012 03:43:04 GMT'
p3838
asbasbasbag71
(g87
g73
NtRp3839
(dp3840
g76
(dp3841
sg85
g3769
sg78
(lp3842
g71
(g92
g73
NtRp3843
(dp3844
g76
(dp3845
g96
g97
ssg85
g3839
sg78
(lp3846
S'Pragma'
p3847
asbag71
(g92
g73
NtRp3848
(dp3849
g76
(dp3850
g103
g104
ssg85
g3839
sg78
(lp3851
S':'
asbag71
(g92
g73
NtRp3852
(dp3853
g76
(dp3854
sg85
g3839
sg78
(lp3855
g71
(g72
g73
NtRp3856
(dp3857
g76
(dp3858
g84
I4
ssg85
g3852
sg78
(lp3859
S'no-cache'
p3860
asbasbasbag71
(g87
g73
NtRp3861
(dp3862
g76
(dp3863
sg85
g3769
sg78
(lp3864
g71
(g92
g73
NtRp3865
(dp3866
g76
(dp3867
g96
g97
ssg85
g3861
sg78
(lp3868
S'X-Powered-By'
p3869
asbag71
(g92
g73
NtRp3870
(dp3871
g76
(dp3872
g103
g104
ssg85
g3861
sg78
(lp3873
S':'
asbag71
(g92
g73
NtRp3874
(dp3875
g76
(dp3876
sg85
g3861
sg78
(lp3877
g71
(g72
g73
NtRp3878
(dp3879
g76
(dp3880
g84
I4
ssg85
g3874
sg78
(lp3881
S'web2py'
p3882
asbasbasbasbasbasbasbag71
(g87
g73
NtRp3883
(dp3884
g76
(dp3885
sg85
g3380
sg78
(lp3886
g71
(g92
g73
NtRp3887
(dp3888
g76
(dp3889
g96
g97
ssg85
g3883
sg78
(lp3890
S'menu'
p3891
asbag71
(g92
g73
NtRp3892
(dp3893
g76
(dp3894
g103
g104
ssg85
g3883
sg78
(lp3895
S':'
asbag71
(g92
g73
NtRp3896
(dp3897
g76
(dp3898
sg85
g3883
sg78
(lp3899
g71
(g72
g73
NtRp3900
(dp3901
g76
(dp3902
g84
I5
ssg85
g3896
sg78
(lp3903
g71
(g80
g73
NtRp3904
(dp3905
g76
(dp3906
g84
I4
ssg85
Nsg78
(lp3907
sbasbasbasbag71
(g87
g73
NtRp3908
(dp3909
g76
(dp3910
sg85
g3380
sg78
(lp3911
g71
(g92
g73
NtRp3912
(dp3913
g76
(dp3914
g96
g97
ssg85
g3908
sg78
(lp3915
S'meta'
p3916
asbag71
(g92
g73
NtRp3917
(dp3918
g76
(dp3919
g103
g104
ssg85
g3908
sg78
(lp3920
S':'
asbag71
(g92
g73
NtRp3921
(dp3922
g76
(dp3923
sg85
g3908
sg78
(lp3924
g71
(g72
g73
NtRp3925
(dp3926
g76
(dp3927
g84
I5
ssg85
g3921
sg78
(lp3928
g71
(g80
g73
NtRp3929
(dp3930
g76
(dp3931
g84
I4
ssg85
Nsg78
(lp3932
sbasbasbasbag71
(g87
g73
NtRp3933
(dp3934
g76
(dp3935
sg85
g3380
sg78
(lp3936
g71
(g92
g73
NtRp3937
(dp3938
g76
(dp3939
g96
g97
ssg85
g3933
sg78
(lp3940
S'postprocessing'
p3941
asbag71
(g92
g73
NtRp3942
(dp3943
g76
(dp3944
g103
g104
ssg85
g3933
sg78
(lp3945
S':'
asbag71
(g92
g73
NtRp3946
(dp3947
g76
(dp3948
sg85
g3933
sg78
(lp3949
g71
(g72
g73
NtRp3950
(dp3951
g76
(dp3952
g84
I5
ssg85
g3946
sg78
(lp3953
g71
(g80
g73
NtRp3954
(dp3955
g76
(dp3956
g84
I4
ssg85
Nsg78
(lp3957
sbasbasbasbag71
(g87
g73
NtRp3958
(dp3959
g76
(dp3960
sg85
g3380
sg78
(lp3961
g71
(g92
g73
NtRp3962
(dp3963
g76
(dp3964
g96
g97
ssg85
g3958
sg78
(lp3965
S'session_file'
p3966
asbag71
(g92
g73
NtRp3967
(dp3968
g76
(dp3969
g103
g104
ssg85
g3958
sg78
(lp3970
S':'
asbag71
(g92
g73
NtRp3971
(dp3972
g76
(dp3973
sg85
g3958
sg78
(lp3974
g71
(g72
g73
NtRp3975
(dp3976
g76
(dp3977
g84
I5
ssg85
g3971
sg78
(lp3978
S"<open file '/home/goshawk/web2py/applications/milo/sessions/127.0.0.1-117091b6-3e7b-471e-b9d1-d77222fd06b0', mode 'rb+' at 0x7f2ddc6c7c90>"
p3979
asbasbasbag71
(g87
g73
NtRp3980
(dp3981
g76
(dp3982
sg85
g3380
sg78
(lp3983
g71
(g92
g73
NtRp3984
(dp3985
g76
(dp3986
g96
g97
ssg85
g3980
sg78
(lp3987
S'session_filename'
p3988
asbag71
(g92
g73
NtRp3989
(dp3990
g76
(dp3991
g103
g104
ssg85
g3980
sg78
(lp3992
S':'
asbag71
(g92
g73
NtRp3993
(dp3994
g76
(dp3995
sg85
g3980
sg78
(lp3996
g71
(g72
g73
NtRp3997
(dp3998
g76
(dp3999
g84
I5
ssg85
g3993
sg78
(lp4000
S'/home/goshawk/web2py/applications/milo/sessions/127.0.0.1-117091b6-3e7b-471e-b9d1-d77222fd06b0'
p4001
asbasbasbag71
(g87
g73
NtRp4002
(dp4003
g76
(dp4004
sg85
g3380
sg78
(lp4005
g71
(g92
g73
NtRp4006
(dp4007
g76
(dp4008
g96
g97
ssg85
g4002
sg78
(lp4009
S'session_id'
p4010
asbag71
(g92
g73
NtRp4011
(dp4012
g76
(dp4013
g103
g104
ssg85
g4002
sg78
(lp4014
S':'
asbag71
(g92
g73
NtRp4015
(dp4016
g76
(dp4017
sg85
g4002
sg78
(lp4018
g71
(g72
g73
NtRp4019
(dp4020
g76
(dp4021
g84
I5
ssg85
g4015
sg78
(lp4022
S'127.0.0.1-117091b6-3e7b-471e-b9d1-d77222fd06b0'
p4023
asbasbasbag71
(g87
g73
NtRp4024
(dp4025
g76
(dp4026
sg85
g3380
sg78
(lp4027
g71
(g92
g73
NtRp4028
(dp4029
g76
(dp4030
g96
g97
ssg85
g4024
sg78
(lp4031
S'session_id_name'
p4032
asbag71
(g92
g73
NtRp4033
(dp4034
g76
(dp4035
g103
g104
ssg85
g4024
sg78
(lp4036
S':'
asbag71
(g92
g73
NtRp4037
(dp4038
g76
(dp4039
sg85
g4024
sg78
(lp4040
g71
(g72
g73
NtRp4041
(dp4042
g76
(dp4043
g84
I5
ssg85
g4037
sg78
(lp4044
g3437
asbasbasbag71
(g87
g73
NtRp4045
(dp4046
g76
(dp4047
sg85
g3380
sg78
(lp4048
g71
(g92
g73
NtRp4049
(dp4050
g76
(dp4051
g96
g97
ssg85
g4045
sg78
(lp4052
S'session_locked'
p4053
asbag71
(g92
g73
NtRp4054
(dp4055
g76
(dp4056
g103
g104
ssg85
g4045
sg78
(lp4057
S':'
asbag71
(g92
g73
NtRp4058
(dp4059
g76
(dp4060
sg85
g4045
sg78
(lp4061
g71
(g72
g73
NtRp4062
(dp4063
g76
(dp4064
g84
I5
ssg85
g4058
sg78
(lp4065
g1564
asbasbasbag71
(g87
g73
NtRp4066
(dp4067
g76
(dp4068
sg85
g3380
sg78
(lp4069
g71
(g92
g73
NtRp4070
(dp4071
g76
(dp4072
g96
g97
ssg85
g4066
sg78
(lp4073
S'session_new'
p4074
asbag71
(g92
g73
NtRp4075
(dp4076
g76
(dp4077
g103
g104
ssg85
g4066
sg78
(lp4078
S':'
asbag71
(g92
g73
NtRp4079
(dp4080
g76
(dp4081
sg85
g4066
sg78
(lp4082
g71
(g72
g73
NtRp4083
(dp4084
g76
(dp4085
g84
I5
ssg85
g4079
sg78
(lp4086
g49
asbasbasbag71
(g87
g73
NtRp4087
(dp4088
g76
(dp4089
sg85
g3380
sg78
(lp4090
g71
(g92
g73
NtRp4091
(dp4092
g76
(dp4093
g96
g97
ssg85
g4087
sg78
(lp4094
S'status'
p4095
asbag71
(g92
g73
NtRp4096
(dp4097
g76
(dp4098
g103
g104
ssg85
g4087
sg78
(lp4099
S':'
asbag71
(g92
g73
NtRp4100
(dp4101
g76
(dp4102
sg85
g4087
sg78
(lp4103
g71
(g72
g73
NtRp4104
(dp4105
g76
(dp4106
g84
I5
ssg85
g4100
sg78
(lp4107
S'200'
p4108
asbasbasbag71
(g87
g73
NtRp4109
(dp4110
g76
(dp4111
sg85
g3380
sg78
(lp4112
g71
(g92
g73
NtRp4113
(dp4114
g76
(dp4115
g96
g97
ssg85
g4109
sg78
(lp4116
g2271
asbag71
(g92
g73
NtRp4117
(dp4118
g76
(dp4119
g103
g104
ssg85
g4109
sg78
(lp4120
S':'
asbag71
(g92
g73
NtRp4121
(dp4122
g76
(dp4123
sg85
g4109
sg78
(lp4124
g71
(g72
g73
NtRp4125
(dp4126
g76
(dp4127
g84
I5
ssg85
g4121
sg78
(lp4128
g2284
asbasbasbag71
(g87
g73
NtRp4129
(dp4130
g76
(dp4131
sg85
g3380
sg78
(lp4132
g71
(g92
g73
NtRp4133
(dp4134
g76
(dp4135
g96
g97
ssg85
g4129
sg78
(lp4136
S'view'
p4137
asbag71
(g92
g73
NtRp4138
(dp4139
g76
(dp4140
g103
g104
ssg85
g4129
sg78
(lp4141
S':'
asbag71
(g92
g73
NtRp4142
(dp4143
g76
(dp4144
sg85
g4129
sg78
(lp4145
g71
(g72
g73
NtRp4146
(dp4147
g76
(dp4148
g84
I5
ssg85
g4142
sg78
(lp4149
S'appadmin/select.html'
p4150
asbasbasbasbasbsS'locals'
p4151
(dp4152
S'database'
p4153
S"'imdb'"
p4154
sS'items'
p4155
S"[('dbname', 'imdb'), ('user', 'imdb'), ('password', 'imdbsecret'), ('host', 'localhost')]"
p4156
sS'k'
S"'host'"
p4157
sS'kwargs'
p4158
g3114
sS'connection_factory'
p4159
S'None'
p4160
sS'dsn'
p4161
S"'dbname=imdb user=imdb password=imdbsecret host=localhost'"
p4162
sS'host'
p4163
S"'localhost'"
p4164
sS'user'
p4165
S"'imdb'"
p4166
sS'v'
S"'localhost'"
p4167
sS'async'
p4168
g49
sS'password'
p4169
S"'imdbsecret'"
p4170
sS'port'
p4171
S'None'
p4172
sssS'traceback'
p4173
S'Traceback (most recent call last):\n  File "/home/goshawk/web2py/gluon/restricted.py", line 205, in restricted\n    exec ccode in environment\n  File "/home/goshawk/web2py/applications/milo/models/db.py", line 86, in <module>\n    im = imdb.IMDb(\'sql\', uri=imdb_connection_str)\n  File "/usr/local/lib/python2.7/dist-packages/imdb/__init__.py", line 199, in IMDb\n    return IMDbSqlAccessSystem(*arguments, **keywords)\n  File "/usr/local/lib/python2.7/dist-packages/imdb/parser/sql/__init__.py", line 595, in __init__\n    self._connection = setConnection(uri, DB_TABLES)\n  File "/usr/local/lib/python2.7/dist-packages/imdb/parser/sql/alchemyadapter.py", line 486, in setConnection\n    eng_conn = engine.connect()\n  File "/usr/local/lib/python2.7/dist-packages/SQLAlchemy-0.7.0-py2.7-linux-x86_64.egg/sqlalchemy/engine/base.py", line 2080, in connect\n    return self._connection_cls(self, **kwargs)\n  File "/usr/local/lib/python2.7/dist-packages/SQLAlchemy-0.7.0-py2.7-linux-x86_64.egg/sqlalchemy/engine/base.py", line 844, in __init__\n    self.__connection = connection or engine.raw_connection()\n  File "/usr/local/lib/python2.7/dist-packages/SQLAlchemy-0.7.0-py2.7-linux-x86_64.egg/sqlalchemy/engine/base.py", line 2143, in raw_connection\n    return self.pool.unique_connection()\n  File "/usr/local/lib/python2.7/dist-packages/SQLAlchemy-0.7.0-py2.7-linux-x86_64.egg/sqlalchemy/pool.py", line 169, in unique_connection\n    return _ConnectionFairy(self).checkout()\n  File "/usr/local/lib/python2.7/dist-packages/SQLAlchemy-0.7.0-py2.7-linux-x86_64.egg/sqlalchemy/pool.py", line 370, in __init__\n    rec = self._connection_record = pool._do_get()\n  File "/usr/local/lib/python2.7/dist-packages/SQLAlchemy-0.7.0-py2.7-linux-x86_64.egg/sqlalchemy/pool.py", line 696, in _do_get\n    con = self._create_connection()\n  File "/usr/local/lib/python2.7/dist-packages/SQLAlchemy-0.7.0-py2.7-linux-x86_64.egg/sqlalchemy/pool.py", line 174, in _create_connection\n    return _ConnectionRecord(self)\n  File "/usr/local/lib/python2.7/dist-packages/SQLAlchemy-0.7.0-py2.7-linux-x86_64.egg/sqlalchemy/pool.py", line 255, in __init__\n    self.connection = self.__connect()\n  File "/usr/local/lib/python2.7/dist-packages/SQLAlchemy-0.7.0-py2.7-linux-x86_64.egg/sqlalchemy/pool.py", line 315, in __connect\n    connection = self.__pool._creator()\n  File "/usr/local/lib/python2.7/dist-packages/SQLAlchemy-0.7.0-py2.7-linux-x86_64.egg/sqlalchemy/engine/strategies.py", line 80, in connect\n    return dialect.connect(*cargs, **cparams)\n  File "/usr/local/lib/python2.7/dist-packages/SQLAlchemy-0.7.0-py2.7-linux-x86_64.egg/sqlalchemy/engine/default.py", line 275, in connect\n    return self.dbapi.connect(*cargs, **cparams)\n  File "/usr/lib/python2.7/dist-packages/psycopg2/__init__.py", line 179, in connect\n    connection_factory=connection_factory, async=async)\nOperationalError: (OperationalError) FATAL:  remaining connection slots are reserved for non-replication superuser connections\n None None\n'
p4174
s.